GAS LISTING /tmp/ccY5MWYK.s 			page 1


   1              		.file	"_delete.cpp"
   2              		.option pic
   3              		.option norelax
   4              		.text
   5              	.Ltext0:
   6              		.align	2
   7              		.globl	_ZdlPv
   9              	_ZdlPv:
  10              	.LFB0:
  11              		.file 1 "src/_delete.cpp"
   1:src/_delete.cpp **** //
   2:src/_delete.cpp **** // Created by os on 7/20/22.
   3:src/_delete.cpp **** //
   4:src/_delete.cpp **** #include "../h/syscall_c.hpp"
   5:src/_delete.cpp **** #include "../lib/mem.h"
   6:src/_delete.cpp **** void operator delete(void *np) noexcept
   7:src/_delete.cpp **** {
  12              		.loc 1 7 1
  13              		.cfi_startproc
  14              		.cfi_personality 0x9b,DW.ref.__gxx_personality_v0
  15              		.cfi_lsda 0x1b,.LLSDA0
  16              	.LVL0:
  17 0000 130101FF 		addi	sp,sp,-16
  18              		.cfi_def_cfa_offset 16
  19 0004 23341100 		sd	ra,8(sp)
  20 0008 23308100 		sd	s0,0(sp)
  21              		.cfi_offset 1, -8
  22              		.cfi_offset 8, -16
  23 000c 13040101 		addi	s0,sp,16
  24              		.cfi_def_cfa 8, 0
   8:src/_delete.cpp ****      __mem_free(np);
  25              		.loc 1 8 6
  26              		.loc 1 8 16 is_stmt 0
  27 0010 97000000 		call	__mem_free@plt
  27      E7800000 
  28              	.LVL1:
   9:src/_delete.cpp **** }
  29              		.loc 1 9 1
  30 0018 83308100 		ld	ra,8(sp)
  31              		.cfi_restore 1
  32 001c 03340100 		ld	s0,0(sp)
  33              		.cfi_restore 8
  34              		.cfi_def_cfa 2, 16
  35 0020 13010101 		addi	sp,sp,16
  36              		.cfi_def_cfa_offset 0
  37 0024 67800000 		jr	ra
  38              		.cfi_endproc
  39              	.LFE0:
  40              		.globl	__gxx_personality_v0
  41              		.section	.gcc_except_table,"a",@progbits
  42              	.LLSDA0:
  43 0000 FF       		.byte	0xff
  44 0001 FF       		.byte	0xff
  45 0002 03       		.byte	0x3
  46 0003 00       		.byte	0
  47              		.text
  49              		.align	2
GAS LISTING /tmp/ccY5MWYK.s 			page 2


  50              		.globl	_ZdaPv
  52              	_ZdaPv:
  53              	.LFB1:
  10:src/_delete.cpp **** void  operator delete[](void *np)noexcept
  11:src/_delete.cpp **** {
  54              		.loc 1 11 1 is_stmt 1
  55              		.cfi_startproc
  56              		.cfi_personality 0x9b,DW.ref.__gxx_personality_v0
  57              		.cfi_lsda 0x1b,.LLSDA1
  58              	.LVL2:
  59 0028 130101FF 		addi	sp,sp,-16
  60              		.cfi_def_cfa_offset 16
  61 002c 23341100 		sd	ra,8(sp)
  62 0030 23308100 		sd	s0,0(sp)
  63              		.cfi_offset 1, -8
  64              		.cfi_offset 8, -16
  65 0034 13040101 		addi	s0,sp,16
  66              		.cfi_def_cfa 8, 0
  12:src/_delete.cpp ****      __mem_free(np);
  67              		.loc 1 12 6
  68              		.loc 1 12 16 is_stmt 0
  69 0038 97000000 		call	__mem_free@plt
  69      E7800000 
  70              	.LVL3:
  13:src/_delete.cpp **** }...
  71              		.loc 1 13 1
  72 0040 83308100 		ld	ra,8(sp)
  73              		.cfi_restore 1
  74 0044 03340100 		ld	s0,0(sp)
  75              		.cfi_restore 8
  76              		.cfi_def_cfa 2, 16
  77 0048 13010101 		addi	sp,sp,16
  78              		.cfi_def_cfa_offset 0
  79 004c 67800000 		jr	ra
  80              		.cfi_endproc
  81              	.LFE1:
  82              		.section	.gcc_except_table
  83              	.LLSDA1:
  84 0004 FF       		.byte	0xff
  85 0005 FF       		.byte	0xff
  86 0006 03       		.byte	0x3
  87 0007 00       		.byte	0
  88              		.text
  90              	.Letext0:
  91              		.file 2 "src/../h/../lib/hw.h"
  92              		.file 3 "src/../h/syscall_c.hpp"
  93              		.file 4 "src/../lib/mem.h"
 634              		.align	3
 637              	DW.ref.__gxx_personality_v0:
 638 0000 00000000 		.dword	__gxx_personality_v0
 638      00000000 
 639              		.ident	"GCC: (Ubuntu 9.4.0-1ubuntu1~20.04) 9.4.0"
 640              		.section	.note.GNU-stack,"",@progbits
GAS LISTING /tmp/ccY5MWYK.s 			page 3


DEFINED SYMBOLS
                            *ABS*:0000000000000000 _delete.cpp
     /tmp/ccY5MWYK.s:9      .text:0000000000000000 _ZdlPv
     /tmp/ccY5MWYK.s:13     .text:0000000000000000 .L0 
     /tmp/ccY5MWYK.s:637    .data.rel.local.DW.ref.__gxx_personality_v0:0000000000000000 DW.ref.__gxx_personality_v0
     /tmp/ccY5MWYK.s:17     .text:0000000000000000 .L0 
     /tmp/ccY5MWYK.s:18     .text:0000000000000004 .L0 
     /tmp/ccY5MWYK.s:21     .text:000000000000000c .L0 
     /tmp/ccY5MWYK.s:22     .text:000000000000000c .L0 
     /tmp/ccY5MWYK.s:24     .text:0000000000000010 .L0 
     /tmp/ccY5MWYK.s:26     .text:0000000000000010 .L0 
     /tmp/ccY5MWYK.s:27     .text:0000000000000010 .L0 
     /tmp/ccY5MWYK.s:30     .text:0000000000000018 .L0 
     /tmp/ccY5MWYK.s:31     .text:000000000000001c .L0 
     /tmp/ccY5MWYK.s:33     .text:0000000000000020 .L0 
     /tmp/ccY5MWYK.s:34     .text:0000000000000020 .L0 
     /tmp/ccY5MWYK.s:36     .text:0000000000000024 .L0 
     /tmp/ccY5MWYK.s:38     .text:0000000000000028 .L0 
     /tmp/ccY5MWYK.s:52     .text:0000000000000028 _ZdaPv
     /tmp/ccY5MWYK.s:55     .text:0000000000000028 .L0 
     /tmp/ccY5MWYK.s:59     .text:0000000000000028 .L0 
     /tmp/ccY5MWYK.s:60     .text:000000000000002c .L0 
     /tmp/ccY5MWYK.s:63     .text:0000000000000034 .L0 
     /tmp/ccY5MWYK.s:64     .text:0000000000000034 .L0 
     /tmp/ccY5MWYK.s:66     .text:0000000000000038 .L0 
     /tmp/ccY5MWYK.s:68     .text:0000000000000038 .L0 
     /tmp/ccY5MWYK.s:69     .text:0000000000000038 .L0 
     /tmp/ccY5MWYK.s:72     .text:0000000000000040 .L0 
     /tmp/ccY5MWYK.s:73     .text:0000000000000044 .L0 
     /tmp/ccY5MWYK.s:75     .text:0000000000000048 .L0 
     /tmp/ccY5MWYK.s:76     .text:0000000000000048 .L0 
     /tmp/ccY5MWYK.s:78     .text:000000000000004c .L0 
     /tmp/ccY5MWYK.s:80     .text:0000000000000050 .L0 
     /tmp/ccY5MWYK.s:94     .text:0000000000000050 .L0 
     /tmp/ccY5MWYK.s:299    .debug_abbrev:0000000000000000 .Ldebug_abbrev0
     /tmp/ccY5MWYK.s:619    .debug_str:0000000000000115 .LASF21
     /tmp/ccY5MWYK.s:627    .debug_str:0000000000000217 .LASF22
     /tmp/ccY5MWYK.s:623    .debug_str:00000000000001e8 .LASF23
     /tmp/ccY5MWYK.s:5      .text:0000000000000000 .Ltext0
     /tmp/ccY5MWYK.s:90     .text:0000000000000050 .Letext0
     /tmp/ccY5MWYK.s:579    .debug_line:0000000000000000 .Ldebug_line0
     /tmp/ccY5MWYK.s:583    .debug_str:000000000000000b .LASF0
     /tmp/ccY5MWYK.s:617    .debug_str:0000000000000102 .LASF1
     /tmp/ccY5MWYK.s:605    .debug_str:000000000000009b .LASF2
     /tmp/ccY5MWYK.s:599    .debug_str:0000000000000078 .LASF4
     /tmp/ccY5MWYK.s:595    .debug_str:0000000000000053 .LASF3
     /tmp/ccY5MWYK.s:589    .debug_str:0000000000000035 .LASF5
     /tmp/ccY5MWYK.s:597    .debug_str:0000000000000065 .LASF6
     /tmp/ccY5MWYK.s:615    .debug_str:00000000000000ef .LASF7
     /tmp/ccY5MWYK.s:625    .debug_str:0000000000000207 .LASF8
     /tmp/ccY5MWYK.s:585    .debug_str:0000000000000018 .LASF9
     /tmp/ccY5MWYK.s:587    .debug_str:0000000000000026 .LASF10
     /tmp/ccY5MWYK.s:621    .debug_str:00000000000001d9 .LASF11
     /tmp/ccY5MWYK.s:591    .debug_str:000000000000003c .LASF12
     /tmp/ccY5MWYK.s:629    .debug_str:0000000000000227 .LASF13
     /tmp/ccY5MWYK.s:603    .debug_str:000000000000008f .LASF14
     /tmp/ccY5MWYK.s:613    .debug_str:00000000000000d9 .LASF15
GAS LISTING /tmp/ccY5MWYK.s 			page 4


     /tmp/ccY5MWYK.s:609    .debug_str:00000000000000bc .LASF16
     /tmp/ccY5MWYK.s:607    .debug_str:00000000000000a9 .LASF17
     /tmp/ccY5MWYK.s:611    .debug_str:00000000000000d2 .LASF19
     /tmp/ccY5MWYK.s:53     .text:0000000000000028 .LFB1
     /tmp/ccY5MWYK.s:81     .text:0000000000000050 .LFE1
     /tmp/ccY5MWYK.s:538    .debug_loc:0000000000000000 .LLST1
     /tmp/ccY5MWYK.s:70     .text:0000000000000040 .LVL3
     /tmp/ccY5MWYK.s:601    .debug_str:000000000000007f .LASF18
     /tmp/ccY5MWYK.s:593    .debug_str:000000000000004c .LASF20
     /tmp/ccY5MWYK.s:10     .text:0000000000000000 .LFB0
     /tmp/ccY5MWYK.s:39     .text:0000000000000028 .LFE0
     /tmp/ccY5MWYK.s:552    .debug_loc:0000000000000039 .LLST0
     /tmp/ccY5MWYK.s:28     .text:0000000000000018 .LVL1
     /tmp/ccY5MWYK.s:581    .debug_str:0000000000000000 .LASF24
     /tmp/ccY5MWYK.s:58     .text:0000000000000028 .LVL2
     /tmp/ccY5MWYK.s:16     .text:0000000000000000 .LVL0
     /tmp/ccY5MWYK.s:95     .debug_info:0000000000000000 .Ldebug_info0
     /tmp/ccY5MWYK.s:42     .gcc_except_table:0000000000000000 .LLSDA0
     /tmp/ccY5MWYK.s:83     .gcc_except_table:0000000000000004 .LLSDA1

UNDEFINED SYMBOLS
__mem_free
__gxx_personality_v0
