GAS LISTING /tmp/ccARpNhe.s 			page 1


   1              		.file	"_new.cpp"
   2              		.option pic
   3              		.option norelax
   4              		.text
   5              	.Ltext0:
   6              		.align	2
   7              		.globl	__mem_alloc
   9              	__mem_alloc:
  10              	.LFB2:
  11              		.file 1 "src/_new.cpp"
   1:src/_new.cpp  **** //
   2:src/_new.cpp  **** // Created by os on 7/20/22.
   3:src/_new.cpp  **** //
   4:src/_new.cpp  **** 
   5:src/_new.cpp  **** #include "../h/syscall_c.hpp"
   6:src/_new.cpp  **** #include "../lib/mem.h"
   7:src/_new.cpp  **** #include "../h/MemAlloc.hpp"
   8:src/_new.cpp  **** using size_t = decltype(sizeof(0));
   9:src/_new.cpp  **** 
  10:src/_new.cpp  **** void * operator new(size_t sn)
  11:src/_new.cpp  **** {
  12:src/_new.cpp  ****     return __mem_alloc(sn);
  13:src/_new.cpp  **** }
  14:src/_new.cpp  **** void * operator new[](size_t sn) {
  15:src/_new.cpp  ****     return __mem_alloc(sn);
  16:src/_new.cpp  **** }
  17:src/_new.cpp  **** 
  18:src/_new.cpp  **** void *__mem_alloc(size_t size)
  19:src/_new.cpp  **** {
  12              		.loc 1 19 1
  13              		.cfi_startproc
  14              	.LVL0:
  15 0000 130101FF 		addi	sp,sp,-16
  16              		.cfi_def_cfa_offset 16
  17 0004 23341100 		sd	ra,8(sp)
  18 0008 23308100 		sd	s0,0(sp)
  19              		.cfi_offset 1, -8
  20              		.cfi_offset 8, -16
  21 000c 13040101 		addi	s0,sp,16
  22              		.cfi_def_cfa 8, 0
  20:src/_new.cpp  ****     return MemAlloc::alloc(size);
  23              		.loc 1 20 5
  24              		.loc 1 20 27 is_stmt 0
  25 0010 97000000 		call	_ZN8MemAlloc5allocEm@plt
  25      E7800000 
  26              	.LVL1:
  21:src/_new.cpp  **** }
  27              		.loc 1 21 1
  28 0018 83308100 		ld	ra,8(sp)
  29              		.cfi_restore 1
  30 001c 03340100 		ld	s0,0(sp)
  31              		.cfi_restore 8
  32              		.cfi_def_cfa 2, 16
  33 0020 13010101 		addi	sp,sp,16
  34              		.cfi_def_cfa_offset 0
  35 0024 67800000 		jr	ra
  36              		.cfi_endproc
GAS LISTING /tmp/ccARpNhe.s 			page 2


  37              	.LFE2:
  39              		.align	2
  40              		.globl	_Znwm
  42              	_Znwm:
  43              	.LFB0:
  11:src/_new.cpp  ****     return __mem_alloc(sn);
  44              		.loc 1 11 1 is_stmt 1
  45              		.cfi_startproc
  46              	.LVL2:
  47 0028 130101FF 		addi	sp,sp,-16
  48              		.cfi_def_cfa_offset 16
  49 002c 23341100 		sd	ra,8(sp)
  50 0030 23308100 		sd	s0,0(sp)
  51              		.cfi_offset 1, -8
  52              		.cfi_offset 8, -16
  53 0034 13040101 		addi	s0,sp,16
  54              		.cfi_def_cfa 8, 0
  12:src/_new.cpp  **** }
  55              		.loc 1 12 5
  12:src/_new.cpp  **** }
  56              		.loc 1 12 23 is_stmt 0
  57 0038 97000000 		call	__mem_alloc
  57      E7800000 
  58              	.LVL3:
  13:src/_new.cpp  **** void * operator new[](size_t sn) {
  59              		.loc 1 13 1
  60 0040 83308100 		ld	ra,8(sp)
  61              		.cfi_restore 1
  62 0044 03340100 		ld	s0,0(sp)
  63              		.cfi_restore 8
  64              		.cfi_def_cfa 2, 16
  65 0048 13010101 		addi	sp,sp,16
  66              		.cfi_def_cfa_offset 0
  67 004c 67800000 		jr	ra
  68              		.cfi_endproc
  69              	.LFE0:
  71              		.align	2
  72              		.globl	_Znam
  74              	_Znam:
  75              	.LFB1:
  14:src/_new.cpp  ****     return __mem_alloc(sn);
  76              		.loc 1 14 34 is_stmt 1
  77              		.cfi_startproc
  78              	.LVL4:
  79 0050 130101FF 		addi	sp,sp,-16
  80              		.cfi_def_cfa_offset 16
  81 0054 23341100 		sd	ra,8(sp)
  82 0058 23308100 		sd	s0,0(sp)
  83              		.cfi_offset 1, -8
  84              		.cfi_offset 8, -16
  85 005c 13040101 		addi	s0,sp,16
  86              		.cfi_def_cfa 8, 0
  15:src/_new.cpp  **** }
  87              		.loc 1 15 5
  15:src/_new.cpp  **** }
  88              		.loc 1 15 23 is_stmt 0
  89 0060 97000000 		call	__mem_alloc
GAS LISTING /tmp/ccARpNhe.s 			page 3


  89      E7800000 
  90              	.LVL5:
  16:src/_new.cpp  **** 
  91              		.loc 1 16 1
  92 0068 83308100 		ld	ra,8(sp)
  93              		.cfi_restore 1
  94 006c 03340100 		ld	s0,0(sp)
  95              		.cfi_restore 8
  96              		.cfi_def_cfa 2, 16
  97 0070 13010101 		addi	sp,sp,16
  98              		.cfi_def_cfa_offset 0
  99 0074 67800000 		jr	ra
 100              		.cfi_endproc
 101              	.LFE1:
 103              	.Letext0:
 104              		.file 2 "src/../h/../lib/hw.h"
 105              		.file 3 "src/../h/../h/Descriptor.hpp"
 106              		.file 4 "src/../h/MemAlloc.hpp"
 107              		.file 5 "src/../h/syscall_c.hpp"
GAS LISTING /tmp/ccARpNhe.s 			page 4

