GAS LISTING /tmp/ccYhVUri.s 			page 1


   1              		.file	"_new.cpp"
   2              		.option pic
   3              		.option norelax
   4              		.text
   5              	.Ltext0:
   6              		.align	2
   7              		.globl	__mem_alloc
   9              	__mem_alloc:
  10              	.LFB2:
  11              		.file 1 "src/_new.cpp"
   1:src/_new.cpp  **** //
   2:src/_new.cpp  **** // Created by os on 7/20/22.
   3:src/_new.cpp  **** //
   4:src/_new.cpp  **** 
   5:src/_new.cpp  **** #include "../h/syscall_c.hpp"
   6:src/_new.cpp  **** #include "../lib/mem.h"
   7:src/_new.cpp  **** #include "../h/MemAlloc.hpp"
   8:src/_new.cpp  **** using size_t = decltype(sizeof(0));
   9:src/_new.cpp  **** 
  10:src/_new.cpp  **** void * operator new(size_t sn)
  11:src/_new.cpp  **** {
  12:src/_new.cpp  ****     return __mem_alloc(sn);
  13:src/_new.cpp  **** }
  14:src/_new.cpp  **** void * operator new[](size_t sn) {
  15:src/_new.cpp  ****     return __mem_alloc(sn);
  16:src/_new.cpp  **** }
  17:src/_new.cpp  **** 
  18:src/_new.cpp  **** void *__mem_alloc(size_t size)
  19:src/_new.cpp  **** {
  12              		.loc 1 19 1
  13              		.cfi_startproc
  14              	.LVL0:
  15 0000 130101FF 		addi	sp,sp,-16
  16              		.cfi_def_cfa_offset 16
  17 0004 23341100 		sd	ra,8(sp)
  18 0008 23308100 		sd	s0,0(sp)
  19              		.cfi_offset 1, -8
  20              		.cfi_offset 8, -16
  21 000c 13040101 		addi	s0,sp,16
  22              		.cfi_def_cfa 8, 0
  20:src/_new.cpp  ****     return MemAlloc::alloc(size);
  23              		.loc 1 20 5
  24              		.loc 1 20 27 is_stmt 0
  25 0010 97000000 		call	_ZN8MemAlloc5allocEm@plt
  25      E7800000 
  26              	.LVL1:
  21:src/_new.cpp  **** }
  27              		.loc 1 21 1
  28 0018 83308100 		ld	ra,8(sp)
  29              		.cfi_restore 1
  30 001c 03340100 		ld	s0,0(sp)
  31              		.cfi_restore 8
  32              		.cfi_def_cfa 2, 16
  33 0020 13010101 		addi	sp,sp,16
  34              		.cfi_def_cfa_offset 0
  35 0024 67800000 		jr	ra
  36              		.cfi_endproc
GAS LISTING /tmp/ccYhVUri.s 			page 2


  37              	.LFE2:
  39              		.align	2
  40              		.globl	_Znwm
  42              	_Znwm:
  43              	.LFB0:
  11:src/_new.cpp  ****     return __mem_alloc(sn);
  44              		.loc 1 11 1 is_stmt 1
  45              		.cfi_startproc
  46              	.LVL2:
  47 0028 130101FF 		addi	sp,sp,-16
  48              		.cfi_def_cfa_offset 16
  49 002c 23341100 		sd	ra,8(sp)
  50 0030 23308100 		sd	s0,0(sp)
  51              		.cfi_offset 1, -8
  52              		.cfi_offset 8, -16
  53 0034 13040101 		addi	s0,sp,16
  54              		.cfi_def_cfa 8, 0
  12:src/_new.cpp  **** }
  55              		.loc 1 12 5
  12:src/_new.cpp  **** }
  56              		.loc 1 12 23 is_stmt 0
  57 0038 97000000 		call	__mem_alloc
  57      E7800000 
  58              	.LVL3:
  13:src/_new.cpp  **** void * operator new[](size_t sn) {
  59              		.loc 1 13 1
  60 0040 83308100 		ld	ra,8(sp)
  61              		.cfi_restore 1
  62 0044 03340100 		ld	s0,0(sp)
  63              		.cfi_restore 8
  64              		.cfi_def_cfa 2, 16
  65 0048 13010101 		addi	sp,sp,16
  66              		.cfi_def_cfa_offset 0
  67 004c 67800000 		jr	ra
  68              		.cfi_endproc
  69              	.LFE0:
  71              		.align	2
  72              		.globl	_Znam
  74              	_Znam:
  75              	.LFB1:
  14:src/_new.cpp  ****     return __mem_alloc(sn);
  76              		.loc 1 14 34 is_stmt 1
  77              		.cfi_startproc
  78              	.LVL4:
  79 0050 130101FF 		addi	sp,sp,-16
  80              		.cfi_def_cfa_offset 16
  81 0054 23341100 		sd	ra,8(sp)
  82 0058 23308100 		sd	s0,0(sp)
  83              		.cfi_offset 1, -8
  84              		.cfi_offset 8, -16
  85 005c 13040101 		addi	s0,sp,16
  86              		.cfi_def_cfa 8, 0
  15:src/_new.cpp  **** }
  87              		.loc 1 15 5
  15:src/_new.cpp  **** }
  88              		.loc 1 15 23 is_stmt 0
  89 0060 97000000 		call	__mem_alloc
GAS LISTING /tmp/ccYhVUri.s 			page 3


  89      E7800000 
  90              	.LVL5:
  16:src/_new.cpp  **** 
  91              		.loc 1 16 1
  92 0068 83308100 		ld	ra,8(sp)
  93              		.cfi_restore 1
  94 006c 03340100 		ld	s0,0(sp)
  95              		.cfi_restore 8
  96              		.cfi_def_cfa 2, 16
  97 0070 13010101 		addi	sp,sp,16
  98              		.cfi_def_cfa_offset 0
  99 0074 67800000 		jr	ra
 100              		.cfi_endproc
 101              	.LFE1:
 103              	.Letext0:
 104              		.file 2 "src/../h/../lib/hw.h"
 105              		.file 3 "src/../h/../h/Descriptor.hpp"
 106              		.file 4 "src/../h/MemAlloc.hpp"
 107              		.file 5 "src/../h/syscall_c.hpp"
GAS LISTING /tmp/ccYhVUri.s 			page 4


DEFINED SYMBOLS
                            *ABS*:0000000000000000 _new.cpp
     /tmp/ccYhVUri.s:9      .text:0000000000000000 __mem_alloc
     /tmp/ccYhVUri.s:13     .text:0000000000000000 .L0 
     /tmp/ccYhVUri.s:15     .text:0000000000000000 .L0 
     /tmp/ccYhVUri.s:16     .text:0000000000000004 .L0 
     /tmp/ccYhVUri.s:19     .text:000000000000000c .L0 
     /tmp/ccYhVUri.s:20     .text:000000000000000c .L0 
     /tmp/ccYhVUri.s:22     .text:0000000000000010 .L0 
     /tmp/ccYhVUri.s:24     .text:0000000000000010 .L0 
     /tmp/ccYhVUri.s:25     .text:0000000000000010 .L0 
     /tmp/ccYhVUri.s:28     .text:0000000000000018 .L0 
     /tmp/ccYhVUri.s:29     .text:000000000000001c .L0 
     /tmp/ccYhVUri.s:31     .text:0000000000000020 .L0 
     /tmp/ccYhVUri.s:32     .text:0000000000000020 .L0 
     /tmp/ccYhVUri.s:34     .text:0000000000000024 .L0 
     /tmp/ccYhVUri.s:36     .text:0000000000000028 .L0 
     /tmp/ccYhVUri.s:42     .text:0000000000000028 _Znwm
     /tmp/ccYhVUri.s:45     .text:0000000000000028 .L0 
     /tmp/ccYhVUri.s:47     .text:0000000000000028 .L0 
     /tmp/ccYhVUri.s:48     .text:000000000000002c .L0 
     /tmp/ccYhVUri.s:51     .text:0000000000000034 .L0 
     /tmp/ccYhVUri.s:52     .text:0000000000000034 .L0 
     /tmp/ccYhVUri.s:54     .text:0000000000000038 .L0 
     /tmp/ccYhVUri.s:56     .text:0000000000000038 .L0 
     /tmp/ccYhVUri.s:57     .text:0000000000000038 .L0 
     /tmp/ccYhVUri.s:60     .text:0000000000000040 .L0 
     /tmp/ccYhVUri.s:61     .text:0000000000000044 .L0 
     /tmp/ccYhVUri.s:63     .text:0000000000000048 .L0 
     /tmp/ccYhVUri.s:64     .text:0000000000000048 .L0 
     /tmp/ccYhVUri.s:66     .text:000000000000004c .L0 
     /tmp/ccYhVUri.s:68     .text:0000000000000050 .L0 
     /tmp/ccYhVUri.s:74     .text:0000000000000050 _Znam
     /tmp/ccYhVUri.s:77     .text:0000000000000050 .L0 
     /tmp/ccYhVUri.s:79     .text:0000000000000050 .L0 
     /tmp/ccYhVUri.s:80     .text:0000000000000054 .L0 
     /tmp/ccYhVUri.s:83     .text:000000000000005c .L0 
     /tmp/ccYhVUri.s:84     .text:000000000000005c .L0 
     /tmp/ccYhVUri.s:86     .text:0000000000000060 .L0 
     /tmp/ccYhVUri.s:88     .text:0000000000000060 .L0 
     /tmp/ccYhVUri.s:89     .text:0000000000000060 .L0 
     /tmp/ccYhVUri.s:92     .text:0000000000000068 .L0 
     /tmp/ccYhVUri.s:93     .text:000000000000006c .L0 
     /tmp/ccYhVUri.s:95     .text:0000000000000070 .L0 
     /tmp/ccYhVUri.s:96     .text:0000000000000070 .L0 
     /tmp/ccYhVUri.s:98     .text:0000000000000074 .L0 
     /tmp/ccYhVUri.s:100    .text:0000000000000078 .L0 
     /tmp/ccYhVUri.s:108    .text:0000000000000078 .L0 
     /tmp/ccYhVUri.s:450    .debug_abbrev:0000000000000000 .Ldebug_abbrev0
     /tmp/ccYhVUri.s:984    .debug_str:00000000000000ed .LASF30
     /tmp/ccYhVUri.s:968    .debug_str:0000000000000079 .LASF31
     /tmp/ccYhVUri.s:1004   .debug_str:000000000000022e .LASF32
     /tmp/ccYhVUri.s:5      .text:0000000000000000 .Ltext0
     /tmp/ccYhVUri.s:103    .text:0000000000000078 .Letext0
     /tmp/ccYhVUri.s:946    .debug_line:0000000000000000 .Ldebug_line0
     /tmp/ccYhVUri.s:990    .debug_str:00000000000001d0 .LASF0
     /tmp/ccYhVUri.s:980    .debug_str:00000000000000ce .LASF1
GAS LISTING /tmp/ccYhVUri.s 			page 5


     /tmp/ccYhVUri.s:974    .debug_str:00000000000000a8 .LASF2
     /tmp/ccYhVUri.s:958    .debug_str:0000000000000042 .LASF4
     /tmp/ccYhVUri.s:978    .debug_str:00000000000000bc .LASF3
     /tmp/ccYhVUri.s:950    .debug_str:0000000000000013 .LASF5
     /tmp/ccYhVUri.s:948    .debug_str:0000000000000000 .LASF6
     /tmp/ccYhVUri.s:970    .debug_str:0000000000000086 .LASF7
     /tmp/ccYhVUri.s:992    .debug_str:00000000000001dd .LASF8
     /tmp/ccYhVUri.s:956    .debug_str:0000000000000034 .LASF9
     /tmp/ccYhVUri.s:1028   .debug_str:00000000000002e4 .LASF10
     /tmp/ccYhVUri.s:972    .debug_str:0000000000000099 .LASF11
     /tmp/ccYhVUri.s:1014   .debug_str:0000000000000292 .LASF12
     /tmp/ccYhVUri.s:998    .debug_str:000000000000020c .LASF13
     /tmp/ccYhVUri.s:982    .debug_str:00000000000000e1 .LASF14
     /tmp/ccYhVUri.s:962    .debug_str:0000000000000051 .LASF15
     /tmp/ccYhVUri.s:996    .debug_str:00000000000001f6 .LASF16
     /tmp/ccYhVUri.s:966    .debug_str:000000000000006e .LASF21
     /tmp/ccYhVUri.s:952    .debug_str:000000000000001a .LASF17
     /tmp/ccYhVUri.s:1026   .debug_str:00000000000002df .LASF18
     /tmp/ccYhVUri.s:1022   .debug_str:00000000000002d4 .LASF19
     /tmp/ccYhVUri.s:964    .debug_str:0000000000000067 .LASF20
     /tmp/ccYhVUri.s:1002   .debug_str:0000000000000225 .LASF33
     /tmp/ccYhVUri.s:994    .debug_str:00000000000001ed .LASF22
     /tmp/ccYhVUri.s:986    .debug_str:00000000000001b1 .LASF23
     /tmp/ccYhVUri.s:960    .debug_str:0000000000000049 .LASF34
     /tmp/ccYhVUri.s:988    .debug_str:00000000000001b9 .LASF35
     /tmp/ccYhVUri.s:1000   .debug_str:000000000000021c .LASF24
     /tmp/ccYhVUri.s:1016   .debug_str:00000000000002a2 .LASF26
     /tmp/ccYhVUri.s:1012   .debug_str:000000000000028c .LASF25
     /tmp/ccYhVUri.s:954    .debug_str:000000000000001f .LASF27
     /tmp/ccYhVUri.s:1006   .debug_str:000000000000024d .LASF36
     /tmp/ccYhVUri.s:1008   .debug_str:000000000000025c .LASF37
     /tmp/ccYhVUri.s:1020   .debug_str:00000000000002c8 .LASF28
     /tmp/ccYhVUri.s:10     .text:0000000000000000 .LFB2
     /tmp/ccYhVUri.s:37     .text:0000000000000028 .LFE2
     /tmp/ccYhVUri.s:891    .debug_loc:0000000000000000 .LLST0
     /tmp/ccYhVUri.s:26     .text:0000000000000018 .LVL1
     /tmp/ccYhVUri.s:1010   .debug_str:000000000000027c .LASF38
     /tmp/ccYhVUri.s:976    .debug_str:00000000000000b6 .LASF39
     /tmp/ccYhVUri.s:75     .text:0000000000000050 .LFB1
     /tmp/ccYhVUri.s:101    .text:0000000000000078 .LFE1
     /tmp/ccYhVUri.s:905    .debug_loc:0000000000000039 .LLST2
     /tmp/ccYhVUri.s:90     .text:0000000000000068 .LVL5
     /tmp/ccYhVUri.s:1018   .debug_str:00000000000002bb .LASF29
     /tmp/ccYhVUri.s:1024   .debug_str:00000000000002d9 .LASF40
     /tmp/ccYhVUri.s:43     .text:0000000000000028 .LFB0
     /tmp/ccYhVUri.s:69     .text:0000000000000050 .LFE0
     /tmp/ccYhVUri.s:919    .debug_loc:0000000000000072 .LLST1
     /tmp/ccYhVUri.s:58     .text:0000000000000040 .LVL3
     /tmp/ccYhVUri.s:14     .text:0000000000000000 .LVL0
     /tmp/ccYhVUri.s:78     .text:0000000000000050 .LVL4
     /tmp/ccYhVUri.s:46     .text:0000000000000028 .LVL2
     /tmp/ccYhVUri.s:109    .debug_info:0000000000000000 .Ldebug_info0

UNDEFINED SYMBOLS
_ZN8MemAlloc5allocEm
