GAS LISTING /tmp/ccsicyI8.s 			page 1


   1              		.file	"_sem.cpp"
   2              		.option pic
   3              		.option norelax
   4              		.text
   5              	.Ltext0:
   6              		.align	2
   7              		.globl	_ZN4_semnwEm
   9              	_ZN4_semnwEm:
  10              	.LFB73:
  11              		.file 1 "src/_sem.cpp"
   1:src/_sem.cpp  **** //
   2:src/_sem.cpp  **** // Created by os on 8/5/22.
   3:src/_sem.cpp  **** //
   4:src/_sem.cpp  **** 
   5:src/_sem.cpp  **** #include "../h/_sem.hpp"
   6:src/_sem.cpp  **** #include "../lib/mem.h"
   7:src/_sem.cpp  **** #include "../h/print.hpp"
   8:src/_sem.cpp  **** void* _sem::operator new(size_t size) {
  12              		.loc 1 8 39
  13              		.cfi_startproc
  14              	.LVL0:
  15 0000 130101FF 		addi	sp,sp,-16
  16              		.cfi_def_cfa_offset 16
  17 0004 23341100 		sd	ra,8(sp)
  18 0008 23308100 		sd	s0,0(sp)
  19              		.cfi_offset 1, -8
  20              		.cfi_offset 8, -16
  21 000c 13040101 		addi	s0,sp,16
  22              		.cfi_def_cfa 8, 0
   9:src/_sem.cpp  ****     return __mem_alloc(size);
  23              		.loc 1 9 5
  24              		.loc 1 9 23 is_stmt 0
  25 0010 97000000 		call	__mem_alloc@plt
  25      E7800000 
  26              	.LVL1:
  10:src/_sem.cpp  **** }
  27              		.loc 1 10 1
  28 0018 83308100 		ld	ra,8(sp)
  29              		.cfi_restore 1
  30 001c 03340100 		ld	s0,0(sp)
  31              		.cfi_restore 8
  32              		.cfi_def_cfa 2, 16
  33 0020 13010101 		addi	sp,sp,16
  34              		.cfi_def_cfa_offset 0
  35 0024 67800000 		jr	ra
  36              		.cfi_endproc
  37              	.LFE73:
  39              		.align	2
  40              		.globl	_ZN4_semdlEPv
  42              	_ZN4_semdlEPv:
  43              	.LFB74:
  11:src/_sem.cpp  **** void _sem::operator delete(void *ptr)  {
  44              		.loc 1 11 40 is_stmt 1
  45              		.cfi_startproc
  46              	.LVL2:
  47 0028 130101FF 		addi	sp,sp,-16
  48              		.cfi_def_cfa_offset 16
GAS LISTING /tmp/ccsicyI8.s 			page 2


  49 002c 23341100 		sd	ra,8(sp)
  50 0030 23308100 		sd	s0,0(sp)
  51              		.cfi_offset 1, -8
  52              		.cfi_offset 8, -16
  53 0034 13040101 		addi	s0,sp,16
  54              		.cfi_def_cfa 8, 0
  12:src/_sem.cpp  ****     __mem_free(ptr);
  55              		.loc 1 12 5
  56              		.loc 1 12 15 is_stmt 0
  57 0038 97000000 		call	__mem_free@plt
  57      E7800000 
  58              	.LVL3:
  13:src/_sem.cpp  **** }
  59              		.loc 1 13 1
  60 0040 83308100 		ld	ra,8(sp)
  61              		.cfi_restore 1
  62 0044 03340100 		ld	s0,0(sp)
  63              		.cfi_restore 8
  64              		.cfi_def_cfa 2, 16
  65 0048 13010101 		addi	sp,sp,16
  66              		.cfi_def_cfa_offset 0
  67 004c 67800000 		jr	ra
  68              		.cfi_endproc
  69              	.LFE74:
  71              		.align	2
  72              		.globl	_ZN4_semC2EPPS_j
  74              	_ZN4_semC2EPPS_j:
  75              	.LFB76:
  14:src/_sem.cpp  **** _sem::_sem(sem_t *handle, unsigned  init) {
  76              		.loc 1 14 1 is_stmt 1
  77              		.cfi_startproc
  78              	.LVL4:
  79 0050 130101FE 		addi	sp,sp,-32
  80              		.cfi_def_cfa_offset 32
  81 0054 233C1100 		sd	ra,24(sp)
  82 0058 23388100 		sd	s0,16(sp)
  83 005c 23349100 		sd	s1,8(sp)
  84              		.cfi_offset 1, -8
  85              		.cfi_offset 8, -16
  86              		.cfi_offset 9, -24
  87 0060 13040102 		addi	s0,sp,32
  88              		.cfi_def_cfa 8, 0
  89 0064 93040500 		mv	s1,a0
  90              	.LBB18:
  15:src/_sem.cpp  ****     *handle=this;
  91              		.loc 1 15 5
  92              		.loc 1 15 12 is_stmt 0
  93 0068 23B0A500 		sd	a0,0(a1)
  16:src/_sem.cpp  ****     val=init;
  94              		.loc 1 16 5 is_stmt 1
  95              		.loc 1 16 8 is_stmt 0
  96 006c 2324C500 		sw	a2,8(a0)
  17:src/_sem.cpp  ****     ended=0;
  97              		.loc 1 17 5 is_stmt 1
  98              		.loc 1 17 10 is_stmt 0
  99 0070 23260500 		sw	zero,12(a0)
  18:src/_sem.cpp  ****     waitingMy =  new MyWaitList();
GAS LISTING /tmp/ccsicyI8.s 			page 3


 100              		.loc 1 18 5 is_stmt 1
 101              	.LVL5:
 102              	.LBB19:
 103              	.LBB20:
 104              		.file 2 "src/../h/MyWaitList.hpp"
   1:src/../h/MyWaitList.hpp **** //
   2:src/../h/MyWaitList.hpp **** // Created by os on 8/19/22.
   3:src/../h/MyWaitList.hpp **** //
   4:src/../h/MyWaitList.hpp **** 
   5:src/../h/MyWaitList.hpp **** #ifndef MK_OS_PROJECT_MYWAITLIST_HPP
   6:src/../h/MyWaitList.hpp **** #define MK_OS_PROJECT_MYWAITLIST_HPP
   7:src/../h/MyWaitList.hpp **** 
   8:src/../h/MyWaitList.hpp **** #include "tcb.hpp"
   9:src/../h/MyWaitList.hpp **** class MyWaitList{
  10:src/../h/MyWaitList.hpp **** private:
  11:src/../h/MyWaitList.hpp ****     struct Element{
  12:src/../h/MyWaitList.hpp ****         TCB * tcb;
  13:src/../h/MyWaitList.hpp ****         Element* next;
  14:src/../h/MyWaitList.hpp ****         Element(TCB*t){
  15:src/../h/MyWaitList.hpp ****             tcb=t;
  16:src/../h/MyWaitList.hpp ****             next= nullptr;
  17:src/../h/MyWaitList.hpp ****         }
  18:src/../h/MyWaitList.hpp ****         void * operator new(size_t size){return __mem_alloc(size);}
  19:src/../h/MyWaitList.hpp ****         void operator delete (void*ptr){ __mem_free(ptr);}
  20:src/../h/MyWaitList.hpp ****     };
  21:src/../h/MyWaitList.hpp **** 
  22:src/../h/MyWaitList.hpp ****     Element * head,*tail;
  23:src/../h/MyWaitList.hpp ****     unsigned size=0;
  24:src/../h/MyWaitList.hpp **** public:
  25:src/../h/MyWaitList.hpp ****     void * operator new(size_t size){return __mem_alloc(size);}
 105              		.loc 2 25 38
 106              		.loc 2 25 56 is_stmt 0
 107 0074 13058001 		li	a0,24
 108              	.LVL6:
 109 0078 97000000 		call	__mem_alloc@plt
 109      E7800000 
 110              	.LVL7:
 111              	.LBE20:
 112              	.LBE19:
 113              	.LBB21:
 114              	.LBB22:
  26:src/../h/MyWaitList.hpp ****     void operator delete (void*ptr){ __mem_free(ptr);}
  27:src/../h/MyWaitList.hpp ****     bool isEmpty(){return size==0?true: false;}
  28:src/../h/MyWaitList.hpp ****     MyWaitList(){
 115              		.loc 2 28 17
 116 0080 23280500 		sw	zero,16(a0)
  29:src/../h/MyWaitList.hpp ****         head= nullptr;
 117              		.loc 2 29 9 is_stmt 1
 118              		.loc 2 29 13 is_stmt 0
 119 0084 23300500 		sd	zero,0(a0)
  30:src/../h/MyWaitList.hpp ****         tail= nullptr;
 120              		.loc 2 30 9 is_stmt 1
 121              		.loc 2 30 13 is_stmt 0
 122 0088 23340500 		sd	zero,8(a0)
 123              	.LVL8:
 124              	.LBE22:
 125              	.LBE21:
GAS LISTING /tmp/ccsicyI8.s 			page 4


 126              		.loc 1 18 15
 127 008c 23B0A400 		sd	a0,0(s1)
 128              	.LBE18:
  19:src/_sem.cpp  **** }
 129              		.loc 1 19 1
 130 0090 83308101 		ld	ra,24(sp)
 131              		.cfi_restore 1
 132 0094 03340101 		ld	s0,16(sp)
 133              		.cfi_restore 8
 134              		.cfi_def_cfa 2, 32
 135 0098 83348100 		ld	s1,8(sp)
 136              		.cfi_restore 9
 137              	.LVL9:
 138 009c 13010102 		addi	sp,sp,32
 139              		.cfi_def_cfa_offset 0
 140 00a0 67800000 		jr	ra
 141              		.cfi_endproc
 142              	.LFE76:
 144              		.globl	_ZN4_semC1EPPS_j
 145              		.set	_ZN4_semC1EPPS_j,_ZN4_semC2EPPS_j
 146              		.align	2
 147              		.globl	_ZN4_sem5closeEv
 149              	_ZN4_sem5closeEv:
 150              	.LFB78:
  20:src/_sem.cpp  **** int _sem::close() {
 151              		.loc 1 20 19 is_stmt 1
 152              		.cfi_startproc
 153              	.LVL10:
  21:src/_sem.cpp  ****     if(ended==1) return -1;
 154              		.loc 1 21 5
 155              		.loc 1 21 8 is_stmt 0
 156 00a4 0327C500 		lw	a4,12(a0)
 157              		.loc 1 21 5
 158 00a8 93071000 		li	a5,1
 159 00ac 6302F708 		beq	a4,a5,.L12
  20:src/_sem.cpp  **** int _sem::close() {
 160              		.loc 1 20 19
 161 00b0 130101FE 		addi	sp,sp,-32
 162              		.cfi_def_cfa_offset 32
 163 00b4 233C1100 		sd	ra,24(sp)
 164 00b8 23388100 		sd	s0,16(sp)
 165 00bc 23349100 		sd	s1,8(sp)
 166 00c0 23302101 		sd	s2,0(sp)
 167              		.cfi_offset 1, -8
 168              		.cfi_offset 8, -16
 169              		.cfi_offset 9, -24
 170              		.cfi_offset 18, -32
 171 00c4 13040102 		addi	s0,sp,32
 172              		.cfi_def_cfa 8, 0
 173 00c8 13090500 		mv	s2,a0
  22:src/_sem.cpp  ****     ended=1;
 174              		.loc 1 22 5 is_stmt 1
 175              		.loc 1 22 10 is_stmt 0
 176 00cc 2326F500 		sw	a5,12(a0)
  23:src/_sem.cpp  ****     val=0;
 177              		.loc 1 23 5 is_stmt 1
 178              		.loc 1 23 8 is_stmt 0
GAS LISTING /tmp/ccsicyI8.s 			page 5


 179 00d0 23240500 		sw	zero,8(a0)
 180 00d4 6F000002 		j	.L11
 181              	.LVL11:
 182              	.L19:
 183              	.LBB30:
 184              	.LBB31:
 185              	.LBB32:
  31:src/../h/MyWaitList.hpp ****     }
  32:src/../h/MyWaitList.hpp ****     void add(TCB*tcb){
  33:src/../h/MyWaitList.hpp ****         Element * el = new Element(tcb);
  34:src/../h/MyWaitList.hpp ****         if(!head){
  35:src/../h/MyWaitList.hpp ****             head=el;
  36:src/../h/MyWaitList.hpp ****             tail=head;
  37:src/../h/MyWaitList.hpp ****             size++;
  38:src/../h/MyWaitList.hpp ****         }else{
  39:src/../h/MyWaitList.hpp ****             tail->next=el;
  40:src/../h/MyWaitList.hpp ****             tail=el;
  41:src/../h/MyWaitList.hpp ****             size++;
  42:src/../h/MyWaitList.hpp ****         }
  43:src/../h/MyWaitList.hpp ****     }
  44:src/../h/MyWaitList.hpp **** 
  45:src/../h/MyWaitList.hpp ****     TCB* removeFirst(){
  46:src/../h/MyWaitList.hpp ****         if(size==0)return nullptr;
  47:src/../h/MyWaitList.hpp ****         Element*pom = head;
  48:src/../h/MyWaitList.hpp ****         head=head->next;
  49:src/../h/MyWaitList.hpp ****         if(!head){tail=0;}
 186              		.loc 2 49 19 is_stmt 1
 187              		.loc 2 49 23 is_stmt 0
 188 00d8 23B40700 		sd	zero,8(a5)
 189 00dc 6F008003 		j	.L10
 190              	.LVL12:
 191              	.L20:
 192              	.LBB33:
 193              	.LBB34:
  19:src/../h/MyWaitList.hpp ****     };
 194              		.loc 2 19 42 is_stmt 1
  19:src/../h/MyWaitList.hpp ****     };
 195              		.loc 2 19 52 is_stmt 0
 196 00e0 97000000 		call	__mem_free@plt
 196      E7800000 
 197              	.LVL13:
 198              	.L9:
 199              	.LBE34:
 200              	.LBE33:
 201              	.LBE32:
 202              	.LBE31:
  24:src/_sem.cpp  ****     while(!waitingMy->isEmpty()){
  25:src/_sem.cpp  ****       TCB * tcb = waitingMy->removeFirst();
  26:src/_sem.cpp  ****         tcb->siganl();
 203              		.loc 1 26 9 is_stmt 1
 204              		.loc 1 26 20 is_stmt 0
 205 00e8 13850400 		mv	a0,s1
 206 00ec 97000000 		call	_ZN3TCB6siganlEv@plt
 206      E7800000 
 207              	.LVL14:
 208              	.L11:
 209              	.LBE30:
GAS LISTING /tmp/ccsicyI8.s 			page 6


  24:src/_sem.cpp  ****     while(!waitingMy->isEmpty()){
 210              		.loc 1 24 5 is_stmt 1
  24:src/_sem.cpp  ****     while(!waitingMy->isEmpty()){
 211              		.loc 1 24 11
  24:src/_sem.cpp  ****     while(!waitingMy->isEmpty()){
 212              		.loc 1 24 12 is_stmt 0
 213 00f4 83370900 		ld	a5,0(s2)
 214              	.LVL15:
 215              	.LBB37:
 216              	.LBB38:
  27:src/../h/MyWaitList.hpp ****     MyWaitList(){
 217              		.loc 2 27 20 is_stmt 1
  27:src/../h/MyWaitList.hpp ****     MyWaitList(){
 218              		.loc 2 27 27 is_stmt 0
 219 00f8 03A70701 		lw	a4,16(a5)
 220              	.LVL16:
 221              	.LBE38:
 222              	.LBE37:
  24:src/_sem.cpp  ****     while(!waitingMy->isEmpty()){
 223              		.loc 1 24 11
 224 00fc 630E0702 		beqz	a4,.L13
 225              	.LBB39:
  25:src/_sem.cpp  ****         tcb->siganl();
 226              		.loc 1 25 7 is_stmt 1
 227              	.LVL17:
 228              	.LBB36:
 229              	.LBB35:
  46:src/../h/MyWaitList.hpp ****         Element*pom = head;
 230              		.loc 2 46 9
 231 0100 63040702 		beqz	a4,.L14
  47:src/../h/MyWaitList.hpp ****         head=head->next;
 232              		.loc 2 47 9
  47:src/../h/MyWaitList.hpp ****         head=head->next;
 233              		.loc 2 47 17 is_stmt 0
 234 0104 03B50700 		ld	a0,0(a5)
 235              	.LVL18:
  48:src/../h/MyWaitList.hpp ****         if(!head){tail=0;}
 236              		.loc 2 48 9 is_stmt 1
  48:src/../h/MyWaitList.hpp ****         if(!head){tail=0;}
 237              		.loc 2 48 20 is_stmt 0
 238 0108 83368500 		ld	a3,8(a0)
  48:src/../h/MyWaitList.hpp ****         if(!head){tail=0;}
 239              		.loc 2 48 13
 240 010c 23B0D700 		sd	a3,0(a5)
 241              		.loc 2 49 9 is_stmt 1
 242 0110 E38406FC 		beqz	a3,.L19
 243              	.L10:
  50:src/../h/MyWaitList.hpp ****         size--;
 244              		.loc 2 50 9
 245              		.loc 2 50 13 is_stmt 0
 246 0114 1B07F7FF 		addiw	a4,a4,-1
 247 0118 23A8E700 		sw	a4,16(a5)
  51:src/../h/MyWaitList.hpp ****         TCB*t =pom->tcb;
 248              		.loc 2 51 9 is_stmt 1
 249              		.loc 2 51 13 is_stmt 0
 250 011c 83340500 		ld	s1,0(a0)
 251              	.LVL19:
GAS LISTING /tmp/ccsicyI8.s 			page 7


  52:src/../h/MyWaitList.hpp ****         delete pom;
 252              		.loc 2 52 9 is_stmt 1
 253              		.loc 2 52 19 is_stmt 0
 254 0120 E31005FC 		bnez	a0,.L20
 255 0124 6FF05FFC 		j	.L9
 256              	.LVL20:
 257              	.L14:
  46:src/../h/MyWaitList.hpp ****         Element*pom = head;
 258              		.loc 2 46 27
 259 0128 93040000 		li	s1,0
 260 012c 6FF0DFFB 		j	.L9
 261              	.LVL21:
 262              	.L12:
 263              		.cfi_def_cfa_register 2
 264              		.cfi_restore 1
 265              		.cfi_restore 8
 266              		.cfi_restore 9
 267              		.cfi_restore 18
 268              	.LBE35:
 269              	.LBE36:
 270              	.LBE39:
  21:src/_sem.cpp  ****     ended=1;
 271              		.loc 1 21 26
 272 0130 1305F0FF 		li	a0,-1
 273              	.LVL22:
  27:src/_sem.cpp  ****     }
  28:src/_sem.cpp  ****     return 0;
  29:src/_sem.cpp  **** }
 274              		.loc 1 29 1
 275 0134 67800000 		ret
 276              	.LVL23:
 277              	.L13:
 278              		.cfi_def_cfa_register 8
 279              		.cfi_offset 1, -8
 280              		.cfi_offset 8, -16
 281              		.cfi_offset 9, -24
 282              		.cfi_offset 18, -32
  28:src/_sem.cpp  **** }
 283              		.loc 1 28 12
 284 0138 13050000 		li	a0,0
 285              		.loc 1 29 1
 286 013c 83308101 		ld	ra,24(sp)
 287              		.cfi_restore 1
 288 0140 03340101 		ld	s0,16(sp)
 289              		.cfi_restore 8
 290              		.cfi_def_cfa 2, 32
 291 0144 83348100 		ld	s1,8(sp)
 292              		.cfi_restore 9
 293 0148 03390100 		ld	s2,0(sp)
 294              		.cfi_restore 18
 295              	.LVL24:
 296 014c 13010102 		addi	sp,sp,32
 297              		.cfi_def_cfa_offset 0
 298 0150 67800000 		jr	ra
 299              		.cfi_endproc
 300              	.LFE78:
 302              		.align	2
GAS LISTING /tmp/ccsicyI8.s 			page 8


 303              		.globl	_ZN4_sem4waitEv
 305              	_ZN4_sem4waitEv:
 306              	.LFB79:
  30:src/_sem.cpp  **** int _sem::wait() {
 307              		.loc 1 30 18 is_stmt 1
 308              		.cfi_startproc
 309              	.LVL25:
  31:src/_sem.cpp  **** 
  32:src/_sem.cpp  ****     if(ended==1)return -1;
 310              		.loc 1 32 5
 311              		.loc 1 32 8 is_stmt 0
 312 0154 0327C500 		lw	a4,12(a0)
 313              		.loc 1 32 5
 314 0158 93071000 		li	a5,1
 315 015c 6306F70C 		beq	a4,a5,.L26
  30:src/_sem.cpp  **** int _sem::wait() {
 316              		.loc 1 30 18
 317 0160 130101FD 		addi	sp,sp,-48
 318              		.cfi_def_cfa_offset 48
 319 0164 23341102 		sd	ra,40(sp)
 320 0168 23308102 		sd	s0,32(sp)
 321 016c 233C9100 		sd	s1,24(sp)
 322 0170 23382101 		sd	s2,16(sp)
 323 0174 23343101 		sd	s3,8(sp)
 324              		.cfi_offset 1, -8
 325              		.cfi_offset 8, -16
 326              		.cfi_offset 9, -24
 327              		.cfi_offset 18, -32
 328              		.cfi_offset 19, -40
 329 0178 13040103 		addi	s0,sp,48
 330              		.cfi_def_cfa 8, 0
 331 017c 93040500 		mv	s1,a0
  33:src/_sem.cpp  ****     if(--val<0)
 332              		.loc 1 33 5 is_stmt 1
 333              		.loc 1 33 10 is_stmt 0
 334 0180 83278500 		lw	a5,8(a0)
 335              		.loc 1 33 8
 336 0184 9B87F7FF 		addiw	a5,a5,-1
 337              		.loc 1 33 13
 338 0188 2324F500 		sw	a5,8(a0)
 339              		.loc 1 33 5
 340 018c 13970702 		slli	a4,a5,32
 341 0190 63440702 		bltz	a4,.L31
 342              	.LVL26:
 343              	.L23:
  34:src/_sem.cpp  ****     {
  35:src/_sem.cpp  **** 
  36:src/_sem.cpp  ****         waitingMy->add(TCB::running);
  37:src/_sem.cpp  ****         TCB::wait();
  38:src/_sem.cpp  ****     }
  39:src/_sem.cpp  **** 
  40:src/_sem.cpp  ****     if(ended)return -1;
 344              		.loc 1 40 5 is_stmt 1
 345              		.loc 1 40 8 is_stmt 0
 346 0194 03A5C400 		lw	a0,12(s1)
 347              		.loc 1 40 5
 348 0198 63140508 		bnez	a0,.L32
GAS LISTING /tmp/ccsicyI8.s 			page 9


 349              	.L22:
  41:src/_sem.cpp  ****     else return 0;
  42:src/_sem.cpp  **** }
 350              		.loc 1 42 1
 351 019c 83308102 		ld	ra,40(sp)
 352              		.cfi_remember_state
 353              		.cfi_restore 1
 354 01a0 03340102 		ld	s0,32(sp)
 355              		.cfi_restore 8
 356              		.cfi_def_cfa 2, 48
 357 01a4 83348101 		ld	s1,24(sp)
 358              		.cfi_restore 9
 359              	.LVL27:
 360 01a8 03390101 		ld	s2,16(sp)
 361              		.cfi_restore 18
 362 01ac 83398100 		ld	s3,8(sp)
 363              		.cfi_restore 19
 364 01b0 13010103 		addi	sp,sp,48
 365              		.cfi_def_cfa_offset 0
 366 01b4 67800000 		jr	ra
 367              	.LVL28:
 368              	.L31:
 369              		.cfi_restore_state
  36:src/_sem.cpp  ****         TCB::wait();
 370              		.loc 1 36 9 is_stmt 1
 371 01b8 03390500 		ld	s2,0(a0)
  36:src/_sem.cpp  ****         TCB::wait();
 372              		.loc 1 36 23 is_stmt 0
 373 01bc 97070000 		la	a5,_ZN3TCB7runningE
 373      83B70700 
 374 01c4 83B90700 		ld	s3,0(a5)
 375              	.LVL29:
 376              	.LBB47:
 377              	.LBB48:
  33:src/../h/MyWaitList.hpp ****         if(!head){
 378              		.loc 2 33 9 is_stmt 1
 379              	.LBB49:
 380              	.LBB50:
  18:src/../h/MyWaitList.hpp ****         void operator delete (void*ptr){ __mem_free(ptr);}
 381              		.loc 2 18 42
  18:src/../h/MyWaitList.hpp ****         void operator delete (void*ptr){ __mem_free(ptr);}
 382              		.loc 2 18 60 is_stmt 0
 383 01c8 13050001 		li	a0,16
 384 01cc 97000000 		call	__mem_alloc@plt
 384      E7800000 
 385              	.LVL30:
 386              	.LBE50:
 387              	.LBE49:
 388              	.LBB51:
 389              	.LBB52:
  15:src/../h/MyWaitList.hpp ****             next= nullptr;
 390              		.loc 2 15 13 is_stmt 1
  15:src/../h/MyWaitList.hpp ****             next= nullptr;
 391              		.loc 2 15 16 is_stmt 0
 392 01d4 23303501 		sd	s3,0(a0)
  16:src/../h/MyWaitList.hpp ****         }
 393              		.loc 2 16 13 is_stmt 1
GAS LISTING /tmp/ccsicyI8.s 			page 10


  16:src/../h/MyWaitList.hpp ****         }
 394              		.loc 2 16 17 is_stmt 0
 395 01d8 23340500 		sd	zero,8(a0)
 396              	.LVL31:
 397              	.LBE52:
 398              	.LBE51:
  34:src/../h/MyWaitList.hpp ****             head=el;
 399              		.loc 2 34 9 is_stmt 1
  34:src/../h/MyWaitList.hpp ****             head=el;
 400              		.loc 2 34 13 is_stmt 0
 401 01dc 83370900 		ld	a5,0(s2)
  34:src/../h/MyWaitList.hpp ****             head=el;
 402              		.loc 2 34 9
 403 01e0 63840702 		beqz	a5,.L33
  39:src/../h/MyWaitList.hpp ****             tail=el;
 404              		.loc 2 39 13 is_stmt 1
 405 01e4 83378900 		ld	a5,8(s2)
  39:src/../h/MyWaitList.hpp ****             tail=el;
 406              		.loc 2 39 23 is_stmt 0
 407 01e8 23B4A700 		sd	a0,8(a5)
  40:src/../h/MyWaitList.hpp ****             size++;
 408              		.loc 2 40 13 is_stmt 1
  40:src/../h/MyWaitList.hpp ****             size++;
 409              		.loc 2 40 17 is_stmt 0
 410 01ec 2334A900 		sd	a0,8(s2)
  41:src/../h/MyWaitList.hpp ****         }
 411              		.loc 2 41 13 is_stmt 1
 412 01f0 83270901 		lw	a5,16(s2)
  41:src/../h/MyWaitList.hpp ****         }
 413              		.loc 2 41 17 is_stmt 0
 414 01f4 9B871700 		addiw	a5,a5,1
 415 01f8 2328F900 		sw	a5,16(s2)
 416              	.L25:
 417              	.LVL32:
 418              	.LBE48:
 419              	.LBE47:
  37:src/_sem.cpp  ****     }
 420              		.loc 1 37 9 is_stmt 1
  37:src/_sem.cpp  ****     }
 421              		.loc 1 37 18 is_stmt 0
 422 01fc 97000000 		call	_ZN3TCB4waitEv@plt
 422      E7800000 
 423              	.LVL33:
 424 0204 6FF01FF9 		j	.L23
 425              	.LVL34:
 426              	.L33:
 427              	.LBB54:
 428              	.LBB53:
  35:src/../h/MyWaitList.hpp ****             tail=head;
 429              		.loc 2 35 13 is_stmt 1
  35:src/../h/MyWaitList.hpp ****             tail=head;
 430              		.loc 2 35 17 is_stmt 0
 431 0208 2330A900 		sd	a0,0(s2)
  36:src/../h/MyWaitList.hpp ****             size++;
 432              		.loc 2 36 13 is_stmt 1
  36:src/../h/MyWaitList.hpp ****             size++;
 433              		.loc 2 36 17 is_stmt 0
GAS LISTING /tmp/ccsicyI8.s 			page 11


 434 020c 2334A900 		sd	a0,8(s2)
  37:src/../h/MyWaitList.hpp ****         }else{
 435              		.loc 2 37 13 is_stmt 1
 436 0210 83270901 		lw	a5,16(s2)
  37:src/../h/MyWaitList.hpp ****         }else{
 437              		.loc 2 37 17 is_stmt 0
 438 0214 9B871700 		addiw	a5,a5,1
 439 0218 2328F900 		sw	a5,16(s2)
 440 021c 6FF01FFE 		j	.L25
 441              	.LVL35:
 442              	.L32:
 443              	.LBE53:
 444              	.LBE54:
  40:src/_sem.cpp  ****     else return 0;
 445              		.loc 1 40 22
 446 0220 1305F0FF 		li	a0,-1
 447 0224 6FF09FF7 		j	.L22
 448              	.LVL36:
 449              	.L26:
 450              		.cfi_def_cfa_register 2
 451              		.cfi_restore 1
 452              		.cfi_restore 8
 453              		.cfi_restore 9
 454              		.cfi_restore 18
 455              		.cfi_restore 19
  32:src/_sem.cpp  ****     if(--val<0)
 456              		.loc 1 32 25
 457 0228 1305F0FF 		li	a0,-1
 458              	.LVL37:
 459              		.loc 1 42 1
 460 022c 67800000 		ret
 461              		.cfi_endproc
 462              	.LFE79:
 464              		.align	2
 465              		.globl	_ZN4_sem6signalEv
 467              	_ZN4_sem6signalEv:
 468              	.LFB80:
  43:src/_sem.cpp  **** int _sem::signal() {
 469              		.loc 1 43 20 is_stmt 1
 470              		.cfi_startproc
 471              	.LVL38:
  44:src/_sem.cpp  ****     if(ended==1)return -1;
 472              		.loc 1 44 5
 473              		.loc 1 44 8 is_stmt 0
 474 0230 0327C500 		lw	a4,12(a0)
 475              		.loc 1 44 5
 476 0234 93071000 		li	a5,1
 477 0238 630EF708 		beq	a4,a5,.L38
  45:src/_sem.cpp  ****     if(++val<=0){
 478              		.loc 1 45 5 is_stmt 1
 479              	.LBB61:
 480              		.loc 1 45 10 is_stmt 0
 481 023c 83278500 		lw	a5,8(a0)
 482              		.loc 1 45 8
 483 0240 9B871700 		addiw	a5,a5,1
 484 0244 1B870700 		sext.w	a4,a5
 485              		.loc 1 45 13
GAS LISTING /tmp/ccsicyI8.s 			page 12


 486 0248 2324F500 		sw	a5,8(a0)
 487              		.loc 1 45 5
 488 024c 6356E000 		blez	a4,.L45
 489              	.LBE61:
  46:src/_sem.cpp  **** 
  47:src/_sem.cpp  ****         TCB * tcb = waitingMy->removeFirst();
  48:src/_sem.cpp  **** 
  49:src/_sem.cpp  ****         tcb->siganl();
  50:src/_sem.cpp  ****     }
  51:src/_sem.cpp  ****     return 0;
 490              		.loc 1 51 12
 491 0250 13050000 		li	a0,0
 492              	.LVL39:
  52:src/_sem.cpp  **** }...
 493              		.loc 1 52 1
 494 0254 67800000 		ret
 495              	.LVL40:
 496              	.L45:
  43:src/_sem.cpp  **** int _sem::signal() {
 497              		.loc 1 43 20
 498 0258 130101FE 		addi	sp,sp,-32
 499              		.cfi_def_cfa_offset 32
 500 025c 233C1100 		sd	ra,24(sp)
 501 0260 23388100 		sd	s0,16(sp)
 502 0264 23349100 		sd	s1,8(sp)
 503              		.cfi_offset 1, -8
 504              		.cfi_offset 8, -16
 505              		.cfi_offset 9, -24
 506 0268 13040102 		addi	s0,sp,32
 507              		.cfi_def_cfa 8, 0
 508              	.LBB70:
 509              	.LBB62:
  47:src/_sem.cpp  ****         TCB * tcb = waitingMy->removeFirst();
 510              		.loc 1 47 9 is_stmt 1
  47:src/_sem.cpp  ****         TCB * tcb = waitingMy->removeFirst();
 511              		.loc 1 47 21 is_stmt 0
 512 026c 83370500 		ld	a5,0(a0)
 513              	.LVL41:
 514              	.LBB63:
 515              	.LBB64:
  46:src/../h/MyWaitList.hpp ****         Element*pom = head;
 516              		.loc 2 46 9 is_stmt 1
  46:src/../h/MyWaitList.hpp ****         Element*pom = head;
 517              		.loc 2 46 12 is_stmt 0
 518 0270 03A70701 		lw	a4,16(a5)
  46:src/../h/MyWaitList.hpp ****         Element*pom = head;
 519              		.loc 2 46 9
 520 0274 630C0704 		beqz	a4,.L40
  47:src/../h/MyWaitList.hpp ****         head=head->next;
 521              		.loc 2 47 9 is_stmt 1
  47:src/../h/MyWaitList.hpp ****         head=head->next;
 522              		.loc 2 47 17 is_stmt 0
 523 0278 03B50700 		ld	a0,0(a5)
 524              	.LVL42:
  48:src/../h/MyWaitList.hpp ****         if(!head){tail=0;}
 525              		.loc 2 48 9 is_stmt 1
  48:src/../h/MyWaitList.hpp ****         if(!head){tail=0;}
GAS LISTING /tmp/ccsicyI8.s 			page 13


 526              		.loc 2 48 20 is_stmt 0
 527 027c 83368500 		ld	a3,8(a0)
  48:src/../h/MyWaitList.hpp ****         if(!head){tail=0;}
 528              		.loc 2 48 13
 529 0280 23B0D700 		sd	a3,0(a5)
  49:src/../h/MyWaitList.hpp ****         size--;
 530              		.loc 2 49 9 is_stmt 1
 531 0284 63800604 		beqz	a3,.L46
 532              	.L37:
  50:src/../h/MyWaitList.hpp ****         TCB*t =pom->tcb;
 533              		.loc 2 50 9
  50:src/../h/MyWaitList.hpp ****         TCB*t =pom->tcb;
 534              		.loc 2 50 13 is_stmt 0
 535 0288 1B07F7FF 		addiw	a4,a4,-1
 536 028c 23A8E700 		sw	a4,16(a5)
  51:src/../h/MyWaitList.hpp ****         delete pom;
 537              		.loc 2 51 9 is_stmt 1
  51:src/../h/MyWaitList.hpp ****         delete pom;
 538              		.loc 2 51 13 is_stmt 0
 539 0290 83340500 		ld	s1,0(a0)
 540              	.LVL43:
 541              		.loc 2 52 9 is_stmt 1
 542              		.loc 2 52 19 is_stmt 0
 543 0294 63060500 		beqz	a0,.L36
 544              	.LVL44:
 545              	.LBB65:
 546              	.LBB66:
  19:src/../h/MyWaitList.hpp ****     };
 547              		.loc 2 19 42 is_stmt 1
  19:src/../h/MyWaitList.hpp ****     };
 548              		.loc 2 19 52 is_stmt 0
 549 0298 97000000 		call	__mem_free@plt
 549      E7800000 
 550              	.LVL45:
 551              	.L36:
 552              	.LBE66:
 553              	.LBE65:
 554              	.LBE64:
 555              	.LBE63:
  49:src/_sem.cpp  ****         tcb->siganl();
 556              		.loc 1 49 9 is_stmt 1
  49:src/_sem.cpp  ****         tcb->siganl();
 557              		.loc 1 49 20 is_stmt 0
 558 02a0 13850400 		mv	a0,s1
 559 02a4 97000000 		call	_ZN3TCB6siganlEv@plt
 559      E7800000 
 560              	.LVL46:
 561              	.LBE62:
 562              	.LBE70:
  51:src/_sem.cpp  ****     return 0;
 563              		.loc 1 51 12
 564 02ac 13050000 		li	a0,0
 565              		.loc 1 52 1
 566 02b0 83308101 		ld	ra,24(sp)
 567              		.cfi_remember_state
 568              		.cfi_restore 1
 569 02b4 03340101 		ld	s0,16(sp)
GAS LISTING /tmp/ccsicyI8.s 			page 14


 570              		.cfi_restore 8
 571              		.cfi_def_cfa 2, 32
 572 02b8 83348100 		ld	s1,8(sp)
 573              		.cfi_restore 9
 574              	.LVL47:
 575 02bc 13010102 		addi	sp,sp,32
 576              		.cfi_def_cfa_offset 0
 577 02c0 67800000 		jr	ra
 578              	.LVL48:
 579              	.L46:
 580              		.cfi_restore_state
 581              	.LBB71:
 582              	.LBB69:
 583              	.LBB68:
 584              	.LBB67:
  49:src/../h/MyWaitList.hpp ****         size--;
 585              		.loc 2 49 19 is_stmt 1
  49:src/../h/MyWaitList.hpp ****         size--;
 586              		.loc 2 49 23 is_stmt 0
 587 02c4 23B40700 		sd	zero,8(a5)
 588 02c8 6FF01FFC 		j	.L37
 589              	.LVL49:
 590              	.L40:
  46:src/../h/MyWaitList.hpp ****         Element*pom = head;
 591              		.loc 2 46 27
 592 02cc 93040000 		li	s1,0
 593 02d0 6FF01FFD 		j	.L36
 594              	.LVL50:
 595              	.L38:
 596              		.cfi_def_cfa_register 2
 597              		.cfi_restore 1
 598              		.cfi_restore 8
 599              		.cfi_restore 9
 600              	.LBE67:
 601              	.LBE68:
 602              	.LBE69:
 603              	.LBE71:
  44:src/_sem.cpp  ****     if(ended==1)return -1;
 604              		.loc 1 44 25
 605 02d4 1305F0FF 		li	a0,-1
 606              	.LVL51:
 607 02d8 67800000 		ret
 608              		.cfi_endproc
 609              	.LFE80:
 611              	.Letext0:
 612              		.file 3 "src/../h/../lib/hw.h"
 613              		.file 4 "src/../h/tcb.hpp"
 614              		.file 5 "src/../h/syscall_c.hpp"
 615              		.file 6 "src/../h/_sem.hpp"
 616              		.file 7 "src/../h/../lib/mem.h"
GAS LISTING /tmp/ccsicyI8.s 			page 15


DEFINED SYMBOLS
                            *ABS*:0000000000000000 _sem.cpp
     /tmp/ccsicyI8.s:9      .text:0000000000000000 _ZN4_semnwEm
     /tmp/ccsicyI8.s:13     .text:0000000000000000 .L0 
     /tmp/ccsicyI8.s:15     .text:0000000000000000 .L0 
     /tmp/ccsicyI8.s:16     .text:0000000000000004 .L0 
     /tmp/ccsicyI8.s:19     .text:000000000000000c .L0 
     /tmp/ccsicyI8.s:20     .text:000000000000000c .L0 
     /tmp/ccsicyI8.s:22     .text:0000000000000010 .L0 
     /tmp/ccsicyI8.s:24     .text:0000000000000010 .L0 
     /tmp/ccsicyI8.s:25     .text:0000000000000010 .L0 
     /tmp/ccsicyI8.s:28     .text:0000000000000018 .L0 
     /tmp/ccsicyI8.s:29     .text:000000000000001c .L0 
     /tmp/ccsicyI8.s:31     .text:0000000000000020 .L0 
     /tmp/ccsicyI8.s:32     .text:0000000000000020 .L0 
     /tmp/ccsicyI8.s:34     .text:0000000000000024 .L0 
     /tmp/ccsicyI8.s:36     .text:0000000000000028 .L0 
     /tmp/ccsicyI8.s:42     .text:0000000000000028 _ZN4_semdlEPv
     /tmp/ccsicyI8.s:45     .text:0000000000000028 .L0 
     /tmp/ccsicyI8.s:47     .text:0000000000000028 .L0 
     /tmp/ccsicyI8.s:48     .text:000000000000002c .L0 
     /tmp/ccsicyI8.s:51     .text:0000000000000034 .L0 
     /tmp/ccsicyI8.s:52     .text:0000000000000034 .L0 
     /tmp/ccsicyI8.s:54     .text:0000000000000038 .L0 
     /tmp/ccsicyI8.s:56     .text:0000000000000038 .L0 
     /tmp/ccsicyI8.s:57     .text:0000000000000038 .L0 
     /tmp/ccsicyI8.s:60     .text:0000000000000040 .L0 
     /tmp/ccsicyI8.s:61     .text:0000000000000044 .L0 
     /tmp/ccsicyI8.s:63     .text:0000000000000048 .L0 
     /tmp/ccsicyI8.s:64     .text:0000000000000048 .L0 
     /tmp/ccsicyI8.s:66     .text:000000000000004c .L0 
     /tmp/ccsicyI8.s:68     .text:0000000000000050 .L0 
     /tmp/ccsicyI8.s:74     .text:0000000000000050 _ZN4_semC2EPPS_j
     /tmp/ccsicyI8.s:77     .text:0000000000000050 .L0 
     /tmp/ccsicyI8.s:79     .text:0000000000000050 .L0 
     /tmp/ccsicyI8.s:80     .text:0000000000000054 .L0 
     /tmp/ccsicyI8.s:84     .text:0000000000000060 .L0 
     /tmp/ccsicyI8.s:85     .text:0000000000000060 .L0 
     /tmp/ccsicyI8.s:86     .text:0000000000000060 .L0 
     /tmp/ccsicyI8.s:88     .text:0000000000000064 .L0 
     /tmp/ccsicyI8.s:92     .text:0000000000000068 .L0 
     /tmp/ccsicyI8.s:93     .text:0000000000000068 .L0 
     /tmp/ccsicyI8.s:95     .text:000000000000006c .L0 
     /tmp/ccsicyI8.s:96     .text:000000000000006c .L0 
     /tmp/ccsicyI8.s:98     .text:0000000000000070 .L0 
     /tmp/ccsicyI8.s:99     .text:0000000000000070 .L0 
     /tmp/ccsicyI8.s:105    .text:0000000000000074 .L0 
     /tmp/ccsicyI8.s:106    .text:0000000000000074 .L0 
     /tmp/ccsicyI8.s:107    .text:0000000000000074 .L0 
     /tmp/ccsicyI8.s:116    .text:0000000000000080 .L0 
     /tmp/ccsicyI8.s:118    .text:0000000000000084 .L0 
     /tmp/ccsicyI8.s:119    .text:0000000000000084 .L0 
     /tmp/ccsicyI8.s:121    .text:0000000000000088 .L0 
     /tmp/ccsicyI8.s:122    .text:0000000000000088 .L0 
     /tmp/ccsicyI8.s:127    .text:000000000000008c .L0 
     /tmp/ccsicyI8.s:130    .text:0000000000000090 .L0 
     /tmp/ccsicyI8.s:131    .text:0000000000000094 .L0 
GAS LISTING /tmp/ccsicyI8.s 			page 16


     /tmp/ccsicyI8.s:133    .text:0000000000000098 .L0 
     /tmp/ccsicyI8.s:134    .text:0000000000000098 .L0 
     /tmp/ccsicyI8.s:136    .text:000000000000009c .L0 
     /tmp/ccsicyI8.s:139    .text:00000000000000a0 .L0 
     /tmp/ccsicyI8.s:141    .text:00000000000000a4 .L0 
     /tmp/ccsicyI8.s:74     .text:0000000000000050 _ZN4_semC1EPPS_j
     /tmp/ccsicyI8.s:149    .text:00000000000000a4 _ZN4_sem5closeEv
     /tmp/ccsicyI8.s:152    .text:00000000000000a4 .L0 
     /tmp/ccsicyI8.s:154    .text:00000000000000a4 .L0 
     /tmp/ccsicyI8.s:155    .text:00000000000000a4 .L0 
     /tmp/ccsicyI8.s:156    .text:00000000000000a4 .L0 
     /tmp/ccsicyI8.s:158    .text:00000000000000a8 .L0 
     /tmp/ccsicyI8.s:161    .text:00000000000000b0 .L0 
     /tmp/ccsicyI8.s:162    .text:00000000000000b4 .L0 
     /tmp/ccsicyI8.s:167    .text:00000000000000c4 .L0 
     /tmp/ccsicyI8.s:168    .text:00000000000000c4 .L0 
     /tmp/ccsicyI8.s:169    .text:00000000000000c4 .L0 
     /tmp/ccsicyI8.s:170    .text:00000000000000c4 .L0 
     /tmp/ccsicyI8.s:172    .text:00000000000000c8 .L0 
     /tmp/ccsicyI8.s:175    .text:00000000000000cc .L0 
     /tmp/ccsicyI8.s:176    .text:00000000000000cc .L0 
     /tmp/ccsicyI8.s:178    .text:00000000000000d0 .L0 
     /tmp/ccsicyI8.s:179    .text:00000000000000d0 .L0 
     /tmp/ccsicyI8.s:187    .text:00000000000000d8 .L0 
     /tmp/ccsicyI8.s:188    .text:00000000000000d8 .L0 
     /tmp/ccsicyI8.s:195    .text:00000000000000e0 .L0 
     /tmp/ccsicyI8.s:196    .text:00000000000000e0 .L0 
     /tmp/ccsicyI8.s:204    .text:00000000000000e8 .L0 
     /tmp/ccsicyI8.s:205    .text:00000000000000e8 .L0 
     /tmp/ccsicyI8.s:211    .text:00000000000000f4 .L0 
     /tmp/ccsicyI8.s:212    .text:00000000000000f4 .L0 
     /tmp/ccsicyI8.s:213    .text:00000000000000f4 .L0 
     /tmp/ccsicyI8.s:218    .text:00000000000000f8 .L0 
     /tmp/ccsicyI8.s:219    .text:00000000000000f8 .L0 
     /tmp/ccsicyI8.s:224    .text:00000000000000fc .L0 
     /tmp/ccsicyI8.s:230    .text:0000000000000100 .L0 
     /tmp/ccsicyI8.s:231    .text:0000000000000100 .L0 
     /tmp/ccsicyI8.s:233    .text:0000000000000104 .L0 
     /tmp/ccsicyI8.s:234    .text:0000000000000104 .L0 
     /tmp/ccsicyI8.s:237    .text:0000000000000108 .L0 
     /tmp/ccsicyI8.s:238    .text:0000000000000108 .L0 
     /tmp/ccsicyI8.s:240    .text:000000000000010c .L0 
     /tmp/ccsicyI8.s:242    .text:0000000000000110 .L0 
     /tmp/ccsicyI8.s:245    .text:0000000000000114 .L0 
     /tmp/ccsicyI8.s:246    .text:0000000000000114 .L0 
     /tmp/ccsicyI8.s:249    .text:000000000000011c .L0 
     /tmp/ccsicyI8.s:250    .text:000000000000011c .L0 
     /tmp/ccsicyI8.s:253    .text:0000000000000120 .L0 
     /tmp/ccsicyI8.s:254    .text:0000000000000120 .L0 
     /tmp/ccsicyI8.s:259    .text:0000000000000128 .L0 
     /tmp/ccsicyI8.s:263    .text:0000000000000130 .L0 
     /tmp/ccsicyI8.s:264    .text:0000000000000130 .L0 
     /tmp/ccsicyI8.s:265    .text:0000000000000130 .L0 
     /tmp/ccsicyI8.s:266    .text:0000000000000130 .L0 
     /tmp/ccsicyI8.s:267    .text:0000000000000130 .L0 
     /tmp/ccsicyI8.s:272    .text:0000000000000130 .L0 
     /tmp/ccsicyI8.s:275    .text:0000000000000134 .L0 
GAS LISTING /tmp/ccsicyI8.s 			page 17


     /tmp/ccsicyI8.s:278    .text:0000000000000138 .L0 
     /tmp/ccsicyI8.s:279    .text:0000000000000138 .L0 
     /tmp/ccsicyI8.s:280    .text:0000000000000138 .L0 
     /tmp/ccsicyI8.s:281    .text:0000000000000138 .L0 
     /tmp/ccsicyI8.s:282    .text:0000000000000138 .L0 
     /tmp/ccsicyI8.s:284    .text:0000000000000138 .L0 
     /tmp/ccsicyI8.s:286    .text:000000000000013c .L0 
     /tmp/ccsicyI8.s:287    .text:0000000000000140 .L0 
     /tmp/ccsicyI8.s:289    .text:0000000000000144 .L0 
     /tmp/ccsicyI8.s:290    .text:0000000000000144 .L0 
     /tmp/ccsicyI8.s:292    .text:0000000000000148 .L0 
     /tmp/ccsicyI8.s:294    .text:000000000000014c .L0 
     /tmp/ccsicyI8.s:297    .text:0000000000000150 .L0 
     /tmp/ccsicyI8.s:299    .text:0000000000000154 .L0 
     /tmp/ccsicyI8.s:305    .text:0000000000000154 _ZN4_sem4waitEv
     /tmp/ccsicyI8.s:308    .text:0000000000000154 .L0 
     /tmp/ccsicyI8.s:310    .text:0000000000000154 .L0 
     /tmp/ccsicyI8.s:311    .text:0000000000000154 .L0 
     /tmp/ccsicyI8.s:312    .text:0000000000000154 .L0 
     /tmp/ccsicyI8.s:314    .text:0000000000000158 .L0 
     /tmp/ccsicyI8.s:317    .text:0000000000000160 .L0 
     /tmp/ccsicyI8.s:318    .text:0000000000000164 .L0 
     /tmp/ccsicyI8.s:324    .text:0000000000000178 .L0 
     /tmp/ccsicyI8.s:325    .text:0000000000000178 .L0 
     /tmp/ccsicyI8.s:326    .text:0000000000000178 .L0 
     /tmp/ccsicyI8.s:327    .text:0000000000000178 .L0 
     /tmp/ccsicyI8.s:328    .text:0000000000000178 .L0 
     /tmp/ccsicyI8.s:330    .text:000000000000017c .L0 
     /tmp/ccsicyI8.s:333    .text:0000000000000180 .L0 
     /tmp/ccsicyI8.s:334    .text:0000000000000180 .L0 
     /tmp/ccsicyI8.s:336    .text:0000000000000184 .L0 
     /tmp/ccsicyI8.s:338    .text:0000000000000188 .L0 
     /tmp/ccsicyI8.s:340    .text:000000000000018c .L0 
     /tmp/ccsicyI8.s:345    .text:0000000000000194 .L0 
     /tmp/ccsicyI8.s:346    .text:0000000000000194 .L0 
     /tmp/ccsicyI8.s:348    .text:0000000000000198 .L0 
     /tmp/ccsicyI8.s:351    .text:000000000000019c .L0 
     /tmp/ccsicyI8.s:352    .text:00000000000001a0 .L0 
     /tmp/ccsicyI8.s:353    .text:00000000000001a0 .L0 
     /tmp/ccsicyI8.s:355    .text:00000000000001a4 .L0 
     /tmp/ccsicyI8.s:356    .text:00000000000001a4 .L0 
     /tmp/ccsicyI8.s:358    .text:00000000000001a8 .L0 
     /tmp/ccsicyI8.s:361    .text:00000000000001ac .L0 
     /tmp/ccsicyI8.s:363    .text:00000000000001b0 .L0 
     /tmp/ccsicyI8.s:365    .text:00000000000001b4 .L0 
     /tmp/ccsicyI8.s:369    .text:00000000000001b8 .L0 
     /tmp/ccsicyI8.s:371    .text:00000000000001b8 .L0 
     /tmp/ccsicyI8.s:373    .text:00000000000001bc .L0 
     /tmp/ccsicyI8.s:381    .text:00000000000001c8 .L0 
     /tmp/ccsicyI8.s:382    .text:00000000000001c8 .L0 
     /tmp/ccsicyI8.s:383    .text:00000000000001c8 .L0 
     /tmp/ccsicyI8.s:391    .text:00000000000001d4 .L0 
     /tmp/ccsicyI8.s:392    .text:00000000000001d4 .L0 
     /tmp/ccsicyI8.s:394    .text:00000000000001d8 .L0 
     /tmp/ccsicyI8.s:395    .text:00000000000001d8 .L0 
     /tmp/ccsicyI8.s:400    .text:00000000000001dc .L0 
     /tmp/ccsicyI8.s:401    .text:00000000000001dc .L0 
GAS LISTING /tmp/ccsicyI8.s 			page 18


     /tmp/ccsicyI8.s:403    .text:00000000000001e0 .L0 
     /tmp/ccsicyI8.s:405    .text:00000000000001e4 .L0 
     /tmp/ccsicyI8.s:407    .text:00000000000001e8 .L0 
     /tmp/ccsicyI8.s:409    .text:00000000000001ec .L0 
     /tmp/ccsicyI8.s:410    .text:00000000000001ec .L0 
     /tmp/ccsicyI8.s:412    .text:00000000000001f0 .L0 
     /tmp/ccsicyI8.s:414    .text:00000000000001f4 .L0 
     /tmp/ccsicyI8.s:421    .text:00000000000001fc .L0 
     /tmp/ccsicyI8.s:422    .text:00000000000001fc .L0 
     /tmp/ccsicyI8.s:430    .text:0000000000000208 .L0 
     /tmp/ccsicyI8.s:431    .text:0000000000000208 .L0 
     /tmp/ccsicyI8.s:433    .text:000000000000020c .L0 
     /tmp/ccsicyI8.s:434    .text:000000000000020c .L0 
     /tmp/ccsicyI8.s:436    .text:0000000000000210 .L0 
     /tmp/ccsicyI8.s:438    .text:0000000000000214 .L0 
     /tmp/ccsicyI8.s:446    .text:0000000000000220 .L0 
     /tmp/ccsicyI8.s:450    .text:0000000000000228 .L0 
     /tmp/ccsicyI8.s:451    .text:0000000000000228 .L0 
     /tmp/ccsicyI8.s:452    .text:0000000000000228 .L0 
     /tmp/ccsicyI8.s:453    .text:0000000000000228 .L0 
     /tmp/ccsicyI8.s:454    .text:0000000000000228 .L0 
     /tmp/ccsicyI8.s:455    .text:0000000000000228 .L0 
     /tmp/ccsicyI8.s:457    .text:0000000000000228 .L0 
     /tmp/ccsicyI8.s:460    .text:000000000000022c .L0 
     /tmp/ccsicyI8.s:461    .text:0000000000000230 .L0 
     /tmp/ccsicyI8.s:467    .text:0000000000000230 _ZN4_sem6signalEv
     /tmp/ccsicyI8.s:470    .text:0000000000000230 .L0 
     /tmp/ccsicyI8.s:472    .text:0000000000000230 .L0 
     /tmp/ccsicyI8.s:473    .text:0000000000000230 .L0 
     /tmp/ccsicyI8.s:474    .text:0000000000000230 .L0 
     /tmp/ccsicyI8.s:476    .text:0000000000000234 .L0 
     /tmp/ccsicyI8.s:480    .text:000000000000023c .L0 
     /tmp/ccsicyI8.s:481    .text:000000000000023c .L0 
     /tmp/ccsicyI8.s:483    .text:0000000000000240 .L0 
     /tmp/ccsicyI8.s:486    .text:0000000000000248 .L0 
     /tmp/ccsicyI8.s:488    .text:000000000000024c .L0 
     /tmp/ccsicyI8.s:491    .text:0000000000000250 .L0 
     /tmp/ccsicyI8.s:494    .text:0000000000000254 .L0 
     /tmp/ccsicyI8.s:498    .text:0000000000000258 .L0 
     /tmp/ccsicyI8.s:499    .text:000000000000025c .L0 
     /tmp/ccsicyI8.s:503    .text:0000000000000268 .L0 
     /tmp/ccsicyI8.s:504    .text:0000000000000268 .L0 
     /tmp/ccsicyI8.s:505    .text:0000000000000268 .L0 
     /tmp/ccsicyI8.s:507    .text:000000000000026c .L0 
     /tmp/ccsicyI8.s:511    .text:000000000000026c .L0 
     /tmp/ccsicyI8.s:512    .text:000000000000026c .L0 
     /tmp/ccsicyI8.s:517    .text:0000000000000270 .L0 
     /tmp/ccsicyI8.s:518    .text:0000000000000270 .L0 
     /tmp/ccsicyI8.s:520    .text:0000000000000274 .L0 
     /tmp/ccsicyI8.s:522    .text:0000000000000278 .L0 
     /tmp/ccsicyI8.s:523    .text:0000000000000278 .L0 
     /tmp/ccsicyI8.s:526    .text:000000000000027c .L0 
     /tmp/ccsicyI8.s:527    .text:000000000000027c .L0 
     /tmp/ccsicyI8.s:529    .text:0000000000000280 .L0 
     /tmp/ccsicyI8.s:531    .text:0000000000000284 .L0 
     /tmp/ccsicyI8.s:534    .text:0000000000000288 .L0 
     /tmp/ccsicyI8.s:535    .text:0000000000000288 .L0 
GAS LISTING /tmp/ccsicyI8.s 			page 19


     /tmp/ccsicyI8.s:538    .text:0000000000000290 .L0 
     /tmp/ccsicyI8.s:539    .text:0000000000000290 .L0 
     /tmp/ccsicyI8.s:542    .text:0000000000000294 .L0 
     /tmp/ccsicyI8.s:543    .text:0000000000000294 .L0 
     /tmp/ccsicyI8.s:548    .text:0000000000000298 .L0 
     /tmp/ccsicyI8.s:549    .text:0000000000000298 .L0 
     /tmp/ccsicyI8.s:557    .text:00000000000002a0 .L0 
     /tmp/ccsicyI8.s:558    .text:00000000000002a0 .L0 
     /tmp/ccsicyI8.s:564    .text:00000000000002ac .L0 
     /tmp/ccsicyI8.s:566    .text:00000000000002b0 .L0 
     /tmp/ccsicyI8.s:567    .text:00000000000002b4 .L0 
     /tmp/ccsicyI8.s:568    .text:00000000000002b4 .L0 
     /tmp/ccsicyI8.s:570    .text:00000000000002b8 .L0 
     /tmp/ccsicyI8.s:571    .text:00000000000002b8 .L0 
     /tmp/ccsicyI8.s:573    .text:00000000000002bc .L0 
     /tmp/ccsicyI8.s:576    .text:00000000000002c0 .L0 
     /tmp/ccsicyI8.s:580    .text:00000000000002c4 .L0 
     /tmp/ccsicyI8.s:586    .text:00000000000002c4 .L0 
     /tmp/ccsicyI8.s:587    .text:00000000000002c4 .L0 
     /tmp/ccsicyI8.s:592    .text:00000000000002cc .L0 
     /tmp/ccsicyI8.s:596    .text:00000000000002d4 .L0 
     /tmp/ccsicyI8.s:597    .text:00000000000002d4 .L0 
     /tmp/ccsicyI8.s:598    .text:00000000000002d4 .L0 
     /tmp/ccsicyI8.s:599    .text:00000000000002d4 .L0 
     /tmp/ccsicyI8.s:605    .text:00000000000002d4 .L0 
     /tmp/ccsicyI8.s:608    .text:00000000000002dc .L0 
     /tmp/ccsicyI8.s:617    .text:00000000000002dc .L0 
     /tmp/ccsicyI8.s:373    .text:00000000000001bc .L0 
     /tmp/ccsicyI8.s:262    .text:0000000000000130 .L12
     /tmp/ccsicyI8.s:208    .text:00000000000000f4 .L11
     /tmp/ccsicyI8.s:243    .text:0000000000000114 .L10
     /tmp/ccsicyI8.s:277    .text:0000000000000138 .L13
     /tmp/ccsicyI8.s:257    .text:0000000000000128 .L14
     /tmp/ccsicyI8.s:182    .text:00000000000000d8 .L19
     /tmp/ccsicyI8.s:191    .text:00000000000000e0 .L20
     /tmp/ccsicyI8.s:198    .text:00000000000000e8 .L9
     /tmp/ccsicyI8.s:449    .text:0000000000000228 .L26
     /tmp/ccsicyI8.s:368    .text:00000000000001b8 .L31
     /tmp/ccsicyI8.s:442    .text:0000000000000220 .L32
     /tmp/ccsicyI8.s:426    .text:0000000000000208 .L33
     /tmp/ccsicyI8.s:343    .text:0000000000000194 .L23
     /tmp/ccsicyI8.s:416    .text:00000000000001fc .L25
     /tmp/ccsicyI8.s:349    .text:000000000000019c .L22
     /tmp/ccsicyI8.s:595    .text:00000000000002d4 .L38
     /tmp/ccsicyI8.s:496    .text:0000000000000258 .L45
     /tmp/ccsicyI8.s:590    .text:00000000000002cc .L40
     /tmp/ccsicyI8.s:579    .text:00000000000002c4 .L46
     /tmp/ccsicyI8.s:551    .text:00000000000002a0 .L36
     /tmp/ccsicyI8.s:532    .text:0000000000000288 .L37
     /tmp/ccsicyI8.s:2302   .debug_abbrev:0000000000000000 .Ldebug_abbrev0
     /tmp/ccsicyI8.s:4112   .debug_str:00000000000007d8 .LASF161
     /tmp/ccsicyI8.s:3862   .debug_str:0000000000000065 .LASF162
     /tmp/ccsicyI8.s:4000   .debug_str:0000000000000492 .LASF163
     /tmp/ccsicyI8.s:5      .text:0000000000000000 .Ltext0
     /tmp/ccsicyI8.s:611    .text:00000000000002dc .Letext0
     /tmp/ccsicyI8.s:3850   .debug_line:0000000000000000 .Ldebug_line0
     /tmp/ccsicyI8.s:3960   .debug_str:00000000000002ee .LASF0
GAS LISTING /tmp/ccsicyI8.s 			page 20


     /tmp/ccsicyI8.s:3982   .debug_str:00000000000003e6 .LASF1
     /tmp/ccsicyI8.s:4056   .debug_str:000000000000063c .LASF2
     /tmp/ccsicyI8.s:4062   .debug_str:0000000000000676 .LASF4
     /tmp/ccsicyI8.s:3966   .debug_str:000000000000033f .LASF3
     /tmp/ccsicyI8.s:3864   .debug_str:0000000000000072 .LASF5
     /tmp/ccsicyI8.s:4034   .debug_str:00000000000005a7 .LASF6
     /tmp/ccsicyI8.s:4032   .debug_str:0000000000000594 .LASF7
     /tmp/ccsicyI8.s:3976   .debug_str:00000000000003b1 .LASF8
     /tmp/ccsicyI8.s:3946   .debug_str:00000000000002a4 .LASF9
     /tmp/ccsicyI8.s:3954   .debug_str:00000000000002cd .LASF10
     /tmp/ccsicyI8.s:3896   .debug_str:000000000000016a .LASF11
     /tmp/ccsicyI8.s:3936   .debug_str:000000000000025b .LASF12
     /tmp/ccsicyI8.s:3906   .debug_str:00000000000001b3 .LASF13
     /tmp/ccsicyI8.s:3894   .debug_str:000000000000015a .LASF14
     /tmp/ccsicyI8.s:4094   .debug_str:0000000000000770 .LASF15
     /tmp/ccsicyI8.s:3924   .debug_str:0000000000000213 .LASF16
     /tmp/ccsicyI8.s:4082   .debug_str:0000000000000701 .LASF17
     /tmp/ccsicyI8.s:4100   .debug_str:0000000000000799 .LASF18
     /tmp/ccsicyI8.s:4174   .debug_str:0000000000000a80 .LASF19
     /tmp/ccsicyI8.s:3884   .debug_str:0000000000000110 .LASF20
     /tmp/ccsicyI8.s:4074   .debug_str:00000000000006d5 .LASF21
     /tmp/ccsicyI8.s:4104   .debug_str:00000000000007ac .LASF22
     /tmp/ccsicyI8.s:4036   .debug_str:00000000000005ae .LASF23
     /tmp/ccsicyI8.s:3926   .debug_str:0000000000000229 .LASF24
     /tmp/ccsicyI8.s:3902   .debug_str:000000000000019e .LASF25
     /tmp/ccsicyI8.s:3952   .debug_str:00000000000002c8 .LASF26
     /tmp/ccsicyI8.s:4012   .debug_str:00000000000004fb .LASF27
     /tmp/ccsicyI8.s:4184   .debug_str:0000000000000ace .LASF28
     /tmp/ccsicyI8.s:4078   .debug_str:00000000000006e9 .LASF30
     /tmp/ccsicyI8.s:3858   .debug_str:000000000000002d .LASF76
     /tmp/ccsicyI8.s:4160   .debug_str:0000000000000a16 .LASF78
     /tmp/ccsicyI8.s:3880   .debug_str:00000000000000f8 .LASF29
     /tmp/ccsicyI8.s:4024   .debug_str:0000000000000550 .LASF31
     /tmp/ccsicyI8.s:4060   .debug_str:000000000000066a .LASF32
     /tmp/ccsicyI8.s:4128   .debug_str:000000000000091d .LASF33
     /tmp/ccsicyI8.s:3854   .debug_str:000000000000001d .LASF34
     /tmp/ccsicyI8.s:4088   .debug_str:0000000000000743 .LASF35
     /tmp/ccsicyI8.s:4120   .debug_str:00000000000008cf .LASF36
     /tmp/ccsicyI8.s:3994   .debug_str:0000000000000448 .LASF37
     /tmp/ccsicyI8.s:4040   .debug_str:00000000000005ce .LASF38
     /tmp/ccsicyI8.s:4010   .debug_str:00000000000004e1 .LASF39
     /tmp/ccsicyI8.s:3950   .debug_str:00000000000002bf .LASF40
     /tmp/ccsicyI8.s:4134   .debug_str:000000000000094f .LASF41
     /tmp/ccsicyI8.s:4156   .debug_str:0000000000000a04 .LASF42
     /tmp/ccsicyI8.s:3890   .debug_str:0000000000000136 .LASF43
     /tmp/ccsicyI8.s:4092   .debug_str:0000000000000765 .LASF44
     /tmp/ccsicyI8.s:4124   .debug_str:00000000000008f4 .LASF45
     /tmp/ccsicyI8.s:4022   .debug_str:0000000000000545 .LASF46
     /tmp/ccsicyI8.s:3978   .debug_str:00000000000003c4 .LASF47
     /tmp/ccsicyI8.s:4148   .debug_str:00000000000009c0 .LASF48
     /tmp/ccsicyI8.s:3878   .debug_str:00000000000000db .LASF49
     /tmp/ccsicyI8.s:4110   .debug_str:00000000000007cc .LASF50
     /tmp/ccsicyI8.s:4020   .debug_str:0000000000000527 .LASF51
     /tmp/ccsicyI8.s:4076   .debug_str:00000000000006dd .LASF52
     /tmp/ccsicyI8.s:4118   .debug_str:00000000000008b1 .LASF53
     /tmp/ccsicyI8.s:3958   .debug_str:00000000000002e6 .LASF54
     /tmp/ccsicyI8.s:3938   .debug_str:000000000000026a .LASF55
GAS LISTING /tmp/ccsicyI8.s 			page 21


     /tmp/ccsicyI8.s:4004   .debug_str:00000000000004be .LASF56
     /tmp/ccsicyI8.s:4144   .debug_str:0000000000000997 .LASF57
     /tmp/ccsicyI8.s:4016   .debug_str:0000000000000516 .LASF58
     /tmp/ccsicyI8.s:3968   .debug_str:0000000000000351 .LASF60
     /tmp/ccsicyI8.s:3948   .debug_str:00000000000002b4 .LASF59
     /tmp/ccsicyI8.s:4168   .debug_str:0000000000000a3c .LASF61
     /tmp/ccsicyI8.s:4050   .debug_str:000000000000060e .LASF62
     /tmp/ccsicyI8.s:4086   .debug_str:0000000000000729 .LASF63
     /tmp/ccsicyI8.s:3910   .debug_str:00000000000001d1 .LASF64
     /tmp/ccsicyI8.s:3962   .debug_str:00000000000002fb .LASF65
     /tmp/ccsicyI8.s:4114   .debug_str:000000000000089c .LASF66
     /tmp/ccsicyI8.s:4152   .debug_str:00000000000009df .LASF67
     /tmp/ccsicyI8.s:3882   .debug_str:0000000000000104 .LASF68
     /tmp/ccsicyI8.s:3866   .debug_str:0000000000000079 .LASF69
     /tmp/ccsicyI8.s:4136   .debug_str:0000000000000969 .LASF70
     /tmp/ccsicyI8.s:4140   .debug_str:0000000000000977 .LASF71
     /tmp/ccsicyI8.s:4026   .debug_str:000000000000056e .LASF72
     /tmp/ccsicyI8.s:3900   .debug_str:000000000000017e .LASF73
     /tmp/ccsicyI8.s:3872   .debug_str:00000000000000b7 .LASF74
     /tmp/ccsicyI8.s:4058   .debug_str:000000000000064a .LASF75
     /tmp/ccsicyI8.s:4158   .debug_str:0000000000000a0f .LASF77
     /tmp/ccsicyI8.s:4046   .debug_str:00000000000005f1 .LASF79
     /tmp/ccsicyI8.s:4064   .debug_str:000000000000067d .LASF80
     /tmp/ccsicyI8.s:4126   .debug_str:0000000000000911 .LASF81
     /tmp/ccsicyI8.s:4180   .debug_str:0000000000000a93 .LASF82
     /tmp/ccsicyI8.s:3964   .debug_str:0000000000000318 .LASF83
     /tmp/ccsicyI8.s:4048   .debug_str:0000000000000609 .LASF164
     /tmp/ccsicyI8.s:4008   .debug_str:00000000000004cd .LASF84
     /tmp/ccsicyI8.s:4182   .debug_str:0000000000000aa5 .LASF85
     /tmp/ccsicyI8.s:3942   .debug_str:0000000000000288 .LASF96
     /tmp/ccsicyI8.s:4102   .debug_str:00000000000007a1 .LASF86
     /tmp/ccsicyI8.s:4098   .debug_str:0000000000000783 .LASF88
     /tmp/ccsicyI8.s:3986   .debug_str:00000000000003ff .LASF87
     /tmp/ccsicyI8.s:4038   .debug_str:00000000000005b6 .LASF89
     /tmp/ccsicyI8.s:4176   .debug_str:0000000000000a87 .LASF90
     /tmp/ccsicyI8.s:4146   .debug_str:00000000000009b0 .LASF91
     /tmp/ccsicyI8.s:4138   .debug_str:0000000000000971 .LASF92
     /tmp/ccsicyI8.s:3920   .debug_str:00000000000001fd .LASF93
     /tmp/ccsicyI8.s:4030   .debug_str:0000000000000588 .LASF94
     /tmp/ccsicyI8.s:3998   .debug_str:0000000000000485 .LASF95
     /tmp/ccsicyI8.s:4162   .debug_str:0000000000000a2a .LASF99
     /tmp/ccsicyI8.s:4170   .debug_str:0000000000000a59 .LASF97
     /tmp/ccsicyI8.s:3904   .debug_str:00000000000001a7 .LASF98
     /tmp/ccsicyI8.s:3856   .debug_str:0000000000000028 .LASF100
     /tmp/ccsicyI8.s:4178   .debug_str:0000000000000a8d .LASF101
     /tmp/ccsicyI8.s:4130   .debug_str:000000000000093b .LASF102
     /tmp/ccsicyI8.s:4142   .debug_str:0000000000000990 .LASF103
     /tmp/ccsicyI8.s:4116   .debug_str:00000000000008a7 .LASF104
     /tmp/ccsicyI8.s:3908   .debug_str:00000000000001c3 .LASF105
     /tmp/ccsicyI8.s:3860   .debug_str:000000000000003d .LASF106
     /tmp/ccsicyI8.s:4070   .debug_str:00000000000006b2 .LASF107
     /tmp/ccsicyI8.s:3914   .debug_str:00000000000001e7 .LASF108
     /tmp/ccsicyI8.s:3974   .debug_str:000000000000039e .LASF110
     /tmp/ccsicyI8.s:3886   .debug_str:0000000000000119 .LASF109
     /tmp/ccsicyI8.s:3988   .debug_str:000000000000040c .LASF111
     /tmp/ccsicyI8.s:3984   .debug_str:00000000000003f9 .LASF112
     /tmp/ccsicyI8.s:4108   .debug_str:00000000000007bc .LASF113
GAS LISTING /tmp/ccsicyI8.s 			page 22


     /tmp/ccsicyI8.s:4080   .debug_str:00000000000006fc .LASF114
     /tmp/ccsicyI8.s:3972   .debug_str:000000000000038f .LASF116
     /tmp/ccsicyI8.s:3916   .debug_str:00000000000001f0 .LASF115
     /tmp/ccsicyI8.s:3888   .debug_str:0000000000000127 .LASF117
     /tmp/ccsicyI8.s:3992   .debug_str:0000000000000441 .LASF118
     /tmp/ccsicyI8.s:3930   .debug_str:0000000000000237 .LASF119
     /tmp/ccsicyI8.s:3892   .debug_str:0000000000000153 .LASF120
     /tmp/ccsicyI8.s:4172   .debug_str:0000000000000a6f .LASF121
     /tmp/ccsicyI8.s:4166   .debug_str:0000000000000a36 .LASF122
     /tmp/ccsicyI8.s:4090   .debug_str:0000000000000760 .LASF123
     /tmp/ccsicyI8.s:4106   .debug_str:00000000000007b2 .LASF124
     /tmp/ccsicyI8.s:3928   .debug_str:0000000000000231 .LASF125
     /tmp/ccsicyI8.s:3870   .debug_str:00000000000000b1 .LASF126
     /tmp/ccsicyI8.s:3874   .debug_str:00000000000000c5 .LASF127
     /tmp/ccsicyI8.s:4014   .debug_str:0000000000000506 .LASF128
     /tmp/ccsicyI8.s:4096   .debug_str:000000000000077c .LASF129
     /tmp/ccsicyI8.s:4084   .debug_str:0000000000000717 .LASF130
     /tmp/ccsicyI8.s:4066   .debug_str:0000000000000682 .LASF131
     /tmp/ccsicyI8.s:3922   .debug_str:000000000000020d .LASF132
     /tmp/ccsicyI8.s:4002   .debug_str:00000000000004b1 .LASF133
     /tmp/ccsicyI8.s:4186   .debug_str:0000000000000adb .LASF134
     /tmp/ccsicyI8.s:3932   .debug_str:0000000000000248 .LASF135
     /tmp/ccsicyI8.s:4006   .debug_str:00000000000004c6 .LASF136
     /tmp/ccsicyI8.s:4072   .debug_str:00000000000006c3 .LASF137
     /tmp/ccsicyI8.s:4042   .debug_str:00000000000005d7 .LASF138
     /tmp/ccsicyI8.s:3912   .debug_str:00000000000001dc .LASF139
     /tmp/ccsicyI8.s:4154   .debug_str:00000000000009fc .LASF141
     /tmp/ccsicyI8.s:3898   .debug_str:0000000000000179 .LASF140
     /tmp/ccsicyI8.s:3996   .debug_str:0000000000000465 .LASF142
     /tmp/ccsicyI8.s:3990   .debug_str:0000000000000425 .LASF143
     /tmp/ccsicyI8.s:3852   .debug_str:0000000000000000 .LASF165
     /tmp/ccsicyI8.s:3934   .debug_str:0000000000000256 .LASF144
     /tmp/ccsicyI8.s:4018   .debug_str:0000000000000522 .LASF145
     /tmp/ccsicyI8.s:3980   .debug_str:00000000000003e1 .LASF146
     /tmp/ccsicyI8.s:4054   .debug_str:0000000000000628 .LASF147
     /tmp/ccsicyI8.s:4044   .debug_str:00000000000005dc .LASF148
     /tmp/ccsicyI8.s:3918   .debug_str:00000000000001f5 .LASF149
     /tmp/ccsicyI8.s:3868   .debug_str:0000000000000097 .LASF150
     /tmp/ccsicyI8.s:4150   .debug_str:00000000000009cb .LASF151
     /tmp/ccsicyI8.s:4122   .debug_str:00000000000008da .LASF166
     /tmp/ccsicyI8.s:4028   .debug_str:000000000000057c .LASF152
     /tmp/ccsicyI8.s:4068   .debug_str:0000000000000693 .LASF153
     /tmp/ccsicyI8.s:468    .text:0000000000000230 .LFB80
     /tmp/ccsicyI8.s:609    .text:00000000000002dc .LFE80
     /tmp/ccsicyI8.s:3940   .debug_str:0000000000000283 .LASF154
     /tmp/ccsicyI8.s:3462   .debug_loc:0000000000000000 .LLST21
     /tmp/ccsicyI8.s:3818   .debug_ranges:0000000000000000 .Ldebug_ranges0
     /tmp/ccsicyI8.s:3498   .debug_loc:000000000000008b .LLST22
     /tmp/ccsicyI8.s:514    .text:0000000000000270 .LBB63
     /tmp/ccsicyI8.s:3505   .debug_loc:00000000000000ae .LLST23
     /tmp/ccsicyI8.s:3516   .debug_loc:00000000000000e4 .LLST24
     /tmp/ccsicyI8.s:3527   .debug_loc:000000000000011a .LLST25
     /tmp/ccsicyI8.s:545    .text:0000000000000298 .LBB65
     /tmp/ccsicyI8.s:553    .text:00000000000002a0 .LBE65
     /tmp/ccsicyI8.s:3534   .debug_loc:000000000000013d .LLST26
     /tmp/ccsicyI8.s:550    .text:00000000000002a0 .LVL45
     /tmp/ccsicyI8.s:560    .text:00000000000002ac .LVL46
GAS LISTING /tmp/ccsicyI8.s 			page 23


     /tmp/ccsicyI8.s:306    .text:0000000000000154 .LFB79
     /tmp/ccsicyI8.s:462    .text:0000000000000230 .LFE79
     /tmp/ccsicyI8.s:3541   .debug_loc:0000000000000160 .LLST14
     /tmp/ccsicyI8.s:376    .text:00000000000001c8 .LBB47
     /tmp/ccsicyI8.s:3574   .debug_loc:00000000000001e8 .LLST15
     /tmp/ccsicyI8.s:3585   .debug_loc:000000000000021e .LLST16
     /tmp/ccsicyI8.s:3596   .debug_loc:0000000000000254 .LLST17
     /tmp/ccsicyI8.s:379    .text:00000000000001c8 .LBB49
     /tmp/ccsicyI8.s:387    .text:00000000000001d4 .LBE49
     /tmp/ccsicyI8.s:3607   .debug_loc:000000000000028a .LLST18
     /tmp/ccsicyI8.s:385    .text:00000000000001d4 .LVL30
     /tmp/ccsicyI8.s:388    .text:00000000000001d4 .LBB51
     /tmp/ccsicyI8.s:398    .text:00000000000001dc .LBE51
     /tmp/ccsicyI8.s:3615   .debug_loc:00000000000002ae .LLST19
     /tmp/ccsicyI8.s:3622   .debug_loc:00000000000002d1 .LLST20
     /tmp/ccsicyI8.s:423    .text:0000000000000204 .LVL33
     /tmp/ccsicyI8.s:150    .text:00000000000000a4 .LFB78
     /tmp/ccsicyI8.s:300    .text:0000000000000154 .LFE78
     /tmp/ccsicyI8.s:3629   .debug_loc:00000000000002f4 .LLST7
     /tmp/ccsicyI8.s:3662   .debug_loc:000000000000037c .LLST8
     /tmp/ccsicyI8.s:184    .text:00000000000000d8 .LBB31
     /tmp/ccsicyI8.s:3669   .debug_loc:000000000000039f .LLST9
     /tmp/ccsicyI8.s:3680   .debug_loc:00000000000003d5 .LLST10
     /tmp/ccsicyI8.s:3691   .debug_loc:000000000000040b .LLST11
     /tmp/ccsicyI8.s:192    .text:00000000000000e0 .LBB33
     /tmp/ccsicyI8.s:200    .text:00000000000000e8 .LBE33
     /tmp/ccsicyI8.s:3702   .debug_loc:0000000000000441 .LLST12
     /tmp/ccsicyI8.s:197    .text:00000000000000e8 .LVL13
     /tmp/ccsicyI8.s:207    .text:00000000000000f4 .LVL14
     /tmp/ccsicyI8.s:215    .text:00000000000000f8 .LBB37
     /tmp/ccsicyI8.s:222    .text:00000000000000fc .LBE37
     /tmp/ccsicyI8.s:3709   .debug_loc:0000000000000464 .LLST13
     /tmp/ccsicyI8.s:4164   .debug_str:0000000000000a2f .LASF155
     /tmp/ccsicyI8.s:3876   .debug_str:00000000000000d6 .LASF156
     /tmp/ccsicyI8.s:4052   .debug_str:0000000000000617 .LASF167
     /tmp/ccsicyI8.s:75     .text:0000000000000050 .LFB76
     /tmp/ccsicyI8.s:142    .text:00000000000000a4 .LFE76
     /tmp/ccsicyI8.s:3716   .debug_loc:0000000000000487 .LLST2
     /tmp/ccsicyI8.s:3734   .debug_loc:00000000000004d3 .LLST3
     /tmp/ccsicyI8.s:3748   .debug_loc:000000000000050c .LLST4
     /tmp/ccsicyI8.s:102    .text:0000000000000074 .LBB19
     /tmp/ccsicyI8.s:112    .text:0000000000000080 .LBE19
     /tmp/ccsicyI8.s:3762   .debug_loc:0000000000000545 .LLST5
     /tmp/ccsicyI8.s:110    .text:0000000000000080 .LVL7
     /tmp/ccsicyI8.s:113    .text:0000000000000080 .LBB21
     /tmp/ccsicyI8.s:125    .text:000000000000008c .LBE21
     /tmp/ccsicyI8.s:3770   .debug_loc:0000000000000569 .LLST6
     /tmp/ccsicyI8.s:43     .text:0000000000000028 .LFB74
     /tmp/ccsicyI8.s:69     .text:0000000000000050 .LFE74
     /tmp/ccsicyI8.s:3777   .debug_loc:000000000000058c .LLST1
     /tmp/ccsicyI8.s:58     .text:0000000000000040 .LVL3
     /tmp/ccsicyI8.s:10     .text:0000000000000000 .LFB73
     /tmp/ccsicyI8.s:37     .text:0000000000000028 .LFE73
     /tmp/ccsicyI8.s:3791   .debug_loc:00000000000005c5 .LLST0
     /tmp/ccsicyI8.s:26     .text:0000000000000018 .LVL1
     /tmp/ccsicyI8.s:3944   .debug_str:0000000000000290 .LASF157
     /tmp/ccsicyI8.s:3970   .debug_str:000000000000036f .LASF158
GAS LISTING /tmp/ccsicyI8.s 			page 24


     /tmp/ccsicyI8.s:3956   .debug_str:00000000000002db .LASF159
     /tmp/ccsicyI8.s:4132   .debug_str:0000000000000943 .LASF160
     /tmp/ccsicyI8.s:471    .text:0000000000000230 .LVL38
     /tmp/ccsicyI8.s:492    .text:0000000000000254 .LVL39
     /tmp/ccsicyI8.s:495    .text:0000000000000258 .LVL40
     /tmp/ccsicyI8.s:524    .text:000000000000027c .LVL42
     /tmp/ccsicyI8.s:589    .text:00000000000002cc .LVL49
     /tmp/ccsicyI8.s:606    .text:00000000000002d8 .LVL51
     /tmp/ccsicyI8.s:574    .text:00000000000002bc .LVL47
     /tmp/ccsicyI8.s:513    .text:0000000000000270 .LVL41
     /tmp/ccsicyI8.s:578    .text:00000000000002c4 .LVL48
     /tmp/ccsicyI8.s:594    .text:00000000000002d4 .LVL50
     /tmp/ccsicyI8.s:540    .text:0000000000000294 .LVL43
     /tmp/ccsicyI8.s:544    .text:0000000000000298 .LVL44
     /tmp/ccsicyI8.s:309    .text:0000000000000154 .LVL25
     /tmp/ccsicyI8.s:342    .text:0000000000000194 .LVL26
     /tmp/ccsicyI8.s:359    .text:00000000000001a8 .LVL27
     /tmp/ccsicyI8.s:367    .text:00000000000001b8 .LVL28
     /tmp/ccsicyI8.s:448    .text:0000000000000228 .LVL36
     /tmp/ccsicyI8.s:458    .text:000000000000022c .LVL37
     /tmp/ccsicyI8.s:375    .text:00000000000001c8 .LVL29
     /tmp/ccsicyI8.s:417    .text:00000000000001fc .LVL32
     /tmp/ccsicyI8.s:425    .text:0000000000000208 .LVL34
     /tmp/ccsicyI8.s:441    .text:0000000000000220 .LVL35
     /tmp/ccsicyI8.s:396    .text:00000000000001dc .LVL31
     /tmp/ccsicyI8.s:153    .text:00000000000000a4 .LVL10
     /tmp/ccsicyI8.s:181    .text:00000000000000d8 .LVL11
     /tmp/ccsicyI8.s:261    .text:0000000000000130 .LVL21
     /tmp/ccsicyI8.s:273    .text:0000000000000134 .LVL22
     /tmp/ccsicyI8.s:276    .text:0000000000000138 .LVL23
     /tmp/ccsicyI8.s:295    .text:000000000000014c .LVL24
     /tmp/ccsicyI8.s:227    .text:0000000000000100 .LVL17
     /tmp/ccsicyI8.s:235    .text:0000000000000108 .LVL18
     /tmp/ccsicyI8.s:256    .text:0000000000000128 .LVL20
     /tmp/ccsicyI8.s:190    .text:00000000000000e0 .LVL12
     /tmp/ccsicyI8.s:251    .text:0000000000000120 .LVL19
     /tmp/ccsicyI8.s:214    .text:00000000000000f8 .LVL15
     /tmp/ccsicyI8.s:220    .text:00000000000000fc .LVL16
     /tmp/ccsicyI8.s:78     .text:0000000000000050 .LVL4
     /tmp/ccsicyI8.s:108    .text:0000000000000078 .LVL6
     /tmp/ccsicyI8.s:137    .text:000000000000009c .LVL9
     /tmp/ccsicyI8.s:101    .text:0000000000000074 .LVL5
     /tmp/ccsicyI8.s:123    .text:000000000000008c .LVL8
     /tmp/ccsicyI8.s:46     .text:0000000000000028 .LVL2
     /tmp/ccsicyI8.s:14     .text:0000000000000000 .LVL0
     /tmp/ccsicyI8.s:618    .debug_info:0000000000000000 .Ldebug_info0
     /tmp/ccsicyI8.s:183    .text:00000000000000d8 .LBB30
     /tmp/ccsicyI8.s:209    .text:00000000000000f4 .LBE30
     /tmp/ccsicyI8.s:225    .text:0000000000000100 .LBB39
     /tmp/ccsicyI8.s:270    .text:0000000000000130 .LBE39
     /tmp/ccsicyI8.s:202    .text:00000000000000e8 .LBE31
     /tmp/ccsicyI8.s:228    .text:0000000000000100 .LBB36
     /tmp/ccsicyI8.s:269    .text:0000000000000130 .LBE36
     /tmp/ccsicyI8.s:419    .text:00000000000001fc .LBE47
     /tmp/ccsicyI8.s:427    .text:0000000000000208 .LBB54
     /tmp/ccsicyI8.s:444    .text:0000000000000220 .LBE54
     /tmp/ccsicyI8.s:509    .text:000000000000026c .LBB62
GAS LISTING /tmp/ccsicyI8.s 			page 25


     /tmp/ccsicyI8.s:561    .text:00000000000002ac .LBE62
     /tmp/ccsicyI8.s:582    .text:00000000000002c4 .LBB69
     /tmp/ccsicyI8.s:602    .text:00000000000002d4 .LBE69
     /tmp/ccsicyI8.s:555    .text:00000000000002a0 .LBE63
     /tmp/ccsicyI8.s:583    .text:00000000000002c4 .LBB68
     /tmp/ccsicyI8.s:601    .text:00000000000002d4 .LBE68

UNDEFINED SYMBOLS
__mem_alloc
__mem_free
_ZN3TCB6siganlEv
_ZN3TCB7runningE
_ZN3TCB4waitEv
