GAS LISTING /tmp/ccuF7knB.s 			page 1


   1              		.file	"_sem.cpp"
   2              		.option pic
   3              		.option norelax
   4              		.text
   5              	.Ltext0:
   6              		.align	2
   7              		.globl	_ZN4_semnwEm
   9              	_ZN4_semnwEm:
  10              	.LFB60:
  11              		.file 1 "src/_sem.cpp"
   1:src/_sem.cpp  **** //
   2:src/_sem.cpp  **** // Created by os on 8/5/22.
   3:src/_sem.cpp  **** //
   4:src/_sem.cpp  **** 
   5:src/_sem.cpp  **** #include "../h/_sem.hpp"
   6:src/_sem.cpp  **** #include "../lib/mem.h"
   7:src/_sem.cpp  **** #include "../h/print.hpp"
   8:src/_sem.cpp  **** void* _sem::operator new(size_t size) {
  12              		.loc 1 8 39
  13              		.cfi_startproc
  14              	.LVL0:
  15 0000 130101FF 		addi	sp,sp,-16
  16              		.cfi_def_cfa_offset 16
  17 0004 23341100 		sd	ra,8(sp)
  18 0008 23308100 		sd	s0,0(sp)
  19              		.cfi_offset 1, -8
  20              		.cfi_offset 8, -16
  21 000c 13040101 		addi	s0,sp,16
  22              		.cfi_def_cfa 8, 0
   9:src/_sem.cpp  ****     return __mem_alloc(size);
  23              		.loc 1 9 5
  24              		.loc 1 9 23 is_stmt 0
  25 0010 97000000 		call	__mem_alloc@plt
  25      E7800000 
  26              	.LVL1:
  10:src/_sem.cpp  **** }
  27              		.loc 1 10 1
  28 0018 83308100 		ld	ra,8(sp)
  29              		.cfi_restore 1
  30 001c 03340100 		ld	s0,0(sp)
  31              		.cfi_restore 8
  32              		.cfi_def_cfa 2, 16
  33 0020 13010101 		addi	sp,sp,16
  34              		.cfi_def_cfa_offset 0
  35 0024 67800000 		jr	ra
  36              		.cfi_endproc
  37              	.LFE60:
  39              		.align	2
  40              		.globl	_ZN4_semdlEPv
  42              	_ZN4_semdlEPv:
  43              	.LFB61:
  11:src/_sem.cpp  **** void _sem::operator delete(void *ptr)  {
  44              		.loc 1 11 40 is_stmt 1
  45              		.cfi_startproc
  46              	.LVL2:
  47 0028 130101FF 		addi	sp,sp,-16
  48              		.cfi_def_cfa_offset 16
GAS LISTING /tmp/ccuF7knB.s 			page 2


  49 002c 23341100 		sd	ra,8(sp)
  50 0030 23308100 		sd	s0,0(sp)
  51              		.cfi_offset 1, -8
  52              		.cfi_offset 8, -16
  53 0034 13040101 		addi	s0,sp,16
  54              		.cfi_def_cfa 8, 0
  12:src/_sem.cpp  ****     __mem_free(ptr);
  55              		.loc 1 12 5
  56              		.loc 1 12 15 is_stmt 0
  57 0038 97000000 		call	__mem_free@plt
  57      E7800000 
  58              	.LVL3:
  13:src/_sem.cpp  **** }
  59              		.loc 1 13 1
  60 0040 83308100 		ld	ra,8(sp)
  61              		.cfi_restore 1
  62 0044 03340100 		ld	s0,0(sp)
  63              		.cfi_restore 8
  64              		.cfi_def_cfa 2, 16
  65 0048 13010101 		addi	sp,sp,16
  66              		.cfi_def_cfa_offset 0
  67 004c 67800000 		jr	ra
  68              		.cfi_endproc
  69              	.LFE61:
  71              		.align	2
  72              		.globl	_ZN4_semC2EPPS_j
  74              	_ZN4_semC2EPPS_j:
  75              	.LFB63:
  14:src/_sem.cpp  **** _sem::_sem(sem_t *handle, unsigned  init) {
  76              		.loc 1 14 1 is_stmt 1
  77              		.cfi_startproc
  78              	.LVL4:
  79 0050 130101FF 		addi	sp,sp,-16
  80              		.cfi_def_cfa_offset 16
  81 0054 23348100 		sd	s0,8(sp)
  82              		.cfi_offset 8, -8
  83 0058 13040101 		addi	s0,sp,16
  84              		.cfi_def_cfa 8, 0
  85              	.LVL5:
  86              	.LBB16:
  87              	.LBB17:
  88              	.LBB18:
  89              		.file 2 "src/../h/list.hpp"
   1:src/../h/list.hpp **** //
   2:src/../h/list.hpp **** // Created by marko on 20.4.22..
   3:src/../h/list.hpp **** //
   4:src/../h/list.hpp **** 
   5:src/../h/list.hpp **** #ifndef OS1_VEZBE07_RISCV_CONTEXT_SWITCH_1_SYNCHRONOUS_LIST_HPP
   6:src/../h/list.hpp **** #define OS1_VEZBE07_RISCV_CONTEXT_SWITCH_1_SYNCHRONOUS_LIST_HPP
   7:src/../h/list.hpp **** #include "../lib/mem.h"
   8:src/../h/list.hpp **** template<typename T>
   9:src/../h/list.hpp **** class List
  10:src/../h/list.hpp **** {
  11:src/../h/list.hpp **** private:
  12:src/../h/list.hpp ****     struct Elem
  13:src/../h/list.hpp ****     {
  14:src/../h/list.hpp ****         T *data;
GAS LISTING /tmp/ccuF7knB.s 			page 3


  15:src/../h/list.hpp ****         Elem *next;
  16:src/../h/list.hpp **** 
  17:src/../h/list.hpp ****         Elem(T *data, Elem *next) : data(data), next(next) {}
  18:src/../h/list.hpp ****         void *operator new (size_t size){return __mem_alloc(size);}
  19:src/../h/list.hpp ****         void operator delete (void * ptr){ __mem_free(ptr);}
  20:src/../h/list.hpp ****     };
  21:src/../h/list.hpp **** 
  22:src/../h/list.hpp ****     Elem *head, *tail;
  23:src/../h/list.hpp ****     unsigned sizeofList=0;
  24:src/../h/list.hpp **** public:
  25:src/../h/list.hpp ****     List() : head(0), tail(0) {
  90              		.loc 2 25 29 is_stmt 0
  91 005c 23300500 		sd	zero,0(a0)
  92 0060 23340500 		sd	zero,8(a0)
  93 0064 23280500 		sw	zero,16(a0)
  94              	.LVL6:
  95              	.LBE18:
  96              	.LBE17:
  15:src/_sem.cpp  ****     *handle=this;
  97              		.loc 1 15 5 is_stmt 1
  98              		.loc 1 15 12 is_stmt 0
  99 0068 23B0A500 		sd	a0,0(a1)
  16:src/_sem.cpp  ****     val=init;
 100              		.loc 1 16 5 is_stmt 1
 101              		.loc 1 16 8 is_stmt 0
 102 006c 232CC500 		sw	a2,24(a0)
  17:src/_sem.cpp  ****     ended=0;
 103              		.loc 1 17 5 is_stmt 1
 104              		.loc 1 17 10 is_stmt 0
 105 0070 232E0500 		sw	zero,28(a0)
 106              	.LBE16:
  18:src/_sem.cpp  **** 
  19:src/_sem.cpp  **** }
 107              		.loc 1 19 1
 108 0074 03348100 		ld	s0,8(sp)
 109              		.cfi_restore 8
 110              		.cfi_def_cfa 2, 16
 111 0078 13010101 		addi	sp,sp,16
 112              		.cfi_def_cfa_offset 0
 113 007c 67800000 		jr	ra
 114              		.cfi_endproc
 115              	.LFE63:
 117              		.globl	_ZN4_semC1EPPS_j
 118              		.set	_ZN4_semC1EPPS_j,_ZN4_semC2EPPS_j
 119              		.align	2
 120              		.globl	_ZN4_sem5closeEv
 122              	_ZN4_sem5closeEv:
 123              	.LFB65:
  20:src/_sem.cpp  **** int _sem::close() {
 124              		.loc 1 20 19 is_stmt 1
 125              		.cfi_startproc
 126              	.LVL7:
  21:src/_sem.cpp  ****     if(ended==1) return -1;
 127              		.loc 1 21 5
 128              		.loc 1 21 8 is_stmt 0
 129 0080 0327C501 		lw	a4,28(a0)
 130              		.loc 1 21 5
GAS LISTING /tmp/ccuF7knB.s 			page 4


 131 0084 93071000 		li	a5,1
 132 0088 630EF706 		beq	a4,a5,.L12
  20:src/_sem.cpp  **** int _sem::close() {
 133              		.loc 1 20 19
 134 008c 130101FE 		addi	sp,sp,-32
 135              		.cfi_def_cfa_offset 32
 136 0090 233C1100 		sd	ra,24(sp)
 137 0094 23388100 		sd	s0,16(sp)
 138 0098 23349100 		sd	s1,8(sp)
 139 009c 23302101 		sd	s2,0(sp)
 140              		.cfi_offset 1, -8
 141              		.cfi_offset 8, -16
 142              		.cfi_offset 9, -24
 143              		.cfi_offset 18, -32
 144 00a0 13040102 		addi	s0,sp,32
 145              		.cfi_def_cfa 8, 0
 146 00a4 93040500 		mv	s1,a0
  22:src/_sem.cpp  ****     ended=1;
 147              		.loc 1 22 5 is_stmt 1
 148              		.loc 1 22 10 is_stmt 0
 149 00a8 232EF500 		sw	a5,28(a0)
  23:src/_sem.cpp  ****     val=0;
 150              		.loc 1 23 5 is_stmt 1
 151              		.loc 1 23 8 is_stmt 0
 152 00ac 232C0500 		sw	zero,24(a0)
 153 00b0 6F00C002 		j	.L11
 154              	.LVL8:
 155              	.L19:
 156              	.LBB26:
 157              	.LBB27:
 158              	.LBB28:
  26:src/../h/list.hpp ****         sizeofList=0;
  27:src/../h/list.hpp ****     }
  28:src/../h/list.hpp **** 
  29:src/../h/list.hpp ****     List(const List<T> &) = delete;
  30:src/../h/list.hpp **** 
  31:src/../h/list.hpp ****     List<T> &operator=(const List<T> &) = delete;
  32:src/../h/list.hpp ****     unsigned size() const {return sizeofList;}
  33:src/../h/list.hpp ****     void addFirst(T *data)
  34:src/../h/list.hpp ****     {
  35:src/../h/list.hpp ****         Elem *elem = new Elem(data, head);
  36:src/../h/list.hpp ****         head = elem;
  37:src/../h/list.hpp ****         if (!tail) { tail = head; }
  38:src/../h/list.hpp ****         sizeofList++;
  39:src/../h/list.hpp ****     }
  40:src/../h/list.hpp **** 
  41:src/../h/list.hpp ****     void addLast(T *data)
  42:src/../h/list.hpp ****     {
  43:src/../h/list.hpp ****         Elem *elem = new Elem(data, 0);
  44:src/../h/list.hpp ****         if (tail)
  45:src/../h/list.hpp ****         {
  46:src/../h/list.hpp ****             tail->next = elem;
  47:src/../h/list.hpp ****             tail = elem;
  48:src/../h/list.hpp ****         } else
  49:src/../h/list.hpp ****         {
  50:src/../h/list.hpp ****             head = tail = elem;
  51:src/../h/list.hpp ****         }
GAS LISTING /tmp/ccuF7knB.s 			page 5


  52:src/../h/list.hpp ****         sizeofList++;
  53:src/../h/list.hpp ****     }
  54:src/../h/list.hpp **** 
  55:src/../h/list.hpp ****     T *removeFirst()
  56:src/../h/list.hpp ****     {
  57:src/../h/list.hpp ****         if (!head) { return 0; }
  58:src/../h/list.hpp **** 
  59:src/../h/list.hpp ****         Elem *elem = head;
  60:src/../h/list.hpp ****         head = head->next;
  61:src/../h/list.hpp ****         if (!head) { tail = 0; }
 159              		.loc 2 61 22
 160 00b4 23B40400 		sd	zero,8(s1)
 161              	.L10:
  62:src/../h/list.hpp ****         sizeofList--;
 162              		.loc 2 62 9
 163 00b8 83A70401 		lw	a5,16(s1)
 164 00bc 9B87F7FF 		addiw	a5,a5,-1
 165 00c0 23A8F400 		sw	a5,16(s1)
  63:src/../h/list.hpp ****         T *ret = elem->data;
 166              		.loc 2 63 12
 167 00c4 03390500 		ld	s2,0(a0)
 168              	.LVL9:
 169              	.LBB29:
 170              	.LBB30:
  19:src/../h/list.hpp ****     };
 171              		.loc 2 19 54
 172 00c8 97000000 		call	__mem_free@plt
 172      E7800000 
 173              	.LVL10:
 174              	.L9:
 175              	.LBE30:
 176              	.LBE29:
 177              	.LBE28:
 178              	.LBE27:
  24:src/_sem.cpp  ****     while(waiting.size()>0){
  25:src/_sem.cpp  ****         TCB* tcb = waiting.removeFirst();
  26:src/_sem.cpp  ****         tcb->releaseWaiting();
 179              		.loc 1 26 9 is_stmt 1
 180              		.loc 1 26 28 is_stmt 0
 181 00d0 13050900 		mv	a0,s2
 182 00d4 97000000 		call	_ZN3TCB14releaseWaitingEv@plt
 182      E7800000 
 183              	.LVL11:
 184              	.L11:
 185              	.LBE26:
  24:src/_sem.cpp  ****     while(waiting.size()>0){
 186              		.loc 1 24 5 is_stmt 1
  24:src/_sem.cpp  ****     while(waiting.size()>0){
 187              		.loc 1 24 25
 188              	.LBB33:
 189              	.LBB34:
  32:src/../h/list.hpp ****     void addFirst(T *data)
 190              		.loc 2 32 35 is_stmt 0
 191 00dc 83A70401 		lw	a5,16(s1)
 192              	.LVL12:
 193              	.LBE34:
 194              	.LBE33:
GAS LISTING /tmp/ccuF7knB.s 			page 6


  24:src/_sem.cpp  ****     while(waiting.size()>0){
 195              		.loc 1 24 25
 196 00e0 63860702 		beqz	a5,.L13
 197              	.LBB35:
  25:src/_sem.cpp  ****         tcb->releaseWaiting();
 198              		.loc 1 25 9 is_stmt 1
 199              	.LVL13:
 200              	.LBB32:
 201              	.LBB31:
  57:src/../h/list.hpp **** 
 202              		.loc 2 57 14 is_stmt 0
 203 00e4 03B50400 		ld	a0,0(s1)
  57:src/../h/list.hpp **** 
 204              		.loc 2 57 9
 205 00e8 630A0500 		beqz	a0,.L14
 206              	.LVL14:
  60:src/../h/list.hpp ****         if (!head) { tail = 0; }
 207              		.loc 2 60 22
 208 00ec 83378500 		ld	a5,8(a0)
  60:src/../h/list.hpp ****         if (!head) { tail = 0; }
 209              		.loc 2 60 9
 210 00f0 23B0F400 		sd	a5,0(s1)
  61:src/../h/list.hpp ****         sizeofList--;
 211              		.loc 2 61 9
 212 00f4 E39207FC 		bnez	a5,.L10
 213 00f8 6FF0DFFB 		j	.L19
 214              	.LVL15:
 215              	.L14:
  57:src/../h/list.hpp **** 
 216              		.loc 2 57 29
 217 00fc 13090500 		mv	s2,a0
 218 0100 6FF01FFD 		j	.L9
 219              	.LVL16:
 220              	.L12:
 221              		.cfi_def_cfa_register 2
 222              		.cfi_restore 1
 223              		.cfi_restore 8
 224              		.cfi_restore 9
 225              		.cfi_restore 18
 226              	.LBE31:
 227              	.LBE32:
 228              	.LBE35:
  21:src/_sem.cpp  ****     ended=1;
 229              		.loc 1 21 26
 230 0104 1305F0FF 		li	a0,-1
 231              	.LVL17:
  27:src/_sem.cpp  ****     }
  28:src/_sem.cpp  ****     return 0;
  29:src/_sem.cpp  **** }
 232              		.loc 1 29 1
 233 0108 67800000 		ret
 234              	.LVL18:
 235              	.L13:
 236              		.cfi_def_cfa_register 8
 237              		.cfi_offset 1, -8
 238              		.cfi_offset 8, -16
 239              		.cfi_offset 9, -24
GAS LISTING /tmp/ccuF7knB.s 			page 7


 240              		.cfi_offset 18, -32
  28:src/_sem.cpp  **** }
 241              		.loc 1 28 12
 242 010c 13050000 		li	a0,0
 243              		.loc 1 29 1
 244 0110 83308101 		ld	ra,24(sp)
 245              		.cfi_restore 1
 246 0114 03340101 		ld	s0,16(sp)
 247              		.cfi_restore 8
 248              		.cfi_def_cfa 2, 32
 249 0118 83348100 		ld	s1,8(sp)
 250              		.cfi_restore 9
 251              	.LVL19:
 252 011c 03390100 		ld	s2,0(sp)
 253              		.cfi_restore 18
 254 0120 13010102 		addi	sp,sp,32
 255              		.cfi_def_cfa_offset 0
 256 0124 67800000 		jr	ra
 257              		.cfi_endproc
 258              	.LFE65:
 260              		.align	2
 261              		.globl	_ZN4_sem4waitEv
 263              	_ZN4_sem4waitEv:
 264              	.LFB66:
  30:src/_sem.cpp  **** int _sem::wait() {
 265              		.loc 1 30 18 is_stmt 1
 266              		.cfi_startproc
 267              	.LVL20:
  31:src/_sem.cpp  **** 
  32:src/_sem.cpp  ****     if(ended==1)return -1;
 268              		.loc 1 32 5
 269              		.loc 1 32 8 is_stmt 0
 270 0128 0327C501 		lw	a4,28(a0)
 271              		.loc 1 32 5
 272 012c 93071000 		li	a5,1
 273 0130 6308F70A 		beq	a4,a5,.L25
  30:src/_sem.cpp  **** int _sem::wait() {
 274              		.loc 1 30 18
 275 0134 130101FE 		addi	sp,sp,-32
 276              		.cfi_def_cfa_offset 32
 277 0138 233C1100 		sd	ra,24(sp)
 278 013c 23388100 		sd	s0,16(sp)
 279 0140 23349100 		sd	s1,8(sp)
 280 0144 23302101 		sd	s2,0(sp)
 281              		.cfi_offset 1, -8
 282              		.cfi_offset 8, -16
 283              		.cfi_offset 9, -24
 284              		.cfi_offset 18, -32
 285 0148 13040102 		addi	s0,sp,32
 286              		.cfi_def_cfa 8, 0
 287 014c 93040500 		mv	s1,a0
  33:src/_sem.cpp  ****     if(--val<0)
 288              		.loc 1 33 5 is_stmt 1
 289              		.loc 1 33 10 is_stmt 0
 290 0150 83278501 		lw	a5,24(a0)
 291              		.loc 1 33 8
 292 0154 9B87F7FF 		addiw	a5,a5,-1
GAS LISTING /tmp/ccuF7knB.s 			page 8


 293              		.loc 1 33 13
 294 0158 232CF500 		sw	a5,24(a0)
 295              		.loc 1 33 5
 296 015c 13970702 		slli	a4,a5,32
 297 0160 63420702 		bltz	a4,.L30
 298              	.LVL21:
 299              	.L22:
  34:src/_sem.cpp  ****     {
  35:src/_sem.cpp  **** 
  36:src/_sem.cpp  ****         waiting.addLast(TCB::running);
  37:src/_sem.cpp  ****         TCB::wait();
  38:src/_sem.cpp  ****     }
  39:src/_sem.cpp  **** 
  40:src/_sem.cpp  ****     if(ended)return -1;
 300              		.loc 1 40 5 is_stmt 1
 301              		.loc 1 40 8 is_stmt 0
 302 0164 03A5C401 		lw	a0,28(s1)
 303              		.loc 1 40 5
 304 0168 63180506 		bnez	a0,.L31
 305              	.L21:
  41:src/_sem.cpp  ****     else return 0;
  42:src/_sem.cpp  **** }
 306              		.loc 1 42 1
 307 016c 83308101 		ld	ra,24(sp)
 308              		.cfi_remember_state
 309              		.cfi_restore 1
 310 0170 03340101 		ld	s0,16(sp)
 311              		.cfi_restore 8
 312              		.cfi_def_cfa 2, 32
 313 0174 83348100 		ld	s1,8(sp)
 314              		.cfi_restore 9
 315              	.LVL22:
 316 0178 03390100 		ld	s2,0(sp)
 317              		.cfi_restore 18
 318 017c 13010102 		addi	sp,sp,32
 319              		.cfi_def_cfa_offset 0
 320 0180 67800000 		jr	ra
 321              	.LVL23:
 322              	.L30:
 323              		.cfi_restore_state
  36:src/_sem.cpp  ****         TCB::wait();
 324              		.loc 1 36 9 is_stmt 1
  36:src/_sem.cpp  ****         TCB::wait();
 325              		.loc 1 36 24 is_stmt 0
 326 0184 97070000 		la	a5,_ZN3TCB7runningE
 326      83B70700 
 327 018c 03B90700 		ld	s2,0(a5)
 328              	.LVL24:
 329              	.LBB43:
 330              	.LBB44:
 331              	.LBB45:
 332              	.LBB46:
  18:src/../h/list.hpp ****         void operator delete (void * ptr){ __mem_free(ptr);}
 333              		.loc 2 18 60
 334 0190 13050001 		li	a0,16
 335 0194 97000000 		call	__mem_alloc@plt
 335      E7800000 
GAS LISTING /tmp/ccuF7knB.s 			page 9


 336              	.LVL25:
 337              	.LBE46:
 338              	.LBE45:
 339              	.LBB47:
 340              	.LBB48:
  17:src/../h/list.hpp ****         void *operator new (size_t size){return __mem_alloc(size);}
 341              		.loc 2 17 58
 342 019c 23302501 		sd	s2,0(a0)
 343 01a0 23340500 		sd	zero,8(a0)
 344              	.LVL26:
 345              	.LBE48:
 346              	.LBE47:
  44:src/../h/list.hpp ****         {
 347              		.loc 2 44 13
 348 01a4 83B78400 		ld	a5,8(s1)
  44:src/../h/list.hpp ****         {
 349              		.loc 2 44 9
 350 01a8 63820702 		beqz	a5,.L23
  46:src/../h/list.hpp ****             tail = elem;
 351              		.loc 2 46 13
 352 01ac 23B4A700 		sd	a0,8(a5)
  47:src/../h/list.hpp ****         } else
 353              		.loc 2 47 13
 354 01b0 23B4A400 		sd	a0,8(s1)
 355              	.L24:
  52:src/../h/list.hpp ****     }
 356              		.loc 2 52 9
 357 01b4 83A70401 		lw	a5,16(s1)
 358 01b8 9B871700 		addiw	a5,a5,1
 359 01bc 23A8F400 		sw	a5,16(s1)
 360              	.LVL27:
 361              	.LBE44:
 362              	.LBE43:
  37:src/_sem.cpp  ****     }
 363              		.loc 1 37 9 is_stmt 1
  37:src/_sem.cpp  ****     }
 364              		.loc 1 37 18 is_stmt 0
 365 01c0 97000000 		call	_ZN3TCB4waitEv@plt
 365      E7800000 
 366              	.LVL28:
 367 01c8 6FF0DFF9 		j	.L22
 368              	.LVL29:
 369              	.L23:
 370              	.LBB50:
 371              	.LBB49:
  50:src/../h/list.hpp ****         }
 372              		.loc 2 50 13
 373 01cc 23B4A400 		sd	a0,8(s1)
 374 01d0 23B0A400 		sd	a0,0(s1)
 375 01d4 6FF01FFE 		j	.L24
 376              	.LVL30:
 377              	.L31:
 378              	.LBE49:
 379              	.LBE50:
  40:src/_sem.cpp  ****     else return 0;
 380              		.loc 1 40 22
 381 01d8 1305F0FF 		li	a0,-1
GAS LISTING /tmp/ccuF7knB.s 			page 10


 382 01dc 6FF01FF9 		j	.L21
 383              	.LVL31:
 384              	.L25:
 385              		.cfi_def_cfa_register 2
 386              		.cfi_restore 1
 387              		.cfi_restore 8
 388              		.cfi_restore 9
 389              		.cfi_restore 18
  32:src/_sem.cpp  ****     if(--val<0)
 390              		.loc 1 32 25
 391 01e0 1305F0FF 		li	a0,-1
 392              	.LVL32:
 393              		.loc 1 42 1
 394 01e4 67800000 		ret
 395              		.cfi_endproc
 396              	.LFE66:
 398              		.align	2
 399              		.globl	_ZN4_sem6signalEv
 401              	_ZN4_sem6signalEv:
 402              	.LFB67:
  43:src/_sem.cpp  **** int _sem::signal() {
 403              		.loc 1 43 20 is_stmt 1
 404              		.cfi_startproc
 405              	.LVL33:
  44:src/_sem.cpp  ****     if(ended==1)return -1;
 406              		.loc 1 44 5
 407              		.loc 1 44 8 is_stmt 0
 408 01e8 0327C501 		lw	a4,28(a0)
 409              		.loc 1 44 5
 410 01ec 93071000 		li	a5,1
 411 01f0 630CF708 		beq	a4,a5,.L36
  45:src/_sem.cpp  ****     if(++val<=0){
 412              		.loc 1 45 5 is_stmt 1
 413              	.LBB57:
 414              		.loc 1 45 10 is_stmt 0
 415 01f4 83278501 		lw	a5,24(a0)
 416              		.loc 1 45 8
 417 01f8 9B871700 		addiw	a5,a5,1
 418 01fc 1B870700 		sext.w	a4,a5
 419              		.loc 1 45 13
 420 0200 232CF500 		sw	a5,24(a0)
 421              		.loc 1 45 5
 422 0204 6356E000 		blez	a4,.L43
 423              	.LBE57:
  46:src/_sem.cpp  ****         TCB*tcb=waiting.removeFirst();
  47:src/_sem.cpp  ****         tcb->releaseWaiting();
  48:src/_sem.cpp  ****     }
  49:src/_sem.cpp  ****     return 0;
 424              		.loc 1 49 12
 425 0208 13050000 		li	a0,0
 426              	.LVL34:
  50:src/_sem.cpp  **** }...
 427              		.loc 1 50 1
 428 020c 67800000 		ret
 429              	.LVL35:
 430              	.L43:
  43:src/_sem.cpp  **** int _sem::signal() {
GAS LISTING /tmp/ccuF7knB.s 			page 11


 431              		.loc 1 43 20
 432 0210 130101FE 		addi	sp,sp,-32
 433              		.cfi_def_cfa_offset 32
 434 0214 233C1100 		sd	ra,24(sp)
 435 0218 23388100 		sd	s0,16(sp)
 436 021c 23349100 		sd	s1,8(sp)
 437              		.cfi_offset 1, -8
 438              		.cfi_offset 8, -16
 439              		.cfi_offset 9, -24
 440 0220 13040102 		addi	s0,sp,32
 441              		.cfi_def_cfa 8, 0
 442              	.LBB66:
 443              	.LBB58:
  46:src/_sem.cpp  ****         TCB*tcb=waiting.removeFirst();
 444              		.loc 1 46 9 is_stmt 1
 445              	.LVL36:
 446              	.LBB59:
 447              	.LBB60:
  57:src/../h/list.hpp **** 
 448              		.loc 2 57 14 is_stmt 0
 449 0224 83370500 		ld	a5,0(a0)
  57:src/../h/list.hpp **** 
 450              		.loc 2 57 9
 451 0228 638C0704 		beqz	a5,.L38
 452              	.LVL37:
  60:src/../h/list.hpp ****         if (!head) { tail = 0; }
 453              		.loc 2 60 22
 454 022c 03B78700 		ld	a4,8(a5)
  60:src/../h/list.hpp ****         if (!head) { tail = 0; }
 455              		.loc 2 60 9
 456 0230 2330E500 		sd	a4,0(a0)
  61:src/../h/list.hpp ****         sizeofList--;
 457              		.loc 2 61 9
 458 0234 63020704 		beqz	a4,.L44
 459              	.L35:
  62:src/../h/list.hpp ****         T *ret = elem->data;
 460              		.loc 2 62 9
 461 0238 03270501 		lw	a4,16(a0)
 462 023c 1B07F7FF 		addiw	a4,a4,-1
 463 0240 2328E500 		sw	a4,16(a0)
 464              		.loc 2 63 12
 465 0244 83B40700 		ld	s1,0(a5)
 466              	.LVL38:
 467              	.LBB61:
 468              	.LBB62:
  19:src/../h/list.hpp ****     };
 469              		.loc 2 19 54
 470 0248 13850700 		mv	a0,a5
 471              	.LVL39:
 472 024c 97000000 		call	__mem_free@plt
 472      E7800000 
 473              	.LVL40:
 474              	.L34:
 475              	.LBE62:
 476              	.LBE61:
 477              	.LBE60:
 478              	.LBE59:
GAS LISTING /tmp/ccuF7knB.s 			page 12


  47:src/_sem.cpp  ****         tcb->releaseWaiting();
 479              		.loc 1 47 9 is_stmt 1
  47:src/_sem.cpp  ****         tcb->releaseWaiting();
 480              		.loc 1 47 28 is_stmt 0
 481 0254 13850400 		mv	a0,s1
 482 0258 97000000 		call	_ZN3TCB14releaseWaitingEv@plt
 482      E7800000 
 483              	.LVL41:
 484              	.LBE58:
 485              	.LBE66:
  49:src/_sem.cpp  ****     return 0;
 486              		.loc 1 49 12
 487 0260 13050000 		li	a0,0
 488              		.loc 1 50 1
 489 0264 83308101 		ld	ra,24(sp)
 490              		.cfi_remember_state
 491              		.cfi_restore 1
 492 0268 03340101 		ld	s0,16(sp)
 493              		.cfi_restore 8
 494              		.cfi_def_cfa 2, 32
 495 026c 83348100 		ld	s1,8(sp)
 496              		.cfi_restore 9
 497              	.LVL42:
 498 0270 13010102 		addi	sp,sp,32
 499              		.cfi_def_cfa_offset 0
 500 0274 67800000 		jr	ra
 501              	.LVL43:
 502              	.L44:
 503              		.cfi_restore_state
 504              	.LBB67:
 505              	.LBB65:
 506              	.LBB64:
 507              	.LBB63:
  61:src/../h/list.hpp ****         sizeofList--;
 508              		.loc 2 61 22
 509 0278 23340500 		sd	zero,8(a0)
 510 027c 6FF0DFFB 		j	.L35
 511              	.LVL44:
 512              	.L38:
  57:src/../h/list.hpp **** 
 513              		.loc 2 57 29
 514 0280 93840700 		mv	s1,a5
 515 0284 6FF01FFD 		j	.L34
 516              	.LVL45:
 517              	.L36:
 518              		.cfi_def_cfa_register 2
 519              		.cfi_restore 1
 520              		.cfi_restore 8
 521              		.cfi_restore 9
 522              	.LBE63:
 523              	.LBE64:
 524              	.LBE65:
 525              	.LBE67:
  44:src/_sem.cpp  ****     if(ended==1)return -1;
 526              		.loc 1 44 25
 527 0288 1305F0FF 		li	a0,-1
 528              	.LVL46:
GAS LISTING /tmp/ccuF7knB.s 			page 13


 529 028c 67800000 		ret
 530              		.cfi_endproc
 531              	.LFE67:
 533              	.Letext0:
 534              		.file 3 "src/../h/../lib/hw.h"
 535              		.file 4 "src/../h/tcb.hpp"
 536              		.file 5 "src/../h/syscall_c.hpp"
 537              		.file 6 "src/../h/_sem.hpp"
 538              		.file 7 "src/../h/../lib/mem.h"
GAS LISTING /tmp/ccuF7knB.s 			page 14


DEFINED SYMBOLS
                            *ABS*:0000000000000000 _sem.cpp
     /tmp/ccuF7knB.s:9      .text:0000000000000000 _ZN4_semnwEm
     /tmp/ccuF7knB.s:13     .text:0000000000000000 .L0 
     /tmp/ccuF7knB.s:15     .text:0000000000000000 .L0 
     /tmp/ccuF7knB.s:16     .text:0000000000000004 .L0 
     /tmp/ccuF7knB.s:19     .text:000000000000000c .L0 
     /tmp/ccuF7knB.s:20     .text:000000000000000c .L0 
     /tmp/ccuF7knB.s:22     .text:0000000000000010 .L0 
     /tmp/ccuF7knB.s:24     .text:0000000000000010 .L0 
     /tmp/ccuF7knB.s:25     .text:0000000000000010 .L0 
     /tmp/ccuF7knB.s:28     .text:0000000000000018 .L0 
     /tmp/ccuF7knB.s:29     .text:000000000000001c .L0 
     /tmp/ccuF7knB.s:31     .text:0000000000000020 .L0 
     /tmp/ccuF7knB.s:32     .text:0000000000000020 .L0 
     /tmp/ccuF7knB.s:34     .text:0000000000000024 .L0 
     /tmp/ccuF7knB.s:36     .text:0000000000000028 .L0 
     /tmp/ccuF7knB.s:42     .text:0000000000000028 _ZN4_semdlEPv
     /tmp/ccuF7knB.s:45     .text:0000000000000028 .L0 
     /tmp/ccuF7knB.s:47     .text:0000000000000028 .L0 
     /tmp/ccuF7knB.s:48     .text:000000000000002c .L0 
     /tmp/ccuF7knB.s:51     .text:0000000000000034 .L0 
     /tmp/ccuF7knB.s:52     .text:0000000000000034 .L0 
     /tmp/ccuF7knB.s:54     .text:0000000000000038 .L0 
     /tmp/ccuF7knB.s:56     .text:0000000000000038 .L0 
     /tmp/ccuF7knB.s:57     .text:0000000000000038 .L0 
     /tmp/ccuF7knB.s:60     .text:0000000000000040 .L0 
     /tmp/ccuF7knB.s:61     .text:0000000000000044 .L0 
     /tmp/ccuF7knB.s:63     .text:0000000000000048 .L0 
     /tmp/ccuF7knB.s:64     .text:0000000000000048 .L0 
     /tmp/ccuF7knB.s:66     .text:000000000000004c .L0 
     /tmp/ccuF7knB.s:68     .text:0000000000000050 .L0 
     /tmp/ccuF7knB.s:74     .text:0000000000000050 _ZN4_semC2EPPS_j
     /tmp/ccuF7knB.s:77     .text:0000000000000050 .L0 
     /tmp/ccuF7knB.s:79     .text:0000000000000050 .L0 
     /tmp/ccuF7knB.s:80     .text:0000000000000054 .L0 
     /tmp/ccuF7knB.s:82     .text:0000000000000058 .L0 
     /tmp/ccuF7knB.s:84     .text:000000000000005c .L0 
     /tmp/ccuF7knB.s:91     .text:000000000000005c .L0 
     /tmp/ccuF7knB.s:98     .text:0000000000000068 .L0 
     /tmp/ccuF7knB.s:99     .text:0000000000000068 .L0 
     /tmp/ccuF7knB.s:101    .text:000000000000006c .L0 
     /tmp/ccuF7knB.s:102    .text:000000000000006c .L0 
     /tmp/ccuF7knB.s:104    .text:0000000000000070 .L0 
     /tmp/ccuF7knB.s:105    .text:0000000000000070 .L0 
     /tmp/ccuF7knB.s:108    .text:0000000000000074 .L0 
     /tmp/ccuF7knB.s:109    .text:0000000000000078 .L0 
     /tmp/ccuF7knB.s:110    .text:0000000000000078 .L0 
     /tmp/ccuF7knB.s:112    .text:000000000000007c .L0 
     /tmp/ccuF7knB.s:114    .text:0000000000000080 .L0 
     /tmp/ccuF7knB.s:74     .text:0000000000000050 _ZN4_semC1EPPS_j
     /tmp/ccuF7knB.s:122    .text:0000000000000080 _ZN4_sem5closeEv
     /tmp/ccuF7knB.s:125    .text:0000000000000080 .L0 
     /tmp/ccuF7knB.s:127    .text:0000000000000080 .L0 
     /tmp/ccuF7knB.s:128    .text:0000000000000080 .L0 
     /tmp/ccuF7knB.s:129    .text:0000000000000080 .L0 
     /tmp/ccuF7knB.s:131    .text:0000000000000084 .L0 
GAS LISTING /tmp/ccuF7knB.s 			page 15


     /tmp/ccuF7knB.s:134    .text:000000000000008c .L0 
     /tmp/ccuF7knB.s:135    .text:0000000000000090 .L0 
     /tmp/ccuF7knB.s:140    .text:00000000000000a0 .L0 
     /tmp/ccuF7knB.s:141    .text:00000000000000a0 .L0 
     /tmp/ccuF7knB.s:142    .text:00000000000000a0 .L0 
     /tmp/ccuF7knB.s:143    .text:00000000000000a0 .L0 
     /tmp/ccuF7knB.s:145    .text:00000000000000a4 .L0 
     /tmp/ccuF7knB.s:148    .text:00000000000000a8 .L0 
     /tmp/ccuF7knB.s:149    .text:00000000000000a8 .L0 
     /tmp/ccuF7knB.s:151    .text:00000000000000ac .L0 
     /tmp/ccuF7knB.s:152    .text:00000000000000ac .L0 
     /tmp/ccuF7knB.s:160    .text:00000000000000b4 .L0 
     /tmp/ccuF7knB.s:163    .text:00000000000000b8 .L0 
     /tmp/ccuF7knB.s:167    .text:00000000000000c4 .L0 
     /tmp/ccuF7knB.s:172    .text:00000000000000c8 .L0 
     /tmp/ccuF7knB.s:180    .text:00000000000000d0 .L0 
     /tmp/ccuF7knB.s:181    .text:00000000000000d0 .L0 
     /tmp/ccuF7knB.s:187    .text:00000000000000dc .L0 
     /tmp/ccuF7knB.s:190    .text:00000000000000dc .L0 
     /tmp/ccuF7knB.s:191    .text:00000000000000dc .L0 
     /tmp/ccuF7knB.s:196    .text:00000000000000e0 .L0 
     /tmp/ccuF7knB.s:202    .text:00000000000000e4 .L0 
     /tmp/ccuF7knB.s:203    .text:00000000000000e4 .L0 
     /tmp/ccuF7knB.s:205    .text:00000000000000e8 .L0 
     /tmp/ccuF7knB.s:208    .text:00000000000000ec .L0 
     /tmp/ccuF7knB.s:210    .text:00000000000000f0 .L0 
     /tmp/ccuF7knB.s:212    .text:00000000000000f4 .L0 
     /tmp/ccuF7knB.s:217    .text:00000000000000fc .L0 
     /tmp/ccuF7knB.s:221    .text:0000000000000104 .L0 
     /tmp/ccuF7knB.s:222    .text:0000000000000104 .L0 
     /tmp/ccuF7knB.s:223    .text:0000000000000104 .L0 
     /tmp/ccuF7knB.s:224    .text:0000000000000104 .L0 
     /tmp/ccuF7knB.s:225    .text:0000000000000104 .L0 
     /tmp/ccuF7knB.s:230    .text:0000000000000104 .L0 
     /tmp/ccuF7knB.s:233    .text:0000000000000108 .L0 
     /tmp/ccuF7knB.s:236    .text:000000000000010c .L0 
     /tmp/ccuF7knB.s:237    .text:000000000000010c .L0 
     /tmp/ccuF7knB.s:238    .text:000000000000010c .L0 
     /tmp/ccuF7knB.s:239    .text:000000000000010c .L0 
     /tmp/ccuF7knB.s:240    .text:000000000000010c .L0 
     /tmp/ccuF7knB.s:242    .text:000000000000010c .L0 
     /tmp/ccuF7knB.s:244    .text:0000000000000110 .L0 
     /tmp/ccuF7knB.s:245    .text:0000000000000114 .L0 
     /tmp/ccuF7knB.s:247    .text:0000000000000118 .L0 
     /tmp/ccuF7knB.s:248    .text:0000000000000118 .L0 
     /tmp/ccuF7knB.s:250    .text:000000000000011c .L0 
     /tmp/ccuF7knB.s:253    .text:0000000000000120 .L0 
     /tmp/ccuF7knB.s:255    .text:0000000000000124 .L0 
     /tmp/ccuF7knB.s:257    .text:0000000000000128 .L0 
     /tmp/ccuF7knB.s:263    .text:0000000000000128 _ZN4_sem4waitEv
     /tmp/ccuF7knB.s:266    .text:0000000000000128 .L0 
     /tmp/ccuF7knB.s:268    .text:0000000000000128 .L0 
     /tmp/ccuF7knB.s:269    .text:0000000000000128 .L0 
     /tmp/ccuF7knB.s:270    .text:0000000000000128 .L0 
     /tmp/ccuF7knB.s:272    .text:000000000000012c .L0 
     /tmp/ccuF7knB.s:275    .text:0000000000000134 .L0 
     /tmp/ccuF7knB.s:276    .text:0000000000000138 .L0 
GAS LISTING /tmp/ccuF7knB.s 			page 16


     /tmp/ccuF7knB.s:281    .text:0000000000000148 .L0 
     /tmp/ccuF7knB.s:282    .text:0000000000000148 .L0 
     /tmp/ccuF7knB.s:283    .text:0000000000000148 .L0 
     /tmp/ccuF7knB.s:284    .text:0000000000000148 .L0 
     /tmp/ccuF7knB.s:286    .text:000000000000014c .L0 
     /tmp/ccuF7knB.s:289    .text:0000000000000150 .L0 
     /tmp/ccuF7knB.s:290    .text:0000000000000150 .L0 
     /tmp/ccuF7knB.s:292    .text:0000000000000154 .L0 
     /tmp/ccuF7knB.s:294    .text:0000000000000158 .L0 
     /tmp/ccuF7knB.s:296    .text:000000000000015c .L0 
     /tmp/ccuF7knB.s:301    .text:0000000000000164 .L0 
     /tmp/ccuF7knB.s:302    .text:0000000000000164 .L0 
     /tmp/ccuF7knB.s:304    .text:0000000000000168 .L0 
     /tmp/ccuF7knB.s:307    .text:000000000000016c .L0 
     /tmp/ccuF7knB.s:308    .text:0000000000000170 .L0 
     /tmp/ccuF7knB.s:309    .text:0000000000000170 .L0 
     /tmp/ccuF7knB.s:311    .text:0000000000000174 .L0 
     /tmp/ccuF7knB.s:312    .text:0000000000000174 .L0 
     /tmp/ccuF7knB.s:314    .text:0000000000000178 .L0 
     /tmp/ccuF7knB.s:317    .text:000000000000017c .L0 
     /tmp/ccuF7knB.s:319    .text:0000000000000180 .L0 
     /tmp/ccuF7knB.s:323    .text:0000000000000184 .L0 
     /tmp/ccuF7knB.s:325    .text:0000000000000184 .L0 
     /tmp/ccuF7knB.s:326    .text:0000000000000184 .L0 
     /tmp/ccuF7knB.s:334    .text:0000000000000190 .L0 
     /tmp/ccuF7knB.s:342    .text:000000000000019c .L0 
     /tmp/ccuF7knB.s:348    .text:00000000000001a4 .L0 
     /tmp/ccuF7knB.s:350    .text:00000000000001a8 .L0 
     /tmp/ccuF7knB.s:352    .text:00000000000001ac .L0 
     /tmp/ccuF7knB.s:354    .text:00000000000001b0 .L0 
     /tmp/ccuF7knB.s:357    .text:00000000000001b4 .L0 
     /tmp/ccuF7knB.s:364    .text:00000000000001c0 .L0 
     /tmp/ccuF7knB.s:365    .text:00000000000001c0 .L0 
     /tmp/ccuF7knB.s:373    .text:00000000000001cc .L0 
     /tmp/ccuF7knB.s:381    .text:00000000000001d8 .L0 
     /tmp/ccuF7knB.s:385    .text:00000000000001e0 .L0 
     /tmp/ccuF7knB.s:386    .text:00000000000001e0 .L0 
     /tmp/ccuF7knB.s:387    .text:00000000000001e0 .L0 
     /tmp/ccuF7knB.s:388    .text:00000000000001e0 .L0 
     /tmp/ccuF7knB.s:389    .text:00000000000001e0 .L0 
     /tmp/ccuF7knB.s:391    .text:00000000000001e0 .L0 
     /tmp/ccuF7knB.s:394    .text:00000000000001e4 .L0 
     /tmp/ccuF7knB.s:395    .text:00000000000001e8 .L0 
     /tmp/ccuF7knB.s:401    .text:00000000000001e8 _ZN4_sem6signalEv
     /tmp/ccuF7knB.s:404    .text:00000000000001e8 .L0 
     /tmp/ccuF7knB.s:406    .text:00000000000001e8 .L0 
     /tmp/ccuF7knB.s:407    .text:00000000000001e8 .L0 
     /tmp/ccuF7knB.s:408    .text:00000000000001e8 .L0 
     /tmp/ccuF7knB.s:410    .text:00000000000001ec .L0 
     /tmp/ccuF7knB.s:414    .text:00000000000001f4 .L0 
     /tmp/ccuF7knB.s:415    .text:00000000000001f4 .L0 
     /tmp/ccuF7knB.s:417    .text:00000000000001f8 .L0 
     /tmp/ccuF7knB.s:420    .text:0000000000000200 .L0 
     /tmp/ccuF7knB.s:422    .text:0000000000000204 .L0 
     /tmp/ccuF7knB.s:425    .text:0000000000000208 .L0 
     /tmp/ccuF7knB.s:428    .text:000000000000020c .L0 
     /tmp/ccuF7knB.s:432    .text:0000000000000210 .L0 
GAS LISTING /tmp/ccuF7knB.s 			page 17


     /tmp/ccuF7knB.s:433    .text:0000000000000214 .L0 
     /tmp/ccuF7knB.s:437    .text:0000000000000220 .L0 
     /tmp/ccuF7knB.s:438    .text:0000000000000220 .L0 
     /tmp/ccuF7knB.s:439    .text:0000000000000220 .L0 
     /tmp/ccuF7knB.s:441    .text:0000000000000224 .L0 
     /tmp/ccuF7knB.s:448    .text:0000000000000224 .L0 
     /tmp/ccuF7knB.s:449    .text:0000000000000224 .L0 
     /tmp/ccuF7knB.s:451    .text:0000000000000228 .L0 
     /tmp/ccuF7knB.s:454    .text:000000000000022c .L0 
     /tmp/ccuF7knB.s:456    .text:0000000000000230 .L0 
     /tmp/ccuF7knB.s:458    .text:0000000000000234 .L0 
     /tmp/ccuF7knB.s:461    .text:0000000000000238 .L0 
     /tmp/ccuF7knB.s:465    .text:0000000000000244 .L0 
     /tmp/ccuF7knB.s:470    .text:0000000000000248 .L0 
     /tmp/ccuF7knB.s:480    .text:0000000000000254 .L0 
     /tmp/ccuF7knB.s:481    .text:0000000000000254 .L0 
     /tmp/ccuF7knB.s:487    .text:0000000000000260 .L0 
     /tmp/ccuF7knB.s:489    .text:0000000000000264 .L0 
     /tmp/ccuF7knB.s:490    .text:0000000000000268 .L0 
     /tmp/ccuF7knB.s:491    .text:0000000000000268 .L0 
     /tmp/ccuF7knB.s:493    .text:000000000000026c .L0 
     /tmp/ccuF7knB.s:494    .text:000000000000026c .L0 
     /tmp/ccuF7knB.s:496    .text:0000000000000270 .L0 
     /tmp/ccuF7knB.s:499    .text:0000000000000274 .L0 
     /tmp/ccuF7knB.s:503    .text:0000000000000278 .L0 
     /tmp/ccuF7knB.s:509    .text:0000000000000278 .L0 
     /tmp/ccuF7knB.s:514    .text:0000000000000280 .L0 
     /tmp/ccuF7knB.s:518    .text:0000000000000288 .L0 
     /tmp/ccuF7knB.s:519    .text:0000000000000288 .L0 
     /tmp/ccuF7knB.s:520    .text:0000000000000288 .L0 
     /tmp/ccuF7knB.s:521    .text:0000000000000288 .L0 
     /tmp/ccuF7knB.s:527    .text:0000000000000288 .L0 
     /tmp/ccuF7knB.s:530    .text:0000000000000290 .L0 
     /tmp/ccuF7knB.s:539    .text:0000000000000290 .L0 
     /tmp/ccuF7knB.s:326    .text:0000000000000184 .L0 
     /tmp/ccuF7knB.s:220    .text:0000000000000104 .L12
     /tmp/ccuF7knB.s:184    .text:00000000000000dc .L11
     /tmp/ccuF7knB.s:235    .text:000000000000010c .L13
     /tmp/ccuF7knB.s:215    .text:00000000000000fc .L14
     /tmp/ccuF7knB.s:161    .text:00000000000000b8 .L10
     /tmp/ccuF7knB.s:155    .text:00000000000000b4 .L19
     /tmp/ccuF7knB.s:174    .text:00000000000000d0 .L9
     /tmp/ccuF7knB.s:384    .text:00000000000001e0 .L25
     /tmp/ccuF7knB.s:322    .text:0000000000000184 .L30
     /tmp/ccuF7knB.s:377    .text:00000000000001d8 .L31
     /tmp/ccuF7knB.s:369    .text:00000000000001cc .L23
     /tmp/ccuF7knB.s:299    .text:0000000000000164 .L22
     /tmp/ccuF7knB.s:355    .text:00000000000001b4 .L24
     /tmp/ccuF7knB.s:305    .text:000000000000016c .L21
     /tmp/ccuF7knB.s:517    .text:0000000000000288 .L36
     /tmp/ccuF7knB.s:430    .text:0000000000000210 .L43
     /tmp/ccuF7knB.s:512    .text:0000000000000280 .L38
     /tmp/ccuF7knB.s:502    .text:0000000000000278 .L44
     /tmp/ccuF7knB.s:459    .text:0000000000000238 .L35
     /tmp/ccuF7knB.s:474    .text:0000000000000254 .L34
     /tmp/ccuF7knB.s:2334   .debug_abbrev:0000000000000000 .Ldebug_abbrev0
     /tmp/ccuF7knB.s:4222   .debug_str:000000000000095f .LASF186
GAS LISTING /tmp/ccuF7knB.s 			page 18


     /tmp/ccuF7knB.s:3926   .debug_str:0000000000000074 .LASF187
     /tmp/ccuF7knB.s:4094   .debug_str:00000000000005a9 .LASF188
     /tmp/ccuF7knB.s:5      .text:0000000000000000 .Ltext0
     /tmp/ccuF7knB.s:533    .text:0000000000000290 .Letext0
     /tmp/ccuF7knB.s:3912   .debug_line:0000000000000000 .Ldebug_line0
     /tmp/ccuF7knB.s:4050   .debug_str:00000000000003f8 .LASF0
     /tmp/ccuF7knB.s:4078   .debug_str:0000000000000517 .LASF1
     /tmp/ccuF7knB.s:4164   .debug_str:00000000000007c6 .LASF2
     /tmp/ccuF7knB.s:4172   .debug_str:000000000000080a .LASF4
     /tmp/ccuF7knB.s:4058   .debug_str:0000000000000454 .LASF3
     /tmp/ccuF7knB.s:3930   .debug_str:00000000000000a2 .LASF5
     /tmp/ccuF7knB.s:4142   .debug_str:0000000000000740 .LASF6
     /tmp/ccuF7knB.s:4136   .debug_str:000000000000071a .LASF7
     /tmp/ccuF7knB.s:4068   .debug_str:00000000000004c3 .LASF8
     /tmp/ccuF7knB.s:4026   .debug_str:000000000000035c .LASF9
     /tmp/ccuF7knB.s:4036   .debug_str:0000000000000391 .LASF10
     /tmp/ccuF7knB.s:3974   .debug_str:0000000000000201 .LASF11
     /tmp/ccuF7knB.s:4016   .debug_str:0000000000000322 .LASF12
     /tmp/ccuF7knB.s:3984   .debug_str:000000000000024a .LASF13
     /tmp/ccuF7knB.s:3972   .debug_str:00000000000001f1 .LASF14
     /tmp/ccuF7knB.s:4206   .debug_str:0000000000000901 .LASF15
     /tmp/ccuF7knB.s:4002   .debug_str:00000000000002c8 .LASF16
     /tmp/ccuF7knB.s:4192   .debug_str:0000000000000882 .LASF17
     /tmp/ccuF7knB.s:4212   .debug_str:000000000000092a .LASF18
     /tmp/ccuF7knB.s:4280   .debug_str:0000000000000beb .LASF19
     /tmp/ccuF7knB.s:3958   .debug_str:0000000000000176 .LASF20
     /tmp/ccuF7knB.s:4184   .debug_str:0000000000000856 .LASF21
     /tmp/ccuF7knB.s:4216   .debug_str:000000000000093d .LASF22
     /tmp/ccuF7knB.s:4146   .debug_str:0000000000000750 .LASF23
     /tmp/ccuF7knB.s:4004   .debug_str:00000000000002de .LASF24
     /tmp/ccuF7knB.s:3980   .debug_str:0000000000000235 .LASF25
     /tmp/ccuF7knB.s:4032   .debug_str:0000000000000380 .LASF26
     /tmp/ccuF7knB.s:4112   .debug_str:0000000000000660 .LASF27
     /tmp/ccuF7knB.s:4294   .debug_str:0000000000000c5f .LASF28
     /tmp/ccuF7knB.s:4188   .debug_str:000000000000086a .LASF30
     /tmp/ccuF7knB.s:3918   .debug_str:0000000000000010 .LASF76
     /tmp/ccuF7knB.s:4268   .debug_str:0000000000000b86 .LASF78
     /tmp/ccuF7knB.s:3952   .debug_str:0000000000000159 .LASF29
     /tmp/ccuF7knB.s:4128   .debug_str:00000000000006d6 .LASF31
     /tmp/ccuF7knB.s:4170   .debug_str:00000000000007fe .LASF32
     /tmp/ccuF7knB.s:4236   .debug_str:0000000000000a8a .LASF33
     /tmp/ccuF7knB.s:3914   .debug_str:0000000000000000 .LASF34
     /tmp/ccuF7knB.s:4200   .debug_str:00000000000008d4 .LASF35
     /tmp/ccuF7knB.s:4230   .debug_str:0000000000000a56 .LASF36
     /tmp/ccuF7knB.s:4090   .debug_str:000000000000057f .LASF37
     /tmp/ccuF7knB.s:4152   .debug_str:000000000000077b .LASF38
     /tmp/ccuF7knB.s:4104   .debug_str:00000000000005f8 .LASF39
     /tmp/ccuF7knB.s:4030   .debug_str:0000000000000377 .LASF40
     /tmp/ccuF7knB.s:4242   .debug_str:0000000000000abc .LASF41
     /tmp/ccuF7knB.s:4264   .debug_str:0000000000000b74 .LASF42
     /tmp/ccuF7knB.s:3968   .debug_str:00000000000001ca .LASF43
     /tmp/ccuF7knB.s:4204   .debug_str:00000000000008f6 .LASF44
     /tmp/ccuF7knB.s:4232   .debug_str:0000000000000a61 .LASF45
     /tmp/ccuF7knB.s:4126   .debug_str:00000000000006cb .LASF46
     /tmp/ccuF7knB.s:4072   .debug_str:00000000000004f0 .LASF47
     /tmp/ccuF7knB.s:4260   .debug_str:0000000000000b4c .LASF48
     /tmp/ccuF7knB.s:3950   .debug_str:000000000000013c .LASF49
GAS LISTING /tmp/ccuF7knB.s 			page 19


     /tmp/ccuF7knB.s:4220   .debug_str:0000000000000953 .LASF50
     /tmp/ccuF7knB.s:4124   .debug_str:00000000000006ad .LASF51
     /tmp/ccuF7knB.s:4186   .debug_str:000000000000085e .LASF52
     /tmp/ccuF7knB.s:4228   .debug_str:0000000000000a38 .LASF53
     /tmp/ccuF7knB.s:4046   .debug_str:00000000000003e8 .LASF54
     /tmp/ccuF7knB.s:4018   .debug_str:0000000000000331 .LASF55
     /tmp/ccuF7knB.s:4098   .debug_str:00000000000005d5 .LASF56
     /tmp/ccuF7knB.s:4254   .debug_str:0000000000000b1a .LASF57
     /tmp/ccuF7knB.s:4120   .debug_str:000000000000069c .LASF58
     /tmp/ccuF7knB.s:4060   .debug_str:0000000000000466 .LASF60
     /tmp/ccuF7knB.s:4028   .debug_str:000000000000036c .LASF59
     /tmp/ccuF7knB.s:4274   .debug_str:0000000000000ba7 .LASF61
     /tmp/ccuF7knB.s:4162   .debug_str:00000000000007bd .LASF62
     /tmp/ccuF7knB.s:4198   .debug_str:00000000000008ba .LASF63
     /tmp/ccuF7knB.s:3992   .debug_str:000000000000029b .LASF64
     /tmp/ccuF7knB.s:4054   .debug_str:0000000000000410 .LASF65
     /tmp/ccuF7knB.s:4224   .debug_str:0000000000000a23 .LASF66
     /tmp/ccuF7knB.s:4262   .debug_str:0000000000000b57 .LASF67
     /tmp/ccuF7knB.s:3956   .debug_str:000000000000016a .LASF68
     /tmp/ccuF7knB.s:3934   .debug_str:00000000000000c2 .LASF69
     /tmp/ccuF7knB.s:4244   .debug_str:0000000000000ad6 .LASF70
     /tmp/ccuF7knB.s:4250   .debug_str:0000000000000afa .LASF71
     /tmp/ccuF7knB.s:4130   .debug_str:00000000000006f4 .LASF72
     /tmp/ccuF7knB.s:3978   .debug_str:0000000000000215 .LASF73
     /tmp/ccuF7knB.s:3940   .debug_str:00000000000000ed .LASF74
     /tmp/ccuF7knB.s:4168   .debug_str:00000000000007de .LASF75
     /tmp/ccuF7knB.s:4266   .debug_str:0000000000000b7f .LASF77
     /tmp/ccuF7knB.s:4158   .debug_str:00000000000007a0 .LASF79
     /tmp/ccuF7knB.s:4174   .debug_str:0000000000000811 .LASF80
     /tmp/ccuF7knB.s:4234   .debug_str:0000000000000a7e .LASF81
     /tmp/ccuF7knB.s:4290   .debug_str:0000000000000c24 .LASF82
     /tmp/ccuF7knB.s:4056   .debug_str:000000000000042d .LASF83
     /tmp/ccuF7knB.s:4160   .debug_str:00000000000007b8 .LASF189
     /tmp/ccuF7knB.s:4102   .debug_str:00000000000005e4 .LASF84
     /tmp/ccuF7knB.s:4292   .debug_str:0000000000000c36 .LASF85
     /tmp/ccuF7knB.s:4024   .debug_str:0000000000000354 .LASF86
     /tmp/ccuF7knB.s:4020   .debug_str:000000000000034a .LASF87
     /tmp/ccuF7knB.s:4286   .debug_str:0000000000000c17 .LASF88
     /tmp/ccuF7knB.s:4144   .debug_str:0000000000000747 .LASF89
     /tmp/ccuF7knB.s:4214   .debug_str:0000000000000932 .LASF90
     /tmp/ccuF7knB.s:4210   .debug_str:0000000000000914 .LASF92
     /tmp/ccuF7knB.s:4084   .debug_str:0000000000000540 .LASF91
     /tmp/ccuF7knB.s:4150   .debug_str:0000000000000763 .LASF93
     /tmp/ccuF7knB.s:3920   .debug_str:0000000000000020 .LASF95
     /tmp/ccuF7knB.s:3970   .debug_str:00000000000001e7 .LASF94
     /tmp/ccuF7knB.s:4110   .debug_str:000000000000064c .LASF96
     /tmp/ccuF7knB.s:4178   .debug_str:0000000000000827 .LASF97
     /tmp/ccuF7knB.s:4248   .debug_str:0000000000000ae3 .LASF98
     /tmp/ccuF7knB.s:4282   .debug_str:0000000000000bf2 .LASF99
     /tmp/ccuF7knB.s:4256   .debug_str:0000000000000b33 .LASF100
     /tmp/ccuF7knB.s:4134   .debug_str:000000000000070e .LASF101
     /tmp/ccuF7knB.s:4092   .debug_str:000000000000059c .LASF102
     /tmp/ccuF7knB.s:4276   .debug_str:0000000000000bc4 .LASF103
     /tmp/ccuF7knB.s:3982   .debug_str:000000000000023e .LASF104
     /tmp/ccuF7knB.s:3916   .debug_str:000000000000000b .LASF105
     /tmp/ccuF7knB.s:4288   .debug_str:0000000000000c1e .LASF106
     /tmp/ccuF7knB.s:4238   .debug_str:0000000000000aa8 .LASF107
GAS LISTING /tmp/ccuF7knB.s 			page 20


     /tmp/ccuF7knB.s:4252   .debug_str:0000000000000b13 .LASF108
     /tmp/ccuF7knB.s:4226   .debug_str:0000000000000a2e .LASF109
     /tmp/ccuF7knB.s:3990   .debug_str:000000000000028d .LASF110
     /tmp/ccuF7knB.s:3924   .debug_str:000000000000004c .LASF111
     /tmp/ccuF7knB.s:4180   .debug_str:0000000000000833 .LASF112
     /tmp/ccuF7knB.s:3994   .debug_str:00000000000002a6 .LASF115
     /tmp/ccuF7knB.s:4064   .debug_str:0000000000000493 .LASF117
     /tmp/ccuF7knB.s:4006   .debug_str:00000000000002e6 .LASF113
     /tmp/ccuF7knB.s:3988   .debug_str:0000000000000275 .LASF114
     /tmp/ccuF7knB.s:3960   .debug_str:000000000000017f .LASF116
     /tmp/ccuF7knB.s:4086   .debug_str:000000000000054d .LASF118
     /tmp/ccuF7knB.s:4080   .debug_str:000000000000052a .LASF119
     /tmp/ccuF7knB.s:4108   .debug_str:0000000000000630 .LASF120
     /tmp/ccuF7knB.s:4082   .debug_str:000000000000053a .LASF121
     /tmp/ccuF7knB.s:4218   .debug_str:0000000000000943 .LASF122
     /tmp/ccuF7knB.s:4190   .debug_str:000000000000087d .LASF123
     /tmp/ccuF7knB.s:4062   .debug_str:0000000000000484 .LASF125
     /tmp/ccuF7knB.s:3996   .debug_str:00000000000002af .LASF124
     /tmp/ccuF7knB.s:3962   .debug_str:000000000000018d .LASF126
     /tmp/ccuF7knB.s:4196   .debug_str:00000000000008ab .LASF127
     /tmp/ccuF7knB.s:4070   .debug_str:00000000000004d6 .LASF128
     /tmp/ccuF7knB.s:3998   .debug_str:00000000000002b4 .LASF129
     /tmp/ccuF7knB.s:4088   .debug_str:0000000000000566 .LASF130
     /tmp/ccuF7knB.s:3938   .debug_str:00000000000000e6 .LASF131
     /tmp/ccuF7knB.s:4278   .debug_str:0000000000000bda .LASF132
     /tmp/ccuF7knB.s:4272   .debug_str:0000000000000ba1 .LASF133
     /tmp/ccuF7knB.s:4202   .debug_str:00000000000008f1 .LASF134
     /tmp/ccuF7knB.s:4040   .debug_str:00000000000003aa .LASF135
     /tmp/ccuF7knB.s:4008   .debug_str:00000000000002f2 .LASF136
     /tmp/ccuF7knB.s:3936   .debug_str:00000000000000e0 .LASF137
     /tmp/ccuF7knB.s:3944   .debug_str:0000000000000113 .LASF138
     /tmp/ccuF7knB.s:4118   .debug_str:000000000000068c .LASF139
     /tmp/ccuF7knB.s:4208   .debug_str:000000000000090d .LASF140
     /tmp/ccuF7knB.s:4300   .debug_str:0000000000000c83 .LASF141
     /tmp/ccuF7knB.s:4176   .debug_str:0000000000000816 .LASF142
     /tmp/ccuF7knB.s:4000   .debug_str:00000000000002c2 .LASF143
     /tmp/ccuF7knB.s:4096   .debug_str:00000000000005c8 .LASF144
     /tmp/ccuF7knB.s:4296   .debug_str:0000000000000c6c .LASF145
     /tmp/ccuF7knB.s:4012   .debug_str:000000000000030f .LASF146
     /tmp/ccuF7knB.s:4100   .debug_str:00000000000005dd .LASF147
     /tmp/ccuF7knB.s:4182   .debug_str:0000000000000844 .LASF148
     /tmp/ccuF7knB.s:4138   .debug_str:000000000000072d .LASF149
     /tmp/ccuF7knB.s:4246   .debug_str:0000000000000ade .LASF150
     /tmp/ccuF7knB.s:4074   .debug_str:000000000000050d .LASF151
     /tmp/ccuF7knB.s:3976   .debug_str:0000000000000210 .LASF152
     /tmp/ccuF7knB.s:4042   .debug_str:00000000000003b2 .LASF153
     /tmp/ccuF7knB.s:3942   .debug_str:00000000000000fb .LASF154
     /tmp/ccuF7knB.s:3932   .debug_str:00000000000000a9 .LASF190
     /tmp/ccuF7knB.s:4014   .debug_str:000000000000031d .LASF155
     /tmp/ccuF7knB.s:4122   .debug_str:00000000000006a8 .LASF156
     /tmp/ccuF7knB.s:4148   .debug_str:0000000000000758 .LASF157
     /tmp/ccuF7knB.s:4114   .debug_str:000000000000066b .LASF158
     /tmp/ccuF7knB.s:4194   .debug_str:0000000000000898 .LASF159
     /tmp/ccuF7knB.s:4010   .debug_str:00000000000002f8 .LASF160
     /tmp/ccuF7knB.s:4166   .debug_str:00000000000007d4 .LASF191
     /tmp/ccuF7knB.s:4156   .debug_str:0000000000000789 .LASF192
     /tmp/ccuF7knB.s:4076   .debug_str:0000000000000512 .LASF161
GAS LISTING /tmp/ccuF7knB.s 			page 21


     /tmp/ccuF7knB.s:4044   .debug_str:00000000000003d1 .LASF162
     /tmp/ccuF7knB.s:4258   .debug_str:0000000000000b43 .LASF163
     /tmp/ccuF7knB.s:3966   .debug_str:00000000000001ad .LASF164
     /tmp/ccuF7knB.s:4048   .debug_str:00000000000003f0 .LASF165
     /tmp/ccuF7knB.s:4116   .debug_str:0000000000000670 .LASF166
     /tmp/ccuF7knB.s:4132   .debug_str:0000000000000702 .LASF167
     /tmp/ccuF7knB.s:4106   .debug_str:0000000000000612 .LASF168
     /tmp/ccuF7knB.s:4034   .debug_str:0000000000000385 .LASF169
     /tmp/ccuF7knB.s:3928   .debug_str:0000000000000081 .LASF170
     /tmp/ccuF7knB.s:4298   .debug_str:0000000000000c79 .LASF171
     /tmp/ccuF7knB.s:3986   .debug_str:000000000000025a .LASF172
     /tmp/ccuF7knB.s:4052   .debug_str:0000000000000405 .LASF173
     /tmp/ccuF7knB.s:4066   .debug_str:00000000000004a6 .LASF174
     /tmp/ccuF7knB.s:4140   .debug_str:0000000000000737 .LASF175
     /tmp/ccuF7knB.s:3922   .debug_str:0000000000000032 .LASF176
     /tmp/ccuF7knB.s:4154   .debug_str:0000000000000784 .LASF177
     /tmp/ccuF7knB.s:4022   .debug_str:000000000000034f .LASF178
     /tmp/ccuF7knB.s:4284   .debug_str:0000000000000bf8 .LASF180
     /tmp/ccuF7knB.s:3954   .debug_str:0000000000000165 .LASF179
     /tmp/ccuF7knB.s:3948   .debug_str:0000000000000129 .LASF181
     /tmp/ccuF7knB.s:402    .text:00000000000001e8 .LFB67
     /tmp/ccuF7knB.s:531    .text:0000000000000290 .LFE67
     /tmp/ccuF7knB.s:3567   .debug_loc:0000000000000000 .LLST18
     /tmp/ccuF7knB.s:3880   .debug_ranges:0000000000000000 .Ldebug_ranges0
     /tmp/ccuF7knB.s:3603   .debug_loc:000000000000008b .LLST19
     /tmp/ccuF7knB.s:446    .text:0000000000000224 .LBB59
     /tmp/ccuF7knB.s:3610   .debug_loc:00000000000000ae .LLST20
     /tmp/ccuF7knB.s:3628   .debug_loc:00000000000000fa .LLST21
     /tmp/ccuF7knB.s:3639   .debug_loc:0000000000000130 .LLST22
     /tmp/ccuF7knB.s:467    .text:0000000000000248 .LBB61
     /tmp/ccuF7knB.s:476    .text:0000000000000254 .LBE61
     /tmp/ccuF7knB.s:3646   .debug_loc:0000000000000153 .LLST23
     /tmp/ccuF7knB.s:473    .text:0000000000000254 .LVL40
     /tmp/ccuF7knB.s:483    .text:0000000000000260 .LVL41
     /tmp/ccuF7knB.s:264    .text:0000000000000128 .LFB66
     /tmp/ccuF7knB.s:396    .text:00000000000001e8 .LFE66
     /tmp/ccuF7knB.s:3653   .debug_loc:0000000000000176 .LLST10
     /tmp/ccuF7knB.s:329    .text:0000000000000190 .LBB43
     /tmp/ccuF7knB.s:3686   .debug_loc:00000000000001fe .LLST11
     /tmp/ccuF7knB.s:3697   .debug_loc:0000000000000234 .LLST12
     /tmp/ccuF7knB.s:3708   .debug_loc:000000000000026a .LLST13
     /tmp/ccuF7knB.s:331    .text:0000000000000190 .LBB45
     /tmp/ccuF7knB.s:338    .text:000000000000019c .LBE45
     /tmp/ccuF7knB.s:3719   .debug_loc:00000000000002a0 .LLST14
     /tmp/ccuF7knB.s:336    .text:000000000000019c .LVL25
     /tmp/ccuF7knB.s:339    .text:000000000000019c .LBB47
     /tmp/ccuF7knB.s:346    .text:00000000000001a4 .LBE47
     /tmp/ccuF7knB.s:3727   .debug_loc:00000000000002c4 .LLST15
     /tmp/ccuF7knB.s:3735   .debug_loc:00000000000002e8 .LLST16
     /tmp/ccuF7knB.s:3742   .debug_loc:000000000000030b .LLST17
     /tmp/ccuF7knB.s:366    .text:00000000000001c8 .LVL28
     /tmp/ccuF7knB.s:123    .text:0000000000000080 .LFB65
     /tmp/ccuF7knB.s:258    .text:0000000000000128 .LFE65
     /tmp/ccuF7knB.s:3749   .debug_loc:000000000000032e .LLST3
     /tmp/ccuF7knB.s:3782   .debug_loc:00000000000003b6 .LLST4
     /tmp/ccuF7knB.s:157    .text:00000000000000b4 .LBB27
     /tmp/ccuF7knB.s:3789   .debug_loc:00000000000003d9 .LLST5
GAS LISTING /tmp/ccuF7knB.s 			page 22


     /tmp/ccuF7knB.s:3800   .debug_loc:000000000000040f .LLST6
     /tmp/ccuF7knB.s:3811   .debug_loc:0000000000000445 .LLST7
     /tmp/ccuF7knB.s:169    .text:00000000000000c8 .LBB29
     /tmp/ccuF7knB.s:176    .text:00000000000000d0 .LBE29
     /tmp/ccuF7knB.s:3818   .debug_loc:0000000000000468 .LLST8
     /tmp/ccuF7knB.s:173    .text:00000000000000d0 .LVL10
     /tmp/ccuF7knB.s:183    .text:00000000000000dc .LVL11
     /tmp/ccuF7knB.s:188    .text:00000000000000dc .LBB33
     /tmp/ccuF7knB.s:194    .text:00000000000000e0 .LBE33
     /tmp/ccuF7knB.s:3825   .debug_loc:000000000000048b .LLST9
     /tmp/ccuF7knB.s:4270   .debug_str:0000000000000b9a .LASF182
     /tmp/ccuF7knB.s:3946   .debug_str:0000000000000124 .LASF183
     /tmp/ccuF7knB.s:3964   .debug_str:000000000000019c .LASF193
     /tmp/ccuF7knB.s:75     .text:0000000000000050 .LFB63
     /tmp/ccuF7knB.s:115    .text:0000000000000080 .LFE63
     /tmp/ccuF7knB.s:87     .text:000000000000005c .LBB17
     /tmp/ccuF7knB.s:96     .text:0000000000000068 .LBE17
     /tmp/ccuF7knB.s:3832   .debug_loc:00000000000004ae .LLST2
     /tmp/ccuF7knB.s:43     .text:0000000000000028 .LFB61
     /tmp/ccuF7knB.s:69     .text:0000000000000050 .LFE61
     /tmp/ccuF7knB.s:3839   .debug_loc:00000000000004d1 .LLST1
     /tmp/ccuF7knB.s:58     .text:0000000000000040 .LVL3
     /tmp/ccuF7knB.s:10     .text:0000000000000000 .LFB60
     /tmp/ccuF7knB.s:37     .text:0000000000000028 .LFE60
     /tmp/ccuF7knB.s:3853   .debug_loc:000000000000050a .LLST0
     /tmp/ccuF7knB.s:26     .text:0000000000000018 .LVL1
     /tmp/ccuF7knB.s:4038   .debug_str:000000000000039f .LASF184
     /tmp/ccuF7knB.s:4240   .debug_str:0000000000000ab0 .LASF185
     /tmp/ccuF7knB.s:405    .text:00000000000001e8 .LVL33
     /tmp/ccuF7knB.s:426    .text:000000000000020c .LVL34
     /tmp/ccuF7knB.s:429    .text:0000000000000210 .LVL35
     /tmp/ccuF7knB.s:471    .text:000000000000024c .LVL39
     /tmp/ccuF7knB.s:501    .text:0000000000000278 .LVL43
     /tmp/ccuF7knB.s:528    .text:000000000000028c .LVL46
     /tmp/ccuF7knB.s:497    .text:0000000000000270 .LVL42
     /tmp/ccuF7knB.s:445    .text:0000000000000224 .LVL36
     /tmp/ccuF7knB.s:516    .text:0000000000000288 .LVL45
     /tmp/ccuF7knB.s:452    .text:000000000000022c .LVL37
     /tmp/ccuF7knB.s:511    .text:0000000000000280 .LVL44
     /tmp/ccuF7knB.s:466    .text:0000000000000248 .LVL38
     /tmp/ccuF7knB.s:267    .text:0000000000000128 .LVL20
     /tmp/ccuF7knB.s:298    .text:0000000000000164 .LVL21
     /tmp/ccuF7knB.s:315    .text:0000000000000178 .LVL22
     /tmp/ccuF7knB.s:321    .text:0000000000000184 .LVL23
     /tmp/ccuF7knB.s:383    .text:00000000000001e0 .LVL31
     /tmp/ccuF7knB.s:392    .text:00000000000001e4 .LVL32
     /tmp/ccuF7knB.s:328    .text:0000000000000190 .LVL24
     /tmp/ccuF7knB.s:360    .text:00000000000001c0 .LVL27
     /tmp/ccuF7knB.s:368    .text:00000000000001cc .LVL29
     /tmp/ccuF7knB.s:376    .text:00000000000001d8 .LVL30
     /tmp/ccuF7knB.s:344    .text:00000000000001a4 .LVL26
     /tmp/ccuF7knB.s:126    .text:0000000000000080 .LVL7
     /tmp/ccuF7knB.s:154    .text:00000000000000b4 .LVL8
     /tmp/ccuF7knB.s:219    .text:0000000000000104 .LVL16
     /tmp/ccuF7knB.s:231    .text:0000000000000108 .LVL17
     /tmp/ccuF7knB.s:234    .text:000000000000010c .LVL18
     /tmp/ccuF7knB.s:251    .text:000000000000011c .LVL19
GAS LISTING /tmp/ccuF7knB.s 			page 23


     /tmp/ccuF7knB.s:199    .text:00000000000000e4 .LVL13
     /tmp/ccuF7knB.s:206    .text:00000000000000ec .LVL14
     /tmp/ccuF7knB.s:214    .text:00000000000000fc .LVL15
     /tmp/ccuF7knB.s:168    .text:00000000000000c8 .LVL9
     /tmp/ccuF7knB.s:192    .text:00000000000000e0 .LVL12
     /tmp/ccuF7knB.s:85     .text:000000000000005c .LVL5
     /tmp/ccuF7knB.s:94     .text:0000000000000068 .LVL6
     /tmp/ccuF7knB.s:46     .text:0000000000000028 .LVL2
     /tmp/ccuF7knB.s:14     .text:0000000000000000 .LVL0
     /tmp/ccuF7knB.s:540    .debug_info:0000000000000000 .Ldebug_info0
     /tmp/ccuF7knB.s:156    .text:00000000000000b4 .LBB26
     /tmp/ccuF7knB.s:185    .text:00000000000000dc .LBE26
     /tmp/ccuF7knB.s:197    .text:00000000000000e4 .LBB35
     /tmp/ccuF7knB.s:228    .text:0000000000000104 .LBE35
     /tmp/ccuF7knB.s:178    .text:00000000000000d0 .LBE27
     /tmp/ccuF7knB.s:200    .text:00000000000000e4 .LBB32
     /tmp/ccuF7knB.s:227    .text:0000000000000104 .LBE32
     /tmp/ccuF7knB.s:362    .text:00000000000001c0 .LBE43
     /tmp/ccuF7knB.s:370    .text:00000000000001cc .LBB50
     /tmp/ccuF7knB.s:379    .text:00000000000001d8 .LBE50
     /tmp/ccuF7knB.s:443    .text:0000000000000224 .LBB58
     /tmp/ccuF7knB.s:484    .text:0000000000000260 .LBE58
     /tmp/ccuF7knB.s:505    .text:0000000000000278 .LBB65
     /tmp/ccuF7knB.s:524    .text:0000000000000288 .LBE65
     /tmp/ccuF7knB.s:478    .text:0000000000000254 .LBE59
     /tmp/ccuF7knB.s:506    .text:0000000000000278 .LBB64
     /tmp/ccuF7knB.s:523    .text:0000000000000288 .LBE64

UNDEFINED SYMBOLS
__mem_alloc
__mem_free
_ZN3TCB14releaseWaitingEv
_ZN3TCB7runningE
_ZN3TCB4waitEv
