GAS LISTING /tmp/ccthtb1J.s 			page 1


   1              		.file	"_sem.cpp"
   2              		.option pic
   3              		.option norelax
   4              		.text
   5              	.Ltext0:
   6              		.align	2
   7              		.globl	_ZN4_semnwEm
   9              	_ZN4_semnwEm:
  10              	.LFB73:
  11              		.file 1 "src/_sem.cpp"
   1:src/_sem.cpp  **** //
   2:src/_sem.cpp  **** // Created by os on 8/5/22.
   3:src/_sem.cpp  **** //
   4:src/_sem.cpp  **** 
   5:src/_sem.cpp  **** #include "../h/_sem.hpp"
   6:src/_sem.cpp  **** #include "../lib/mem.h"
   7:src/_sem.cpp  **** #include "../h/print.hpp"
   8:src/_sem.cpp  **** void* _sem::operator new(size_t size) {
  12              		.loc 1 8 39
  13              		.cfi_startproc
  14              	.LVL0:
  15 0000 130101FF 		addi	sp,sp,-16
  16              		.cfi_def_cfa_offset 16
  17 0004 23341100 		sd	ra,8(sp)
  18 0008 23308100 		sd	s0,0(sp)
  19              		.cfi_offset 1, -8
  20              		.cfi_offset 8, -16
  21 000c 13040101 		addi	s0,sp,16
  22              		.cfi_def_cfa 8, 0
   9:src/_sem.cpp  ****     return __mem_alloc(size);
  23              		.loc 1 9 5
  24              		.loc 1 9 23 is_stmt 0
  25 0010 97000000 		call	__mem_alloc@plt
  25      E7800000 
  26              	.LVL1:
  10:src/_sem.cpp  **** }
  27              		.loc 1 10 1
  28 0018 83308100 		ld	ra,8(sp)
  29              		.cfi_restore 1
  30 001c 03340100 		ld	s0,0(sp)
  31              		.cfi_restore 8
  32              		.cfi_def_cfa 2, 16
  33 0020 13010101 		addi	sp,sp,16
  34              		.cfi_def_cfa_offset 0
  35 0024 67800000 		jr	ra
  36              		.cfi_endproc
  37              	.LFE73:
  39              		.align	2
  40              		.globl	_ZN4_semdlEPv
  42              	_ZN4_semdlEPv:
  43              	.LFB74:
  11:src/_sem.cpp  **** void _sem::operator delete(void *ptr)  {
  44              		.loc 1 11 40 is_stmt 1
  45              		.cfi_startproc
  46              	.LVL2:
  47 0028 130101FF 		addi	sp,sp,-16
  48              		.cfi_def_cfa_offset 16
GAS LISTING /tmp/ccthtb1J.s 			page 2


  49 002c 23341100 		sd	ra,8(sp)
  50 0030 23308100 		sd	s0,0(sp)
  51              		.cfi_offset 1, -8
  52              		.cfi_offset 8, -16
  53 0034 13040101 		addi	s0,sp,16
  54              		.cfi_def_cfa 8, 0
  12:src/_sem.cpp  ****     __mem_free(ptr);
  55              		.loc 1 12 5
  56              		.loc 1 12 15 is_stmt 0
  57 0038 97000000 		call	__mem_free@plt
  57      E7800000 
  58              	.LVL3:
  13:src/_sem.cpp  **** }
  59              		.loc 1 13 1
  60 0040 83308100 		ld	ra,8(sp)
  61              		.cfi_restore 1
  62 0044 03340100 		ld	s0,0(sp)
  63              		.cfi_restore 8
  64              		.cfi_def_cfa 2, 16
  65 0048 13010101 		addi	sp,sp,16
  66              		.cfi_def_cfa_offset 0
  67 004c 67800000 		jr	ra
  68              		.cfi_endproc
  69              	.LFE74:
  71              		.align	2
  72              		.globl	_ZN4_semC2EPPS_j
  74              	_ZN4_semC2EPPS_j:
  75              	.LFB76:
  14:src/_sem.cpp  **** _sem::_sem(sem_t *handle, unsigned  init) {
  76              		.loc 1 14 1 is_stmt 1
  77              		.cfi_startproc
  78              	.LVL4:
  79 0050 130101FE 		addi	sp,sp,-32
  80              		.cfi_def_cfa_offset 32
  81 0054 233C1100 		sd	ra,24(sp)
  82 0058 23388100 		sd	s0,16(sp)
  83 005c 23349100 		sd	s1,8(sp)
  84              		.cfi_offset 1, -8
  85              		.cfi_offset 8, -16
  86              		.cfi_offset 9, -24
  87 0060 13040102 		addi	s0,sp,32
  88              		.cfi_def_cfa 8, 0
  89 0064 93040500 		mv	s1,a0
  90              	.LVL5:
  91              	.LBB21:
  92              	.LBB22:
  93              	.LBB23:
  94              		.file 2 "src/../h/list.hpp"
   1:src/../h/list.hpp **** //
   2:src/../h/list.hpp **** // Created by marko on 20.4.22..
   3:src/../h/list.hpp **** //
   4:src/../h/list.hpp **** 
   5:src/../h/list.hpp **** #ifndef OS1_VEZBE07_RISCV_CONTEXT_SWITCH_1_SYNCHRONOUS_LIST_HPP
   6:src/../h/list.hpp **** #define OS1_VEZBE07_RISCV_CONTEXT_SWITCH_1_SYNCHRONOUS_LIST_HPP
   7:src/../h/list.hpp **** #include "../lib/mem.h"
   8:src/../h/list.hpp **** template<typename T>
   9:src/../h/list.hpp **** class List
GAS LISTING /tmp/ccthtb1J.s 			page 3


  10:src/../h/list.hpp **** {
  11:src/../h/list.hpp **** private:
  12:src/../h/list.hpp ****     struct Elem
  13:src/../h/list.hpp ****     {
  14:src/../h/list.hpp ****         T *data;
  15:src/../h/list.hpp ****         Elem *next;
  16:src/../h/list.hpp **** 
  17:src/../h/list.hpp ****         Elem(T *data, Elem *next) : data(data), next(next) {}
  18:src/../h/list.hpp ****         void *operator new (size_t size){return __mem_alloc(size);}
  19:src/../h/list.hpp ****         void operator delete (void * ptr){ __mem_free(ptr);}
  20:src/../h/list.hpp ****     };
  21:src/../h/list.hpp **** 
  22:src/../h/list.hpp ****     Elem *head, *tail;
  23:src/../h/list.hpp ****     unsigned sizeofList=0;
  24:src/../h/list.hpp **** public:
  25:src/../h/list.hpp ****     List() : head(0), tail(0) {
  95              		.loc 2 25 29 is_stmt 0
  96 0068 23300500 		sd	zero,0(a0)
  97 006c 23340500 		sd	zero,8(a0)
  98 0070 23280500 		sw	zero,16(a0)
  99              	.LVL6:
 100              	.LBE23:
 101              	.LBE22:
  15:src/_sem.cpp  ****     *handle=this;
 102              		.loc 1 15 5 is_stmt 1
 103              		.loc 1 15 12 is_stmt 0
 104 0074 23B0A500 		sd	a0,0(a1)
  16:src/_sem.cpp  ****     val=init;
 105              		.loc 1 16 5 is_stmt 1
 106              		.loc 1 16 8 is_stmt 0
 107 0078 2320C502 		sw	a2,32(a0)
  17:src/_sem.cpp  ****     ended=0;
 108              		.loc 1 17 5 is_stmt 1
 109              		.loc 1 17 10 is_stmt 0
 110 007c 23220502 		sw	zero,36(a0)
  18:src/_sem.cpp  ****     waitingMy =  new MyWaitList();
 111              		.loc 1 18 5 is_stmt 1
 112              	.LVL7:
 113              	.LBB24:
 114              	.LBB25:
 115              		.file 3 "src/../h/MyWaitList.hpp"
   1:src/../h/MyWaitList.hpp **** //
   2:src/../h/MyWaitList.hpp **** // Created by os on 8/19/22.
   3:src/../h/MyWaitList.hpp **** //
   4:src/../h/MyWaitList.hpp **** 
   5:src/../h/MyWaitList.hpp **** #ifndef MK_OS_PROJECT_MYWAITLIST_HPP
   6:src/../h/MyWaitList.hpp **** #define MK_OS_PROJECT_MYWAITLIST_HPP
   7:src/../h/MyWaitList.hpp **** 
   8:src/../h/MyWaitList.hpp **** #include "tcb.hpp"
   9:src/../h/MyWaitList.hpp **** class MyWaitList{
  10:src/../h/MyWaitList.hpp **** private:
  11:src/../h/MyWaitList.hpp ****     struct Element{
  12:src/../h/MyWaitList.hpp ****         TCB * tcb;
  13:src/../h/MyWaitList.hpp ****         Element* next;
  14:src/../h/MyWaitList.hpp ****         Element(TCB*t){
  15:src/../h/MyWaitList.hpp ****             tcb=t;
  16:src/../h/MyWaitList.hpp ****             next= nullptr;
GAS LISTING /tmp/ccthtb1J.s 			page 4


  17:src/../h/MyWaitList.hpp ****         }
  18:src/../h/MyWaitList.hpp ****         void * operator new(size_t size){return __mem_alloc(size);}
  19:src/../h/MyWaitList.hpp ****         void operator delete (void*ptr){ __mem_free(ptr);}
  20:src/../h/MyWaitList.hpp ****     };
  21:src/../h/MyWaitList.hpp **** 
  22:src/../h/MyWaitList.hpp ****     Element * head,*tail;
  23:src/../h/MyWaitList.hpp ****     unsigned size=0;
  24:src/../h/MyWaitList.hpp **** public:
  25:src/../h/MyWaitList.hpp ****     void * operator new(size_t size){return __mem_alloc(size);}
 116              		.loc 3 25 38
 117              		.loc 3 25 56 is_stmt 0
 118 0080 13058001 		li	a0,24
 119              	.LVL8:
 120 0084 97000000 		call	__mem_alloc@plt
 120      E7800000 
 121              	.LVL9:
 122              	.LBE25:
 123              	.LBE24:
 124              	.LBB26:
 125              	.LBB27:
  26:src/../h/MyWaitList.hpp ****     void operator delete (void*ptr){ __mem_free(ptr);}
  27:src/../h/MyWaitList.hpp ****     MyWaitList(){
 126              		.loc 3 27 17
 127 008c 23280500 		sw	zero,16(a0)
  28:src/../h/MyWaitList.hpp ****         head= nullptr;
 128              		.loc 3 28 9 is_stmt 1
 129              		.loc 3 28 13 is_stmt 0
 130 0090 23300500 		sd	zero,0(a0)
  29:src/../h/MyWaitList.hpp ****         tail= nullptr;
 131              		.loc 3 29 9 is_stmt 1
 132              		.loc 3 29 13 is_stmt 0
 133 0094 23340500 		sd	zero,8(a0)
 134              	.LVL10:
 135              	.LBE27:
 136              	.LBE26:
 137              		.loc 1 18 15
 138 0098 23BCA400 		sd	a0,24(s1)
 139              	.LBE21:
  19:src/_sem.cpp  **** }
 140              		.loc 1 19 1
 141 009c 83308101 		ld	ra,24(sp)
 142              		.cfi_restore 1
 143 00a0 03340101 		ld	s0,16(sp)
 144              		.cfi_restore 8
 145              		.cfi_def_cfa 2, 32
 146 00a4 83348100 		ld	s1,8(sp)
 147              		.cfi_restore 9
 148              	.LVL11:
 149 00a8 13010102 		addi	sp,sp,32
 150              		.cfi_def_cfa_offset 0
 151 00ac 67800000 		jr	ra
 152              		.cfi_endproc
 153              	.LFE76:
 155              		.globl	_ZN4_semC1EPPS_j
 156              		.set	_ZN4_semC1EPPS_j,_ZN4_semC2EPPS_j
 157              		.align	2
 158              		.globl	_ZN4_sem5closeEv
GAS LISTING /tmp/ccthtb1J.s 			page 5


 160              	_ZN4_sem5closeEv:
 161              	.LFB78:
  20:src/_sem.cpp  **** int _sem::close() {
 162              		.loc 1 20 19 is_stmt 1
 163              		.cfi_startproc
 164              	.LVL12:
  21:src/_sem.cpp  ****     if(ended==1) return -1;
 165              		.loc 1 21 5
 166              		.loc 1 21 8 is_stmt 0
 167 00b0 03274502 		lw	a4,36(a0)
 168              		.loc 1 21 5
 169 00b4 93071000 		li	a5,1
 170 00b8 6304F708 		beq	a4,a5,.L12
  20:src/_sem.cpp  **** int _sem::close() {
 171              		.loc 1 20 19
 172 00bc 130101FE 		addi	sp,sp,-32
 173              		.cfi_def_cfa_offset 32
 174 00c0 233C1100 		sd	ra,24(sp)
 175 00c4 23388100 		sd	s0,16(sp)
 176 00c8 23349100 		sd	s1,8(sp)
 177 00cc 23302101 		sd	s2,0(sp)
 178              		.cfi_offset 1, -8
 179              		.cfi_offset 8, -16
 180              		.cfi_offset 9, -24
 181              		.cfi_offset 18, -32
 182 00d0 13040102 		addi	s0,sp,32
 183              		.cfi_def_cfa 8, 0
 184 00d4 93040500 		mv	s1,a0
  22:src/_sem.cpp  ****     ended=1;
 185              		.loc 1 22 5 is_stmt 1
 186              		.loc 1 22 10 is_stmt 0
 187 00d8 2322F502 		sw	a5,36(a0)
  23:src/_sem.cpp  ****     val=0;
 188              		.loc 1 23 5 is_stmt 1
 189              		.loc 1 23 8 is_stmt 0
 190 00dc 23200502 		sw	zero,32(a0)
 191 00e0 6F000002 		j	.L11
 192              	.LVL13:
 193              	.L19:
 194              	.LBB35:
 195              	.LBB36:
 196              	.LBB37:
  30:src/../h/MyWaitList.hpp ****     }
  31:src/../h/MyWaitList.hpp ****     void add(TCB*tcb){
  32:src/../h/MyWaitList.hpp ****         Element * el = new Element(tcb);
  33:src/../h/MyWaitList.hpp ****         if(!head){
  34:src/../h/MyWaitList.hpp ****             head=el;
  35:src/../h/MyWaitList.hpp ****             tail=head;
  36:src/../h/MyWaitList.hpp ****             size++;
  37:src/../h/MyWaitList.hpp ****         }else{
  38:src/../h/MyWaitList.hpp ****             tail->next=el;
  39:src/../h/MyWaitList.hpp ****             tail=el;
  40:src/../h/MyWaitList.hpp ****             size++;
  41:src/../h/MyWaitList.hpp ****         }
  42:src/../h/MyWaitList.hpp ****     }
  43:src/../h/MyWaitList.hpp **** 
  44:src/../h/MyWaitList.hpp ****     TCB* removeFirst(){
GAS LISTING /tmp/ccthtb1J.s 			page 6


  45:src/../h/MyWaitList.hpp ****         if(size==0)return nullptr;
  46:src/../h/MyWaitList.hpp ****         Element*pom = head;
  47:src/../h/MyWaitList.hpp ****         head=head->next;
  48:src/../h/MyWaitList.hpp ****         if(!head){tail=0;}
 197              		.loc 3 48 19 is_stmt 1
 198              		.loc 3 48 23 is_stmt 0
 199 00e4 23B40700 		sd	zero,8(a5)
 200 00e8 6F00C003 		j	.L10
 201              	.LVL14:
 202              	.L20:
 203              	.LBB38:
 204              	.LBB39:
  19:src/../h/MyWaitList.hpp ****     };
 205              		.loc 3 19 42 is_stmt 1
  19:src/../h/MyWaitList.hpp ****     };
 206              		.loc 3 19 52 is_stmt 0
 207 00ec 97000000 		call	__mem_free@plt
 207      E7800000 
 208              	.LVL15:
 209              	.L9:
 210              	.LBE39:
 211              	.LBE38:
 212              	.LBE37:
 213              	.LBE36:
  24:src/_sem.cpp  ****     while(waiting.size()>0){
  25:src/_sem.cpp  ****       //  TCB* tcb = waiting.removeFirst();
  26:src/_sem.cpp  ****       TCB * tcb = waitingMy->removeFirst();
  27:src/_sem.cpp  ****         tcb->releaseWaiting();
 214              		.loc 1 27 9 is_stmt 1
 215              		.loc 1 27 28 is_stmt 0
 216 00f4 13050900 		mv	a0,s2
 217 00f8 97000000 		call	_ZN3TCB14releaseWaitingEv@plt
 217      E7800000 
 218              	.LVL16:
 219              	.L11:
 220              	.LBE35:
  24:src/_sem.cpp  ****     while(waiting.size()>0){
 221              		.loc 1 24 5 is_stmt 1
  24:src/_sem.cpp  ****     while(waiting.size()>0){
 222              		.loc 1 24 25
 223              	.LBB42:
 224              	.LBB43:
  26:src/../h/list.hpp ****         sizeofList=0;
  27:src/../h/list.hpp ****     }
  28:src/../h/list.hpp **** 
  29:src/../h/list.hpp ****     List(const List<T> &) = delete;
  30:src/../h/list.hpp **** 
  31:src/../h/list.hpp ****     List<T> &operator=(const List<T> &) = delete;
  32:src/../h/list.hpp ****     unsigned size() const {return sizeofList;}
 225              		.loc 2 32 35 is_stmt 0
 226 0100 83A70401 		lw	a5,16(s1)
 227              	.LVL17:
 228              	.LBE43:
 229              	.LBE42:
  24:src/_sem.cpp  ****     while(waiting.size()>0){
 230              		.loc 1 24 25
 231 0104 63820704 		beqz	a5,.L13
GAS LISTING /tmp/ccthtb1J.s 			page 7


 232              	.LBB44:
  26:src/_sem.cpp  ****         tcb->releaseWaiting();
 233              		.loc 1 26 7 is_stmt 1
  26:src/_sem.cpp  ****         tcb->releaseWaiting();
 234              		.loc 1 26 19 is_stmt 0
 235 0108 83B78401 		ld	a5,24(s1)
 236              	.LVL18:
 237              	.LBB41:
 238              	.LBB40:
  45:src/../h/MyWaitList.hpp ****         Element*pom = head;
 239              		.loc 3 45 9 is_stmt 1
  45:src/../h/MyWaitList.hpp ****         Element*pom = head;
 240              		.loc 3 45 12 is_stmt 0
 241 010c 03A70701 		lw	a4,16(a5)
  45:src/../h/MyWaitList.hpp ****         Element*pom = head;
 242              		.loc 3 45 9
 243 0110 63040702 		beqz	a4,.L14
  46:src/../h/MyWaitList.hpp ****         head=head->next;
 244              		.loc 3 46 9 is_stmt 1
  46:src/../h/MyWaitList.hpp ****         head=head->next;
 245              		.loc 3 46 17 is_stmt 0
 246 0114 03B50700 		ld	a0,0(a5)
 247              	.LVL19:
  47:src/../h/MyWaitList.hpp ****         if(!head){tail=0;}
 248              		.loc 3 47 9 is_stmt 1
  47:src/../h/MyWaitList.hpp ****         if(!head){tail=0;}
 249              		.loc 3 47 20 is_stmt 0
 250 0118 83368500 		ld	a3,8(a0)
  47:src/../h/MyWaitList.hpp ****         if(!head){tail=0;}
 251              		.loc 3 47 13
 252 011c 23B0D700 		sd	a3,0(a5)
 253              		.loc 3 48 9 is_stmt 1
 254 0120 E38206FC 		beqz	a3,.L19
 255              	.L10:
  49:src/../h/MyWaitList.hpp ****         size--;
 256              		.loc 3 49 9
 257              		.loc 3 49 13 is_stmt 0
 258 0124 1B07F7FF 		addiw	a4,a4,-1
 259 0128 23A8E700 		sw	a4,16(a5)
  50:src/../h/MyWaitList.hpp ****         TCB*t =pom->tcb;
 260              		.loc 3 50 9 is_stmt 1
 261              		.loc 3 50 13 is_stmt 0
 262 012c 03390500 		ld	s2,0(a0)
 263              	.LVL20:
  51:src/../h/MyWaitList.hpp ****         delete pom;
 264              		.loc 3 51 9 is_stmt 1
 265              		.loc 3 51 19 is_stmt 0
 266 0130 E31E05FA 		bnez	a0,.L20
 267 0134 6FF01FFC 		j	.L9
 268              	.LVL21:
 269              	.L14:
  45:src/../h/MyWaitList.hpp ****         Element*pom = head;
 270              		.loc 3 45 27
 271 0138 13090000 		li	s2,0
 272 013c 6FF09FFB 		j	.L9
 273              	.LVL22:
 274              	.L12:
GAS LISTING /tmp/ccthtb1J.s 			page 8


 275              		.cfi_def_cfa_register 2
 276              		.cfi_restore 1
 277              		.cfi_restore 8
 278              		.cfi_restore 9
 279              		.cfi_restore 18
 280              	.LBE40:
 281              	.LBE41:
 282              	.LBE44:
  21:src/_sem.cpp  ****     ended=1;
 283              		.loc 1 21 26
 284 0140 1305F0FF 		li	a0,-1
 285              	.LVL23:
  28:src/_sem.cpp  ****     }
  29:src/_sem.cpp  ****     return 0;
  30:src/_sem.cpp  **** }
 286              		.loc 1 30 1
 287 0144 67800000 		ret
 288              	.LVL24:
 289              	.L13:
 290              		.cfi_def_cfa_register 8
 291              		.cfi_offset 1, -8
 292              		.cfi_offset 8, -16
 293              		.cfi_offset 9, -24
 294              		.cfi_offset 18, -32
  29:src/_sem.cpp  **** }
 295              		.loc 1 29 12
 296 0148 13050000 		li	a0,0
 297              		.loc 1 30 1
 298 014c 83308101 		ld	ra,24(sp)
 299              		.cfi_restore 1
 300 0150 03340101 		ld	s0,16(sp)
 301              		.cfi_restore 8
 302              		.cfi_def_cfa 2, 32
 303 0154 83348100 		ld	s1,8(sp)
 304              		.cfi_restore 9
 305              	.LVL25:
 306 0158 03390100 		ld	s2,0(sp)
 307              		.cfi_restore 18
 308 015c 13010102 		addi	sp,sp,32
 309              		.cfi_def_cfa_offset 0
 310 0160 67800000 		jr	ra
 311              		.cfi_endproc
 312              	.LFE78:
 314              		.align	2
 315              		.globl	_ZN4_sem4waitEv
 317              	_ZN4_sem4waitEv:
 318              	.LFB79:
  31:src/_sem.cpp  **** int _sem::wait() {
 319              		.loc 1 31 18 is_stmt 1
 320              		.cfi_startproc
 321              	.LVL26:
  32:src/_sem.cpp  **** 
  33:src/_sem.cpp  ****     if(ended==1)return -1;
 322              		.loc 1 33 5
 323              		.loc 1 33 8 is_stmt 0
 324 0164 03274502 		lw	a4,36(a0)
 325              		.loc 1 33 5
GAS LISTING /tmp/ccthtb1J.s 			page 9


 326 0168 93071000 		li	a5,1
 327 016c 6306F70C 		beq	a4,a5,.L26
  31:src/_sem.cpp  **** int _sem::wait() {
 328              		.loc 1 31 18
 329 0170 130101FD 		addi	sp,sp,-48
 330              		.cfi_def_cfa_offset 48
 331 0174 23341102 		sd	ra,40(sp)
 332 0178 23308102 		sd	s0,32(sp)
 333 017c 233C9100 		sd	s1,24(sp)
 334 0180 23382101 		sd	s2,16(sp)
 335 0184 23343101 		sd	s3,8(sp)
 336              		.cfi_offset 1, -8
 337              		.cfi_offset 8, -16
 338              		.cfi_offset 9, -24
 339              		.cfi_offset 18, -32
 340              		.cfi_offset 19, -40
 341 0188 13040103 		addi	s0,sp,48
 342              		.cfi_def_cfa 8, 0
 343 018c 93040500 		mv	s1,a0
  34:src/_sem.cpp  ****     if(--val<0)
 344              		.loc 1 34 5 is_stmt 1
 345              		.loc 1 34 10 is_stmt 0
 346 0190 83270502 		lw	a5,32(a0)
 347              		.loc 1 34 8
 348 0194 9B87F7FF 		addiw	a5,a5,-1
 349              		.loc 1 34 13
 350 0198 2320F502 		sw	a5,32(a0)
 351              		.loc 1 34 5
 352 019c 13970702 		slli	a4,a5,32
 353 01a0 63440702 		bltz	a4,.L31
 354              	.LVL27:
 355              	.L23:
  35:src/_sem.cpp  ****     {
  36:src/_sem.cpp  ****        // waiting.addLast(TCB::running);
  37:src/_sem.cpp  ****         waitingMy->add(TCB::running);
  38:src/_sem.cpp  ****         TCB::wait();
  39:src/_sem.cpp  ****     }
  40:src/_sem.cpp  **** 
  41:src/_sem.cpp  ****     if(ended)return -1;
 356              		.loc 1 41 5 is_stmt 1
 357              		.loc 1 41 8 is_stmt 0
 358 01a4 03A54402 		lw	a0,36(s1)
 359              		.loc 1 41 5
 360 01a8 63140508 		bnez	a0,.L32
 361              	.L22:
  42:src/_sem.cpp  ****     else return 0;
  43:src/_sem.cpp  **** }
 362              		.loc 1 43 1
 363 01ac 83308102 		ld	ra,40(sp)
 364              		.cfi_remember_state
 365              		.cfi_restore 1
 366 01b0 03340102 		ld	s0,32(sp)
 367              		.cfi_restore 8
 368              		.cfi_def_cfa 2, 48
 369 01b4 83348101 		ld	s1,24(sp)
 370              		.cfi_restore 9
 371              	.LVL28:
GAS LISTING /tmp/ccthtb1J.s 			page 10


 372 01b8 03390101 		ld	s2,16(sp)
 373              		.cfi_restore 18
 374 01bc 83398100 		ld	s3,8(sp)
 375              		.cfi_restore 19
 376 01c0 13010103 		addi	sp,sp,48
 377              		.cfi_def_cfa_offset 0
 378 01c4 67800000 		jr	ra
 379              	.LVL29:
 380              	.L31:
 381              		.cfi_restore_state
  37:src/_sem.cpp  ****         TCB::wait();
 382              		.loc 1 37 9 is_stmt 1
 383 01c8 03398501 		ld	s2,24(a0)
  37:src/_sem.cpp  ****         TCB::wait();
 384              		.loc 1 37 23 is_stmt 0
 385 01cc 97070000 		la	a5,_ZN3TCB7runningE
 385      83B70700 
 386 01d4 83B90700 		ld	s3,0(a5)
 387              	.LVL30:
 388              	.LBB52:
 389              	.LBB53:
  32:src/../h/MyWaitList.hpp ****         if(!head){
 390              		.loc 3 32 9 is_stmt 1
 391              	.LBB54:
 392              	.LBB55:
  18:src/../h/MyWaitList.hpp ****         void operator delete (void*ptr){ __mem_free(ptr);}
 393              		.loc 3 18 42
  18:src/../h/MyWaitList.hpp ****         void operator delete (void*ptr){ __mem_free(ptr);}
 394              		.loc 3 18 60 is_stmt 0
 395 01d8 13050001 		li	a0,16
 396 01dc 97000000 		call	__mem_alloc@plt
 396      E7800000 
 397              	.LVL31:
 398              	.LBE55:
 399              	.LBE54:
 400              	.LBB56:
 401              	.LBB57:
  15:src/../h/MyWaitList.hpp ****             next= nullptr;
 402              		.loc 3 15 13 is_stmt 1
  15:src/../h/MyWaitList.hpp ****             next= nullptr;
 403              		.loc 3 15 16 is_stmt 0
 404 01e4 23303501 		sd	s3,0(a0)
  16:src/../h/MyWaitList.hpp ****         }
 405              		.loc 3 16 13 is_stmt 1
  16:src/../h/MyWaitList.hpp ****         }
 406              		.loc 3 16 17 is_stmt 0
 407 01e8 23340500 		sd	zero,8(a0)
 408              	.LVL32:
 409              	.LBE57:
 410              	.LBE56:
  33:src/../h/MyWaitList.hpp ****             head=el;
 411              		.loc 3 33 9 is_stmt 1
  33:src/../h/MyWaitList.hpp ****             head=el;
 412              		.loc 3 33 13 is_stmt 0
 413 01ec 83370900 		ld	a5,0(s2)
  33:src/../h/MyWaitList.hpp ****             head=el;
 414              		.loc 3 33 9
GAS LISTING /tmp/ccthtb1J.s 			page 11


 415 01f0 63840702 		beqz	a5,.L33
  38:src/../h/MyWaitList.hpp ****             tail=el;
 416              		.loc 3 38 13 is_stmt 1
 417 01f4 83378900 		ld	a5,8(s2)
  38:src/../h/MyWaitList.hpp ****             tail=el;
 418              		.loc 3 38 23 is_stmt 0
 419 01f8 23B4A700 		sd	a0,8(a5)
  39:src/../h/MyWaitList.hpp ****             size++;
 420              		.loc 3 39 13 is_stmt 1
  39:src/../h/MyWaitList.hpp ****             size++;
 421              		.loc 3 39 17 is_stmt 0
 422 01fc 2334A900 		sd	a0,8(s2)
  40:src/../h/MyWaitList.hpp ****         }
 423              		.loc 3 40 13 is_stmt 1
 424 0200 83270901 		lw	a5,16(s2)
  40:src/../h/MyWaitList.hpp ****         }
 425              		.loc 3 40 17 is_stmt 0
 426 0204 9B871700 		addiw	a5,a5,1
 427 0208 2328F900 		sw	a5,16(s2)
 428              	.L25:
 429              	.LVL33:
 430              	.LBE53:
 431              	.LBE52:
  38:src/_sem.cpp  ****     }
 432              		.loc 1 38 9 is_stmt 1
  38:src/_sem.cpp  ****     }
 433              		.loc 1 38 18 is_stmt 0
 434 020c 97000000 		call	_ZN3TCB4waitEv@plt
 434      E7800000 
 435              	.LVL34:
 436 0214 6FF01FF9 		j	.L23
 437              	.LVL35:
 438              	.L33:
 439              	.LBB59:
 440              	.LBB58:
  34:src/../h/MyWaitList.hpp ****             tail=head;
 441              		.loc 3 34 13 is_stmt 1
  34:src/../h/MyWaitList.hpp ****             tail=head;
 442              		.loc 3 34 17 is_stmt 0
 443 0218 2330A900 		sd	a0,0(s2)
  35:src/../h/MyWaitList.hpp ****             size++;
 444              		.loc 3 35 13 is_stmt 1
  35:src/../h/MyWaitList.hpp ****             size++;
 445              		.loc 3 35 17 is_stmt 0
 446 021c 2334A900 		sd	a0,8(s2)
  36:src/../h/MyWaitList.hpp ****         }else{
 447              		.loc 3 36 13 is_stmt 1
 448 0220 83270901 		lw	a5,16(s2)
  36:src/../h/MyWaitList.hpp ****         }else{
 449              		.loc 3 36 17 is_stmt 0
 450 0224 9B871700 		addiw	a5,a5,1
 451 0228 2328F900 		sw	a5,16(s2)
 452 022c 6FF01FFE 		j	.L25
 453              	.LVL36:
 454              	.L32:
 455              	.LBE58:
 456              	.LBE59:
GAS LISTING /tmp/ccthtb1J.s 			page 12


  41:src/_sem.cpp  ****     else return 0;
 457              		.loc 1 41 22
 458 0230 1305F0FF 		li	a0,-1
 459 0234 6FF09FF7 		j	.L22
 460              	.LVL37:
 461              	.L26:
 462              		.cfi_def_cfa_register 2
 463              		.cfi_restore 1
 464              		.cfi_restore 8
 465              		.cfi_restore 9
 466              		.cfi_restore 18
 467              		.cfi_restore 19
  33:src/_sem.cpp  ****     if(--val<0)
 468              		.loc 1 33 25
 469 0238 1305F0FF 		li	a0,-1
 470              	.LVL38:
 471              		.loc 1 43 1
 472 023c 67800000 		ret
 473              		.cfi_endproc
 474              	.LFE79:
 476              		.align	2
 477              		.globl	_ZN4_sem6signalEv
 479              	_ZN4_sem6signalEv:
 480              	.LFB80:
  44:src/_sem.cpp  **** int _sem::signal() {
 481              		.loc 1 44 20 is_stmt 1
 482              		.cfi_startproc
 483              	.LVL39:
  45:src/_sem.cpp  ****     if(ended==1)return -1;
 484              		.loc 1 45 5
 485              		.loc 1 45 8 is_stmt 0
 486 0240 03274502 		lw	a4,36(a0)
 487              		.loc 1 45 5
 488 0244 93071000 		li	a5,1
 489 0248 630EF708 		beq	a4,a5,.L38
  46:src/_sem.cpp  ****     if(++val<=0){
 490              		.loc 1 46 5 is_stmt 1
 491              	.LBB66:
 492              		.loc 1 46 10 is_stmt 0
 493 024c 83270502 		lw	a5,32(a0)
 494              		.loc 1 46 8
 495 0250 9B871700 		addiw	a5,a5,1
 496 0254 1B870700 		sext.w	a4,a5
 497              		.loc 1 46 13
 498 0258 2320F502 		sw	a5,32(a0)
 499              		.loc 1 46 5
 500 025c 6356E000 		blez	a4,.L45
 501              	.LBE66:
  47:src/_sem.cpp  ****        // TCB*tcb=waiting.removeFirst();
  48:src/_sem.cpp  ****         TCB * tcb = waitingMy->removeFirst();
  49:src/_sem.cpp  **** 
  50:src/_sem.cpp  ****         tcb->releaseWaiting();
  51:src/_sem.cpp  ****     }
  52:src/_sem.cpp  ****     return 0;
 502              		.loc 1 52 12
 503 0260 13050000 		li	a0,0
 504              	.LVL40:
GAS LISTING /tmp/ccthtb1J.s 			page 13


  53:src/_sem.cpp  **** }...
 505              		.loc 1 53 1
 506 0264 67800000 		ret
 507              	.LVL41:
 508              	.L45:
  44:src/_sem.cpp  **** int _sem::signal() {
 509              		.loc 1 44 20
 510 0268 130101FE 		addi	sp,sp,-32
 511              		.cfi_def_cfa_offset 32
 512 026c 233C1100 		sd	ra,24(sp)
 513 0270 23388100 		sd	s0,16(sp)
 514 0274 23349100 		sd	s1,8(sp)
 515              		.cfi_offset 1, -8
 516              		.cfi_offset 8, -16
 517              		.cfi_offset 9, -24
 518 0278 13040102 		addi	s0,sp,32
 519              		.cfi_def_cfa 8, 0
 520              	.LBB75:
 521              	.LBB67:
  48:src/_sem.cpp  ****         TCB * tcb = waitingMy->removeFirst();
 522              		.loc 1 48 9 is_stmt 1
  48:src/_sem.cpp  ****         TCB * tcb = waitingMy->removeFirst();
 523              		.loc 1 48 21 is_stmt 0
 524 027c 83378501 		ld	a5,24(a0)
 525              	.LVL42:
 526              	.LBB68:
 527              	.LBB69:
  45:src/../h/MyWaitList.hpp ****         Element*pom = head;
 528              		.loc 3 45 9 is_stmt 1
  45:src/../h/MyWaitList.hpp ****         Element*pom = head;
 529              		.loc 3 45 12 is_stmt 0
 530 0280 03A70701 		lw	a4,16(a5)
  45:src/../h/MyWaitList.hpp ****         Element*pom = head;
 531              		.loc 3 45 9
 532 0284 630C0704 		beqz	a4,.L40
  46:src/../h/MyWaitList.hpp ****         head=head->next;
 533              		.loc 3 46 9 is_stmt 1
  46:src/../h/MyWaitList.hpp ****         head=head->next;
 534              		.loc 3 46 17 is_stmt 0
 535 0288 03B50700 		ld	a0,0(a5)
 536              	.LVL43:
  47:src/../h/MyWaitList.hpp ****         if(!head){tail=0;}
 537              		.loc 3 47 9 is_stmt 1
  47:src/../h/MyWaitList.hpp ****         if(!head){tail=0;}
 538              		.loc 3 47 20 is_stmt 0
 539 028c 83368500 		ld	a3,8(a0)
  47:src/../h/MyWaitList.hpp ****         if(!head){tail=0;}
 540              		.loc 3 47 13
 541 0290 23B0D700 		sd	a3,0(a5)
  48:src/../h/MyWaitList.hpp ****         size--;
 542              		.loc 3 48 9 is_stmt 1
 543 0294 63800604 		beqz	a3,.L46
 544              	.L37:
  49:src/../h/MyWaitList.hpp ****         TCB*t =pom->tcb;
 545              		.loc 3 49 9
  49:src/../h/MyWaitList.hpp ****         TCB*t =pom->tcb;
 546              		.loc 3 49 13 is_stmt 0
GAS LISTING /tmp/ccthtb1J.s 			page 14


 547 0298 1B07F7FF 		addiw	a4,a4,-1
 548 029c 23A8E700 		sw	a4,16(a5)
  50:src/../h/MyWaitList.hpp ****         delete pom;
 549              		.loc 3 50 9 is_stmt 1
  50:src/../h/MyWaitList.hpp ****         delete pom;
 550              		.loc 3 50 13 is_stmt 0
 551 02a0 83340500 		ld	s1,0(a0)
 552              	.LVL44:
 553              		.loc 3 51 9 is_stmt 1
 554              		.loc 3 51 19 is_stmt 0
 555 02a4 63060500 		beqz	a0,.L36
 556              	.LVL45:
 557              	.LBB70:
 558              	.LBB71:
  19:src/../h/MyWaitList.hpp ****     };
 559              		.loc 3 19 42 is_stmt 1
  19:src/../h/MyWaitList.hpp ****     };
 560              		.loc 3 19 52 is_stmt 0
 561 02a8 97000000 		call	__mem_free@plt
 561      E7800000 
 562              	.LVL46:
 563              	.L36:
 564              	.LBE71:
 565              	.LBE70:
 566              	.LBE69:
 567              	.LBE68:
  50:src/_sem.cpp  ****         tcb->releaseWaiting();
 568              		.loc 1 50 9 is_stmt 1
  50:src/_sem.cpp  ****         tcb->releaseWaiting();
 569              		.loc 1 50 28 is_stmt 0
 570 02b0 13850400 		mv	a0,s1
 571 02b4 97000000 		call	_ZN3TCB14releaseWaitingEv@plt
 571      E7800000 
 572              	.LVL47:
 573              	.LBE67:
 574              	.LBE75:
  52:src/_sem.cpp  ****     return 0;
 575              		.loc 1 52 12
 576 02bc 13050000 		li	a0,0
 577              		.loc 1 53 1
 578 02c0 83308101 		ld	ra,24(sp)
 579              		.cfi_remember_state
 580              		.cfi_restore 1
 581 02c4 03340101 		ld	s0,16(sp)
 582              		.cfi_restore 8
 583              		.cfi_def_cfa 2, 32
 584 02c8 83348100 		ld	s1,8(sp)
 585              		.cfi_restore 9
 586              	.LVL48:
 587 02cc 13010102 		addi	sp,sp,32
 588              		.cfi_def_cfa_offset 0
 589 02d0 67800000 		jr	ra
 590              	.LVL49:
 591              	.L46:
 592              		.cfi_restore_state
 593              	.LBB76:
 594              	.LBB74:
GAS LISTING /tmp/ccthtb1J.s 			page 15


 595              	.LBB73:
 596              	.LBB72:
  48:src/../h/MyWaitList.hpp ****         size--;
 597              		.loc 3 48 19 is_stmt 1
  48:src/../h/MyWaitList.hpp ****         size--;
 598              		.loc 3 48 23 is_stmt 0
 599 02d4 23B40700 		sd	zero,8(a5)
 600 02d8 6FF01FFC 		j	.L37
 601              	.LVL50:
 602              	.L40:
  45:src/../h/MyWaitList.hpp ****         Element*pom = head;
 603              		.loc 3 45 27
 604 02dc 93040000 		li	s1,0
 605 02e0 6FF01FFD 		j	.L36
 606              	.LVL51:
 607              	.L38:
 608              		.cfi_def_cfa_register 2
 609              		.cfi_restore 1
 610              		.cfi_restore 8
 611              		.cfi_restore 9
 612              	.LBE72:
 613              	.LBE73:
 614              	.LBE74:
 615              	.LBE76:
  45:src/_sem.cpp  ****     if(ended==1)return -1;
 616              		.loc 1 45 25
 617 02e4 1305F0FF 		li	a0,-1
 618              	.LVL52:
 619 02e8 67800000 		ret
 620              		.cfi_endproc
 621              	.LFE80:
 623              	.Letext0:
 624              		.file 4 "src/../h/../lib/hw.h"
 625              		.file 5 "src/../h/tcb.hpp"
 626              		.file 6 "src/../h/syscall_c.hpp"
 627              		.file 7 "src/../h/_sem.hpp"
 628              		.file 8 "src/../h/../lib/mem.h"
GAS LISTING /tmp/ccthtb1J.s 			page 16


DEFINED SYMBOLS
                            *ABS*:0000000000000000 _sem.cpp
     /tmp/ccthtb1J.s:9      .text:0000000000000000 _ZN4_semnwEm
     /tmp/ccthtb1J.s:13     .text:0000000000000000 .L0 
     /tmp/ccthtb1J.s:15     .text:0000000000000000 .L0 
     /tmp/ccthtb1J.s:16     .text:0000000000000004 .L0 
     /tmp/ccthtb1J.s:19     .text:000000000000000c .L0 
     /tmp/ccthtb1J.s:20     .text:000000000000000c .L0 
     /tmp/ccthtb1J.s:22     .text:0000000000000010 .L0 
     /tmp/ccthtb1J.s:24     .text:0000000000000010 .L0 
     /tmp/ccthtb1J.s:25     .text:0000000000000010 .L0 
     /tmp/ccthtb1J.s:28     .text:0000000000000018 .L0 
     /tmp/ccthtb1J.s:29     .text:000000000000001c .L0 
     /tmp/ccthtb1J.s:31     .text:0000000000000020 .L0 
     /tmp/ccthtb1J.s:32     .text:0000000000000020 .L0 
     /tmp/ccthtb1J.s:34     .text:0000000000000024 .L0 
     /tmp/ccthtb1J.s:36     .text:0000000000000028 .L0 
     /tmp/ccthtb1J.s:42     .text:0000000000000028 _ZN4_semdlEPv
     /tmp/ccthtb1J.s:45     .text:0000000000000028 .L0 
     /tmp/ccthtb1J.s:47     .text:0000000000000028 .L0 
     /tmp/ccthtb1J.s:48     .text:000000000000002c .L0 
     /tmp/ccthtb1J.s:51     .text:0000000000000034 .L0 
     /tmp/ccthtb1J.s:52     .text:0000000000000034 .L0 
     /tmp/ccthtb1J.s:54     .text:0000000000000038 .L0 
     /tmp/ccthtb1J.s:56     .text:0000000000000038 .L0 
     /tmp/ccthtb1J.s:57     .text:0000000000000038 .L0 
     /tmp/ccthtb1J.s:60     .text:0000000000000040 .L0 
     /tmp/ccthtb1J.s:61     .text:0000000000000044 .L0 
     /tmp/ccthtb1J.s:63     .text:0000000000000048 .L0 
     /tmp/ccthtb1J.s:64     .text:0000000000000048 .L0 
     /tmp/ccthtb1J.s:66     .text:000000000000004c .L0 
     /tmp/ccthtb1J.s:68     .text:0000000000000050 .L0 
     /tmp/ccthtb1J.s:74     .text:0000000000000050 _ZN4_semC2EPPS_j
     /tmp/ccthtb1J.s:77     .text:0000000000000050 .L0 
     /tmp/ccthtb1J.s:79     .text:0000000000000050 .L0 
     /tmp/ccthtb1J.s:80     .text:0000000000000054 .L0 
     /tmp/ccthtb1J.s:84     .text:0000000000000060 .L0 
     /tmp/ccthtb1J.s:85     .text:0000000000000060 .L0 
     /tmp/ccthtb1J.s:86     .text:0000000000000060 .L0 
     /tmp/ccthtb1J.s:88     .text:0000000000000064 .L0 
     /tmp/ccthtb1J.s:96     .text:0000000000000068 .L0 
     /tmp/ccthtb1J.s:103    .text:0000000000000074 .L0 
     /tmp/ccthtb1J.s:104    .text:0000000000000074 .L0 
     /tmp/ccthtb1J.s:106    .text:0000000000000078 .L0 
     /tmp/ccthtb1J.s:107    .text:0000000000000078 .L0 
     /tmp/ccthtb1J.s:109    .text:000000000000007c .L0 
     /tmp/ccthtb1J.s:110    .text:000000000000007c .L0 
     /tmp/ccthtb1J.s:116    .text:0000000000000080 .L0 
     /tmp/ccthtb1J.s:117    .text:0000000000000080 .L0 
     /tmp/ccthtb1J.s:118    .text:0000000000000080 .L0 
     /tmp/ccthtb1J.s:127    .text:000000000000008c .L0 
     /tmp/ccthtb1J.s:129    .text:0000000000000090 .L0 
     /tmp/ccthtb1J.s:130    .text:0000000000000090 .L0 
     /tmp/ccthtb1J.s:132    .text:0000000000000094 .L0 
     /tmp/ccthtb1J.s:133    .text:0000000000000094 .L0 
     /tmp/ccthtb1J.s:138    .text:0000000000000098 .L0 
     /tmp/ccthtb1J.s:141    .text:000000000000009c .L0 
GAS LISTING /tmp/ccthtb1J.s 			page 17


     /tmp/ccthtb1J.s:142    .text:00000000000000a0 .L0 
     /tmp/ccthtb1J.s:144    .text:00000000000000a4 .L0 
     /tmp/ccthtb1J.s:145    .text:00000000000000a4 .L0 
     /tmp/ccthtb1J.s:147    .text:00000000000000a8 .L0 
     /tmp/ccthtb1J.s:150    .text:00000000000000ac .L0 
     /tmp/ccthtb1J.s:152    .text:00000000000000b0 .L0 
     /tmp/ccthtb1J.s:74     .text:0000000000000050 _ZN4_semC1EPPS_j
     /tmp/ccthtb1J.s:160    .text:00000000000000b0 _ZN4_sem5closeEv
     /tmp/ccthtb1J.s:163    .text:00000000000000b0 .L0 
     /tmp/ccthtb1J.s:165    .text:00000000000000b0 .L0 
     /tmp/ccthtb1J.s:166    .text:00000000000000b0 .L0 
     /tmp/ccthtb1J.s:167    .text:00000000000000b0 .L0 
     /tmp/ccthtb1J.s:169    .text:00000000000000b4 .L0 
     /tmp/ccthtb1J.s:172    .text:00000000000000bc .L0 
     /tmp/ccthtb1J.s:173    .text:00000000000000c0 .L0 
     /tmp/ccthtb1J.s:178    .text:00000000000000d0 .L0 
     /tmp/ccthtb1J.s:179    .text:00000000000000d0 .L0 
     /tmp/ccthtb1J.s:180    .text:00000000000000d0 .L0 
     /tmp/ccthtb1J.s:181    .text:00000000000000d0 .L0 
     /tmp/ccthtb1J.s:183    .text:00000000000000d4 .L0 
     /tmp/ccthtb1J.s:186    .text:00000000000000d8 .L0 
     /tmp/ccthtb1J.s:187    .text:00000000000000d8 .L0 
     /tmp/ccthtb1J.s:189    .text:00000000000000dc .L0 
     /tmp/ccthtb1J.s:190    .text:00000000000000dc .L0 
     /tmp/ccthtb1J.s:198    .text:00000000000000e4 .L0 
     /tmp/ccthtb1J.s:199    .text:00000000000000e4 .L0 
     /tmp/ccthtb1J.s:206    .text:00000000000000ec .L0 
     /tmp/ccthtb1J.s:207    .text:00000000000000ec .L0 
     /tmp/ccthtb1J.s:215    .text:00000000000000f4 .L0 
     /tmp/ccthtb1J.s:216    .text:00000000000000f4 .L0 
     /tmp/ccthtb1J.s:222    .text:0000000000000100 .L0 
     /tmp/ccthtb1J.s:225    .text:0000000000000100 .L0 
     /tmp/ccthtb1J.s:226    .text:0000000000000100 .L0 
     /tmp/ccthtb1J.s:231    .text:0000000000000104 .L0 
     /tmp/ccthtb1J.s:234    .text:0000000000000108 .L0 
     /tmp/ccthtb1J.s:235    .text:0000000000000108 .L0 
     /tmp/ccthtb1J.s:240    .text:000000000000010c .L0 
     /tmp/ccthtb1J.s:241    .text:000000000000010c .L0 
     /tmp/ccthtb1J.s:243    .text:0000000000000110 .L0 
     /tmp/ccthtb1J.s:245    .text:0000000000000114 .L0 
     /tmp/ccthtb1J.s:246    .text:0000000000000114 .L0 
     /tmp/ccthtb1J.s:249    .text:0000000000000118 .L0 
     /tmp/ccthtb1J.s:250    .text:0000000000000118 .L0 
     /tmp/ccthtb1J.s:252    .text:000000000000011c .L0 
     /tmp/ccthtb1J.s:254    .text:0000000000000120 .L0 
     /tmp/ccthtb1J.s:257    .text:0000000000000124 .L0 
     /tmp/ccthtb1J.s:258    .text:0000000000000124 .L0 
     /tmp/ccthtb1J.s:261    .text:000000000000012c .L0 
     /tmp/ccthtb1J.s:262    .text:000000000000012c .L0 
     /tmp/ccthtb1J.s:265    .text:0000000000000130 .L0 
     /tmp/ccthtb1J.s:266    .text:0000000000000130 .L0 
     /tmp/ccthtb1J.s:271    .text:0000000000000138 .L0 
     /tmp/ccthtb1J.s:275    .text:0000000000000140 .L0 
     /tmp/ccthtb1J.s:276    .text:0000000000000140 .L0 
     /tmp/ccthtb1J.s:277    .text:0000000000000140 .L0 
     /tmp/ccthtb1J.s:278    .text:0000000000000140 .L0 
     /tmp/ccthtb1J.s:279    .text:0000000000000140 .L0 
GAS LISTING /tmp/ccthtb1J.s 			page 18


     /tmp/ccthtb1J.s:284    .text:0000000000000140 .L0 
     /tmp/ccthtb1J.s:287    .text:0000000000000144 .L0 
     /tmp/ccthtb1J.s:290    .text:0000000000000148 .L0 
     /tmp/ccthtb1J.s:291    .text:0000000000000148 .L0 
     /tmp/ccthtb1J.s:292    .text:0000000000000148 .L0 
     /tmp/ccthtb1J.s:293    .text:0000000000000148 .L0 
     /tmp/ccthtb1J.s:294    .text:0000000000000148 .L0 
     /tmp/ccthtb1J.s:296    .text:0000000000000148 .L0 
     /tmp/ccthtb1J.s:298    .text:000000000000014c .L0 
     /tmp/ccthtb1J.s:299    .text:0000000000000150 .L0 
     /tmp/ccthtb1J.s:301    .text:0000000000000154 .L0 
     /tmp/ccthtb1J.s:302    .text:0000000000000154 .L0 
     /tmp/ccthtb1J.s:304    .text:0000000000000158 .L0 
     /tmp/ccthtb1J.s:307    .text:000000000000015c .L0 
     /tmp/ccthtb1J.s:309    .text:0000000000000160 .L0 
     /tmp/ccthtb1J.s:311    .text:0000000000000164 .L0 
     /tmp/ccthtb1J.s:317    .text:0000000000000164 _ZN4_sem4waitEv
     /tmp/ccthtb1J.s:320    .text:0000000000000164 .L0 
     /tmp/ccthtb1J.s:322    .text:0000000000000164 .L0 
     /tmp/ccthtb1J.s:323    .text:0000000000000164 .L0 
     /tmp/ccthtb1J.s:324    .text:0000000000000164 .L0 
     /tmp/ccthtb1J.s:326    .text:0000000000000168 .L0 
     /tmp/ccthtb1J.s:329    .text:0000000000000170 .L0 
     /tmp/ccthtb1J.s:330    .text:0000000000000174 .L0 
     /tmp/ccthtb1J.s:336    .text:0000000000000188 .L0 
     /tmp/ccthtb1J.s:337    .text:0000000000000188 .L0 
     /tmp/ccthtb1J.s:338    .text:0000000000000188 .L0 
     /tmp/ccthtb1J.s:339    .text:0000000000000188 .L0 
     /tmp/ccthtb1J.s:340    .text:0000000000000188 .L0 
     /tmp/ccthtb1J.s:342    .text:000000000000018c .L0 
     /tmp/ccthtb1J.s:345    .text:0000000000000190 .L0 
     /tmp/ccthtb1J.s:346    .text:0000000000000190 .L0 
     /tmp/ccthtb1J.s:348    .text:0000000000000194 .L0 
     /tmp/ccthtb1J.s:350    .text:0000000000000198 .L0 
     /tmp/ccthtb1J.s:352    .text:000000000000019c .L0 
     /tmp/ccthtb1J.s:357    .text:00000000000001a4 .L0 
     /tmp/ccthtb1J.s:358    .text:00000000000001a4 .L0 
     /tmp/ccthtb1J.s:360    .text:00000000000001a8 .L0 
     /tmp/ccthtb1J.s:363    .text:00000000000001ac .L0 
     /tmp/ccthtb1J.s:364    .text:00000000000001b0 .L0 
     /tmp/ccthtb1J.s:365    .text:00000000000001b0 .L0 
     /tmp/ccthtb1J.s:367    .text:00000000000001b4 .L0 
     /tmp/ccthtb1J.s:368    .text:00000000000001b4 .L0 
     /tmp/ccthtb1J.s:370    .text:00000000000001b8 .L0 
     /tmp/ccthtb1J.s:373    .text:00000000000001bc .L0 
     /tmp/ccthtb1J.s:375    .text:00000000000001c0 .L0 
     /tmp/ccthtb1J.s:377    .text:00000000000001c4 .L0 
     /tmp/ccthtb1J.s:381    .text:00000000000001c8 .L0 
     /tmp/ccthtb1J.s:383    .text:00000000000001c8 .L0 
     /tmp/ccthtb1J.s:385    .text:00000000000001cc .L0 
     /tmp/ccthtb1J.s:393    .text:00000000000001d8 .L0 
     /tmp/ccthtb1J.s:394    .text:00000000000001d8 .L0 
     /tmp/ccthtb1J.s:395    .text:00000000000001d8 .L0 
     /tmp/ccthtb1J.s:403    .text:00000000000001e4 .L0 
     /tmp/ccthtb1J.s:404    .text:00000000000001e4 .L0 
     /tmp/ccthtb1J.s:406    .text:00000000000001e8 .L0 
     /tmp/ccthtb1J.s:407    .text:00000000000001e8 .L0 
GAS LISTING /tmp/ccthtb1J.s 			page 19


     /tmp/ccthtb1J.s:412    .text:00000000000001ec .L0 
     /tmp/ccthtb1J.s:413    .text:00000000000001ec .L0 
     /tmp/ccthtb1J.s:415    .text:00000000000001f0 .L0 
     /tmp/ccthtb1J.s:417    .text:00000000000001f4 .L0 
     /tmp/ccthtb1J.s:419    .text:00000000000001f8 .L0 
     /tmp/ccthtb1J.s:421    .text:00000000000001fc .L0 
     /tmp/ccthtb1J.s:422    .text:00000000000001fc .L0 
     /tmp/ccthtb1J.s:424    .text:0000000000000200 .L0 
     /tmp/ccthtb1J.s:426    .text:0000000000000204 .L0 
     /tmp/ccthtb1J.s:433    .text:000000000000020c .L0 
     /tmp/ccthtb1J.s:434    .text:000000000000020c .L0 
     /tmp/ccthtb1J.s:442    .text:0000000000000218 .L0 
     /tmp/ccthtb1J.s:443    .text:0000000000000218 .L0 
     /tmp/ccthtb1J.s:445    .text:000000000000021c .L0 
     /tmp/ccthtb1J.s:446    .text:000000000000021c .L0 
     /tmp/ccthtb1J.s:448    .text:0000000000000220 .L0 
     /tmp/ccthtb1J.s:450    .text:0000000000000224 .L0 
     /tmp/ccthtb1J.s:458    .text:0000000000000230 .L0 
     /tmp/ccthtb1J.s:462    .text:0000000000000238 .L0 
     /tmp/ccthtb1J.s:463    .text:0000000000000238 .L0 
     /tmp/ccthtb1J.s:464    .text:0000000000000238 .L0 
     /tmp/ccthtb1J.s:465    .text:0000000000000238 .L0 
     /tmp/ccthtb1J.s:466    .text:0000000000000238 .L0 
     /tmp/ccthtb1J.s:467    .text:0000000000000238 .L0 
     /tmp/ccthtb1J.s:469    .text:0000000000000238 .L0 
     /tmp/ccthtb1J.s:472    .text:000000000000023c .L0 
     /tmp/ccthtb1J.s:473    .text:0000000000000240 .L0 
     /tmp/ccthtb1J.s:479    .text:0000000000000240 _ZN4_sem6signalEv
     /tmp/ccthtb1J.s:482    .text:0000000000000240 .L0 
     /tmp/ccthtb1J.s:484    .text:0000000000000240 .L0 
     /tmp/ccthtb1J.s:485    .text:0000000000000240 .L0 
     /tmp/ccthtb1J.s:486    .text:0000000000000240 .L0 
     /tmp/ccthtb1J.s:488    .text:0000000000000244 .L0 
     /tmp/ccthtb1J.s:492    .text:000000000000024c .L0 
     /tmp/ccthtb1J.s:493    .text:000000000000024c .L0 
     /tmp/ccthtb1J.s:495    .text:0000000000000250 .L0 
     /tmp/ccthtb1J.s:498    .text:0000000000000258 .L0 
     /tmp/ccthtb1J.s:500    .text:000000000000025c .L0 
     /tmp/ccthtb1J.s:503    .text:0000000000000260 .L0 
     /tmp/ccthtb1J.s:506    .text:0000000000000264 .L0 
     /tmp/ccthtb1J.s:510    .text:0000000000000268 .L0 
     /tmp/ccthtb1J.s:511    .text:000000000000026c .L0 
     /tmp/ccthtb1J.s:515    .text:0000000000000278 .L0 
     /tmp/ccthtb1J.s:516    .text:0000000000000278 .L0 
     /tmp/ccthtb1J.s:517    .text:0000000000000278 .L0 
     /tmp/ccthtb1J.s:519    .text:000000000000027c .L0 
     /tmp/ccthtb1J.s:523    .text:000000000000027c .L0 
     /tmp/ccthtb1J.s:524    .text:000000000000027c .L0 
     /tmp/ccthtb1J.s:529    .text:0000000000000280 .L0 
     /tmp/ccthtb1J.s:530    .text:0000000000000280 .L0 
     /tmp/ccthtb1J.s:532    .text:0000000000000284 .L0 
     /tmp/ccthtb1J.s:534    .text:0000000000000288 .L0 
     /tmp/ccthtb1J.s:535    .text:0000000000000288 .L0 
     /tmp/ccthtb1J.s:538    .text:000000000000028c .L0 
     /tmp/ccthtb1J.s:539    .text:000000000000028c .L0 
     /tmp/ccthtb1J.s:541    .text:0000000000000290 .L0 
     /tmp/ccthtb1J.s:543    .text:0000000000000294 .L0 
GAS LISTING /tmp/ccthtb1J.s 			page 20


     /tmp/ccthtb1J.s:546    .text:0000000000000298 .L0 
     /tmp/ccthtb1J.s:547    .text:0000000000000298 .L0 
     /tmp/ccthtb1J.s:550    .text:00000000000002a0 .L0 
     /tmp/ccthtb1J.s:551    .text:00000000000002a0 .L0 
     /tmp/ccthtb1J.s:554    .text:00000000000002a4 .L0 
     /tmp/ccthtb1J.s:555    .text:00000000000002a4 .L0 
     /tmp/ccthtb1J.s:560    .text:00000000000002a8 .L0 
     /tmp/ccthtb1J.s:561    .text:00000000000002a8 .L0 
     /tmp/ccthtb1J.s:569    .text:00000000000002b0 .L0 
     /tmp/ccthtb1J.s:570    .text:00000000000002b0 .L0 
     /tmp/ccthtb1J.s:576    .text:00000000000002bc .L0 
     /tmp/ccthtb1J.s:578    .text:00000000000002c0 .L0 
     /tmp/ccthtb1J.s:579    .text:00000000000002c4 .L0 
     /tmp/ccthtb1J.s:580    .text:00000000000002c4 .L0 
     /tmp/ccthtb1J.s:582    .text:00000000000002c8 .L0 
     /tmp/ccthtb1J.s:583    .text:00000000000002c8 .L0 
     /tmp/ccthtb1J.s:585    .text:00000000000002cc .L0 
     /tmp/ccthtb1J.s:588    .text:00000000000002d0 .L0 
     /tmp/ccthtb1J.s:592    .text:00000000000002d4 .L0 
     /tmp/ccthtb1J.s:598    .text:00000000000002d4 .L0 
     /tmp/ccthtb1J.s:599    .text:00000000000002d4 .L0 
     /tmp/ccthtb1J.s:604    .text:00000000000002dc .L0 
     /tmp/ccthtb1J.s:608    .text:00000000000002e4 .L0 
     /tmp/ccthtb1J.s:609    .text:00000000000002e4 .L0 
     /tmp/ccthtb1J.s:610    .text:00000000000002e4 .L0 
     /tmp/ccthtb1J.s:611    .text:00000000000002e4 .L0 
     /tmp/ccthtb1J.s:617    .text:00000000000002e4 .L0 
     /tmp/ccthtb1J.s:620    .text:00000000000002ec .L0 
     /tmp/ccthtb1J.s:629    .text:00000000000002ec .L0 
     /tmp/ccthtb1J.s:385    .text:00000000000001cc .L0 
     /tmp/ccthtb1J.s:274    .text:0000000000000140 .L12
     /tmp/ccthtb1J.s:219    .text:0000000000000100 .L11
     /tmp/ccthtb1J.s:255    .text:0000000000000124 .L10
     /tmp/ccthtb1J.s:289    .text:0000000000000148 .L13
     /tmp/ccthtb1J.s:269    .text:0000000000000138 .L14
     /tmp/ccthtb1J.s:193    .text:00000000000000e4 .L19
     /tmp/ccthtb1J.s:202    .text:00000000000000ec .L20
     /tmp/ccthtb1J.s:209    .text:00000000000000f4 .L9
     /tmp/ccthtb1J.s:461    .text:0000000000000238 .L26
     /tmp/ccthtb1J.s:380    .text:00000000000001c8 .L31
     /tmp/ccthtb1J.s:454    .text:0000000000000230 .L32
     /tmp/ccthtb1J.s:438    .text:0000000000000218 .L33
     /tmp/ccthtb1J.s:355    .text:00000000000001a4 .L23
     /tmp/ccthtb1J.s:428    .text:000000000000020c .L25
     /tmp/ccthtb1J.s:361    .text:00000000000001ac .L22
     /tmp/ccthtb1J.s:607    .text:00000000000002e4 .L38
     /tmp/ccthtb1J.s:508    .text:0000000000000268 .L45
     /tmp/ccthtb1J.s:602    .text:00000000000002dc .L40
     /tmp/ccthtb1J.s:591    .text:00000000000002d4 .L46
     /tmp/ccthtb1J.s:563    .text:00000000000002b0 .L36
     /tmp/ccthtb1J.s:544    .text:0000000000000298 .L37
     /tmp/ccthtb1J.s:2594   .debug_abbrev:0000000000000000 .Ldebug_abbrev0
     /tmp/ccthtb1J.s:4554   .debug_str:00000000000009ea .LASF195
     /tmp/ccthtb1J.s:4248   .debug_str:0000000000000091 .LASF196
     /tmp/ccthtb1J.s:4418   .debug_str:00000000000005f0 .LASF197
     /tmp/ccthtb1J.s:5      .text:0000000000000000 .Ltext0
     /tmp/ccthtb1J.s:623    .text:00000000000002ec .Letext0
GAS LISTING /tmp/ccthtb1J.s 			page 21


     /tmp/ccthtb1J.s:4232   .debug_line:0000000000000000 .Ldebug_line0
     /tmp/ccthtb1J.s:4368   .debug_str:00000000000003df .LASF0
     /tmp/ccthtb1J.s:4398   .debug_str:0000000000000522 .LASF1
     /tmp/ccthtb1J.s:4488   .debug_str:0000000000000803 .LASF2
     /tmp/ccthtb1J.s:4496   .debug_str:0000000000000847 .LASF4
     /tmp/ccthtb1J.s:4376   .debug_str:000000000000043b .LASF3
     /tmp/ccthtb1J.s:4252   .debug_str:00000000000000bf .LASF5
     /tmp/ccthtb1J.s:4464   .debug_str:0000000000000769 .LASF6
     /tmp/ccthtb1J.s:4458   .debug_str:0000000000000743 .LASF7
     /tmp/ccthtb1J.s:4388   .debug_str:00000000000004ca .LASF8
     /tmp/ccthtb1J.s:4346   .debug_str:0000000000000362 .LASF9
     /tmp/ccthtb1J.s:4356   .debug_str:0000000000000397 .LASF10
     /tmp/ccthtb1J.s:4290   .debug_str:00000000000001e8 .LASF11
     /tmp/ccthtb1J.s:4334   .debug_str:0000000000000314 .LASF12
     /tmp/ccthtb1J.s:4300   .debug_str:0000000000000231 .LASF13
     /tmp/ccthtb1J.s:4288   .debug_str:00000000000001d8 .LASF14
     /tmp/ccthtb1J.s:4536   .debug_str:0000000000000982 .LASF15
     /tmp/ccthtb1J.s:4320   .debug_str:00000000000002ba .LASF16
     /tmp/ccthtb1J.s:4522   .debug_str:0000000000000903 .LASF17
     /tmp/ccthtb1J.s:4542   .debug_str:00000000000009ab .LASF18
     /tmp/ccthtb1J.s:4622   .debug_str:0000000000000ccc .LASF19
     /tmp/ccthtb1J.s:4274   .debug_str:000000000000015d .LASF20
     /tmp/ccthtb1J.s:4512   .debug_str:00000000000008c7 .LASF21
     /tmp/ccthtb1J.s:4546   .debug_str:00000000000009be .LASF22
     /tmp/ccthtb1J.s:4468   .debug_str:0000000000000779 .LASF23
     /tmp/ccthtb1J.s:4322   .debug_str:00000000000002d0 .LASF24
     /tmp/ccthtb1J.s:4296   .debug_str:000000000000021c .LASF25
     /tmp/ccthtb1J.s:4352   .debug_str:0000000000000386 .LASF26
     /tmp/ccthtb1J.s:4434   .debug_str:0000000000000689 .LASF27
     /tmp/ccthtb1J.s:4634   .debug_str:0000000000000d21 .LASF28
     /tmp/ccthtb1J.s:4518   .debug_str:00000000000008eb .LASF30
     /tmp/ccthtb1J.s:4240   .debug_str:000000000000002d .LASF76
     /tmp/ccthtb1J.s:4608   .debug_str:0000000000000c62 .LASF78
     /tmp/ccthtb1J.s:4270   .debug_str:0000000000000145 .LASF29
     /tmp/ccthtb1J.s:4450   .debug_str:00000000000006ff .LASF31
     /tmp/ccthtb1J.s:4494   .debug_str:000000000000083b .LASF32
     /tmp/ccthtb1J.s:4570   .debug_str:0000000000000b2f .LASF33
     /tmp/ccthtb1J.s:4236   .debug_str:000000000000001d .LASF34
     /tmp/ccthtb1J.s:4530   .debug_str:0000000000000955 .LASF35
     /tmp/ccthtb1J.s:4562   .debug_str:0000000000000ae1 .LASF36
     /tmp/ccthtb1J.s:4412   .debug_str:00000000000005a6 .LASF37
     /tmp/ccthtb1J.s:4474   .debug_str:00000000000007a4 .LASF38
     /tmp/ccthtb1J.s:4428   .debug_str:000000000000063f .LASF39
     /tmp/ccthtb1J.s:4350   .debug_str:000000000000037d .LASF40
     /tmp/ccthtb1J.s:4576   .debug_str:0000000000000b61 .LASF41
     /tmp/ccthtb1J.s:4604   .debug_str:0000000000000c50 .LASF42
     /tmp/ccthtb1J.s:4284   .debug_str:00000000000001b1 .LASF43
     /tmp/ccthtb1J.s:4534   .debug_str:0000000000000977 .LASF44
     /tmp/ccthtb1J.s:4566   .debug_str:0000000000000b06 .LASF45
     /tmp/ccthtb1J.s:4448   .debug_str:00000000000006f4 .LASF46
     /tmp/ccthtb1J.s:4392   .debug_str:00000000000004f7 .LASF47
     /tmp/ccthtb1J.s:4596   .debug_str:0000000000000c0c .LASF48
     /tmp/ccthtb1J.s:4268   .debug_str:0000000000000128 .LASF49
     /tmp/ccthtb1J.s:4552   .debug_str:00000000000009de .LASF50
     /tmp/ccthtb1J.s:4446   .debug_str:00000000000006d6 .LASF51
     /tmp/ccthtb1J.s:4514   .debug_str:00000000000008cf .LASF52
     /tmp/ccthtb1J.s:4560   .debug_str:0000000000000ac3 .LASF53
GAS LISTING /tmp/ccthtb1J.s 			page 22


     /tmp/ccthtb1J.s:4364   .debug_str:00000000000003cf .LASF54
     /tmp/ccthtb1J.s:4336   .debug_str:0000000000000323 .LASF55
     /tmp/ccthtb1J.s:4422   .debug_str:000000000000061c .LASF56
     /tmp/ccthtb1J.s:4590   .debug_str:0000000000000bc5 .LASF57
     /tmp/ccthtb1J.s:4442   .debug_str:00000000000006c5 .LASF58
     /tmp/ccthtb1J.s:4378   .debug_str:000000000000044d .LASF60
     /tmp/ccthtb1J.s:4348   .debug_str:0000000000000372 .LASF59
     /tmp/ccthtb1J.s:4616   .debug_str:0000000000000c88 .LASF61
     /tmp/ccthtb1J.s:4484   .debug_str:00000000000007e6 .LASF62
     /tmp/ccthtb1J.s:4528   .debug_str:000000000000093b .LASF63
     /tmp/ccthtb1J.s:4308   .debug_str:0000000000000282 .LASF64
     /tmp/ccthtb1J.s:4372   .debug_str:00000000000003f7 .LASF65
     /tmp/ccthtb1J.s:4556   .debug_str:0000000000000aae .LASF66
     /tmp/ccthtb1J.s:4600   .debug_str:0000000000000c2b .LASF67
     /tmp/ccthtb1J.s:4272   .debug_str:0000000000000151 .LASF68
     /tmp/ccthtb1J.s:4254   .debug_str:00000000000000c6 .LASF69
     /tmp/ccthtb1J.s:4578   .debug_str:0000000000000b7b .LASF70
     /tmp/ccthtb1J.s:4586   .debug_str:0000000000000ba5 .LASF71
     /tmp/ccthtb1J.s:4452   .debug_str:000000000000071d .LASF72
     /tmp/ccthtb1J.s:4294   .debug_str:00000000000001fc .LASF73
     /tmp/ccthtb1J.s:4260   .debug_str:00000000000000f1 .LASF74
     /tmp/ccthtb1J.s:4492   .debug_str:000000000000081b .LASF75
     /tmp/ccthtb1J.s:4606   .debug_str:0000000000000c5b .LASF77
     /tmp/ccthtb1J.s:4480   .debug_str:00000000000007c9 .LASF79
     /tmp/ccthtb1J.s:4498   .debug_str:000000000000084e .LASF80
     /tmp/ccthtb1J.s:4568   .debug_str:0000000000000b23 .LASF81
     /tmp/ccthtb1J.s:4630   .debug_str:0000000000000ce6 .LASF82
     /tmp/ccthtb1J.s:4374   .debug_str:0000000000000414 .LASF83
     /tmp/ccthtb1J.s:4482   .debug_str:00000000000007e1 .LASF198
     /tmp/ccthtb1J.s:4426   .debug_str:000000000000062b .LASF84
     /tmp/ccthtb1J.s:4632   .debug_str:0000000000000cf8 .LASF85
     /tmp/ccthtb1J.s:4342   .debug_str:0000000000000346 .LASF86
     /tmp/ccthtb1J.s:4338   .debug_str:000000000000033c .LASF87
     /tmp/ccthtb1J.s:4626   .debug_str:0000000000000cd9 .LASF88
     /tmp/ccthtb1J.s:4466   .debug_str:0000000000000770 .LASF89
     /tmp/ccthtb1J.s:4544   .debug_str:00000000000009b3 .LASF90
     /tmp/ccthtb1J.s:4540   .debug_str:0000000000000995 .LASF92
     /tmp/ccthtb1J.s:4404   .debug_str:000000000000054b .LASF91
     /tmp/ccthtb1J.s:4472   .debug_str:000000000000078c .LASF93
     /tmp/ccthtb1J.s:4242   .debug_str:000000000000003d .LASF95
     /tmp/ccthtb1J.s:4286   .debug_str:00000000000001ce .LASF94
     /tmp/ccthtb1J.s:4432   .debug_str:0000000000000675 .LASF96
     /tmp/ccthtb1J.s:4504   .debug_str:0000000000000883 .LASF97
     /tmp/ccthtb1J.s:4584   .debug_str:0000000000000b8e .LASF98
     /tmp/ccthtb1J.s:4624   .debug_str:0000000000000cd3 .LASF99
     /tmp/ccthtb1J.s:4592   .debug_str:0000000000000bde .LASF100
     /tmp/ccthtb1J.s:4456   .debug_str:0000000000000737 .LASF101
     /tmp/ccthtb1J.s:4416   .debug_str:00000000000005e3 .LASF102
     /tmp/ccthtb1J.s:4610   .debug_str:0000000000000c76 .LASF103
     /tmp/ccthtb1J.s:4618   .debug_str:0000000000000ca5 .LASF104
     /tmp/ccthtb1J.s:4298   .debug_str:0000000000000225 .LASF105
     /tmp/ccthtb1J.s:4238   .debug_str:0000000000000028 .LASF106
     /tmp/ccthtb1J.s:4628   .debug_str:0000000000000ce0 .LASF107
     /tmp/ccthtb1J.s:4572   .debug_str:0000000000000b4d .LASF108
     /tmp/ccthtb1J.s:4588   .debug_str:0000000000000bbe .LASF109
     /tmp/ccthtb1J.s:4558   .debug_str:0000000000000ab9 .LASF110
     /tmp/ccthtb1J.s:4306   .debug_str:0000000000000274 .LASF111
GAS LISTING /tmp/ccthtb1J.s 			page 23


     /tmp/ccthtb1J.s:4246   .debug_str:0000000000000069 .LASF112
     /tmp/ccthtb1J.s:4506   .debug_str:000000000000088f .LASF113
     /tmp/ccthtb1J.s:4312   .debug_str:0000000000000298 .LASF116
     /tmp/ccthtb1J.s:4384   .debug_str:000000000000049a .LASF118
     /tmp/ccthtb1J.s:4324   .debug_str:00000000000002d8 .LASF114
     /tmp/ccthtb1J.s:4304   .debug_str:000000000000025c .LASF115
     /tmp/ccthtb1J.s:4276   .debug_str:0000000000000166 .LASF117
     /tmp/ccthtb1J.s:4406   .debug_str:0000000000000558 .LASF119
     /tmp/ccthtb1J.s:4400   .debug_str:0000000000000535 .LASF120
     /tmp/ccthtb1J.s:4430   .debug_str:0000000000000659 .LASF121
     /tmp/ccthtb1J.s:4402   .debug_str:0000000000000545 .LASF122
     /tmp/ccthtb1J.s:4550   .debug_str:00000000000009ce .LASF123
     /tmp/ccthtb1J.s:4520   .debug_str:00000000000008fe .LASF124
     /tmp/ccthtb1J.s:4382   .debug_str:000000000000048b .LASF126
     /tmp/ccthtb1J.s:4314   .debug_str:00000000000002a1 .LASF125
     /tmp/ccthtb1J.s:4278   .debug_str:0000000000000174 .LASF127
     /tmp/ccthtb1J.s:4526   .debug_str:000000000000092c .LASF128
     /tmp/ccthtb1J.s:4390   .debug_str:00000000000004dd .LASF129
     /tmp/ccthtb1J.s:4316   .debug_str:00000000000002a6 .LASF130
     /tmp/ccthtb1J.s:4410   .debug_str:000000000000058d .LASF131
     /tmp/ccthtb1J.s:4258   .debug_str:00000000000000ea .LASF132
     /tmp/ccthtb1J.s:4620   .debug_str:0000000000000cbb .LASF133
     /tmp/ccthtb1J.s:4580   .debug_str:0000000000000b83 .LASF134
     /tmp/ccthtb1J.s:4516   .debug_str:00000000000008db .LASF135
     /tmp/ccthtb1J.s:4614   .debug_str:0000000000000c82 .LASF136
     /tmp/ccthtb1J.s:4532   .debug_str:0000000000000972 .LASF137
     /tmp/ccthtb1J.s:4360   .debug_str:00000000000003b0 .LASF138
     /tmp/ccthtb1J.s:4548   .debug_str:00000000000009c4 .LASF139
     /tmp/ccthtb1J.s:4326   .debug_str:00000000000002e4 .LASF140
     /tmp/ccthtb1J.s:4256   .debug_str:00000000000000e4 .LASF141
     /tmp/ccthtb1J.s:4262   .debug_str:00000000000000ff .LASF142
     /tmp/ccthtb1J.s:4440   .debug_str:00000000000006b5 .LASF143
     /tmp/ccthtb1J.s:4538   .debug_str:000000000000098e .LASF144
     /tmp/ccthtb1J.s:4640   .debug_str:0000000000000d45 .LASF145
     /tmp/ccthtb1J.s:4500   .debug_str:0000000000000853 .LASF146
     /tmp/ccthtb1J.s:4318   .debug_str:00000000000002b4 .LASF147
     /tmp/ccthtb1J.s:4420   .debug_str:000000000000060f .LASF148
     /tmp/ccthtb1J.s:4636   .debug_str:0000000000000d2e .LASF149
     /tmp/ccthtb1J.s:4330   .debug_str:0000000000000301 .LASF150
     /tmp/ccthtb1J.s:4424   .debug_str:0000000000000624 .LASF151
     /tmp/ccthtb1J.s:4510   .debug_str:00000000000008b5 .LASF152
     /tmp/ccthtb1J.s:4460   .debug_str:0000000000000756 .LASF153
     /tmp/ccthtb1J.s:4582   .debug_str:0000000000000b89 .LASF199
     /tmp/ccthtb1J.s:4332   .debug_str:000000000000030f .LASF154
     /tmp/ccthtb1J.s:4444   .debug_str:00000000000006d1 .LASF155
     /tmp/ccthtb1J.s:4470   .debug_str:0000000000000781 .LASF156
     /tmp/ccthtb1J.s:4436   .debug_str:0000000000000694 .LASF157
     /tmp/ccthtb1J.s:4524   .debug_str:0000000000000919 .LASF158
     /tmp/ccthtb1J.s:4328   .debug_str:00000000000002ea .LASF159
     /tmp/ccthtb1J.s:4490   .debug_str:0000000000000811 .LASF200
     /tmp/ccthtb1J.s:4478   .debug_str:00000000000007b2 .LASF201
     /tmp/ccthtb1J.s:4396   .debug_str:000000000000051d .LASF160
     /tmp/ccthtb1J.s:4362   .debug_str:00000000000003b8 .LASF161
     /tmp/ccthtb1J.s:4394   .debug_str:0000000000000514 .LASF162
     /tmp/ccthtb1J.s:4282   .debug_str:0000000000000194 .LASF163
     /tmp/ccthtb1J.s:4366   .debug_str:00000000000003d7 .LASF164
     /tmp/ccthtb1J.s:4438   .debug_str:0000000000000699 .LASF165
GAS LISTING /tmp/ccthtb1J.s 			page 24


     /tmp/ccthtb1J.s:4454   .debug_str:000000000000072b .LASF166
     /tmp/ccthtb1J.s:4594   .debug_str:0000000000000bee .LASF167
     /tmp/ccthtb1J.s:4354   .debug_str:000000000000038b .LASF168
     /tmp/ccthtb1J.s:4250   .debug_str:000000000000009e .LASF169
     /tmp/ccthtb1J.s:4638   .debug_str:0000000000000d3b .LASF170
     /tmp/ccthtb1J.s:4302   .debug_str:0000000000000241 .LASF171
     /tmp/ccthtb1J.s:4370   .debug_str:00000000000003ec .LASF172
     /tmp/ccthtb1J.s:4386   .debug_str:00000000000004ad .LASF173
     /tmp/ccthtb1J.s:4462   .debug_str:0000000000000760 .LASF174
     /tmp/ccthtb1J.s:4244   .debug_str:000000000000004f .LASF175
     /tmp/ccthtb1J.s:4476   .debug_str:00000000000007ad .LASF176
     /tmp/ccthtb1J.s:4310   .debug_str:000000000000028d .LASF177
     /tmp/ccthtb1J.s:4602   .debug_str:0000000000000c48 .LASF178
     /tmp/ccthtb1J.s:4292   .debug_str:00000000000001f7 .LASF179
     /tmp/ccthtb1J.s:4414   .debug_str:00000000000005c3 .LASF180
     /tmp/ccthtb1J.s:4408   .debug_str:0000000000000571 .LASF181
     /tmp/ccthtb1J.s:4234   .debug_str:0000000000000000 .LASF202
     /tmp/ccthtb1J.s:4486   .debug_str:00000000000007ef .LASF182
     /tmp/ccthtb1J.s:4508   .debug_str:00000000000008a0 .LASF183
     /tmp/ccthtb1J.s:4598   .debug_str:0000000000000c17 .LASF184
     /tmp/ccthtb1J.s:4564   .debug_str:0000000000000aec .LASF185
     /tmp/ccthtb1J.s:4502   .debug_str:0000000000000864 .LASF186
     /tmp/ccthtb1J.s:4340   .debug_str:0000000000000341 .LASF187
     /tmp/ccthtb1J.s:4266   .debug_str:0000000000000115 .LASF190
     /tmp/ccthtb1J.s:480    .text:0000000000000240 .LFB80
     /tmp/ccthtb1J.s:621    .text:00000000000002ec .LFE80
     /tmp/ccthtb1J.s:3837   .debug_loc:0000000000000000 .LLST22
     /tmp/ccthtb1J.s:4200   .debug_ranges:0000000000000000 .Ldebug_ranges0
     /tmp/ccthtb1J.s:3873   .debug_loc:000000000000008b .LLST23
     /tmp/ccthtb1J.s:526    .text:0000000000000280 .LBB68
     /tmp/ccthtb1J.s:3880   .debug_loc:00000000000000ae .LLST24
     /tmp/ccthtb1J.s:3891   .debug_loc:00000000000000e4 .LLST25
     /tmp/ccthtb1J.s:3902   .debug_loc:000000000000011a .LLST26
     /tmp/ccthtb1J.s:557    .text:00000000000002a8 .LBB70
     /tmp/ccthtb1J.s:565    .text:00000000000002b0 .LBE70
     /tmp/ccthtb1J.s:3909   .debug_loc:000000000000013d .LLST27
     /tmp/ccthtb1J.s:562    .text:00000000000002b0 .LVL46
     /tmp/ccthtb1J.s:572    .text:00000000000002bc .LVL47
     /tmp/ccthtb1J.s:318    .text:0000000000000164 .LFB79
     /tmp/ccthtb1J.s:474    .text:0000000000000240 .LFE79
     /tmp/ccthtb1J.s:3916   .debug_loc:0000000000000160 .LLST15
     /tmp/ccthtb1J.s:388    .text:00000000000001d8 .LBB52
     /tmp/ccthtb1J.s:3949   .debug_loc:00000000000001e8 .LLST16
     /tmp/ccthtb1J.s:3960   .debug_loc:000000000000021e .LLST17
     /tmp/ccthtb1J.s:3971   .debug_loc:0000000000000254 .LLST18
     /tmp/ccthtb1J.s:391    .text:00000000000001d8 .LBB54
     /tmp/ccthtb1J.s:399    .text:00000000000001e4 .LBE54
     /tmp/ccthtb1J.s:3982   .debug_loc:000000000000028a .LLST19
     /tmp/ccthtb1J.s:397    .text:00000000000001e4 .LVL31
     /tmp/ccthtb1J.s:400    .text:00000000000001e4 .LBB56
     /tmp/ccthtb1J.s:410    .text:00000000000001ec .LBE56
     /tmp/ccthtb1J.s:3990   .debug_loc:00000000000002ae .LLST20
     /tmp/ccthtb1J.s:3997   .debug_loc:00000000000002d1 .LLST21
     /tmp/ccthtb1J.s:435    .text:0000000000000214 .LVL34
     /tmp/ccthtb1J.s:161    .text:00000000000000b0 .LFB78
     /tmp/ccthtb1J.s:312    .text:0000000000000164 .LFE78
     /tmp/ccthtb1J.s:4004   .debug_loc:00000000000002f4 .LLST8
GAS LISTING /tmp/ccthtb1J.s 			page 25


     /tmp/ccthtb1J.s:4037   .debug_loc:000000000000037c .LLST9
     /tmp/ccthtb1J.s:195    .text:00000000000000e4 .LBB36
     /tmp/ccthtb1J.s:4044   .debug_loc:000000000000039f .LLST10
     /tmp/ccthtb1J.s:4055   .debug_loc:00000000000003d5 .LLST11
     /tmp/ccthtb1J.s:4066   .debug_loc:000000000000040b .LLST12
     /tmp/ccthtb1J.s:203    .text:00000000000000ec .LBB38
     /tmp/ccthtb1J.s:211    .text:00000000000000f4 .LBE38
     /tmp/ccthtb1J.s:4077   .debug_loc:0000000000000441 .LLST13
     /tmp/ccthtb1J.s:208    .text:00000000000000f4 .LVL15
     /tmp/ccthtb1J.s:218    .text:0000000000000100 .LVL16
     /tmp/ccthtb1J.s:223    .text:0000000000000100 .LBB42
     /tmp/ccthtb1J.s:229    .text:0000000000000104 .LBE42
     /tmp/ccthtb1J.s:4084   .debug_loc:0000000000000464 .LLST14
     /tmp/ccthtb1J.s:4612   .debug_str:0000000000000c7b .LASF188
     /tmp/ccthtb1J.s:4264   .debug_str:0000000000000110 .LASF189
     /tmp/ccthtb1J.s:4280   .debug_str:0000000000000183 .LASF203
     /tmp/ccthtb1J.s:75     .text:0000000000000050 .LFB76
     /tmp/ccthtb1J.s:153    .text:00000000000000b0 .LFE76
     /tmp/ccthtb1J.s:4091   .debug_loc:0000000000000487 .LLST2
     /tmp/ccthtb1J.s:4109   .debug_loc:00000000000004d3 .LLST3
     /tmp/ccthtb1J.s:4123   .debug_loc:000000000000050c .LLST4
     /tmp/ccthtb1J.s:92     .text:0000000000000068 .LBB22
     /tmp/ccthtb1J.s:101    .text:0000000000000074 .LBE22
     /tmp/ccthtb1J.s:4137   .debug_loc:0000000000000545 .LLST5
     /tmp/ccthtb1J.s:113    .text:0000000000000080 .LBB24
     /tmp/ccthtb1J.s:123    .text:000000000000008c .LBE24
     /tmp/ccthtb1J.s:4144   .debug_loc:0000000000000568 .LLST6
     /tmp/ccthtb1J.s:121    .text:000000000000008c .LVL9
     /tmp/ccthtb1J.s:124    .text:000000000000008c .LBB26
     /tmp/ccthtb1J.s:136    .text:0000000000000098 .LBE26
     /tmp/ccthtb1J.s:4152   .debug_loc:000000000000058c .LLST7
     /tmp/ccthtb1J.s:43     .text:0000000000000028 .LFB74
     /tmp/ccthtb1J.s:69     .text:0000000000000050 .LFE74
     /tmp/ccthtb1J.s:4159   .debug_loc:00000000000005af .LLST1
     /tmp/ccthtb1J.s:58     .text:0000000000000040 .LVL3
     /tmp/ccthtb1J.s:10     .text:0000000000000000 .LFB73
     /tmp/ccthtb1J.s:37     .text:0000000000000028 .LFE73
     /tmp/ccthtb1J.s:4173   .debug_loc:00000000000005e8 .LLST0
     /tmp/ccthtb1J.s:26     .text:0000000000000018 .LVL1
     /tmp/ccthtb1J.s:4344   .debug_str:000000000000034e .LASF191
     /tmp/ccthtb1J.s:4380   .debug_str:000000000000046b .LASF192
     /tmp/ccthtb1J.s:4358   .debug_str:00000000000003a5 .LASF193
     /tmp/ccthtb1J.s:4574   .debug_str:0000000000000b55 .LASF194
     /tmp/ccthtb1J.s:483    .text:0000000000000240 .LVL39
     /tmp/ccthtb1J.s:504    .text:0000000000000264 .LVL40
     /tmp/ccthtb1J.s:507    .text:0000000000000268 .LVL41
     /tmp/ccthtb1J.s:536    .text:000000000000028c .LVL43
     /tmp/ccthtb1J.s:601    .text:00000000000002dc .LVL50
     /tmp/ccthtb1J.s:618    .text:00000000000002e8 .LVL52
     /tmp/ccthtb1J.s:586    .text:00000000000002cc .LVL48
     /tmp/ccthtb1J.s:525    .text:0000000000000280 .LVL42
     /tmp/ccthtb1J.s:590    .text:00000000000002d4 .LVL49
     /tmp/ccthtb1J.s:606    .text:00000000000002e4 .LVL51
     /tmp/ccthtb1J.s:552    .text:00000000000002a4 .LVL44
     /tmp/ccthtb1J.s:556    .text:00000000000002a8 .LVL45
     /tmp/ccthtb1J.s:321    .text:0000000000000164 .LVL26
     /tmp/ccthtb1J.s:354    .text:00000000000001a4 .LVL27
GAS LISTING /tmp/ccthtb1J.s 			page 26


     /tmp/ccthtb1J.s:371    .text:00000000000001b8 .LVL28
     /tmp/ccthtb1J.s:379    .text:00000000000001c8 .LVL29
     /tmp/ccthtb1J.s:460    .text:0000000000000238 .LVL37
     /tmp/ccthtb1J.s:470    .text:000000000000023c .LVL38
     /tmp/ccthtb1J.s:387    .text:00000000000001d8 .LVL30
     /tmp/ccthtb1J.s:429    .text:000000000000020c .LVL33
     /tmp/ccthtb1J.s:437    .text:0000000000000218 .LVL35
     /tmp/ccthtb1J.s:453    .text:0000000000000230 .LVL36
     /tmp/ccthtb1J.s:408    .text:00000000000001ec .LVL32
     /tmp/ccthtb1J.s:164    .text:00000000000000b0 .LVL12
     /tmp/ccthtb1J.s:192    .text:00000000000000e4 .LVL13
     /tmp/ccthtb1J.s:273    .text:0000000000000140 .LVL22
     /tmp/ccthtb1J.s:285    .text:0000000000000144 .LVL23
     /tmp/ccthtb1J.s:288    .text:0000000000000148 .LVL24
     /tmp/ccthtb1J.s:305    .text:0000000000000158 .LVL25
     /tmp/ccthtb1J.s:236    .text:000000000000010c .LVL18
     /tmp/ccthtb1J.s:247    .text:0000000000000118 .LVL19
     /tmp/ccthtb1J.s:268    .text:0000000000000138 .LVL21
     /tmp/ccthtb1J.s:201    .text:00000000000000ec .LVL14
     /tmp/ccthtb1J.s:263    .text:0000000000000130 .LVL20
     /tmp/ccthtb1J.s:227    .text:0000000000000104 .LVL17
     /tmp/ccthtb1J.s:78     .text:0000000000000050 .LVL4
     /tmp/ccthtb1J.s:119    .text:0000000000000084 .LVL8
     /tmp/ccthtb1J.s:148    .text:00000000000000a8 .LVL11
     /tmp/ccthtb1J.s:90     .text:0000000000000068 .LVL5
     /tmp/ccthtb1J.s:99     .text:0000000000000074 .LVL6
     /tmp/ccthtb1J.s:112    .text:0000000000000080 .LVL7
     /tmp/ccthtb1J.s:134    .text:0000000000000098 .LVL10
     /tmp/ccthtb1J.s:46     .text:0000000000000028 .LVL2
     /tmp/ccthtb1J.s:14     .text:0000000000000000 .LVL0
     /tmp/ccthtb1J.s:630    .debug_info:0000000000000000 .Ldebug_info0
     /tmp/ccthtb1J.s:194    .text:00000000000000e4 .LBB35
     /tmp/ccthtb1J.s:220    .text:0000000000000100 .LBE35
     /tmp/ccthtb1J.s:232    .text:0000000000000108 .LBB44
     /tmp/ccthtb1J.s:282    .text:0000000000000140 .LBE44
     /tmp/ccthtb1J.s:213    .text:00000000000000f4 .LBE36
     /tmp/ccthtb1J.s:237    .text:000000000000010c .LBB41
     /tmp/ccthtb1J.s:281    .text:0000000000000140 .LBE41
     /tmp/ccthtb1J.s:431    .text:000000000000020c .LBE52
     /tmp/ccthtb1J.s:439    .text:0000000000000218 .LBB59
     /tmp/ccthtb1J.s:456    .text:0000000000000230 .LBE59
     /tmp/ccthtb1J.s:521    .text:000000000000027c .LBB67
     /tmp/ccthtb1J.s:573    .text:00000000000002bc .LBE67
     /tmp/ccthtb1J.s:594    .text:00000000000002d4 .LBB74
     /tmp/ccthtb1J.s:614    .text:00000000000002e4 .LBE74
     /tmp/ccthtb1J.s:567    .text:00000000000002b0 .LBE68
     /tmp/ccthtb1J.s:595    .text:00000000000002d4 .LBB73
     /tmp/ccthtb1J.s:613    .text:00000000000002e4 .LBE73

UNDEFINED SYMBOLS
__mem_alloc
__mem_free
_ZN3TCB14releaseWaitingEv
_ZN3TCB7runningE
_ZN3TCB4waitEv
