GAS LISTING /tmp/cck5lb9f.s 			page 1


   1              		.file	"Buffer.cpp"
   2              		.option pic
   3              		.option norelax
   4              		.text
   5              	.Ltext0:
   6              		.align	2
   7              		.globl	_ZN7_BufferC2Ev
   9              	_ZN7_BufferC2Ev:
  10              	.LFB65:
  11              		.file 1 "src/Buffer.cpp"
   1:src/Buffer.cpp **** //
   2:src/Buffer.cpp **** // Created by os on 8/10/22.
   3:src/Buffer.cpp **** //
   4:src/Buffer.cpp **** #include "../h/Buffer.hpp"
   5:src/Buffer.cpp **** 
   6:src/Buffer.cpp **** _Buffer::_Buffer() {
  12              		.loc 1 6 1
  13              		.cfi_startproc
  14              		.cfi_personality 0x9b,DW.ref.__gxx_personality_v0
  15              		.cfi_lsda 0x1b,.LLSDA65
  16              	.LVL0:
  17 0000 130101FE 		addi	sp,sp,-32
  18              		.cfi_def_cfa_offset 32
  19 0004 233C1100 		sd	ra,24(sp)
  20 0008 23388100 		sd	s0,16(sp)
  21 000c 23349100 		sd	s1,8(sp)
  22 0010 23302101 		sd	s2,0(sp)
  23              		.cfi_offset 1, -8
  24              		.cfi_offset 8, -16
  25              		.cfi_offset 9, -24
  26              		.cfi_offset 18, -32
  27 0014 13040102 		addi	s0,sp,32
  28              		.cfi_def_cfa 8, 0
  29 0018 93040500 		mv	s1,a0
  30              	.LBB15:
   7:src/Buffer.cpp ****     head=0;
  31              		.loc 1 7 5
  32              		.loc 1 7 9 is_stmt 0
  33 001c 23220512 		sw	zero,292(a0)
   8:src/Buffer.cpp ****     tail=0;
  34              		.loc 1 8 5 is_stmt 1
  35              		.loc 1 8 9 is_stmt 0
  36 0020 23240512 		sw	zero,296(a0)
   9:src/Buffer.cpp ****     slot=BUFFER_SIZE;
  37              		.loc 1 9 5 is_stmt 1
  38              		.loc 1 9 9 is_stmt 0
  39 0024 93070010 		li	a5,256
  40 0028 2326F512 		sw	a5,300(a0)
  10:src/Buffer.cpp ****     size=0;
  41              		.loc 1 10 5 is_stmt 1
  42              		.loc 1 10 9 is_stmt 0
  43 002c 23200512 		sw	zero,288(a0)
  11:src/Buffer.cpp **** 
  12:src/Buffer.cpp ****     new _sem(&empty,slot);
  44              		.loc 1 12 5 is_stmt 1
  45              		.loc 1 12 25 is_stmt 0
  46 0030 13050002 		li	a0,32
GAS LISTING /tmp/cck5lb9f.s 			page 2


  47              	.LVL1:
  48              	.LEHB0:
  49 0034 97000000 		call	_ZN4_semnwEm@plt
  49      E7800000 
  50              	.LVL2:
  51              	.LEHE0:
  52 003c 13090500 		mv	s2,a0
  53 0040 03A6C412 		lw	a2,300(s1)
  54 0044 93850401 		addi	a1,s1,16
  55              	.LEHB1:
  56 0048 97000000 		call	_ZN4_semC1EPPS_j@plt
  56      E7800000 
  57              	.LVL3:
  58              	.LEHE1:
  13:src/Buffer.cpp ****     new _sem(&full,0);
  59              		.loc 1 13 5 is_stmt 1
  60              		.loc 1 13 21 is_stmt 0
  61 0050 13050002 		li	a0,32
  62              	.LEHB2:
  63 0054 97000000 		call	_ZN4_semnwEm@plt
  63      E7800000 
  64              	.LVL4:
  65              	.LEHE2:
  66 005c 13090500 		mv	s2,a0
  67 0060 13060000 		li	a2,0
  68 0064 93858401 		addi	a1,s1,24
  69              	.LEHB3:
  70 0068 97000000 		call	_ZN4_semC1EPPS_j@plt
  70      E7800000 
  71              	.LVL5:
  72              	.LEHE3:
  14:src/Buffer.cpp ****     new _sem(&mutexE,1);
  73              		.loc 1 14 5 is_stmt 1
  74              		.loc 1 14 23 is_stmt 0
  75 0070 13050002 		li	a0,32
  76              	.LEHB4:
  77 0074 97000000 		call	_ZN4_semnwEm@plt
  77      E7800000 
  78              	.LVL6:
  79              	.LEHE4:
  80 007c 13090500 		mv	s2,a0
  81 0080 13061000 		li	a2,1
  82 0084 93850400 		mv	a1,s1
  83              	.LEHB5:
  84 0088 97000000 		call	_ZN4_semC1EPPS_j@plt
  84      E7800000 
  85              	.LVL7:
  86              	.LEHE5:
  15:src/Buffer.cpp ****     new _sem(&mutexF,1);
  87              		.loc 1 15 5 is_stmt 1
  88              		.loc 1 15 23 is_stmt 0
  89 0090 13050002 		li	a0,32
  90              	.LEHB6:
  91 0094 97000000 		call	_ZN4_semnwEm@plt
  91      E7800000 
  92              	.LVL8:
  93              	.LEHE6:
GAS LISTING /tmp/cck5lb9f.s 			page 3


  94 009c 13090500 		mv	s2,a0
  95 00a0 13061000 		li	a2,1
  96 00a4 93858400 		addi	a1,s1,8
  97              	.LEHB7:
  98 00a8 97000000 		call	_ZN4_semC1EPPS_j@plt
  98      E7800000 
  99              	.LVL9:
 100              	.LEHE7:
 101 00b0 6F004007 		j	.L12
 102              	.L6:
 103 00b4 93040500 		mv	s1,a0
 104              	.LVL10:
  12:src/Buffer.cpp ****     new _sem(&full,0);
 105              		.loc 1 12 25
 106 00b8 13050900 		mv	a0,s2
 107 00bc 97000000 		call	_ZN4_semdlEPv@plt
 107      E7800000 
 108              	.LVL11:
 109 00c4 13850400 		mv	a0,s1
 110              	.LEHB8:
 111 00c8 97000000 		call	_Unwind_Resume@plt
 111      E7800000 
 112              	.LVL12:
 113              	.LEHE8:
 114              	.L7:
 115 00d0 93040500 		mv	s1,a0
 116              	.LVL13:
  13:src/Buffer.cpp ****     new _sem(&mutexE,1);
 117              		.loc 1 13 21
 118 00d4 13050900 		mv	a0,s2
 119 00d8 97000000 		call	_ZN4_semdlEPv@plt
 119      E7800000 
 120              	.LVL14:
 121 00e0 13850400 		mv	a0,s1
 122              	.LEHB9:
 123 00e4 97000000 		call	_Unwind_Resume@plt
 123      E7800000 
 124              	.LVL15:
 125              	.LEHE9:
 126              	.L8:
 127 00ec 93040500 		mv	s1,a0
 128              	.LVL16:
  14:src/Buffer.cpp ****     new _sem(&mutexF,1);
 129              		.loc 1 14 23
 130 00f0 13050900 		mv	a0,s2
 131 00f4 97000000 		call	_ZN4_semdlEPv@plt
 131      E7800000 
 132              	.LVL17:
 133 00fc 13850400 		mv	a0,s1
 134              	.LEHB10:
 135 0100 97000000 		call	_Unwind_Resume@plt
 135      E7800000 
 136              	.LVL18:
 137              	.LEHE10:
 138              	.L9:
 139 0108 93040500 		mv	s1,a0
 140              	.LVL19:
GAS LISTING /tmp/cck5lb9f.s 			page 4


 141              		.loc 1 15 23
 142 010c 13050900 		mv	a0,s2
 143 0110 97000000 		call	_ZN4_semdlEPv@plt
 143      E7800000 
 144              	.LVL20:
 145 0118 13850400 		mv	a0,s1
 146              	.LEHB11:
 147 011c 97000000 		call	_Unwind_Resume@plt
 147      E7800000 
 148              	.LVL21:
 149              	.LEHE11:
 150              	.L12:
 151              	.LBE15:
  16:src/Buffer.cpp **** }
 152              		.loc 1 16 1
 153 0124 83308101 		ld	ra,24(sp)
 154              		.cfi_restore 1
 155 0128 03340101 		ld	s0,16(sp)
 156              		.cfi_restore 8
 157              		.cfi_def_cfa 2, 32
 158 012c 83348100 		ld	s1,8(sp)
 159              		.cfi_restore 9
 160              	.LVL22:
 161 0130 03390100 		ld	s2,0(sp)
 162              		.cfi_restore 18
 163 0134 13010102 		addi	sp,sp,32
 164              		.cfi_def_cfa_offset 0
 165 0138 67800000 		jr	ra
 166              		.cfi_endproc
 167              	.LFE65:
 168              		.globl	__gxx_personality_v0
 169              		.section	.gcc_except_table,"a",@progbits
 170              	.LLSDA65:
 171 0000 FF       		.byte	0xff
 172 0001 FF       		.byte	0xff
 173 0002 03       		.byte	0x3
 174 0003 9C01     		.byte	0x9c,0x1
 175 0005 00000000 		.4byte	.LEHB0-.LFB65
 176 0009 00000000 		.4byte	.LEHE0-.LEHB0
 177 000d 00000000 		.4byte	0
 178 0011 00       		.byte	0
 179 0012 00000000 		.4byte	.LEHB1-.LFB65
 180 0016 00000000 		.4byte	.LEHE1-.LEHB1
 181 001a 00000000 		.4byte	.L6-.LFB65
 182 001e 00       		.byte	0
 183 001f 00000000 		.4byte	.LEHB2-.LFB65
 184 0023 00000000 		.4byte	.LEHE2-.LEHB2
 185 0027 00000000 		.4byte	0
 186 002b 00       		.byte	0
 187 002c 00000000 		.4byte	.LEHB3-.LFB65
 188 0030 00000000 		.4byte	.LEHE3-.LEHB3
 189 0034 00000000 		.4byte	.L7-.LFB65
 190 0038 00       		.byte	0
 191 0039 00000000 		.4byte	.LEHB4-.LFB65
 192 003d 00000000 		.4byte	.LEHE4-.LEHB4
 193 0041 00000000 		.4byte	0
 194 0045 00       		.byte	0
GAS LISTING /tmp/cck5lb9f.s 			page 5


 195 0046 00000000 		.4byte	.LEHB5-.LFB65
 196 004a 00000000 		.4byte	.LEHE5-.LEHB5
 197 004e 00000000 		.4byte	.L8-.LFB65
 198 0052 00       		.byte	0
 199 0053 00000000 		.4byte	.LEHB6-.LFB65
 200 0057 00000000 		.4byte	.LEHE6-.LEHB6
 201 005b 00000000 		.4byte	0
 202 005f 00       		.byte	0
 203 0060 00000000 		.4byte	.LEHB7-.LFB65
 204 0064 00000000 		.4byte	.LEHE7-.LEHB7
 205 0068 00000000 		.4byte	.L9-.LFB65
 206 006c 00       		.byte	0
 207 006d 00000000 		.4byte	.LEHB8-.LFB65
 208 0071 00000000 		.4byte	.LEHE8-.LEHB8
 209 0075 00000000 		.4byte	0
 210 0079 00       		.byte	0
 211 007a 00000000 		.4byte	.LEHB9-.LFB65
 212 007e 00000000 		.4byte	.LEHE9-.LEHB9
 213 0082 00000000 		.4byte	0
 214 0086 00       		.byte	0
 215 0087 00000000 		.4byte	.LEHB10-.LFB65
 216 008b 00000000 		.4byte	.LEHE10-.LEHB10
 217 008f 00000000 		.4byte	0
 218 0093 00       		.byte	0
 219 0094 00000000 		.4byte	.LEHB11-.LFB65
 220 0098 00000000 		.4byte	.LEHE11-.LEHB11
 221 009c 00000000 		.4byte	0
 222 00a0 00       		.byte	0
 223              		.text
 225              		.globl	_ZN7_BufferC1Ev
 226              		.set	_ZN7_BufferC1Ev,_ZN7_BufferC2Ev
 227              		.align	2
 228              		.globl	_ZN7_BufferC2Ei
 230              	_ZN7_BufferC2Ei:
 231              	.LFB68:
  17:src/Buffer.cpp **** _Buffer::_Buffer(int cap) {
 232              		.loc 1 17 1 is_stmt 1
 233              		.cfi_startproc
 234              		.cfi_personality 0x9b,DW.ref.__gxx_personality_v0
 235              		.cfi_lsda 0x1b,.LLSDA68
 236              	.LVL23:
 237 013c 130101FE 		addi	sp,sp,-32
 238              		.cfi_def_cfa_offset 32
 239 0140 233C1100 		sd	ra,24(sp)
 240 0144 23388100 		sd	s0,16(sp)
 241 0148 23349100 		sd	s1,8(sp)
 242 014c 23302101 		sd	s2,0(sp)
 243              		.cfi_offset 1, -8
 244              		.cfi_offset 8, -16
 245              		.cfi_offset 9, -24
 246              		.cfi_offset 18, -32
 247 0150 13040102 		addi	s0,sp,32
 248              		.cfi_def_cfa 8, 0
 249 0154 93040500 		mv	s1,a0
 250              	.LBB16:
  18:src/Buffer.cpp ****     size=0;
 251              		.loc 1 18 5
GAS LISTING /tmp/cck5lb9f.s 			page 6


 252              		.loc 1 18 9 is_stmt 0
 253 0158 23200512 		sw	zero,288(a0)
  19:src/Buffer.cpp ****     head=0;
 254              		.loc 1 19 5 is_stmt 1
 255              		.loc 1 19 9 is_stmt 0
 256 015c 23220512 		sw	zero,292(a0)
  20:src/Buffer.cpp ****     tail=0;
 257              		.loc 1 20 5 is_stmt 1
 258              		.loc 1 20 9 is_stmt 0
 259 0160 23240512 		sw	zero,296(a0)
  21:src/Buffer.cpp ****     slot=cap;
 260              		.loc 1 21 5 is_stmt 1
 261              		.loc 1 21 9 is_stmt 0
 262 0164 2326B512 		sw	a1,300(a0)
  22:src/Buffer.cpp **** 
  23:src/Buffer.cpp ****     new _sem(&empty,size);
 263              		.loc 1 23 5 is_stmt 1
 264              		.loc 1 23 25 is_stmt 0
 265 0168 13050002 		li	a0,32
 266              	.LVL24:
 267              	.LEHB12:
 268 016c 97000000 		call	_ZN4_semnwEm@plt
 268      E7800000 
 269              	.LVL25:
 270              	.LEHE12:
 271 0174 13090500 		mv	s2,a0
 272 0178 03A60412 		lw	a2,288(s1)
 273 017c 93850401 		addi	a1,s1,16
 274              	.LEHB13:
 275 0180 97000000 		call	_ZN4_semC1EPPS_j@plt
 275      E7800000 
 276              	.LVL26:
 277              	.LEHE13:
  24:src/Buffer.cpp ****     new _sem(&full,0);
 278              		.loc 1 24 5 is_stmt 1
 279              		.loc 1 24 21 is_stmt 0
 280 0188 13050002 		li	a0,32
 281              	.LEHB14:
 282 018c 97000000 		call	_ZN4_semnwEm@plt
 282      E7800000 
 283              	.LVL27:
 284              	.LEHE14:
 285 0194 13090500 		mv	s2,a0
 286 0198 13060000 		li	a2,0
 287 019c 93858401 		addi	a1,s1,24
 288              	.LEHB15:
 289 01a0 97000000 		call	_ZN4_semC1EPPS_j@plt
 289      E7800000 
 290              	.LVL28:
 291              	.LEHE15:
  25:src/Buffer.cpp ****     new _sem(&mutexE,1);
 292              		.loc 1 25 5 is_stmt 1
 293              		.loc 1 25 23 is_stmt 0
 294 01a8 13050002 		li	a0,32
 295              	.LEHB16:
 296 01ac 97000000 		call	_ZN4_semnwEm@plt
 296      E7800000 
GAS LISTING /tmp/cck5lb9f.s 			page 7


 297              	.LVL29:
 298              	.LEHE16:
 299 01b4 13090500 		mv	s2,a0
 300 01b8 13061000 		li	a2,1
 301 01bc 93850400 		mv	a1,s1
 302              	.LEHB17:
 303 01c0 97000000 		call	_ZN4_semC1EPPS_j@plt
 303      E7800000 
 304              	.LVL30:
 305              	.LEHE17:
  26:src/Buffer.cpp ****     new _sem(&mutexF,1);
 306              		.loc 1 26 5 is_stmt 1
 307              		.loc 1 26 23 is_stmt 0
 308 01c8 13050002 		li	a0,32
 309              	.LEHB18:
 310 01cc 97000000 		call	_ZN4_semnwEm@plt
 310      E7800000 
 311              	.LVL31:
 312              	.LEHE18:
 313 01d4 13090500 		mv	s2,a0
 314 01d8 13061000 		li	a2,1
 315 01dc 93858400 		addi	a1,s1,8
 316              	.LEHB19:
 317 01e0 97000000 		call	_ZN4_semC1EPPS_j@plt
 317      E7800000 
 318              	.LVL32:
 319              	.LEHE19:
 320 01e8 6F004007 		j	.L24
 321              	.L18:
 322 01ec 93040500 		mv	s1,a0
 323              	.LVL33:
  23:src/Buffer.cpp ****     new _sem(&full,0);
 324              		.loc 1 23 25
 325 01f0 13050900 		mv	a0,s2
 326 01f4 97000000 		call	_ZN4_semdlEPv@plt
 326      E7800000 
 327              	.LVL34:
 328 01fc 13850400 		mv	a0,s1
 329              	.LEHB20:
 330 0200 97000000 		call	_Unwind_Resume@plt
 330      E7800000 
 331              	.LVL35:
 332              	.LEHE20:
 333              	.L19:
 334 0208 93040500 		mv	s1,a0
 335              	.LVL36:
  24:src/Buffer.cpp ****     new _sem(&mutexE,1);
 336              		.loc 1 24 21
 337 020c 13050900 		mv	a0,s2
 338 0210 97000000 		call	_ZN4_semdlEPv@plt
 338      E7800000 
 339              	.LVL37:
 340 0218 13850400 		mv	a0,s1
 341              	.LEHB21:
 342 021c 97000000 		call	_Unwind_Resume@plt
 342      E7800000 
 343              	.LVL38:
GAS LISTING /tmp/cck5lb9f.s 			page 8


 344              	.LEHE21:
 345              	.L20:
 346 0224 93040500 		mv	s1,a0
 347              	.LVL39:
  25:src/Buffer.cpp ****     new _sem(&mutexF,1);
 348              		.loc 1 25 23
 349 0228 13050900 		mv	a0,s2
 350 022c 97000000 		call	_ZN4_semdlEPv@plt
 350      E7800000 
 351              	.LVL40:
 352 0234 13850400 		mv	a0,s1
 353              	.LEHB22:
 354 0238 97000000 		call	_Unwind_Resume@plt
 354      E7800000 
 355              	.LVL41:
 356              	.LEHE22:
 357              	.L21:
 358 0240 93040500 		mv	s1,a0
 359              	.LVL42:
 360              		.loc 1 26 23
 361 0244 13050900 		mv	a0,s2
 362 0248 97000000 		call	_ZN4_semdlEPv@plt
 362      E7800000 
 363              	.LVL43:
 364 0250 13850400 		mv	a0,s1
 365              	.LEHB23:
 366 0254 97000000 		call	_Unwind_Resume@plt
 366      E7800000 
 367              	.LVL44:
 368              	.LEHE23:
 369              	.L24:
 370              	.LBE16:
  27:src/Buffer.cpp **** }
 371              		.loc 1 27 1
 372 025c 83308101 		ld	ra,24(sp)
 373              		.cfi_restore 1
 374 0260 03340101 		ld	s0,16(sp)
 375              		.cfi_restore 8
 376              		.cfi_def_cfa 2, 32
 377 0264 83348100 		ld	s1,8(sp)
 378              		.cfi_restore 9
 379              	.LVL45:
 380 0268 03390100 		ld	s2,0(sp)
 381              		.cfi_restore 18
 382 026c 13010102 		addi	sp,sp,32
 383              		.cfi_def_cfa_offset 0
 384 0270 67800000 		jr	ra
 385              		.cfi_endproc
 386              	.LFE68:
 387              		.section	.gcc_except_table
 388              	.LLSDA68:
 389 00a1 FF       		.byte	0xff
 390 00a2 FF       		.byte	0xff
 391 00a3 03       		.byte	0x3
 392 00a4 9C01     		.byte	0x9c,0x1
 393 00a6 00000000 		.4byte	.LEHB12-.LFB68
 394 00aa 00000000 		.4byte	.LEHE12-.LEHB12
GAS LISTING /tmp/cck5lb9f.s 			page 9


 395 00ae 00000000 		.4byte	0
 396 00b2 00       		.byte	0
 397 00b3 00000000 		.4byte	.LEHB13-.LFB68
 398 00b7 00000000 		.4byte	.LEHE13-.LEHB13
 399 00bb 00000000 		.4byte	.L18-.LFB68
 400 00bf 00       		.byte	0
 401 00c0 00000000 		.4byte	.LEHB14-.LFB68
 402 00c4 00000000 		.4byte	.LEHE14-.LEHB14
 403 00c8 00000000 		.4byte	0
 404 00cc 00       		.byte	0
 405 00cd 00000000 		.4byte	.LEHB15-.LFB68
 406 00d1 00000000 		.4byte	.LEHE15-.LEHB15
 407 00d5 00000000 		.4byte	.L19-.LFB68
 408 00d9 00       		.byte	0
 409 00da 00000000 		.4byte	.LEHB16-.LFB68
 410 00de 00000000 		.4byte	.LEHE16-.LEHB16
 411 00e2 00000000 		.4byte	0
 412 00e6 00       		.byte	0
 413 00e7 00000000 		.4byte	.LEHB17-.LFB68
 414 00eb 00000000 		.4byte	.LEHE17-.LEHB17
 415 00ef 00000000 		.4byte	.L20-.LFB68
 416 00f3 00       		.byte	0
 417 00f4 00000000 		.4byte	.LEHB18-.LFB68
 418 00f8 00000000 		.4byte	.LEHE18-.LEHB18
 419 00fc 00000000 		.4byte	0
 420 0100 00       		.byte	0
 421 0101 00000000 		.4byte	.LEHB19-.LFB68
 422 0105 00000000 		.4byte	.LEHE19-.LEHB19
 423 0109 00000000 		.4byte	.L21-.LFB68
 424 010d 00       		.byte	0
 425 010e 00000000 		.4byte	.LEHB20-.LFB68
 426 0112 00000000 		.4byte	.LEHE20-.LEHB20
 427 0116 00000000 		.4byte	0
 428 011a 00       		.byte	0
 429 011b 00000000 		.4byte	.LEHB21-.LFB68
 430 011f 00000000 		.4byte	.LEHE21-.LEHB21
 431 0123 00000000 		.4byte	0
 432 0127 00       		.byte	0
 433 0128 00000000 		.4byte	.LEHB22-.LFB68
 434 012c 00000000 		.4byte	.LEHE22-.LEHB22
 435 0130 00000000 		.4byte	0
 436 0134 00       		.byte	0
 437 0135 00000000 		.4byte	.LEHB23-.LFB68
 438 0139 00000000 		.4byte	.LEHE23-.LEHB23
 439 013d 00000000 		.4byte	0
 440 0141 00       		.byte	0
 441              		.text
 443              		.globl	_ZN7_BufferC1Ei
 444              		.set	_ZN7_BufferC1Ei,_ZN7_BufferC2Ei
 445              		.align	2
 446              		.globl	_ZN7_BufferD2Ev
 448              	_ZN7_BufferD2Ev:
 449              	.LFB71:
  28:src/Buffer.cpp **** _Buffer::~_Buffer(){
 450              		.loc 1 28 1 is_stmt 1
 451              		.cfi_startproc
 452              		.cfi_personality 0x9b,DW.ref.__gxx_personality_v0
GAS LISTING /tmp/cck5lb9f.s 			page 10


 453              		.cfi_lsda 0x1b,.LLSDA71
 454              	.LVL46:
 455 0274 130101FE 		addi	sp,sp,-32
 456              		.cfi_def_cfa_offset 32
 457 0278 233C1100 		sd	ra,24(sp)
 458 027c 23388100 		sd	s0,16(sp)
 459 0280 23349100 		sd	s1,8(sp)
 460 0284 23302101 		sd	s2,0(sp)
 461              		.cfi_offset 1, -8
 462              		.cfi_offset 8, -16
 463              		.cfi_offset 9, -24
 464              		.cfi_offset 18, -32
 465 0288 13040102 		addi	s0,sp,32
 466              		.cfi_def_cfa 8, 0
 467 028c 93040500 		mv	s1,a0
 468              	.LBB17:
  29:src/Buffer.cpp ****     delete mutexF;
 469              		.loc 1 29 5
 470              		.loc 1 29 12 is_stmt 0
 471 0290 03398500 		ld	s2,8(a0)
 472              		.loc 1 29 18
 473 0294 630E0900 		beqz	s2,.L26
 474              	.LVL47:
 475              	.LBB18:
 476              	.LBB19:
 477              		.file 2 "src/../h/_sem.hpp"
   1:src/../h/_sem.hpp **** //
   2:src/../h/_sem.hpp **** // Created by os on 8/5/22.
   3:src/../h/_sem.hpp **** //
   4:src/../h/_sem.hpp **** 
   5:src/../h/_sem.hpp **** #ifndef OSPROJECT__SEM_HPP
   6:src/../h/_sem.hpp **** #define OSPROJECT__SEM_HPP
   7:src/../h/_sem.hpp **** #include "list.hpp"
   8:src/../h/_sem.hpp **** #include "syscall_c.hpp"
   9:src/../h/_sem.hpp **** #include "tcb.hpp"
  10:src/../h/_sem.hpp **** class _sem{
  11:src/../h/_sem.hpp **** private:
  12:src/../h/_sem.hpp ****     List<TCB>waiting;
  13:src/../h/_sem.hpp ****     int val=0;
  14:src/../h/_sem.hpp ****     int ended=0;
  15:src/../h/_sem.hpp ****     int close();
  16:src/../h/_sem.hpp ****     int wait();
  17:src/../h/_sem.hpp ****     int signal();
  18:src/../h/_sem.hpp ****     _sem(sem_t*handle,unsigned init);
  19:src/../h/_sem.hpp ****     friend class Riscv;
  20:src/../h/_sem.hpp ****     friend class _Buffer;
  21:src/../h/_sem.hpp ****     ~_sem(){close();}
 478              		.loc 2 21 13 is_stmt 1
 479              		.loc 2 21 18 is_stmt 0
 480 0298 13050900 		mv	a0,s2
 481              	.LVL48:
 482 029c 97000000 		call	_ZN4_sem5closeEv@plt
 482      E7800000 
 483              	.LVL49:
 484              	.LBE19:
 485              	.LBE18:
 486              		.loc 1 29 12
GAS LISTING /tmp/cck5lb9f.s 			page 11


 487 02a4 13050900 		mv	a0,s2
 488 02a8 97000000 		call	_ZN4_semdlEPv@plt
 488      E7800000 
 489              	.LVL50:
 490              	.L26:
  30:src/Buffer.cpp ****     delete mutexE;
 491              		.loc 1 30 5 is_stmt 1
 492              		.loc 1 30 12 is_stmt 0
 493 02b0 03B90400 		ld	s2,0(s1)
 494              		.loc 1 30 18
 495 02b4 630E0900 		beqz	s2,.L27
 496              	.LVL51:
 497              	.LBB20:
 498              	.LBB21:
 499              		.loc 2 21 13 is_stmt 1
 500              		.loc 2 21 18 is_stmt 0
 501 02b8 13050900 		mv	a0,s2
 502 02bc 97000000 		call	_ZN4_sem5closeEv@plt
 502      E7800000 
 503              	.LVL52:
 504              	.LBE21:
 505              	.LBE20:
 506              		.loc 1 30 12
 507 02c4 13050900 		mv	a0,s2
 508 02c8 97000000 		call	_ZN4_semdlEPv@plt
 508      E7800000 
 509              	.LVL53:
 510              	.L27:
  31:src/Buffer.cpp ****     head=0;
 511              		.loc 1 31 5 is_stmt 1
 512              		.loc 1 31 9 is_stmt 0
 513 02d0 23A20412 		sw	zero,292(s1)
  32:src/Buffer.cpp ****     tail=0;
 514              		.loc 1 32 5 is_stmt 1
 515              		.loc 1 32 9 is_stmt 0
 516 02d4 23A40412 		sw	zero,296(s1)
  33:src/Buffer.cpp ****     delete empty;
 517              		.loc 1 33 5 is_stmt 1
 518              		.loc 1 33 12 is_stmt 0
 519 02d8 03B90401 		ld	s2,16(s1)
 520              		.loc 1 33 17
 521 02dc 630E0900 		beqz	s2,.L28
 522              	.LVL54:
 523              	.LBB22:
 524              	.LBB23:
 525              		.loc 2 21 13 is_stmt 1
 526              		.loc 2 21 18 is_stmt 0
 527 02e0 13050900 		mv	a0,s2
 528 02e4 97000000 		call	_ZN4_sem5closeEv@plt
 528      E7800000 
 529              	.LVL55:
 530              	.LBE23:
 531              	.LBE22:
 532              		.loc 1 33 12
 533 02ec 13050900 		mv	a0,s2
 534 02f0 97000000 		call	_ZN4_semdlEPv@plt
 534      E7800000 
GAS LISTING /tmp/cck5lb9f.s 			page 12


 535              	.LVL56:
 536              	.L28:
  34:src/Buffer.cpp ****     delete full;
 537              		.loc 1 34 5 is_stmt 1
 538              		.loc 1 34 12 is_stmt 0
 539 02f8 03B98401 		ld	s2,24(s1)
 540              		.loc 1 34 16
 541 02fc 630E0900 		beqz	s2,.L29
 542              	.LVL57:
 543              	.LBB24:
 544              	.LBB25:
 545              		.loc 2 21 13 is_stmt 1
 546              		.loc 2 21 18 is_stmt 0
 547 0300 13050900 		mv	a0,s2
 548 0304 97000000 		call	_ZN4_sem5closeEv@plt
 548      E7800000 
 549              	.LVL58:
 550              	.LBE25:
 551              	.LBE24:
 552              		.loc 1 34 12
 553 030c 13050900 		mv	a0,s2
 554 0310 97000000 		call	_ZN4_semdlEPv@plt
 554      E7800000 
 555              	.LVL59:
 556              	.L29:
  35:src/Buffer.cpp ****     size=0;
 557              		.loc 1 35 5 is_stmt 1
 558              		.loc 1 35 9 is_stmt 0
 559 0318 23A00412 		sw	zero,288(s1)
  36:src/Buffer.cpp ****     sem_close(empty);
 560              		.loc 1 36 5 is_stmt 1
 561              		.loc 1 36 14 is_stmt 0
 562 031c 03B50401 		ld	a0,16(s1)
 563 0320 97000000 		call	_Z9sem_closeP4_sem@plt
 563      E7800000 
 564              	.LVL60:
  37:src/Buffer.cpp ****     sem_close(full);
 565              		.loc 1 37 5 is_stmt 1
 566              		.loc 1 37 14 is_stmt 0
 567 0328 03B58401 		ld	a0,24(s1)
 568 032c 97000000 		call	_Z9sem_closeP4_sem@plt
 568      E7800000 
 569              	.LVL61:
  38:src/Buffer.cpp ****     sem_close(mutexF);
 570              		.loc 1 38 5 is_stmt 1
 571              		.loc 1 38 14 is_stmt 0
 572 0334 03B58400 		ld	a0,8(s1)
 573 0338 97000000 		call	_Z9sem_closeP4_sem@plt
 573      E7800000 
 574              	.LVL62:
  39:src/Buffer.cpp ****     sem_close(mutexE);
 575              		.loc 1 39 5 is_stmt 1
 576              		.loc 1 39 14 is_stmt 0
 577 0340 03B50400 		ld	a0,0(s1)
 578 0344 97000000 		call	_Z9sem_closeP4_sem@plt
 578      E7800000 
 579              	.LVL63:
GAS LISTING /tmp/cck5lb9f.s 			page 13


 580              	.LBE17:
  40:src/Buffer.cpp **** }
 581              		.loc 1 40 1
 582 034c 83308101 		ld	ra,24(sp)
 583              		.cfi_restore 1
 584 0350 03340101 		ld	s0,16(sp)
 585              		.cfi_restore 8
 586              		.cfi_def_cfa 2, 32
 587 0354 83348100 		ld	s1,8(sp)
 588              		.cfi_restore 9
 589              	.LVL64:
 590 0358 03390100 		ld	s2,0(sp)
 591              		.cfi_restore 18
 592 035c 13010102 		addi	sp,sp,32
 593              		.cfi_def_cfa_offset 0
 594 0360 67800000 		jr	ra
 595              		.cfi_endproc
 596              	.LFE71:
 597              		.section	.gcc_except_table
 598              	.LLSDA71:
 599 0142 FF       		.byte	0xff
 600 0143 FF       		.byte	0xff
 601 0144 03       		.byte	0x3
 602 0145 00       		.byte	0
 603              		.text
 605              		.globl	_ZN7_BufferD1Ev
 606              		.set	_ZN7_BufferD1Ev,_ZN7_BufferD2Ev
 607              		.align	2
 608              		.globl	_ZN7_Buffer3getEv
 610              	_ZN7_Buffer3getEv:
 611              	.LFB73:
  41:src/Buffer.cpp **** 
  42:src/Buffer.cpp **** char _Buffer::get() {
 612              		.loc 1 42 21 is_stmt 1
 613              		.cfi_startproc
 614              	.LVL65:
 615 0364 130101FE 		addi	sp,sp,-32
 616              		.cfi_def_cfa_offset 32
 617 0368 233C1100 		sd	ra,24(sp)
 618 036c 23388100 		sd	s0,16(sp)
 619 0370 23349100 		sd	s1,8(sp)
 620 0374 23302101 		sd	s2,0(sp)
 621              		.cfi_offset 1, -8
 622              		.cfi_offset 8, -16
 623              		.cfi_offset 9, -24
 624              		.cfi_offset 18, -32
 625 0378 13040102 		addi	s0,sp,32
 626              		.cfi_def_cfa 8, 0
 627 037c 93040500 		mv	s1,a0
  43:src/Buffer.cpp **** 
  44:src/Buffer.cpp **** 
  45:src/Buffer.cpp ****     sem_wait(full);
 628              		.loc 1 45 5
 629              		.loc 1 45 13 is_stmt 0
 630 0380 03358501 		ld	a0,24(a0)
 631              	.LVL66:
 632 0384 97000000 		call	_Z8sem_waitP4_sem@plt
GAS LISTING /tmp/cck5lb9f.s 			page 14


 632      E7800000 
 633              	.LVL67:
  46:src/Buffer.cpp ****     sem_wait(mutexF);
 634              		.loc 1 46 5 is_stmt 1
 635              		.loc 1 46 13 is_stmt 0
 636 038c 03B58400 		ld	a0,8(s1)
 637 0390 97000000 		call	_Z8sem_waitP4_sem@plt
 637      E7800000 
 638              	.LVL68:
  47:src/Buffer.cpp **** 
  48:src/Buffer.cpp ****     char ret = buffer[head];
 639              		.loc 1 48 5 is_stmt 1
 640              		.loc 1 48 23 is_stmt 0
 641 0398 83A74412 		lw	a5,292(s1)
 642              		.loc 1 48 10
 643 039c 3387F400 		add	a4,s1,a5
 644 03a0 03490702 		lbu	s2,32(a4)
 645              	.LVL69:
  49:src/Buffer.cpp ****     head=(head+1)%slot;
 646              		.loc 1 49 5 is_stmt 1
 647              		.loc 1 49 15 is_stmt 0
 648 03a4 9B871700 		addiw	a5,a5,1
 649              		.loc 1 49 19
 650 03a8 03A7C412 		lw	a4,300(s1)
 651              		.loc 1 49 18
 652 03ac BBE7E702 		remw	a5,a5,a4
 653              		.loc 1 49 9
 654 03b0 23A2F412 		sw	a5,292(s1)
  50:src/Buffer.cpp ****     size--;
 655              		.loc 1 50 5 is_stmt 1
 656 03b4 83A70412 		lw	a5,288(s1)
 657              		.loc 1 50 9 is_stmt 0
 658 03b8 9B87F7FF 		addiw	a5,a5,-1
 659 03bc 23A0F412 		sw	a5,288(s1)
  51:src/Buffer.cpp **** 
  52:src/Buffer.cpp ****     sem_signal(mutexF);
 660              		.loc 1 52 5 is_stmt 1
 661              		.loc 1 52 15 is_stmt 0
 662 03c0 03B58400 		ld	a0,8(s1)
 663 03c4 97000000 		call	_Z10sem_signalP4_sem@plt
 663      E7800000 
 664              	.LVL70:
  53:src/Buffer.cpp ****     sem_signal(empty);
 665              		.loc 1 53 5 is_stmt 1
 666              		.loc 1 53 15 is_stmt 0
 667 03cc 03B50401 		ld	a0,16(s1)
 668 03d0 97000000 		call	_Z10sem_signalP4_sem@plt
 668      E7800000 
 669              	.LVL71:
  54:src/Buffer.cpp **** 
  55:src/Buffer.cpp ****     return ret;
 670              		.loc 1 55 5 is_stmt 1
  56:src/Buffer.cpp **** }
 671              		.loc 1 56 1 is_stmt 0
 672 03d8 13050900 		mv	a0,s2
 673 03dc 83308101 		ld	ra,24(sp)
 674              		.cfi_restore 1
GAS LISTING /tmp/cck5lb9f.s 			page 15


 675 03e0 03340101 		ld	s0,16(sp)
 676              		.cfi_restore 8
 677              		.cfi_def_cfa 2, 32
 678 03e4 83348100 		ld	s1,8(sp)
 679              		.cfi_restore 9
 680              	.LVL72:
 681 03e8 03390100 		ld	s2,0(sp)
 682              		.cfi_restore 18
 683              	.LVL73:
 684 03ec 13010102 		addi	sp,sp,32
 685              		.cfi_def_cfa_offset 0
 686 03f0 67800000 		jr	ra
 687              		.cfi_endproc
 688              	.LFE73:
 690              		.align	2
 691              		.globl	_ZN7_Buffer7sys_putEc
 693              	_ZN7_Buffer7sys_putEc:
 694              	.LFB74:
  57:src/Buffer.cpp **** 
  58:src/Buffer.cpp **** void _Buffer::sys_put(char c) {
 695              		.loc 1 58 31 is_stmt 1
 696              		.cfi_startproc
 697              	.LVL74:
 698 03f4 130101FE 		addi	sp,sp,-32
 699              		.cfi_def_cfa_offset 32
 700 03f8 233C1100 		sd	ra,24(sp)
 701 03fc 23388100 		sd	s0,16(sp)
 702 0400 23349100 		sd	s1,8(sp)
 703 0404 23302101 		sd	s2,0(sp)
 704              		.cfi_offset 1, -8
 705              		.cfi_offset 8, -16
 706              		.cfi_offset 9, -24
 707              		.cfi_offset 18, -32
 708 0408 13040102 		addi	s0,sp,32
 709              		.cfi_def_cfa 8, 0
 710 040c 93040500 		mv	s1,a0
 711 0410 13890500 		mv	s2,a1
  59:src/Buffer.cpp ****     empty->wait();
 712              		.loc 1 59 5
 713              		.loc 1 59 16 is_stmt 0
 714 0414 03350501 		ld	a0,16(a0)
 715              	.LVL75:
 716 0418 97000000 		call	_ZN4_sem4waitEv@plt
 716      E7800000 
 717              	.LVL76:
  60:src/Buffer.cpp ****     mutexE->wait();
 718              		.loc 1 60 5 is_stmt 1
 719              		.loc 1 60 17 is_stmt 0
 720 0420 03B50400 		ld	a0,0(s1)
 721 0424 97000000 		call	_ZN4_sem4waitEv@plt
 721      E7800000 
 722              	.LVL77:
  61:src/Buffer.cpp **** 
  62:src/Buffer.cpp ****     buffer[tail]=c;
 723              		.loc 1 62 5 is_stmt 1
 724              		.loc 1 62 12 is_stmt 0
 725 042c 83A78412 		lw	a5,296(s1)
GAS LISTING /tmp/cck5lb9f.s 			page 16


 726              		.loc 1 62 17
 727 0430 3387F400 		add	a4,s1,a5
 728 0434 23002703 		sb	s2,32(a4)
  63:src/Buffer.cpp ****     tail= (tail+1)%slot;
 729              		.loc 1 63 5 is_stmt 1
 730              		.loc 1 63 16 is_stmt 0
 731 0438 9B871700 		addiw	a5,a5,1
 732              		.loc 1 63 20
 733 043c 03A7C412 		lw	a4,300(s1)
 734              		.loc 1 63 19
 735 0440 BBE7E702 		remw	a5,a5,a4
 736              		.loc 1 63 9
 737 0444 23A4F412 		sw	a5,296(s1)
  64:src/Buffer.cpp ****     size++;
 738              		.loc 1 64 5 is_stmt 1
 739 0448 83A70412 		lw	a5,288(s1)
 740              		.loc 1 64 9 is_stmt 0
 741 044c 9B871700 		addiw	a5,a5,1
 742 0450 23A0F412 		sw	a5,288(s1)
  65:src/Buffer.cpp ****     mutexE->signal();
 743              		.loc 1 65 5 is_stmt 1
 744              		.loc 1 65 19 is_stmt 0
 745 0454 03B50400 		ld	a0,0(s1)
 746 0458 97000000 		call	_ZN4_sem6signalEv@plt
 746      E7800000 
 747              	.LVL78:
  66:src/Buffer.cpp ****     full->signal();
 748              		.loc 1 66 5 is_stmt 1
 749              		.loc 1 66 17 is_stmt 0
 750 0460 03B58401 		ld	a0,24(s1)
 751 0464 97000000 		call	_ZN4_sem6signalEv@plt
 751      E7800000 
 752              	.LVL79:
  67:src/Buffer.cpp **** 
  68:src/Buffer.cpp **** }
 753              		.loc 1 68 1
 754 046c 83308101 		ld	ra,24(sp)
 755              		.cfi_restore 1
 756 0470 03340101 		ld	s0,16(sp)
 757              		.cfi_restore 8
 758              		.cfi_def_cfa 2, 32
 759 0474 83348100 		ld	s1,8(sp)
 760              		.cfi_restore 9
 761              	.LVL80:
 762 0478 03390100 		ld	s2,0(sp)
 763              		.cfi_restore 18
 764 047c 13010102 		addi	sp,sp,32
 765              		.cfi_def_cfa_offset 0
 766 0480 67800000 		jr	ra
 767              		.cfi_endproc
 768              	.LFE74:
 770              		.align	2
 771              		.globl	_ZN7_Buffer7sys_getEv
 773              	_ZN7_Buffer7sys_getEv:
 774              	.LFB75:
  69:src/Buffer.cpp **** char _Buffer::sys_get() {
 775              		.loc 1 69 25 is_stmt 1
GAS LISTING /tmp/cck5lb9f.s 			page 17


 776              		.cfi_startproc
 777              	.LVL81:
 778 0484 130101FE 		addi	sp,sp,-32
 779              		.cfi_def_cfa_offset 32
 780 0488 233C1100 		sd	ra,24(sp)
 781 048c 23388100 		sd	s0,16(sp)
 782 0490 23349100 		sd	s1,8(sp)
 783 0494 23302101 		sd	s2,0(sp)
 784              		.cfi_offset 1, -8
 785              		.cfi_offset 8, -16
 786              		.cfi_offset 9, -24
 787              		.cfi_offset 18, -32
 788 0498 13040102 		addi	s0,sp,32
 789              		.cfi_def_cfa 8, 0
 790 049c 93040500 		mv	s1,a0
  70:src/Buffer.cpp ****     full->wait();
 791              		.loc 1 70 5
 792              		.loc 1 70 15 is_stmt 0
 793 04a0 03358501 		ld	a0,24(a0)
 794              	.LVL82:
 795 04a4 97000000 		call	_ZN4_sem4waitEv@plt
 795      E7800000 
 796              	.LVL83:
  71:src/Buffer.cpp ****     mutexF->wait();
 797              		.loc 1 71 5 is_stmt 1
 798              		.loc 1 71 17 is_stmt 0
 799 04ac 03B58400 		ld	a0,8(s1)
 800 04b0 97000000 		call	_ZN4_sem4waitEv@plt
 800      E7800000 
 801              	.LVL84:
  72:src/Buffer.cpp ****     char ret = buffer[head];
 802              		.loc 1 72 5 is_stmt 1
 803              		.loc 1 72 23 is_stmt 0
 804 04b8 83A74412 		lw	a5,292(s1)
 805              		.loc 1 72 10
 806 04bc 3387F400 		add	a4,s1,a5
 807 04c0 03490702 		lbu	s2,32(a4)
 808              	.LVL85:
  73:src/Buffer.cpp ****     head=(head+1)%slot;
 809              		.loc 1 73 5 is_stmt 1
 810              		.loc 1 73 15 is_stmt 0
 811 04c4 9B871700 		addiw	a5,a5,1
 812              		.loc 1 73 19
 813 04c8 03A7C412 		lw	a4,300(s1)
 814              		.loc 1 73 18
 815 04cc BBE7E702 		remw	a5,a5,a4
 816              		.loc 1 73 9
 817 04d0 23A2F412 		sw	a5,292(s1)
  74:src/Buffer.cpp ****     size--;
 818              		.loc 1 74 5 is_stmt 1
 819 04d4 83A70412 		lw	a5,288(s1)
 820              		.loc 1 74 9 is_stmt 0
 821 04d8 9B87F7FF 		addiw	a5,a5,-1
 822 04dc 23A0F412 		sw	a5,288(s1)
  75:src/Buffer.cpp ****     mutexF->signal();
 823              		.loc 1 75 5 is_stmt 1
 824              		.loc 1 75 19 is_stmt 0
GAS LISTING /tmp/cck5lb9f.s 			page 18


 825 04e0 03B58400 		ld	a0,8(s1)
 826 04e4 97000000 		call	_ZN4_sem6signalEv@plt
 826      E7800000 
 827              	.LVL86:
  76:src/Buffer.cpp ****     empty->signal();
 828              		.loc 1 76 5 is_stmt 1
 829              		.loc 1 76 18 is_stmt 0
 830 04ec 03B50401 		ld	a0,16(s1)
 831 04f0 97000000 		call	_ZN4_sem6signalEv@plt
 831      E7800000 
 832              	.LVL87:
  77:src/Buffer.cpp **** 
  78:src/Buffer.cpp ****     return ret;
 833              		.loc 1 78 5 is_stmt 1
  79:src/Buffer.cpp **** }...
 834              		.loc 1 79 1 is_stmt 0
 835 04f8 13050900 		mv	a0,s2
 836 04fc 83308101 		ld	ra,24(sp)
 837              		.cfi_restore 1
 838 0500 03340101 		ld	s0,16(sp)
 839              		.cfi_restore 8
 840              		.cfi_def_cfa 2, 32
 841 0504 83348100 		ld	s1,8(sp)
 842              		.cfi_restore 9
 843              	.LVL88:
 844 0508 03390100 		ld	s2,0(sp)
 845              		.cfi_restore 18
 846              	.LVL89:
 847 050c 13010102 		addi	sp,sp,32
 848              		.cfi_def_cfa_offset 0
 849 0510 67800000 		jr	ra
 850              		.cfi_endproc
 851              	.LFE75:
 853              	.Letext0:
 854              		.file 3 "src/../h/../lib/hw.h"
 855              		.file 4 "src/../h/tcb.hpp"
 856              		.file 5 "src/../h/syscall_c.hpp"
 857              		.file 6 "src/../h/list.hpp"
 858              		.file 7 "src/../h/Buffer.hpp"
 4984              		.align	3
 4987              	DW.ref.__gxx_personality_v0:
 4988 0000 00000000 		.dword	__gxx_personality_v0
 4988      00000000 
 4989              		.ident	"GCC: (Ubuntu 9.4.0-1ubuntu1~20.04) 9.4.0"
 4990              		.section	.note.GNU-stack,"",@progbits
GAS LISTING /tmp/cck5lb9f.s 			page 19

