GAS LISTING /tmp/cck5lb9f.s 			page 1


   1              		.file	"Buffer.cpp"
   2              		.option pic
   3              		.option norelax
   4              		.text
   5              	.Ltext0:
   6              		.align	2
   7              		.globl	_ZN7_BufferC2Ev
   9              	_ZN7_BufferC2Ev:
  10              	.LFB65:
  11              		.file 1 "src/Buffer.cpp"
   1:src/Buffer.cpp **** //
   2:src/Buffer.cpp **** // Created by os on 8/10/22.
   3:src/Buffer.cpp **** //
   4:src/Buffer.cpp **** #include "../h/Buffer.hpp"
   5:src/Buffer.cpp **** 
   6:src/Buffer.cpp **** _Buffer::_Buffer() {
  12              		.loc 1 6 1
  13              		.cfi_startproc
  14              		.cfi_personality 0x9b,DW.ref.__gxx_personality_v0
  15              		.cfi_lsda 0x1b,.LLSDA65
  16              	.LVL0:
  17 0000 130101FE 		addi	sp,sp,-32
  18              		.cfi_def_cfa_offset 32
  19 0004 233C1100 		sd	ra,24(sp)
  20 0008 23388100 		sd	s0,16(sp)
  21 000c 23349100 		sd	s1,8(sp)
  22 0010 23302101 		sd	s2,0(sp)
  23              		.cfi_offset 1, -8
  24              		.cfi_offset 8, -16
  25              		.cfi_offset 9, -24
  26              		.cfi_offset 18, -32
  27 0014 13040102 		addi	s0,sp,32
  28              		.cfi_def_cfa 8, 0
  29 0018 93040500 		mv	s1,a0
  30              	.LBB15:
   7:src/Buffer.cpp ****     head=0;
  31              		.loc 1 7 5
  32              		.loc 1 7 9 is_stmt 0
  33 001c 23220512 		sw	zero,292(a0)
   8:src/Buffer.cpp ****     tail=0;
  34              		.loc 1 8 5 is_stmt 1
  35              		.loc 1 8 9 is_stmt 0
  36 0020 23240512 		sw	zero,296(a0)
   9:src/Buffer.cpp ****     slot=BUFFER_SIZE;
  37              		.loc 1 9 5 is_stmt 1
  38              		.loc 1 9 9 is_stmt 0
  39 0024 93070010 		li	a5,256
  40 0028 2326F512 		sw	a5,300(a0)
  10:src/Buffer.cpp ****     size=0;
  41              		.loc 1 10 5 is_stmt 1
  42              		.loc 1 10 9 is_stmt 0
  43 002c 23200512 		sw	zero,288(a0)
  11:src/Buffer.cpp **** 
  12:src/Buffer.cpp ****     new _sem(&empty,slot);
  44              		.loc 1 12 5 is_stmt 1
  45              		.loc 1 12 25 is_stmt 0
  46 0030 13050002 		li	a0,32
GAS LISTING /tmp/cck5lb9f.s 			page 2


  47              	.LVL1:
  48              	.LEHB0:
  49 0034 97000000 		call	_ZN4_semnwEm@plt
  49      E7800000 
  50              	.LVL2:
  51              	.LEHE0:
  52 003c 13090500 		mv	s2,a0
  53 0040 03A6C412 		lw	a2,300(s1)
  54 0044 93850401 		addi	a1,s1,16
  55              	.LEHB1:
  56 0048 97000000 		call	_ZN4_semC1EPPS_j@plt
  56      E7800000 
  57              	.LVL3:
  58              	.LEHE1:
  13:src/Buffer.cpp ****     new _sem(&full,0);
  59              		.loc 1 13 5 is_stmt 1
  60              		.loc 1 13 21 is_stmt 0
  61 0050 13050002 		li	a0,32
  62              	.LEHB2:
  63 0054 97000000 		call	_ZN4_semnwEm@plt
  63      E7800000 
  64              	.LVL4:
  65              	.LEHE2:
  66 005c 13090500 		mv	s2,a0
  67 0060 13060000 		li	a2,0
  68 0064 93858401 		addi	a1,s1,24
  69              	.LEHB3:
  70 0068 97000000 		call	_ZN4_semC1EPPS_j@plt
  70      E7800000 
  71              	.LVL5:
  72              	.LEHE3:
  14:src/Buffer.cpp ****     new _sem(&mutexE,1);
  73              		.loc 1 14 5 is_stmt 1
  74              		.loc 1 14 23 is_stmt 0
  75 0070 13050002 		li	a0,32
  76              	.LEHB4:
  77 0074 97000000 		call	_ZN4_semnwEm@plt
  77      E7800000 
  78              	.LVL6:
  79              	.LEHE4:
  80 007c 13090500 		mv	s2,a0
  81 0080 13061000 		li	a2,1
  82 0084 93850400 		mv	a1,s1
  83              	.LEHB5:
  84 0088 97000000 		call	_ZN4_semC1EPPS_j@plt
  84      E7800000 
  85              	.LVL7:
  86              	.LEHE5:
  15:src/Buffer.cpp ****     new _sem(&mutexF,1);
  87              		.loc 1 15 5 is_stmt 1
  88              		.loc 1 15 23 is_stmt 0
  89 0090 13050002 		li	a0,32
  90              	.LEHB6:
  91 0094 97000000 		call	_ZN4_semnwEm@plt
  91      E7800000 
  92              	.LVL8:
  93              	.LEHE6:
GAS LISTING /tmp/cck5lb9f.s 			page 3


  94 009c 13090500 		mv	s2,a0
  95 00a0 13061000 		li	a2,1
  96 00a4 93858400 		addi	a1,s1,8
  97              	.LEHB7:
  98 00a8 97000000 		call	_ZN4_semC1EPPS_j@plt
  98      E7800000 
  99              	.LVL9:
 100              	.LEHE7:
 101 00b0 6F004007 		j	.L12
 102              	.L6:
 103 00b4 93040500 		mv	s1,a0
 104              	.LVL10:
  12:src/Buffer.cpp ****     new _sem(&full,0);
 105              		.loc 1 12 25
 106 00b8 13050900 		mv	a0,s2
 107 00bc 97000000 		call	_ZN4_semdlEPv@plt
 107      E7800000 
 108              	.LVL11:
 109 00c4 13850400 		mv	a0,s1
 110              	.LEHB8:
 111 00c8 97000000 		call	_Unwind_Resume@plt
 111      E7800000 
 112              	.LVL12:
 113              	.LEHE8:
 114              	.L7:
 115 00d0 93040500 		mv	s1,a0
 116              	.LVL13:
  13:src/Buffer.cpp ****     new _sem(&mutexE,1);
 117              		.loc 1 13 21
 118 00d4 13050900 		mv	a0,s2
 119 00d8 97000000 		call	_ZN4_semdlEPv@plt
 119      E7800000 
 120              	.LVL14:
 121 00e0 13850400 		mv	a0,s1
 122              	.LEHB9:
 123 00e4 97000000 		call	_Unwind_Resume@plt
 123      E7800000 
 124              	.LVL15:
 125              	.LEHE9:
 126              	.L8:
 127 00ec 93040500 		mv	s1,a0
 128              	.LVL16:
  14:src/Buffer.cpp ****     new _sem(&mutexF,1);
 129              		.loc 1 14 23
 130 00f0 13050900 		mv	a0,s2
 131 00f4 97000000 		call	_ZN4_semdlEPv@plt
 131      E7800000 
 132              	.LVL17:
 133 00fc 13850400 		mv	a0,s1
 134              	.LEHB10:
 135 0100 97000000 		call	_Unwind_Resume@plt
 135      E7800000 
 136              	.LVL18:
 137              	.LEHE10:
 138              	.L9:
 139 0108 93040500 		mv	s1,a0
 140              	.LVL19:
GAS LISTING /tmp/cck5lb9f.s 			page 4


 141              		.loc 1 15 23
 142 010c 13050900 		mv	a0,s2
 143 0110 97000000 		call	_ZN4_semdlEPv@plt
 143      E7800000 
 144              	.LVL20:
 145 0118 13850400 		mv	a0,s1
 146              	.LEHB11:
 147 011c 97000000 		call	_Unwind_Resume@plt
 147      E7800000 
 148              	.LVL21:
 149              	.LEHE11:
 150              	.L12:
 151              	.LBE15:
  16:src/Buffer.cpp **** }
 152              		.loc 1 16 1
 153 0124 83308101 		ld	ra,24(sp)
 154              		.cfi_restore 1
 155 0128 03340101 		ld	s0,16(sp)
 156              		.cfi_restore 8
 157              		.cfi_def_cfa 2, 32
 158 012c 83348100 		ld	s1,8(sp)
 159              		.cfi_restore 9
 160              	.LVL22:
 161 0130 03390100 		ld	s2,0(sp)
 162              		.cfi_restore 18
 163 0134 13010102 		addi	sp,sp,32
 164              		.cfi_def_cfa_offset 0
 165 0138 67800000 		jr	ra
 166              		.cfi_endproc
 167              	.LFE65:
 168              		.globl	__gxx_personality_v0
 169              		.section	.gcc_except_table,"a",@progbits
 170              	.LLSDA65:
 171 0000 FF       		.byte	0xff
 172 0001 FF       		.byte	0xff
 173 0002 03       		.byte	0x3
 174 0003 9C01     		.byte	0x9c,0x1
 175 0005 00000000 		.4byte	.LEHB0-.LFB65
 176 0009 00000000 		.4byte	.LEHE0-.LEHB0
 177 000d 00000000 		.4byte	0
 178 0011 00       		.byte	0
 179 0012 00000000 		.4byte	.LEHB1-.LFB65
 180 0016 00000000 		.4byte	.LEHE1-.LEHB1
 181 001a 00000000 		.4byte	.L6-.LFB65
 182 001e 00       		.byte	0
 183 001f 00000000 		.4byte	.LEHB2-.LFB65
 184 0023 00000000 		.4byte	.LEHE2-.LEHB2
 185 0027 00000000 		.4byte	0
 186 002b 00       		.byte	0
 187 002c 00000000 		.4byte	.LEHB3-.LFB65
 188 0030 00000000 		.4byte	.LEHE3-.LEHB3
 189 0034 00000000 		.4byte	.L7-.LFB65
 190 0038 00       		.byte	0
 191 0039 00000000 		.4byte	.LEHB4-.LFB65
 192 003d 00000000 		.4byte	.LEHE4-.LEHB4
 193 0041 00000000 		.4byte	0
 194 0045 00       		.byte	0
GAS LISTING /tmp/cck5lb9f.s 			page 5


 195 0046 00000000 		.4byte	.LEHB5-.LFB65
 196 004a 00000000 		.4byte	.LEHE5-.LEHB5
 197 004e 00000000 		.4byte	.L8-.LFB65
 198 0052 00       		.byte	0
 199 0053 00000000 		.4byte	.LEHB6-.LFB65
 200 0057 00000000 		.4byte	.LEHE6-.LEHB6
 201 005b 00000000 		.4byte	0
 202 005f 00       		.byte	0
 203 0060 00000000 		.4byte	.LEHB7-.LFB65
 204 0064 00000000 		.4byte	.LEHE7-.LEHB7
 205 0068 00000000 		.4byte	.L9-.LFB65
 206 006c 00       		.byte	0
 207 006d 00000000 		.4byte	.LEHB8-.LFB65
 208 0071 00000000 		.4byte	.LEHE8-.LEHB8
 209 0075 00000000 		.4byte	0
 210 0079 00       		.byte	0
 211 007a 00000000 		.4byte	.LEHB9-.LFB65
 212 007e 00000000 		.4byte	.LEHE9-.LEHB9
 213 0082 00000000 		.4byte	0
 214 0086 00       		.byte	0
 215 0087 00000000 		.4byte	.LEHB10-.LFB65
 216 008b 00000000 		.4byte	.LEHE10-.LEHB10
 217 008f 00000000 		.4byte	0
 218 0093 00       		.byte	0
 219 0094 00000000 		.4byte	.LEHB11-.LFB65
 220 0098 00000000 		.4byte	.LEHE11-.LEHB11
 221 009c 00000000 		.4byte	0
 222 00a0 00       		.byte	0
 223              		.text
 225              		.globl	_ZN7_BufferC1Ev
 226              		.set	_ZN7_BufferC1Ev,_ZN7_BufferC2Ev
 227              		.align	2
 228              		.globl	_ZN7_BufferC2Ei
 230              	_ZN7_BufferC2Ei:
 231              	.LFB68:
  17:src/Buffer.cpp **** _Buffer::_Buffer(int cap) {
 232              		.loc 1 17 1 is_stmt 1
 233              		.cfi_startproc
 234              		.cfi_personality 0x9b,DW.ref.__gxx_personality_v0
 235              		.cfi_lsda 0x1b,.LLSDA68
 236              	.LVL23:
 237 013c 130101FE 		addi	sp,sp,-32
 238              		.cfi_def_cfa_offset 32
 239 0140 233C1100 		sd	ra,24(sp)
 240 0144 23388100 		sd	s0,16(sp)
 241 0148 23349100 		sd	s1,8(sp)
 242 014c 23302101 		sd	s2,0(sp)
 243              		.cfi_offset 1, -8
 244              		.cfi_offset 8, -16
 245              		.cfi_offset 9, -24
 246              		.cfi_offset 18, -32
 247 0150 13040102 		addi	s0,sp,32
 248              		.cfi_def_cfa 8, 0
 249 0154 93040500 		mv	s1,a0
 250              	.LBB16:
  18:src/Buffer.cpp ****     size=0;
 251              		.loc 1 18 5
GAS LISTING /tmp/cck5lb9f.s 			page 6


 252              		.loc 1 18 9 is_stmt 0
 253 0158 23200512 		sw	zero,288(a0)
  19:src/Buffer.cpp ****     head=0;
 254              		.loc 1 19 5 is_stmt 1
 255              		.loc 1 19 9 is_stmt 0
 256 015c 23220512 		sw	zero,292(a0)
  20:src/Buffer.cpp ****     tail=0;
 257              		.loc 1 20 5 is_stmt 1
 258              		.loc 1 20 9 is_stmt 0
 259 0160 23240512 		sw	zero,296(a0)
  21:src/Buffer.cpp ****     slot=cap;
 260              		.loc 1 21 5 is_stmt 1
 261              		.loc 1 21 9 is_stmt 0
 262 0164 2326B512 		sw	a1,300(a0)
  22:src/Buffer.cpp **** 
  23:src/Buffer.cpp ****     new _sem(&empty,size);
 263              		.loc 1 23 5 is_stmt 1
 264              		.loc 1 23 25 is_stmt 0
 265 0168 13050002 		li	a0,32
 266              	.LVL24:
 267              	.LEHB12:
 268 016c 97000000 		call	_ZN4_semnwEm@plt
 268      E7800000 
 269              	.LVL25:
 270              	.LEHE12:
 271 0174 13090500 		mv	s2,a0
 272 0178 03A60412 		lw	a2,288(s1)
 273 017c 93850401 		addi	a1,s1,16
 274              	.LEHB13:
 275 0180 97000000 		call	_ZN4_semC1EPPS_j@plt
 275      E7800000 
 276              	.LVL26:
 277              	.LEHE13:
  24:src/Buffer.cpp ****     new _sem(&full,0);
 278              		.loc 1 24 5 is_stmt 1
 279              		.loc 1 24 21 is_stmt 0
 280 0188 13050002 		li	a0,32
 281              	.LEHB14:
 282 018c 97000000 		call	_ZN4_semnwEm@plt
 282      E7800000 
 283              	.LVL27:
 284              	.LEHE14:
 285 0194 13090500 		mv	s2,a0
 286 0198 13060000 		li	a2,0
 287 019c 93858401 		addi	a1,s1,24
 288              	.LEHB15:
 289 01a0 97000000 		call	_ZN4_semC1EPPS_j@plt
 289      E7800000 
 290              	.LVL28:
 291              	.LEHE15:
  25:src/Buffer.cpp ****     new _sem(&mutexE,1);
 292              		.loc 1 25 5 is_stmt 1
 293              		.loc 1 25 23 is_stmt 0
 294 01a8 13050002 		li	a0,32
 295              	.LEHB16:
 296 01ac 97000000 		call	_ZN4_semnwEm@plt
 296      E7800000 
GAS LISTING /tmp/cck5lb9f.s 			page 7


 297              	.LVL29:
 298              	.LEHE16:
 299 01b4 13090500 		mv	s2,a0
 300 01b8 13061000 		li	a2,1
 301 01bc 93850400 		mv	a1,s1
 302              	.LEHB17:
 303 01c0 97000000 		call	_ZN4_semC1EPPS_j@plt
 303      E7800000 
 304              	.LVL30:
 305              	.LEHE17:
  26:src/Buffer.cpp ****     new _sem(&mutexF,1);
 306              		.loc 1 26 5 is_stmt 1
 307              		.loc 1 26 23 is_stmt 0
 308 01c8 13050002 		li	a0,32
 309              	.LEHB18:
 310 01cc 97000000 		call	_ZN4_semnwEm@plt
 310      E7800000 
 311              	.LVL31:
 312              	.LEHE18:
 313 01d4 13090500 		mv	s2,a0
 314 01d8 13061000 		li	a2,1
 315 01dc 93858400 		addi	a1,s1,8
 316              	.LEHB19:
 317 01e0 97000000 		call	_ZN4_semC1EPPS_j@plt
 317      E7800000 
 318              	.LVL32:
 319              	.LEHE19:
 320 01e8 6F004007 		j	.L24
 321              	.L18:
 322 01ec 93040500 		mv	s1,a0
 323              	.LVL33:
  23:src/Buffer.cpp ****     new _sem(&full,0);
 324              		.loc 1 23 25
 325 01f0 13050900 		mv	a0,s2
 326 01f4 97000000 		call	_ZN4_semdlEPv@plt
 326      E7800000 
 327              	.LVL34:
 328 01fc 13850400 		mv	a0,s1
 329              	.LEHB20:
 330 0200 97000000 		call	_Unwind_Resume@plt
 330      E7800000 
 331              	.LVL35:
 332              	.LEHE20:
 333              	.L19:
 334 0208 93040500 		mv	s1,a0
 335              	.LVL36:
  24:src/Buffer.cpp ****     new _sem(&mutexE,1);
 336              		.loc 1 24 21
 337 020c 13050900 		mv	a0,s2
 338 0210 97000000 		call	_ZN4_semdlEPv@plt
 338      E7800000 
 339              	.LVL37:
 340 0218 13850400 		mv	a0,s1
 341              	.LEHB21:
 342 021c 97000000 		call	_Unwind_Resume@plt
 342      E7800000 
 343              	.LVL38:
GAS LISTING /tmp/cck5lb9f.s 			page 8


 344              	.LEHE21:
 345              	.L20:
 346 0224 93040500 		mv	s1,a0
 347              	.LVL39:
  25:src/Buffer.cpp ****     new _sem(&mutexF,1);
 348              		.loc 1 25 23
 349 0228 13050900 		mv	a0,s2
 350 022c 97000000 		call	_ZN4_semdlEPv@plt
 350      E7800000 
 351              	.LVL40:
 352 0234 13850400 		mv	a0,s1
 353              	.LEHB22:
 354 0238 97000000 		call	_Unwind_Resume@plt
 354      E7800000 
 355              	.LVL41:
 356              	.LEHE22:
 357              	.L21:
 358 0240 93040500 		mv	s1,a0
 359              	.LVL42:
 360              		.loc 1 26 23
 361 0244 13050900 		mv	a0,s2
 362 0248 97000000 		call	_ZN4_semdlEPv@plt
 362      E7800000 
 363              	.LVL43:
 364 0250 13850400 		mv	a0,s1
 365              	.LEHB23:
 366 0254 97000000 		call	_Unwind_Resume@plt
 366      E7800000 
 367              	.LVL44:
 368              	.LEHE23:
 369              	.L24:
 370              	.LBE16:
  27:src/Buffer.cpp **** }
 371              		.loc 1 27 1
 372 025c 83308101 		ld	ra,24(sp)
 373              		.cfi_restore 1
 374 0260 03340101 		ld	s0,16(sp)
 375              		.cfi_restore 8
 376              		.cfi_def_cfa 2, 32
 377 0264 83348100 		ld	s1,8(sp)
 378              		.cfi_restore 9
 379              	.LVL45:
 380 0268 03390100 		ld	s2,0(sp)
 381              		.cfi_restore 18
 382 026c 13010102 		addi	sp,sp,32
 383              		.cfi_def_cfa_offset 0
 384 0270 67800000 		jr	ra
 385              		.cfi_endproc
 386              	.LFE68:
 387              		.section	.gcc_except_table
 388              	.LLSDA68:
 389 00a1 FF       		.byte	0xff
 390 00a2 FF       		.byte	0xff
 391 00a3 03       		.byte	0x3
 392 00a4 9C01     		.byte	0x9c,0x1
 393 00a6 00000000 		.4byte	.LEHB12-.LFB68
 394 00aa 00000000 		.4byte	.LEHE12-.LEHB12
GAS LISTING /tmp/cck5lb9f.s 			page 9


 395 00ae 00000000 		.4byte	0
 396 00b2 00       		.byte	0
 397 00b3 00000000 		.4byte	.LEHB13-.LFB68
 398 00b7 00000000 		.4byte	.LEHE13-.LEHB13
 399 00bb 00000000 		.4byte	.L18-.LFB68
 400 00bf 00       		.byte	0
 401 00c0 00000000 		.4byte	.LEHB14-.LFB68
 402 00c4 00000000 		.4byte	.LEHE14-.LEHB14
 403 00c8 00000000 		.4byte	0
 404 00cc 00       		.byte	0
 405 00cd 00000000 		.4byte	.LEHB15-.LFB68
 406 00d1 00000000 		.4byte	.LEHE15-.LEHB15
 407 00d5 00000000 		.4byte	.L19-.LFB68
 408 00d9 00       		.byte	0
 409 00da 00000000 		.4byte	.LEHB16-.LFB68
 410 00de 00000000 		.4byte	.LEHE16-.LEHB16
 411 00e2 00000000 		.4byte	0
 412 00e6 00       		.byte	0
 413 00e7 00000000 		.4byte	.LEHB17-.LFB68
 414 00eb 00000000 		.4byte	.LEHE17-.LEHB17
 415 00ef 00000000 		.4byte	.L20-.LFB68
 416 00f3 00       		.byte	0
 417 00f4 00000000 		.4byte	.LEHB18-.LFB68
 418 00f8 00000000 		.4byte	.LEHE18-.LEHB18
 419 00fc 00000000 		.4byte	0
 420 0100 00       		.byte	0
 421 0101 00000000 		.4byte	.LEHB19-.LFB68
 422 0105 00000000 		.4byte	.LEHE19-.LEHB19
 423 0109 00000000 		.4byte	.L21-.LFB68
 424 010d 00       		.byte	0
 425 010e 00000000 		.4byte	.LEHB20-.LFB68
 426 0112 00000000 		.4byte	.LEHE20-.LEHB20
 427 0116 00000000 		.4byte	0
 428 011a 00       		.byte	0
 429 011b 00000000 		.4byte	.LEHB21-.LFB68
 430 011f 00000000 		.4byte	.LEHE21-.LEHB21
 431 0123 00000000 		.4byte	0
 432 0127 00       		.byte	0
 433 0128 00000000 		.4byte	.LEHB22-.LFB68
 434 012c 00000000 		.4byte	.LEHE22-.LEHB22
 435 0130 00000000 		.4byte	0
 436 0134 00       		.byte	0
 437 0135 00000000 		.4byte	.LEHB23-.LFB68
 438 0139 00000000 		.4byte	.LEHE23-.LEHB23
 439 013d 00000000 		.4byte	0
 440 0141 00       		.byte	0
 441              		.text
 443              		.globl	_ZN7_BufferC1Ei
 444              		.set	_ZN7_BufferC1Ei,_ZN7_BufferC2Ei
 445              		.align	2
 446              		.globl	_ZN7_BufferD2Ev
 448              	_ZN7_BufferD2Ev:
 449              	.LFB71:
  28:src/Buffer.cpp **** _Buffer::~_Buffer(){
 450              		.loc 1 28 1 is_stmt 1
 451              		.cfi_startproc
 452              		.cfi_personality 0x9b,DW.ref.__gxx_personality_v0
GAS LISTING /tmp/cck5lb9f.s 			page 10


 453              		.cfi_lsda 0x1b,.LLSDA71
 454              	.LVL46:
 455 0274 130101FE 		addi	sp,sp,-32
 456              		.cfi_def_cfa_offset 32
 457 0278 233C1100 		sd	ra,24(sp)
 458 027c 23388100 		sd	s0,16(sp)
 459 0280 23349100 		sd	s1,8(sp)
 460 0284 23302101 		sd	s2,0(sp)
 461              		.cfi_offset 1, -8
 462              		.cfi_offset 8, -16
 463              		.cfi_offset 9, -24
 464              		.cfi_offset 18, -32
 465 0288 13040102 		addi	s0,sp,32
 466              		.cfi_def_cfa 8, 0
 467 028c 93040500 		mv	s1,a0
 468              	.LBB17:
  29:src/Buffer.cpp ****     delete mutexF;
 469              		.loc 1 29 5
 470              		.loc 1 29 12 is_stmt 0
 471 0290 03398500 		ld	s2,8(a0)
 472              		.loc 1 29 18
 473 0294 630E0900 		beqz	s2,.L26
 474              	.LVL47:
 475              	.LBB18:
 476              	.LBB19:
 477              		.file 2 "src/../h/_sem.hpp"
   1:src/../h/_sem.hpp **** //
   2:src/../h/_sem.hpp **** // Created by os on 8/5/22.
   3:src/../h/_sem.hpp **** //
   4:src/../h/_sem.hpp **** 
   5:src/../h/_sem.hpp **** #ifndef OSPROJECT__SEM_HPP
   6:src/../h/_sem.hpp **** #define OSPROJECT__SEM_HPP
   7:src/../h/_sem.hpp **** #include "list.hpp"
   8:src/../h/_sem.hpp **** #include "syscall_c.hpp"
   9:src/../h/_sem.hpp **** #include "tcb.hpp"
  10:src/../h/_sem.hpp **** class _sem{
  11:src/../h/_sem.hpp **** private:
  12:src/../h/_sem.hpp ****     List<TCB>waiting;
  13:src/../h/_sem.hpp ****     int val=0;
  14:src/../h/_sem.hpp ****     int ended=0;
  15:src/../h/_sem.hpp ****     int close();
  16:src/../h/_sem.hpp ****     int wait();
  17:src/../h/_sem.hpp ****     int signal();
  18:src/../h/_sem.hpp ****     _sem(sem_t*handle,unsigned init);
  19:src/../h/_sem.hpp ****     friend class Riscv;
  20:src/../h/_sem.hpp ****     friend class _Buffer;
  21:src/../h/_sem.hpp ****     ~_sem(){close();}
 478              		.loc 2 21 13 is_stmt 1
 479              		.loc 2 21 18 is_stmt 0
 480 0298 13050900 		mv	a0,s2
 481              	.LVL48:
 482 029c 97000000 		call	_ZN4_sem5closeEv@plt
 482      E7800000 
 483              	.LVL49:
 484              	.LBE19:
 485              	.LBE18:
 486              		.loc 1 29 12
GAS LISTING /tmp/cck5lb9f.s 			page 11


 487 02a4 13050900 		mv	a0,s2
 488 02a8 97000000 		call	_ZN4_semdlEPv@plt
 488      E7800000 
 489              	.LVL50:
 490              	.L26:
  30:src/Buffer.cpp ****     delete mutexE;
 491              		.loc 1 30 5 is_stmt 1
 492              		.loc 1 30 12 is_stmt 0
 493 02b0 03B90400 		ld	s2,0(s1)
 494              		.loc 1 30 18
 495 02b4 630E0900 		beqz	s2,.L27
 496              	.LVL51:
 497              	.LBB20:
 498              	.LBB21:
 499              		.loc 2 21 13 is_stmt 1
 500              		.loc 2 21 18 is_stmt 0
 501 02b8 13050900 		mv	a0,s2
 502 02bc 97000000 		call	_ZN4_sem5closeEv@plt
 502      E7800000 
 503              	.LVL52:
 504              	.LBE21:
 505              	.LBE20:
 506              		.loc 1 30 12
 507 02c4 13050900 		mv	a0,s2
 508 02c8 97000000 		call	_ZN4_semdlEPv@plt
 508      E7800000 
 509              	.LVL53:
 510              	.L27:
  31:src/Buffer.cpp ****     head=0;
 511              		.loc 1 31 5 is_stmt 1
 512              		.loc 1 31 9 is_stmt 0
 513 02d0 23A20412 		sw	zero,292(s1)
  32:src/Buffer.cpp ****     tail=0;
 514              		.loc 1 32 5 is_stmt 1
 515              		.loc 1 32 9 is_stmt 0
 516 02d4 23A40412 		sw	zero,296(s1)
  33:src/Buffer.cpp ****     delete empty;
 517              		.loc 1 33 5 is_stmt 1
 518              		.loc 1 33 12 is_stmt 0
 519 02d8 03B90401 		ld	s2,16(s1)
 520              		.loc 1 33 17
 521 02dc 630E0900 		beqz	s2,.L28
 522              	.LVL54:
 523              	.LBB22:
 524              	.LBB23:
 525              		.loc 2 21 13 is_stmt 1
 526              		.loc 2 21 18 is_stmt 0
 527 02e0 13050900 		mv	a0,s2
 528 02e4 97000000 		call	_ZN4_sem5closeEv@plt
 528      E7800000 
 529              	.LVL55:
 530              	.LBE23:
 531              	.LBE22:
 532              		.loc 1 33 12
 533 02ec 13050900 		mv	a0,s2
 534 02f0 97000000 		call	_ZN4_semdlEPv@plt
 534      E7800000 
GAS LISTING /tmp/cck5lb9f.s 			page 12


 535              	.LVL56:
 536              	.L28:
  34:src/Buffer.cpp ****     delete full;
 537              		.loc 1 34 5 is_stmt 1
 538              		.loc 1 34 12 is_stmt 0
 539 02f8 03B98401 		ld	s2,24(s1)
 540              		.loc 1 34 16
 541 02fc 630E0900 		beqz	s2,.L29
 542              	.LVL57:
 543              	.LBB24:
 544              	.LBB25:
 545              		.loc 2 21 13 is_stmt 1
 546              		.loc 2 21 18 is_stmt 0
 547 0300 13050900 		mv	a0,s2
 548 0304 97000000 		call	_ZN4_sem5closeEv@plt
 548      E7800000 
 549              	.LVL58:
 550              	.LBE25:
 551              	.LBE24:
 552              		.loc 1 34 12
 553 030c 13050900 		mv	a0,s2
 554 0310 97000000 		call	_ZN4_semdlEPv@plt
 554      E7800000 
 555              	.LVL59:
 556              	.L29:
  35:src/Buffer.cpp ****     size=0;
 557              		.loc 1 35 5 is_stmt 1
 558              		.loc 1 35 9 is_stmt 0
 559 0318 23A00412 		sw	zero,288(s1)
  36:src/Buffer.cpp ****     sem_close(empty);
 560              		.loc 1 36 5 is_stmt 1
 561              		.loc 1 36 14 is_stmt 0
 562 031c 03B50401 		ld	a0,16(s1)
 563 0320 97000000 		call	_Z9sem_closeP4_sem@plt
 563      E7800000 
 564              	.LVL60:
  37:src/Buffer.cpp ****     sem_close(full);
 565              		.loc 1 37 5 is_stmt 1
 566              		.loc 1 37 14 is_stmt 0
 567 0328 03B58401 		ld	a0,24(s1)
 568 032c 97000000 		call	_Z9sem_closeP4_sem@plt
 568      E7800000 
 569              	.LVL61:
  38:src/Buffer.cpp ****     sem_close(mutexF);
 570              		.loc 1 38 5 is_stmt 1
 571              		.loc 1 38 14 is_stmt 0
 572 0334 03B58400 		ld	a0,8(s1)
 573 0338 97000000 		call	_Z9sem_closeP4_sem@plt
 573      E7800000 
 574              	.LVL62:
  39:src/Buffer.cpp ****     sem_close(mutexE);
 575              		.loc 1 39 5 is_stmt 1
 576              		.loc 1 39 14 is_stmt 0
 577 0340 03B50400 		ld	a0,0(s1)
 578 0344 97000000 		call	_Z9sem_closeP4_sem@plt
 578      E7800000 
 579              	.LVL63:
GAS LISTING /tmp/cck5lb9f.s 			page 13


 580              	.LBE17:
  40:src/Buffer.cpp **** }
 581              		.loc 1 40 1
 582 034c 83308101 		ld	ra,24(sp)
 583              		.cfi_restore 1
 584 0350 03340101 		ld	s0,16(sp)
 585              		.cfi_restore 8
 586              		.cfi_def_cfa 2, 32
 587 0354 83348100 		ld	s1,8(sp)
 588              		.cfi_restore 9
 589              	.LVL64:
 590 0358 03390100 		ld	s2,0(sp)
 591              		.cfi_restore 18
 592 035c 13010102 		addi	sp,sp,32
 593              		.cfi_def_cfa_offset 0
 594 0360 67800000 		jr	ra
 595              		.cfi_endproc
 596              	.LFE71:
 597              		.section	.gcc_except_table
 598              	.LLSDA71:
 599 0142 FF       		.byte	0xff
 600 0143 FF       		.byte	0xff
 601 0144 03       		.byte	0x3
 602 0145 00       		.byte	0
 603              		.text
 605              		.globl	_ZN7_BufferD1Ev
 606              		.set	_ZN7_BufferD1Ev,_ZN7_BufferD2Ev
 607              		.align	2
 608              		.globl	_ZN7_Buffer3getEv
 610              	_ZN7_Buffer3getEv:
 611              	.LFB73:
  41:src/Buffer.cpp **** 
  42:src/Buffer.cpp **** char _Buffer::get() {
 612              		.loc 1 42 21 is_stmt 1
 613              		.cfi_startproc
 614              	.LVL65:
 615 0364 130101FE 		addi	sp,sp,-32
 616              		.cfi_def_cfa_offset 32
 617 0368 233C1100 		sd	ra,24(sp)
 618 036c 23388100 		sd	s0,16(sp)
 619 0370 23349100 		sd	s1,8(sp)
 620 0374 23302101 		sd	s2,0(sp)
 621              		.cfi_offset 1, -8
 622              		.cfi_offset 8, -16
 623              		.cfi_offset 9, -24
 624              		.cfi_offset 18, -32
 625 0378 13040102 		addi	s0,sp,32
 626              		.cfi_def_cfa 8, 0
 627 037c 93040500 		mv	s1,a0
  43:src/Buffer.cpp **** 
  44:src/Buffer.cpp **** 
  45:src/Buffer.cpp ****     sem_wait(full);
 628              		.loc 1 45 5
 629              		.loc 1 45 13 is_stmt 0
 630 0380 03358501 		ld	a0,24(a0)
 631              	.LVL66:
 632 0384 97000000 		call	_Z8sem_waitP4_sem@plt
GAS LISTING /tmp/cck5lb9f.s 			page 14


 632      E7800000 
 633              	.LVL67:
  46:src/Buffer.cpp ****     sem_wait(mutexF);
 634              		.loc 1 46 5 is_stmt 1
 635              		.loc 1 46 13 is_stmt 0
 636 038c 03B58400 		ld	a0,8(s1)
 637 0390 97000000 		call	_Z8sem_waitP4_sem@plt
 637      E7800000 
 638              	.LVL68:
  47:src/Buffer.cpp **** 
  48:src/Buffer.cpp ****     char ret = buffer[head];
 639              		.loc 1 48 5 is_stmt 1
 640              		.loc 1 48 23 is_stmt 0
 641 0398 83A74412 		lw	a5,292(s1)
 642              		.loc 1 48 10
 643 039c 3387F400 		add	a4,s1,a5
 644 03a0 03490702 		lbu	s2,32(a4)
 645              	.LVL69:
  49:src/Buffer.cpp ****     head=(head+1)%slot;
 646              		.loc 1 49 5 is_stmt 1
 647              		.loc 1 49 15 is_stmt 0
 648 03a4 9B871700 		addiw	a5,a5,1
 649              		.loc 1 49 19
 650 03a8 03A7C412 		lw	a4,300(s1)
 651              		.loc 1 49 18
 652 03ac BBE7E702 		remw	a5,a5,a4
 653              		.loc 1 49 9
 654 03b0 23A2F412 		sw	a5,292(s1)
  50:src/Buffer.cpp ****     size--;
 655              		.loc 1 50 5 is_stmt 1
 656 03b4 83A70412 		lw	a5,288(s1)
 657              		.loc 1 50 9 is_stmt 0
 658 03b8 9B87F7FF 		addiw	a5,a5,-1
 659 03bc 23A0F412 		sw	a5,288(s1)
  51:src/Buffer.cpp **** 
  52:src/Buffer.cpp ****     sem_signal(mutexF);
 660              		.loc 1 52 5 is_stmt 1
 661              		.loc 1 52 15 is_stmt 0
 662 03c0 03B58400 		ld	a0,8(s1)
 663 03c4 97000000 		call	_Z10sem_signalP4_sem@plt
 663      E7800000 
 664              	.LVL70:
  53:src/Buffer.cpp ****     sem_signal(empty);
 665              		.loc 1 53 5 is_stmt 1
 666              		.loc 1 53 15 is_stmt 0
 667 03cc 03B50401 		ld	a0,16(s1)
 668 03d0 97000000 		call	_Z10sem_signalP4_sem@plt
 668      E7800000 
 669              	.LVL71:
  54:src/Buffer.cpp **** 
  55:src/Buffer.cpp ****     return ret;
 670              		.loc 1 55 5 is_stmt 1
  56:src/Buffer.cpp **** }
 671              		.loc 1 56 1 is_stmt 0
 672 03d8 13050900 		mv	a0,s2
 673 03dc 83308101 		ld	ra,24(sp)
 674              		.cfi_restore 1
GAS LISTING /tmp/cck5lb9f.s 			page 15


 675 03e0 03340101 		ld	s0,16(sp)
 676              		.cfi_restore 8
 677              		.cfi_def_cfa 2, 32
 678 03e4 83348100 		ld	s1,8(sp)
 679              		.cfi_restore 9
 680              	.LVL72:
 681 03e8 03390100 		ld	s2,0(sp)
 682              		.cfi_restore 18
 683              	.LVL73:
 684 03ec 13010102 		addi	sp,sp,32
 685              		.cfi_def_cfa_offset 0
 686 03f0 67800000 		jr	ra
 687              		.cfi_endproc
 688              	.LFE73:
 690              		.align	2
 691              		.globl	_ZN7_Buffer7sys_putEc
 693              	_ZN7_Buffer7sys_putEc:
 694              	.LFB74:
  57:src/Buffer.cpp **** 
  58:src/Buffer.cpp **** void _Buffer::sys_put(char c) {
 695              		.loc 1 58 31 is_stmt 1
 696              		.cfi_startproc
 697              	.LVL74:
 698 03f4 130101FE 		addi	sp,sp,-32
 699              		.cfi_def_cfa_offset 32
 700 03f8 233C1100 		sd	ra,24(sp)
 701 03fc 23388100 		sd	s0,16(sp)
 702 0400 23349100 		sd	s1,8(sp)
 703 0404 23302101 		sd	s2,0(sp)
 704              		.cfi_offset 1, -8
 705              		.cfi_offset 8, -16
 706              		.cfi_offset 9, -24
 707              		.cfi_offset 18, -32
 708 0408 13040102 		addi	s0,sp,32
 709              		.cfi_def_cfa 8, 0
 710 040c 93040500 		mv	s1,a0
 711 0410 13890500 		mv	s2,a1
  59:src/Buffer.cpp ****     empty->wait();
 712              		.loc 1 59 5
 713              		.loc 1 59 16 is_stmt 0
 714 0414 03350501 		ld	a0,16(a0)
 715              	.LVL75:
 716 0418 97000000 		call	_ZN4_sem4waitEv@plt
 716      E7800000 
 717              	.LVL76:
  60:src/Buffer.cpp ****     mutexE->wait();
 718              		.loc 1 60 5 is_stmt 1
 719              		.loc 1 60 17 is_stmt 0
 720 0420 03B50400 		ld	a0,0(s1)
 721 0424 97000000 		call	_ZN4_sem4waitEv@plt
 721      E7800000 
 722              	.LVL77:
  61:src/Buffer.cpp **** 
  62:src/Buffer.cpp ****     buffer[tail]=c;
 723              		.loc 1 62 5 is_stmt 1
 724              		.loc 1 62 12 is_stmt 0
 725 042c 83A78412 		lw	a5,296(s1)
GAS LISTING /tmp/cck5lb9f.s 			page 16


 726              		.loc 1 62 17
 727 0430 3387F400 		add	a4,s1,a5
 728 0434 23002703 		sb	s2,32(a4)
  63:src/Buffer.cpp ****     tail= (tail+1)%slot;
 729              		.loc 1 63 5 is_stmt 1
 730              		.loc 1 63 16 is_stmt 0
 731 0438 9B871700 		addiw	a5,a5,1
 732              		.loc 1 63 20
 733 043c 03A7C412 		lw	a4,300(s1)
 734              		.loc 1 63 19
 735 0440 BBE7E702 		remw	a5,a5,a4
 736              		.loc 1 63 9
 737 0444 23A4F412 		sw	a5,296(s1)
  64:src/Buffer.cpp ****     size++;
 738              		.loc 1 64 5 is_stmt 1
 739 0448 83A70412 		lw	a5,288(s1)
 740              		.loc 1 64 9 is_stmt 0
 741 044c 9B871700 		addiw	a5,a5,1
 742 0450 23A0F412 		sw	a5,288(s1)
  65:src/Buffer.cpp ****     mutexE->signal();
 743              		.loc 1 65 5 is_stmt 1
 744              		.loc 1 65 19 is_stmt 0
 745 0454 03B50400 		ld	a0,0(s1)
 746 0458 97000000 		call	_ZN4_sem6signalEv@plt
 746      E7800000 
 747              	.LVL78:
  66:src/Buffer.cpp ****     full->signal();
 748              		.loc 1 66 5 is_stmt 1
 749              		.loc 1 66 17 is_stmt 0
 750 0460 03B58401 		ld	a0,24(s1)
 751 0464 97000000 		call	_ZN4_sem6signalEv@plt
 751      E7800000 
 752              	.LVL79:
  67:src/Buffer.cpp **** 
  68:src/Buffer.cpp **** }
 753              		.loc 1 68 1
 754 046c 83308101 		ld	ra,24(sp)
 755              		.cfi_restore 1
 756 0470 03340101 		ld	s0,16(sp)
 757              		.cfi_restore 8
 758              		.cfi_def_cfa 2, 32
 759 0474 83348100 		ld	s1,8(sp)
 760              		.cfi_restore 9
 761              	.LVL80:
 762 0478 03390100 		ld	s2,0(sp)
 763              		.cfi_restore 18
 764 047c 13010102 		addi	sp,sp,32
 765              		.cfi_def_cfa_offset 0
 766 0480 67800000 		jr	ra
 767              		.cfi_endproc
 768              	.LFE74:
 770              		.align	2
 771              		.globl	_ZN7_Buffer7sys_getEv
 773              	_ZN7_Buffer7sys_getEv:
 774              	.LFB75:
  69:src/Buffer.cpp **** char _Buffer::sys_get() {
 775              		.loc 1 69 25 is_stmt 1
GAS LISTING /tmp/cck5lb9f.s 			page 17


 776              		.cfi_startproc
 777              	.LVL81:
 778 0484 130101FE 		addi	sp,sp,-32
 779              		.cfi_def_cfa_offset 32
 780 0488 233C1100 		sd	ra,24(sp)
 781 048c 23388100 		sd	s0,16(sp)
 782 0490 23349100 		sd	s1,8(sp)
 783 0494 23302101 		sd	s2,0(sp)
 784              		.cfi_offset 1, -8
 785              		.cfi_offset 8, -16
 786              		.cfi_offset 9, -24
 787              		.cfi_offset 18, -32
 788 0498 13040102 		addi	s0,sp,32
 789              		.cfi_def_cfa 8, 0
 790 049c 93040500 		mv	s1,a0
  70:src/Buffer.cpp ****     full->wait();
 791              		.loc 1 70 5
 792              		.loc 1 70 15 is_stmt 0
 793 04a0 03358501 		ld	a0,24(a0)
 794              	.LVL82:
 795 04a4 97000000 		call	_ZN4_sem4waitEv@plt
 795      E7800000 
 796              	.LVL83:
  71:src/Buffer.cpp ****     mutexF->wait();
 797              		.loc 1 71 5 is_stmt 1
 798              		.loc 1 71 17 is_stmt 0
 799 04ac 03B58400 		ld	a0,8(s1)
 800 04b0 97000000 		call	_ZN4_sem4waitEv@plt
 800      E7800000 
 801              	.LVL84:
  72:src/Buffer.cpp ****     char ret = buffer[head];
 802              		.loc 1 72 5 is_stmt 1
 803              		.loc 1 72 23 is_stmt 0
 804 04b8 83A74412 		lw	a5,292(s1)
 805              		.loc 1 72 10
 806 04bc 3387F400 		add	a4,s1,a5
 807 04c0 03490702 		lbu	s2,32(a4)
 808              	.LVL85:
  73:src/Buffer.cpp ****     head=(head+1)%slot;
 809              		.loc 1 73 5 is_stmt 1
 810              		.loc 1 73 15 is_stmt 0
 811 04c4 9B871700 		addiw	a5,a5,1
 812              		.loc 1 73 19
 813 04c8 03A7C412 		lw	a4,300(s1)
 814              		.loc 1 73 18
 815 04cc BBE7E702 		remw	a5,a5,a4
 816              		.loc 1 73 9
 817 04d0 23A2F412 		sw	a5,292(s1)
  74:src/Buffer.cpp ****     size--;
 818              		.loc 1 74 5 is_stmt 1
 819 04d4 83A70412 		lw	a5,288(s1)
 820              		.loc 1 74 9 is_stmt 0
 821 04d8 9B87F7FF 		addiw	a5,a5,-1
 822 04dc 23A0F412 		sw	a5,288(s1)
  75:src/Buffer.cpp ****     mutexF->signal();
 823              		.loc 1 75 5 is_stmt 1
 824              		.loc 1 75 19 is_stmt 0
GAS LISTING /tmp/cck5lb9f.s 			page 18


 825 04e0 03B58400 		ld	a0,8(s1)
 826 04e4 97000000 		call	_ZN4_sem6signalEv@plt
 826      E7800000 
 827              	.LVL86:
  76:src/Buffer.cpp ****     empty->signal();
 828              		.loc 1 76 5 is_stmt 1
 829              		.loc 1 76 18 is_stmt 0
 830 04ec 03B50401 		ld	a0,16(s1)
 831 04f0 97000000 		call	_ZN4_sem6signalEv@plt
 831      E7800000 
 832              	.LVL87:
  77:src/Buffer.cpp **** 
  78:src/Buffer.cpp ****     return ret;
 833              		.loc 1 78 5 is_stmt 1
  79:src/Buffer.cpp **** }...
 834              		.loc 1 79 1 is_stmt 0
 835 04f8 13050900 		mv	a0,s2
 836 04fc 83308101 		ld	ra,24(sp)
 837              		.cfi_restore 1
 838 0500 03340101 		ld	s0,16(sp)
 839              		.cfi_restore 8
 840              		.cfi_def_cfa 2, 32
 841 0504 83348100 		ld	s1,8(sp)
 842              		.cfi_restore 9
 843              	.LVL88:
 844 0508 03390100 		ld	s2,0(sp)
 845              		.cfi_restore 18
 846              	.LVL89:
 847 050c 13010102 		addi	sp,sp,32
 848              		.cfi_def_cfa_offset 0
 849 0510 67800000 		jr	ra
 850              		.cfi_endproc
 851              	.LFE75:
 853              	.Letext0:
 854              		.file 3 "src/../h/../lib/hw.h"
 855              		.file 4 "src/../h/tcb.hpp"
 856              		.file 5 "src/../h/syscall_c.hpp"
 857              		.file 6 "src/../h/list.hpp"
 858              		.file 7 "src/../h/Buffer.hpp"
 4984              		.align	3
 4987              	DW.ref.__gxx_personality_v0:
 4988 0000 00000000 		.dword	__gxx_personality_v0
 4988      00000000 
 4989              		.ident	"GCC: (Ubuntu 9.4.0-1ubuntu1~20.04) 9.4.0"
 4990              		.section	.note.GNU-stack,"",@progbits
GAS LISTING /tmp/cck5lb9f.s 			page 19


DEFINED SYMBOLS
                            *ABS*:0000000000000000 Buffer.cpp
     /tmp/cck5lb9f.s:9      .text:0000000000000000 _ZN7_BufferC2Ev
     /tmp/cck5lb9f.s:13     .text:0000000000000000 .L0 
     /tmp/cck5lb9f.s:4987   .data.rel.local.DW.ref.__gxx_personality_v0:0000000000000000 DW.ref.__gxx_personality_v0
     /tmp/cck5lb9f.s:17     .text:0000000000000000 .L0 
     /tmp/cck5lb9f.s:18     .text:0000000000000004 .L0 
     /tmp/cck5lb9f.s:23     .text:0000000000000014 .L0 
     /tmp/cck5lb9f.s:24     .text:0000000000000014 .L0 
     /tmp/cck5lb9f.s:25     .text:0000000000000014 .L0 
     /tmp/cck5lb9f.s:26     .text:0000000000000014 .L0 
     /tmp/cck5lb9f.s:28     .text:0000000000000018 .L0 
     /tmp/cck5lb9f.s:32     .text:000000000000001c .L0 
     /tmp/cck5lb9f.s:33     .text:000000000000001c .L0 
     /tmp/cck5lb9f.s:35     .text:0000000000000020 .L0 
     /tmp/cck5lb9f.s:36     .text:0000000000000020 .L0 
     /tmp/cck5lb9f.s:38     .text:0000000000000024 .L0 
     /tmp/cck5lb9f.s:39     .text:0000000000000024 .L0 
     /tmp/cck5lb9f.s:42     .text:000000000000002c .L0 
     /tmp/cck5lb9f.s:43     .text:000000000000002c .L0 
     /tmp/cck5lb9f.s:45     .text:0000000000000030 .L0 
     /tmp/cck5lb9f.s:46     .text:0000000000000030 .L0 
     /tmp/cck5lb9f.s:60     .text:0000000000000050 .L0 
     /tmp/cck5lb9f.s:61     .text:0000000000000050 .L0 
     /tmp/cck5lb9f.s:74     .text:0000000000000070 .L0 
     /tmp/cck5lb9f.s:75     .text:0000000000000070 .L0 
     /tmp/cck5lb9f.s:88     .text:0000000000000090 .L0 
     /tmp/cck5lb9f.s:89     .text:0000000000000090 .L0 
     /tmp/cck5lb9f.s:106    .text:00000000000000b8 .L0 
     /tmp/cck5lb9f.s:118    .text:00000000000000d4 .L0 
     /tmp/cck5lb9f.s:130    .text:00000000000000f0 .L0 
     /tmp/cck5lb9f.s:142    .text:000000000000010c .L0 
     /tmp/cck5lb9f.s:153    .text:0000000000000124 .L0 
     /tmp/cck5lb9f.s:154    .text:0000000000000128 .L0 
     /tmp/cck5lb9f.s:156    .text:000000000000012c .L0 
     /tmp/cck5lb9f.s:157    .text:000000000000012c .L0 
     /tmp/cck5lb9f.s:159    .text:0000000000000130 .L0 
     /tmp/cck5lb9f.s:162    .text:0000000000000134 .L0 
     /tmp/cck5lb9f.s:164    .text:0000000000000138 .L0 
     /tmp/cck5lb9f.s:166    .text:000000000000013c .L0 
     /tmp/cck5lb9f.s:9      .text:0000000000000000 _ZN7_BufferC1Ev
     /tmp/cck5lb9f.s:230    .text:000000000000013c _ZN7_BufferC2Ei
     /tmp/cck5lb9f.s:233    .text:000000000000013c .L0 
     /tmp/cck5lb9f.s:237    .text:000000000000013c .L0 
     /tmp/cck5lb9f.s:238    .text:0000000000000140 .L0 
     /tmp/cck5lb9f.s:243    .text:0000000000000150 .L0 
     /tmp/cck5lb9f.s:244    .text:0000000000000150 .L0 
     /tmp/cck5lb9f.s:245    .text:0000000000000150 .L0 
     /tmp/cck5lb9f.s:246    .text:0000000000000150 .L0 
     /tmp/cck5lb9f.s:248    .text:0000000000000154 .L0 
     /tmp/cck5lb9f.s:252    .text:0000000000000158 .L0 
     /tmp/cck5lb9f.s:253    .text:0000000000000158 .L0 
     /tmp/cck5lb9f.s:255    .text:000000000000015c .L0 
     /tmp/cck5lb9f.s:256    .text:000000000000015c .L0 
     /tmp/cck5lb9f.s:258    .text:0000000000000160 .L0 
     /tmp/cck5lb9f.s:259    .text:0000000000000160 .L0 
     /tmp/cck5lb9f.s:261    .text:0000000000000164 .L0 
GAS LISTING /tmp/cck5lb9f.s 			page 20


     /tmp/cck5lb9f.s:262    .text:0000000000000164 .L0 
     /tmp/cck5lb9f.s:264    .text:0000000000000168 .L0 
     /tmp/cck5lb9f.s:265    .text:0000000000000168 .L0 
     /tmp/cck5lb9f.s:279    .text:0000000000000188 .L0 
     /tmp/cck5lb9f.s:280    .text:0000000000000188 .L0 
     /tmp/cck5lb9f.s:293    .text:00000000000001a8 .L0 
     /tmp/cck5lb9f.s:294    .text:00000000000001a8 .L0 
     /tmp/cck5lb9f.s:307    .text:00000000000001c8 .L0 
     /tmp/cck5lb9f.s:308    .text:00000000000001c8 .L0 
     /tmp/cck5lb9f.s:325    .text:00000000000001f0 .L0 
     /tmp/cck5lb9f.s:337    .text:000000000000020c .L0 
     /tmp/cck5lb9f.s:349    .text:0000000000000228 .L0 
     /tmp/cck5lb9f.s:361    .text:0000000000000244 .L0 
     /tmp/cck5lb9f.s:372    .text:000000000000025c .L0 
     /tmp/cck5lb9f.s:373    .text:0000000000000260 .L0 
     /tmp/cck5lb9f.s:375    .text:0000000000000264 .L0 
     /tmp/cck5lb9f.s:376    .text:0000000000000264 .L0 
     /tmp/cck5lb9f.s:378    .text:0000000000000268 .L0 
     /tmp/cck5lb9f.s:381    .text:000000000000026c .L0 
     /tmp/cck5lb9f.s:383    .text:0000000000000270 .L0 
     /tmp/cck5lb9f.s:385    .text:0000000000000274 .L0 
     /tmp/cck5lb9f.s:230    .text:000000000000013c _ZN7_BufferC1Ei
     /tmp/cck5lb9f.s:448    .text:0000000000000274 _ZN7_BufferD2Ev
     /tmp/cck5lb9f.s:451    .text:0000000000000274 .L0 
     /tmp/cck5lb9f.s:455    .text:0000000000000274 .L0 
     /tmp/cck5lb9f.s:456    .text:0000000000000278 .L0 
     /tmp/cck5lb9f.s:461    .text:0000000000000288 .L0 
     /tmp/cck5lb9f.s:462    .text:0000000000000288 .L0 
     /tmp/cck5lb9f.s:463    .text:0000000000000288 .L0 
     /tmp/cck5lb9f.s:464    .text:0000000000000288 .L0 
     /tmp/cck5lb9f.s:466    .text:000000000000028c .L0 
     /tmp/cck5lb9f.s:470    .text:0000000000000290 .L0 
     /tmp/cck5lb9f.s:471    .text:0000000000000290 .L0 
     /tmp/cck5lb9f.s:473    .text:0000000000000294 .L0 
     /tmp/cck5lb9f.s:479    .text:0000000000000298 .L0 
     /tmp/cck5lb9f.s:480    .text:0000000000000298 .L0 
     /tmp/cck5lb9f.s:487    .text:00000000000002a4 .L0 
     /tmp/cck5lb9f.s:492    .text:00000000000002b0 .L0 
     /tmp/cck5lb9f.s:493    .text:00000000000002b0 .L0 
     /tmp/cck5lb9f.s:495    .text:00000000000002b4 .L0 
     /tmp/cck5lb9f.s:500    .text:00000000000002b8 .L0 
     /tmp/cck5lb9f.s:501    .text:00000000000002b8 .L0 
     /tmp/cck5lb9f.s:507    .text:00000000000002c4 .L0 
     /tmp/cck5lb9f.s:512    .text:00000000000002d0 .L0 
     /tmp/cck5lb9f.s:513    .text:00000000000002d0 .L0 
     /tmp/cck5lb9f.s:515    .text:00000000000002d4 .L0 
     /tmp/cck5lb9f.s:516    .text:00000000000002d4 .L0 
     /tmp/cck5lb9f.s:518    .text:00000000000002d8 .L0 
     /tmp/cck5lb9f.s:519    .text:00000000000002d8 .L0 
     /tmp/cck5lb9f.s:521    .text:00000000000002dc .L0 
     /tmp/cck5lb9f.s:526    .text:00000000000002e0 .L0 
     /tmp/cck5lb9f.s:527    .text:00000000000002e0 .L0 
     /tmp/cck5lb9f.s:533    .text:00000000000002ec .L0 
     /tmp/cck5lb9f.s:538    .text:00000000000002f8 .L0 
     /tmp/cck5lb9f.s:539    .text:00000000000002f8 .L0 
     /tmp/cck5lb9f.s:541    .text:00000000000002fc .L0 
     /tmp/cck5lb9f.s:546    .text:0000000000000300 .L0 
GAS LISTING /tmp/cck5lb9f.s 			page 21


     /tmp/cck5lb9f.s:547    .text:0000000000000300 .L0 
     /tmp/cck5lb9f.s:553    .text:000000000000030c .L0 
     /tmp/cck5lb9f.s:558    .text:0000000000000318 .L0 
     /tmp/cck5lb9f.s:559    .text:0000000000000318 .L0 
     /tmp/cck5lb9f.s:561    .text:000000000000031c .L0 
     /tmp/cck5lb9f.s:562    .text:000000000000031c .L0 
     /tmp/cck5lb9f.s:566    .text:0000000000000328 .L0 
     /tmp/cck5lb9f.s:567    .text:0000000000000328 .L0 
     /tmp/cck5lb9f.s:571    .text:0000000000000334 .L0 
     /tmp/cck5lb9f.s:572    .text:0000000000000334 .L0 
     /tmp/cck5lb9f.s:576    .text:0000000000000340 .L0 
     /tmp/cck5lb9f.s:577    .text:0000000000000340 .L0 
     /tmp/cck5lb9f.s:582    .text:000000000000034c .L0 
     /tmp/cck5lb9f.s:583    .text:0000000000000350 .L0 
     /tmp/cck5lb9f.s:585    .text:0000000000000354 .L0 
     /tmp/cck5lb9f.s:586    .text:0000000000000354 .L0 
     /tmp/cck5lb9f.s:588    .text:0000000000000358 .L0 
     /tmp/cck5lb9f.s:591    .text:000000000000035c .L0 
     /tmp/cck5lb9f.s:593    .text:0000000000000360 .L0 
     /tmp/cck5lb9f.s:595    .text:0000000000000364 .L0 
     /tmp/cck5lb9f.s:448    .text:0000000000000274 _ZN7_BufferD1Ev
     /tmp/cck5lb9f.s:610    .text:0000000000000364 _ZN7_Buffer3getEv
     /tmp/cck5lb9f.s:613    .text:0000000000000364 .L0 
     /tmp/cck5lb9f.s:615    .text:0000000000000364 .L0 
     /tmp/cck5lb9f.s:616    .text:0000000000000368 .L0 
     /tmp/cck5lb9f.s:621    .text:0000000000000378 .L0 
     /tmp/cck5lb9f.s:622    .text:0000000000000378 .L0 
     /tmp/cck5lb9f.s:623    .text:0000000000000378 .L0 
     /tmp/cck5lb9f.s:624    .text:0000000000000378 .L0 
     /tmp/cck5lb9f.s:626    .text:000000000000037c .L0 
     /tmp/cck5lb9f.s:629    .text:0000000000000380 .L0 
     /tmp/cck5lb9f.s:630    .text:0000000000000380 .L0 
     /tmp/cck5lb9f.s:635    .text:000000000000038c .L0 
     /tmp/cck5lb9f.s:636    .text:000000000000038c .L0 
     /tmp/cck5lb9f.s:640    .text:0000000000000398 .L0 
     /tmp/cck5lb9f.s:641    .text:0000000000000398 .L0 
     /tmp/cck5lb9f.s:643    .text:000000000000039c .L0 
     /tmp/cck5lb9f.s:647    .text:00000000000003a4 .L0 
     /tmp/cck5lb9f.s:648    .text:00000000000003a4 .L0 
     /tmp/cck5lb9f.s:650    .text:00000000000003a8 .L0 
     /tmp/cck5lb9f.s:652    .text:00000000000003ac .L0 
     /tmp/cck5lb9f.s:654    .text:00000000000003b0 .L0 
     /tmp/cck5lb9f.s:656    .text:00000000000003b4 .L0 
     /tmp/cck5lb9f.s:658    .text:00000000000003b8 .L0 
     /tmp/cck5lb9f.s:661    .text:00000000000003c0 .L0 
     /tmp/cck5lb9f.s:662    .text:00000000000003c0 .L0 
     /tmp/cck5lb9f.s:666    .text:00000000000003cc .L0 
     /tmp/cck5lb9f.s:667    .text:00000000000003cc .L0 
     /tmp/cck5lb9f.s:671    .text:00000000000003d8 .L0 
     /tmp/cck5lb9f.s:672    .text:00000000000003d8 .L0 
     /tmp/cck5lb9f.s:674    .text:00000000000003e0 .L0 
     /tmp/cck5lb9f.s:676    .text:00000000000003e4 .L0 
     /tmp/cck5lb9f.s:677    .text:00000000000003e4 .L0 
     /tmp/cck5lb9f.s:679    .text:00000000000003e8 .L0 
     /tmp/cck5lb9f.s:682    .text:00000000000003ec .L0 
     /tmp/cck5lb9f.s:685    .text:00000000000003f0 .L0 
     /tmp/cck5lb9f.s:687    .text:00000000000003f4 .L0 
GAS LISTING /tmp/cck5lb9f.s 			page 22


     /tmp/cck5lb9f.s:693    .text:00000000000003f4 _ZN7_Buffer7sys_putEc
     /tmp/cck5lb9f.s:696    .text:00000000000003f4 .L0 
     /tmp/cck5lb9f.s:698    .text:00000000000003f4 .L0 
     /tmp/cck5lb9f.s:699    .text:00000000000003f8 .L0 
     /tmp/cck5lb9f.s:704    .text:0000000000000408 .L0 
     /tmp/cck5lb9f.s:705    .text:0000000000000408 .L0 
     /tmp/cck5lb9f.s:706    .text:0000000000000408 .L0 
     /tmp/cck5lb9f.s:707    .text:0000000000000408 .L0 
     /tmp/cck5lb9f.s:709    .text:000000000000040c .L0 
     /tmp/cck5lb9f.s:713    .text:0000000000000414 .L0 
     /tmp/cck5lb9f.s:714    .text:0000000000000414 .L0 
     /tmp/cck5lb9f.s:719    .text:0000000000000420 .L0 
     /tmp/cck5lb9f.s:720    .text:0000000000000420 .L0 
     /tmp/cck5lb9f.s:724    .text:000000000000042c .L0 
     /tmp/cck5lb9f.s:725    .text:000000000000042c .L0 
     /tmp/cck5lb9f.s:727    .text:0000000000000430 .L0 
     /tmp/cck5lb9f.s:730    .text:0000000000000438 .L0 
     /tmp/cck5lb9f.s:731    .text:0000000000000438 .L0 
     /tmp/cck5lb9f.s:733    .text:000000000000043c .L0 
     /tmp/cck5lb9f.s:735    .text:0000000000000440 .L0 
     /tmp/cck5lb9f.s:737    .text:0000000000000444 .L0 
     /tmp/cck5lb9f.s:739    .text:0000000000000448 .L0 
     /tmp/cck5lb9f.s:741    .text:000000000000044c .L0 
     /tmp/cck5lb9f.s:744    .text:0000000000000454 .L0 
     /tmp/cck5lb9f.s:745    .text:0000000000000454 .L0 
     /tmp/cck5lb9f.s:749    .text:0000000000000460 .L0 
     /tmp/cck5lb9f.s:750    .text:0000000000000460 .L0 
     /tmp/cck5lb9f.s:754    .text:000000000000046c .L0 
     /tmp/cck5lb9f.s:755    .text:0000000000000470 .L0 
     /tmp/cck5lb9f.s:757    .text:0000000000000474 .L0 
     /tmp/cck5lb9f.s:758    .text:0000000000000474 .L0 
     /tmp/cck5lb9f.s:760    .text:0000000000000478 .L0 
     /tmp/cck5lb9f.s:763    .text:000000000000047c .L0 
     /tmp/cck5lb9f.s:765    .text:0000000000000480 .L0 
     /tmp/cck5lb9f.s:767    .text:0000000000000484 .L0 
     /tmp/cck5lb9f.s:773    .text:0000000000000484 _ZN7_Buffer7sys_getEv
     /tmp/cck5lb9f.s:776    .text:0000000000000484 .L0 
     /tmp/cck5lb9f.s:778    .text:0000000000000484 .L0 
     /tmp/cck5lb9f.s:779    .text:0000000000000488 .L0 
     /tmp/cck5lb9f.s:784    .text:0000000000000498 .L0 
     /tmp/cck5lb9f.s:785    .text:0000000000000498 .L0 
     /tmp/cck5lb9f.s:786    .text:0000000000000498 .L0 
     /tmp/cck5lb9f.s:787    .text:0000000000000498 .L0 
     /tmp/cck5lb9f.s:789    .text:000000000000049c .L0 
     /tmp/cck5lb9f.s:792    .text:00000000000004a0 .L0 
     /tmp/cck5lb9f.s:793    .text:00000000000004a0 .L0 
     /tmp/cck5lb9f.s:798    .text:00000000000004ac .L0 
     /tmp/cck5lb9f.s:799    .text:00000000000004ac .L0 
     /tmp/cck5lb9f.s:803    .text:00000000000004b8 .L0 
     /tmp/cck5lb9f.s:804    .text:00000000000004b8 .L0 
     /tmp/cck5lb9f.s:806    .text:00000000000004bc .L0 
     /tmp/cck5lb9f.s:810    .text:00000000000004c4 .L0 
     /tmp/cck5lb9f.s:811    .text:00000000000004c4 .L0 
     /tmp/cck5lb9f.s:813    .text:00000000000004c8 .L0 
     /tmp/cck5lb9f.s:815    .text:00000000000004cc .L0 
     /tmp/cck5lb9f.s:817    .text:00000000000004d0 .L0 
     /tmp/cck5lb9f.s:819    .text:00000000000004d4 .L0 
GAS LISTING /tmp/cck5lb9f.s 			page 23


     /tmp/cck5lb9f.s:821    .text:00000000000004d8 .L0 
     /tmp/cck5lb9f.s:824    .text:00000000000004e0 .L0 
     /tmp/cck5lb9f.s:825    .text:00000000000004e0 .L0 
     /tmp/cck5lb9f.s:829    .text:00000000000004ec .L0 
     /tmp/cck5lb9f.s:830    .text:00000000000004ec .L0 
     /tmp/cck5lb9f.s:834    .text:00000000000004f8 .L0 
     /tmp/cck5lb9f.s:835    .text:00000000000004f8 .L0 
     /tmp/cck5lb9f.s:837    .text:0000000000000500 .L0 
     /tmp/cck5lb9f.s:839    .text:0000000000000504 .L0 
     /tmp/cck5lb9f.s:840    .text:0000000000000504 .L0 
     /tmp/cck5lb9f.s:842    .text:0000000000000508 .L0 
     /tmp/cck5lb9f.s:845    .text:000000000000050c .L0 
     /tmp/cck5lb9f.s:848    .text:0000000000000510 .L0 
     /tmp/cck5lb9f.s:850    .text:0000000000000514 .L0 
     /tmp/cck5lb9f.s:859    .text:0000000000000514 .L0 
     /tmp/cck5lb9f.s:150    .text:0000000000000124 .L12
     /tmp/cck5lb9f.s:369    .text:000000000000025c .L24
     /tmp/cck5lb9f.s:490    .text:00000000000002b0 .L26
     /tmp/cck5lb9f.s:510    .text:00000000000002d0 .L27
     /tmp/cck5lb9f.s:536    .text:00000000000002f8 .L28
     /tmp/cck5lb9f.s:556    .text:0000000000000318 .L29
     /tmp/cck5lb9f.s:48     .text:0000000000000034 .LEHB0
     /tmp/cck5lb9f.s:10     .text:0000000000000000 .LFB65
     /tmp/cck5lb9f.s:51     .text:000000000000003c .LEHE0
     /tmp/cck5lb9f.s:55     .text:0000000000000048 .LEHB1
     /tmp/cck5lb9f.s:58     .text:0000000000000050 .LEHE1
     /tmp/cck5lb9f.s:102    .text:00000000000000b4 .L6
     /tmp/cck5lb9f.s:62     .text:0000000000000054 .LEHB2
     /tmp/cck5lb9f.s:65     .text:000000000000005c .LEHE2
     /tmp/cck5lb9f.s:69     .text:0000000000000068 .LEHB3
     /tmp/cck5lb9f.s:72     .text:0000000000000070 .LEHE3
     /tmp/cck5lb9f.s:114    .text:00000000000000d0 .L7
     /tmp/cck5lb9f.s:76     .text:0000000000000074 .LEHB4
     /tmp/cck5lb9f.s:79     .text:000000000000007c .LEHE4
     /tmp/cck5lb9f.s:83     .text:0000000000000088 .LEHB5
     /tmp/cck5lb9f.s:86     .text:0000000000000090 .LEHE5
     /tmp/cck5lb9f.s:126    .text:00000000000000ec .L8
     /tmp/cck5lb9f.s:90     .text:0000000000000094 .LEHB6
     /tmp/cck5lb9f.s:93     .text:000000000000009c .LEHE6
     /tmp/cck5lb9f.s:97     .text:00000000000000a8 .LEHB7
     /tmp/cck5lb9f.s:100    .text:00000000000000b0 .LEHE7
     /tmp/cck5lb9f.s:138    .text:0000000000000108 .L9
     /tmp/cck5lb9f.s:110    .text:00000000000000c8 .LEHB8
     /tmp/cck5lb9f.s:113    .text:00000000000000d0 .LEHE8
     /tmp/cck5lb9f.s:122    .text:00000000000000e4 .LEHB9
     /tmp/cck5lb9f.s:125    .text:00000000000000ec .LEHE9
     /tmp/cck5lb9f.s:134    .text:0000000000000100 .LEHB10
     /tmp/cck5lb9f.s:137    .text:0000000000000108 .LEHE10
     /tmp/cck5lb9f.s:146    .text:000000000000011c .LEHB11
     /tmp/cck5lb9f.s:149    .text:0000000000000124 .LEHE11
     /tmp/cck5lb9f.s:267    .text:000000000000016c .LEHB12
     /tmp/cck5lb9f.s:231    .text:000000000000013c .LFB68
     /tmp/cck5lb9f.s:270    .text:0000000000000174 .LEHE12
     /tmp/cck5lb9f.s:274    .text:0000000000000180 .LEHB13
     /tmp/cck5lb9f.s:277    .text:0000000000000188 .LEHE13
     /tmp/cck5lb9f.s:321    .text:00000000000001ec .L18
     /tmp/cck5lb9f.s:281    .text:000000000000018c .LEHB14
GAS LISTING /tmp/cck5lb9f.s 			page 24


     /tmp/cck5lb9f.s:284    .text:0000000000000194 .LEHE14
     /tmp/cck5lb9f.s:288    .text:00000000000001a0 .LEHB15
     /tmp/cck5lb9f.s:291    .text:00000000000001a8 .LEHE15
     /tmp/cck5lb9f.s:333    .text:0000000000000208 .L19
     /tmp/cck5lb9f.s:295    .text:00000000000001ac .LEHB16
     /tmp/cck5lb9f.s:298    .text:00000000000001b4 .LEHE16
     /tmp/cck5lb9f.s:302    .text:00000000000001c0 .LEHB17
     /tmp/cck5lb9f.s:305    .text:00000000000001c8 .LEHE17
     /tmp/cck5lb9f.s:345    .text:0000000000000224 .L20
     /tmp/cck5lb9f.s:309    .text:00000000000001cc .LEHB18
     /tmp/cck5lb9f.s:312    .text:00000000000001d4 .LEHE18
     /tmp/cck5lb9f.s:316    .text:00000000000001e0 .LEHB19
     /tmp/cck5lb9f.s:319    .text:00000000000001e8 .LEHE19
     /tmp/cck5lb9f.s:357    .text:0000000000000240 .L21
     /tmp/cck5lb9f.s:329    .text:0000000000000200 .LEHB20
     /tmp/cck5lb9f.s:332    .text:0000000000000208 .LEHE20
     /tmp/cck5lb9f.s:341    .text:000000000000021c .LEHB21
     /tmp/cck5lb9f.s:344    .text:0000000000000224 .LEHE21
     /tmp/cck5lb9f.s:353    .text:0000000000000238 .LEHB22
     /tmp/cck5lb9f.s:356    .text:0000000000000240 .LEHE22
     /tmp/cck5lb9f.s:365    .text:0000000000000254 .LEHB23
     /tmp/cck5lb9f.s:368    .text:000000000000025c .LEHE23
     /tmp/cck5lb9f.s:3127   .debug_abbrev:0000000000000000 .Ldebug_abbrev0
     /tmp/cck5lb9f.s:4889   .debug_str:00000000000009fe .LASF206
     /tmp/cck5lb9f.s:4645   .debug_str:00000000000002ef .LASF207
     /tmp/cck5lb9f.s:4741   .debug_str:00000000000005e0 .LASF208
     /tmp/cck5lb9f.s:5      .text:0000000000000000 .Ltext0
     /tmp/cck5lb9f.s:853    .text:0000000000000514 .Letext0
     /tmp/cck5lb9f.s:4545   .debug_line:0000000000000000 .Ldebug_line0
     /tmp/cck5lb9f.s:4693   .debug_str:0000000000000416 .LASF0
     /tmp/cck5lb9f.s:4721   .debug_str:0000000000000539 .LASF1
     /tmp/cck5lb9f.s:4821   .debug_str:000000000000081e .LASF2
     /tmp/cck5lb9f.s:4829   .debug_str:0000000000000862 .LASF4
     /tmp/cck5lb9f.s:4701   .debug_str:0000000000000472 .LASF3
     /tmp/cck5lb9f.s:4565   .debug_str:00000000000000aa .LASF5
     /tmp/cck5lb9f.s:4797   .debug_str:000000000000078e .LASF6
     /tmp/cck5lb9f.s:4787   .debug_str:0000000000000750 .LASF7
     /tmp/cck5lb9f.s:4711   .debug_str:00000000000004e1 .LASF8
     /tmp/cck5lb9f.s:4665   .debug_str:0000000000000368 .LASF9
     /tmp/cck5lb9f.s:4677   .debug_str:00000000000003b5 .LASF10
     /tmp/cck5lb9f.s:4605   .debug_str:00000000000001d9 .LASF11
     /tmp/cck5lb9f.s:4655   .debug_str:000000000000032e .LASF12
     /tmp/cck5lb9f.s:4619   .debug_str:000000000000023f .LASF13
     /tmp/cck5lb9f.s:4603   .debug_str:00000000000001c9 .LASF14
     /tmp/cck5lb9f.s:4867   .debug_str:0000000000000976 .LASF15
     /tmp/cck5lb9f.s:4639   .debug_str:00000000000002c5 .LASF16
     /tmp/cck5lb9f.s:4851   .debug_str:00000000000008f0 .LASF17
     /tmp/cck5lb9f.s:4873   .debug_str:000000000000099f .LASF18
     /tmp/cck5lb9f.s:4957   .debug_str:0000000000000d0a .LASF19
     /tmp/cck5lb9f.s:4587   .debug_str:000000000000014b .LASF20
     /tmp/cck5lb9f.s:4843   .debug_str:00000000000008c4 .LASF21
     /tmp/cck5lb9f.s:4877   .debug_str:00000000000009b2 .LASF22
     /tmp/cck5lb9f.s:4801   .debug_str:000000000000079e .LASF23
     /tmp/cck5lb9f.s:4641   .debug_str:00000000000002db .LASF24
     /tmp/cck5lb9f.s:4611   .debug_str:0000000000000212 .LASF25
     /tmp/cck5lb9f.s:4671   .debug_str:000000000000038c .LASF26
     /tmp/cck5lb9f.s:4759   .debug_str:0000000000000689 .LASF27
GAS LISTING /tmp/cck5lb9f.s 			page 25


     /tmp/cck5lb9f.s:4969   .debug_str:0000000000000d5f .LASF28
     /tmp/cck5lb9f.s:4847   .debug_str:00000000000008d8 .LASF30
     /tmp/cck5lb9f.s:4551   .debug_str:0000000000000010 .LASF76
     /tmp/cck5lb9f.s:4945   .debug_str:0000000000000c9d .LASF78
     /tmp/cck5lb9f.s:4583   .debug_str:0000000000000133 .LASF29
     /tmp/cck5lb9f.s:4779   .debug_str:000000000000070c .LASF31
     /tmp/cck5lb9f.s:4827   .debug_str:0000000000000856 .LASF32
     /tmp/cck5lb9f.s:4907   .debug_str:0000000000000b4b .LASF33
     /tmp/cck5lb9f.s:4547   .debug_str:0000000000000000 .LASF34
     /tmp/cck5lb9f.s:4861   .debug_str:0000000000000949 .LASF35
     /tmp/cck5lb9f.s:4901   .debug_str:0000000000000b0c .LASF36
     /tmp/cck5lb9f.s:4735   .debug_str:00000000000005b1 .LASF37
     /tmp/cck5lb9f.s:4809   .debug_str:00000000000007d3 .LASF38
     /tmp/cck5lb9f.s:4753   .debug_str:000000000000063f .LASF39
     /tmp/cck5lb9f.s:4669   .debug_str:0000000000000383 .LASF40
     /tmp/cck5lb9f.s:4913   .debug_str:0000000000000b87 .LASF41
     /tmp/cck5lb9f.s:4941   .debug_str:0000000000000c8b .LASF42
     /tmp/cck5lb9f.s:4597   .debug_str:0000000000000195 .LASF43
     /tmp/cck5lb9f.s:4865   .debug_str:000000000000096b .LASF44
     /tmp/cck5lb9f.s:4903   .debug_str:0000000000000b17 .LASF45
     /tmp/cck5lb9f.s:4777   .debug_str:0000000000000701 .LASF46
     /tmp/cck5lb9f.s:4715   .debug_str:000000000000050e .LASF47
     /tmp/cck5lb9f.s:4933   .debug_str:0000000000000c3c .LASF48
     /tmp/cck5lb9f.s:4579   .debug_str:000000000000010e .LASF49
     /tmp/cck5lb9f.s:4887   .debug_str:00000000000009f2 .LASF50
     /tmp/cck5lb9f.s:4773   .debug_str:00000000000006db .LASF51
     /tmp/cck5lb9f.s:4845   .debug_str:00000000000008cc .LASF52
     /tmp/cck5lb9f.s:4899   .debug_str:0000000000000aee .LASF53
     /tmp/cck5lb9f.s:4687   .debug_str:00000000000003f5 .LASF54
     /tmp/cck5lb9f.s:4657   .debug_str:000000000000033d .LASF55
     /tmp/cck5lb9f.s:4745   .debug_str:000000000000060c .LASF56
     /tmp/cck5lb9f.s:4927   .debug_str:0000000000000bf5 .LASF57
     /tmp/cck5lb9f.s:4767   .debug_str:00000000000006c5 .LASF58
     /tmp/cck5lb9f.s:4703   .debug_str:0000000000000484 .LASF60
     /tmp/cck5lb9f.s:4667   .debug_str:0000000000000378 .LASF59
     /tmp/cck5lb9f.s:4949   .debug_str:0000000000000cb7 .LASF61
     /tmp/cck5lb9f.s:4819   .debug_str:0000000000000815 .LASF62
     /tmp/cck5lb9f.s:4859   .debug_str:000000000000092f .LASF63
     /tmp/cck5lb9f.s:4627   .debug_str:0000000000000290 .LASF64
     /tmp/cck5lb9f.s:4697   .debug_str:000000000000042e .LASF65
     /tmp/cck5lb9f.s:4891   .debug_str:0000000000000ac2 .LASF66
     /tmp/cck5lb9f.s:4939   .debug_str:0000000000000c6e .LASF67
     /tmp/cck5lb9f.s:4585   .debug_str:000000000000013f .LASF68
     /tmp/cck5lb9f.s:4567   .debug_str:00000000000000b1 .LASF69
     /tmp/cck5lb9f.s:4915   .debug_str:0000000000000ba1 .LASF70
     /tmp/cck5lb9f.s:4923   .debug_str:0000000000000bd5 .LASF71
     /tmp/cck5lb9f.s:4781   .debug_str:000000000000072a .LASF72
     /tmp/cck5lb9f.s:4609   .debug_str:00000000000001f2 .LASF73
     /tmp/cck5lb9f.s:4573   .debug_str:00000000000000dc .LASF74
     /tmp/cck5lb9f.s:4825   .debug_str:0000000000000836 .LASF75
     /tmp/cck5lb9f.s:4943   .debug_str:0000000000000c96 .LASF77
     /tmp/cck5lb9f.s:4815   .debug_str:00000000000007f8 .LASF79
     /tmp/cck5lb9f.s:4831   .debug_str:0000000000000869 .LASF80
     /tmp/cck5lb9f.s:4559   .debug_str:0000000000000074 .LASF81
     /tmp/cck5lb9f.s:4965   .debug_str:0000000000000d24 .LASF82
     /tmp/cck5lb9f.s:4699   .debug_str:000000000000044b .LASF83
     /tmp/cck5lb9f.s:4817   .debug_str:0000000000000810 .LASF209
GAS LISTING /tmp/cck5lb9f.s 			page 26


     /tmp/cck5lb9f.s:4751   .debug_str:000000000000062b .LASF84
     /tmp/cck5lb9f.s:4967   .debug_str:0000000000000d36 .LASF85
     /tmp/cck5lb9f.s:4663   .debug_str:0000000000000360 .LASF86
     /tmp/cck5lb9f.s:4659   .debug_str:0000000000000356 .LASF87
     /tmp/cck5lb9f.s:4961   .debug_str:0000000000000d17 .LASF88
     /tmp/cck5lb9f.s:4799   .debug_str:0000000000000795 .LASF89
     /tmp/cck5lb9f.s:4875   .debug_str:00000000000009a7 .LASF90
     /tmp/cck5lb9f.s:4871   .debug_str:0000000000000989 .LASF92
     /tmp/cck5lb9f.s:4727   .debug_str:0000000000000562 .LASF91
     /tmp/cck5lb9f.s:4807   .debug_str:00000000000007bb .LASF93
     /tmp/cck5lb9f.s:4553   .debug_str:0000000000000020 .LASF95
     /tmp/cck5lb9f.s:4599   .debug_str:00000000000001b2 .LASF94
     /tmp/cck5lb9f.s:4757   .debug_str:0000000000000675 .LASF96
     /tmp/cck5lb9f.s:4835   .debug_str:000000000000087f .LASF97
     /tmp/cck5lb9f.s:4921   .debug_str:0000000000000bbe .LASF98
     /tmp/cck5lb9f.s:4959   .debug_str:0000000000000d11 .LASF99
     /tmp/cck5lb9f.s:4929   .debug_str:0000000000000c0e .LASF100
     /tmp/cck5lb9f.s:4785   .debug_str:0000000000000744 .LASF101
     /tmp/cck5lb9f.s:4739   .debug_str:00000000000005d3 .LASF102
     /tmp/cck5lb9f.s:4951   .debug_str:0000000000000cd4 .LASF103
     /tmp/cck5lb9f.s:4613   .debug_str:000000000000021b .LASF104
     /tmp/cck5lb9f.s:4549   .debug_str:000000000000000b .LASF105
     /tmp/cck5lb9f.s:4963   .debug_str:0000000000000d1e .LASF106
     /tmp/cck5lb9f.s:4909   .debug_str:0000000000000b69 .LASF107
     /tmp/cck5lb9f.s:4925   .debug_str:0000000000000bee .LASF108
     /tmp/cck5lb9f.s:4897   .debug_str:0000000000000ae4 .LASF109
     /tmp/cck5lb9f.s:4625   .debug_str:0000000000000282 .LASF110
     /tmp/cck5lb9f.s:4557   .debug_str:000000000000004c .LASF111
     /tmp/cck5lb9f.s:4837   .debug_str:000000000000088b .LASF112
     /tmp/cck5lb9f.s:4629   .debug_str:000000000000029b .LASF115
     /tmp/cck5lb9f.s:4707   .debug_str:00000000000004b1 .LASF117
     /tmp/cck5lb9f.s:4643   .debug_str:00000000000002e3 .LASF113
     /tmp/cck5lb9f.s:4623   .debug_str:000000000000026a .LASF114
     /tmp/cck5lb9f.s:4589   .debug_str:0000000000000154 .LASF116
     /tmp/cck5lb9f.s:4729   .debug_str:000000000000056f .LASF118
     /tmp/cck5lb9f.s:4723   .debug_str:000000000000054c .LASF119
     /tmp/cck5lb9f.s:4755   .debug_str:0000000000000659 .LASF120
     /tmp/cck5lb9f.s:4725   .debug_str:000000000000055c .LASF121
     /tmp/cck5lb9f.s:4885   .debug_str:00000000000009e2 .LASF122
     /tmp/cck5lb9f.s:4849   .debug_str:00000000000008eb .LASF123
     /tmp/cck5lb9f.s:4705   .debug_str:00000000000004a2 .LASF125
     /tmp/cck5lb9f.s:4631   .debug_str:00000000000002a4 .LASF124
     /tmp/cck5lb9f.s:4591   .debug_str:0000000000000162 .LASF126
     /tmp/cck5lb9f.s:4855   .debug_str:0000000000000919 .LASF127
     /tmp/cck5lb9f.s:4713   .debug_str:00000000000004f4 .LASF128
     /tmp/cck5lb9f.s:4635   .debug_str:00000000000002b1 .LASF129
     /tmp/cck5lb9f.s:4733   .debug_str:0000000000000598 .LASF130
     /tmp/cck5lb9f.s:4571   .debug_str:00000000000000d5 .LASF131
     /tmp/cck5lb9f.s:4953   .debug_str:0000000000000cea .LASF132
     /tmp/cck5lb9f.s:4947   .debug_str:0000000000000cb1 .LASF133
     /tmp/cck5lb9f.s:4863   .debug_str:0000000000000966 .LASF134
     /tmp/cck5lb9f.s:4681   .debug_str:00000000000003ce .LASF135
     /tmp/cck5lb9f.s:4647   .debug_str:00000000000002fe .LASF136
     /tmp/cck5lb9f.s:4569   .debug_str:00000000000000cf .LASF137
     /tmp/cck5lb9f.s:4575   .debug_str:00000000000000ea .LASF138
     /tmp/cck5lb9f.s:4765   .debug_str:00000000000006b5 .LASF139
     /tmp/cck5lb9f.s:4869   .debug_str:0000000000000982 .LASF140
GAS LISTING /tmp/cck5lb9f.s 			page 27


     /tmp/cck5lb9f.s:4979   .debug_str:0000000000000d9e .LASF141
     /tmp/cck5lb9f.s:4833   .debug_str:000000000000086e .LASF142
     /tmp/cck5lb9f.s:4637   .debug_str:00000000000002bf .LASF143
     /tmp/cck5lb9f.s:4743   .debug_str:00000000000005ff .LASF144
     /tmp/cck5lb9f.s:4973   .debug_str:0000000000000d7e .LASF145
     /tmp/cck5lb9f.s:4651   .debug_str:000000000000031b .LASF146
     /tmp/cck5lb9f.s:4749   .debug_str:0000000000000624 .LASF147
     /tmp/cck5lb9f.s:4841   .debug_str:00000000000008b2 .LASF148
     /tmp/cck5lb9f.s:4791   .debug_str:000000000000076b .LASF149
     /tmp/cck5lb9f.s:4919   .debug_str:0000000000000bb9 .LASF210
     /tmp/cck5lb9f.s:4653   .debug_str:0000000000000329 .LASF150
     /tmp/cck5lb9f.s:4769   .debug_str:00000000000006d1 .LASF151
     /tmp/cck5lb9f.s:4803   .debug_str:00000000000007a6 .LASF152
     /tmp/cck5lb9f.s:4761   .debug_str:0000000000000694 .LASF153
     /tmp/cck5lb9f.s:4853   .debug_str:0000000000000906 .LASF154
     /tmp/cck5lb9f.s:4649   .debug_str:0000000000000304 .LASF155
     /tmp/cck5lb9f.s:4823   .debug_str:000000000000082c .LASF211
     /tmp/cck5lb9f.s:4813   .debug_str:00000000000007e1 .LASF212
     /tmp/cck5lb9f.s:4719   .debug_str:0000000000000534 .LASF156
     /tmp/cck5lb9f.s:4685   .debug_str:00000000000003de .LASF157
     /tmp/cck5lb9f.s:4717   .debug_str:000000000000052b .LASF158
     /tmp/cck5lb9f.s:4595   .debug_str:0000000000000178 .LASF159
     /tmp/cck5lb9f.s:4689   .debug_str:00000000000003fd .LASF160
     /tmp/cck5lb9f.s:4763   .debug_str:0000000000000699 .LASF161
     /tmp/cck5lb9f.s:4783   .debug_str:0000000000000738 .LASF162
     /tmp/cck5lb9f.s:4931   .debug_str:0000000000000c1e .LASF163
     /tmp/cck5lb9f.s:4673   .debug_str:0000000000000391 .LASF164
     /tmp/cck5lb9f.s:4561   .debug_str:0000000000000080 .LASF165
     /tmp/cck5lb9f.s:4977   .debug_str:0000000000000d94 .LASF166
     /tmp/cck5lb9f.s:4621   .debug_str:000000000000024f .LASF167
     /tmp/cck5lb9f.s:4695   .debug_str:0000000000000423 .LASF168
     /tmp/cck5lb9f.s:4709   .debug_str:00000000000004c4 .LASF169
     /tmp/cck5lb9f.s:4795   .debug_str:0000000000000785 .LASF170
     /tmp/cck5lb9f.s:4555   .debug_str:0000000000000032 .LASF171
     /tmp/cck5lb9f.s:4811   .debug_str:00000000000007dc .LASF172
     /tmp/cck5lb9f.s:4683   .debug_str:00000000000003d6 .LASF173
     /tmp/cck5lb9f.s:4935   .debug_str:0000000000000c47 .LASF174
     /tmp/cck5lb9f.s:4691   .debug_str:0000000000000405 .LASF175
     /tmp/cck5lb9f.s:4895   .debug_str:0000000000000ad4 .LASF176
     /tmp/cck5lb9f.s:4917   .debug_str:0000000000000ba9 .LASF177
     /tmp/cck5lb9f.s:4563   .debug_str:00000000000000a1 .LASF178
     /tmp/cck5lb9f.s:4883   .debug_str:00000000000009d2 .LASF179
     /tmp/cck5lb9f.s:4617   .debug_str:000000000000022d .LASF213
     /tmp/cck5lb9f.s:4789   .debug_str:0000000000000763 .LASF180
     /tmp/cck5lb9f.s:4839   .debug_str:000000000000089c .LASF181
     /tmp/cck5lb9f.s:4581   .debug_str:000000000000012b .LASF182
     /tmp/cck5lb9f.s:4911   .debug_str:0000000000000b71 .LASF183
     /tmp/cck5lb9f.s:4775   .debug_str:00000000000006f9 .LASF184
     /tmp/cck5lb9f.s:4905   .debug_str:0000000000000b34 .LASF185
     /tmp/cck5lb9f.s:4633   .debug_str:00000000000002a9 .LASF186
     /tmp/cck5lb9f.s:4937   .debug_str:0000000000000c57 .LASF187
     /tmp/cck5lb9f.s:4857   .debug_str:0000000000000928 .LASF188
     /tmp/cck5lb9f.s:4593   .debug_str:0000000000000171 .LASF189
     /tmp/cck5lb9f.s:4615   .debug_str:0000000000000227 .LASF190
     /tmp/cck5lb9f.s:4771   .debug_str:00000000000006d6 .LASF191
     /tmp/cck5lb9f.s:4893   .debug_str:0000000000000acd .LASF192
     /tmp/cck5lb9f.s:4737   .debug_str:00000000000005ce .LASF193
GAS LISTING /tmp/cck5lb9f.s 			page 28


     /tmp/cck5lb9f.s:4879   .debug_str:00000000000009b8 .LASF194
     /tmp/cck5lb9f.s:774    .text:0000000000000484 .LFB75
     /tmp/cck5lb9f.s:851    .text:0000000000000514 .LFE75
     /tmp/cck5lb9f.s:4661   .debug_str:000000000000035b .LASF195
     /tmp/cck5lb9f.s:4258   .debug_loc:0000000000000000 .LLST12
     /tmp/cck5lb9f.s:4276   .debug_loc:000000000000004c .LLST13
     /tmp/cck5lb9f.s:796    .text:00000000000004ac .LVL83
     /tmp/cck5lb9f.s:801    .text:00000000000004b8 .LVL84
     /tmp/cck5lb9f.s:827    .text:00000000000004ec .LVL86
     /tmp/cck5lb9f.s:832    .text:00000000000004f8 .LVL87
     /tmp/cck5lb9f.s:694    .text:00000000000003f4 .LFB74
     /tmp/cck5lb9f.s:768    .text:0000000000000484 .LFE74
     /tmp/cck5lb9f.s:4287   .debug_loc:0000000000000082 .LLST10
     /tmp/cck5lb9f.s:4305   .debug_loc:00000000000000ce .LLST11
     /tmp/cck5lb9f.s:717    .text:0000000000000420 .LVL76
     /tmp/cck5lb9f.s:722    .text:000000000000042c .LVL77
     /tmp/cck5lb9f.s:747    .text:0000000000000460 .LVL78
     /tmp/cck5lb9f.s:752    .text:000000000000046c .LVL79
     /tmp/cck5lb9f.s:611    .text:0000000000000364 .LFB73
     /tmp/cck5lb9f.s:688    .text:00000000000003f4 .LFE73
     /tmp/cck5lb9f.s:4319   .debug_loc:0000000000000107 .LLST8
     /tmp/cck5lb9f.s:4337   .debug_loc:0000000000000153 .LLST9
     /tmp/cck5lb9f.s:633    .text:000000000000038c .LVL67
     /tmp/cck5lb9f.s:638    .text:0000000000000398 .LVL68
     /tmp/cck5lb9f.s:664    .text:00000000000003cc .LVL70
     /tmp/cck5lb9f.s:669    .text:00000000000003d8 .LVL71
     /tmp/cck5lb9f.s:4607   .debug_str:00000000000001e8 .LASF196
     /tmp/cck5lb9f.s:4793   .debug_str:0000000000000775 .LASF197
     /tmp/cck5lb9f.s:449    .text:0000000000000274 .LFB71
     /tmp/cck5lb9f.s:596    .text:0000000000000364 .LFE71
     /tmp/cck5lb9f.s:4348   .debug_loc:0000000000000189 .LLST3
     /tmp/cck5lb9f.s:475    .text:0000000000000298 .LBB18
     /tmp/cck5lb9f.s:485    .text:00000000000002a4 .LBE18
     /tmp/cck5lb9f.s:4366   .debug_loc:00000000000001d5 .LLST4
     /tmp/cck5lb9f.s:483    .text:00000000000002a4 .LVL49
     /tmp/cck5lb9f.s:497    .text:00000000000002b8 .LBB20
     /tmp/cck5lb9f.s:505    .text:00000000000002c4 .LBE20
     /tmp/cck5lb9f.s:4373   .debug_loc:00000000000001f8 .LLST5
     /tmp/cck5lb9f.s:503    .text:00000000000002c4 .LVL52
     /tmp/cck5lb9f.s:523    .text:00000000000002e0 .LBB22
     /tmp/cck5lb9f.s:531    .text:00000000000002ec .LBE22
     /tmp/cck5lb9f.s:4380   .debug_loc:000000000000021b .LLST6
     /tmp/cck5lb9f.s:529    .text:00000000000002ec .LVL55
     /tmp/cck5lb9f.s:543    .text:0000000000000300 .LBB24
     /tmp/cck5lb9f.s:551    .text:000000000000030c .LBE24
     /tmp/cck5lb9f.s:4387   .debug_loc:000000000000023e .LLST7
     /tmp/cck5lb9f.s:549    .text:000000000000030c .LVL58
     /tmp/cck5lb9f.s:489    .text:00000000000002b0 .LVL50
     /tmp/cck5lb9f.s:509    .text:00000000000002d0 .LVL53
     /tmp/cck5lb9f.s:535    .text:00000000000002f8 .LVL56
     /tmp/cck5lb9f.s:555    .text:0000000000000318 .LVL59
     /tmp/cck5lb9f.s:564    .text:0000000000000328 .LVL60
     /tmp/cck5lb9f.s:569    .text:0000000000000334 .LVL61
     /tmp/cck5lb9f.s:574    .text:0000000000000340 .LVL62
     /tmp/cck5lb9f.s:579    .text:000000000000034c .LVL63
     /tmp/cck5lb9f.s:4731   .debug_str:0000000000000588 .LASF198
     /tmp/cck5lb9f.s:386    .text:0000000000000274 .LFE68
GAS LISTING /tmp/cck5lb9f.s 			page 29


     /tmp/cck5lb9f.s:4394   .debug_loc:0000000000000261 .LLST1
     /tmp/cck5lb9f.s:4456   .debug_loc:0000000000000351 .LLST2
     /tmp/cck5lb9f.s:269    .text:0000000000000174 .LVL25
     /tmp/cck5lb9f.s:276    .text:0000000000000188 .LVL26
     /tmp/cck5lb9f.s:283    .text:0000000000000194 .LVL27
     /tmp/cck5lb9f.s:290    .text:00000000000001a8 .LVL28
     /tmp/cck5lb9f.s:297    .text:00000000000001b4 .LVL29
     /tmp/cck5lb9f.s:304    .text:00000000000001c8 .LVL30
     /tmp/cck5lb9f.s:311    .text:00000000000001d4 .LVL31
     /tmp/cck5lb9f.s:318    .text:00000000000001e8 .LVL32
     /tmp/cck5lb9f.s:327    .text:00000000000001fc .LVL34
     /tmp/cck5lb9f.s:331    .text:0000000000000208 .LVL35
     /tmp/cck5lb9f.s:339    .text:0000000000000218 .LVL37
     /tmp/cck5lb9f.s:343    .text:0000000000000224 .LVL38
     /tmp/cck5lb9f.s:351    .text:0000000000000234 .LVL40
     /tmp/cck5lb9f.s:355    .text:0000000000000240 .LVL41
     /tmp/cck5lb9f.s:363    .text:0000000000000250 .LVL43
     /tmp/cck5lb9f.s:367    .text:000000000000025c .LVL44
     /tmp/cck5lb9f.s:4747   .debug_str:0000000000000614 .LASF199
     /tmp/cck5lb9f.s:167    .text:000000000000013c .LFE65
     /tmp/cck5lb9f.s:4470   .debug_loc:000000000000038a .LLST0
     /tmp/cck5lb9f.s:50     .text:000000000000003c .LVL2
     /tmp/cck5lb9f.s:57     .text:0000000000000050 .LVL3
     /tmp/cck5lb9f.s:64     .text:000000000000005c .LVL4
     /tmp/cck5lb9f.s:71     .text:0000000000000070 .LVL5
     /tmp/cck5lb9f.s:78     .text:000000000000007c .LVL6
     /tmp/cck5lb9f.s:85     .text:0000000000000090 .LVL7
     /tmp/cck5lb9f.s:92     .text:000000000000009c .LVL8
     /tmp/cck5lb9f.s:99     .text:00000000000000b0 .LVL9
     /tmp/cck5lb9f.s:108    .text:00000000000000c4 .LVL11
     /tmp/cck5lb9f.s:112    .text:00000000000000d0 .LVL12
     /tmp/cck5lb9f.s:120    .text:00000000000000e0 .LVL14
     /tmp/cck5lb9f.s:124    .text:00000000000000ec .LVL15
     /tmp/cck5lb9f.s:132    .text:00000000000000fc .LVL17
     /tmp/cck5lb9f.s:136    .text:0000000000000108 .LVL18
     /tmp/cck5lb9f.s:144    .text:0000000000000118 .LVL20
     /tmp/cck5lb9f.s:148    .text:0000000000000124 .LVL21
     /tmp/cck5lb9f.s:4601   .debug_str:00000000000001bc .LASF214
     /tmp/cck5lb9f.s:4971   .debug_str:0000000000000d6c .LASF200
     /tmp/cck5lb9f.s:4975   .debug_str:0000000000000d8b .LASF202
     /tmp/cck5lb9f.s:4881   .debug_str:00000000000009bd .LASF201
     /tmp/cck5lb9f.s:4679   .debug_str:00000000000003c3 .LASF203
     /tmp/cck5lb9f.s:4577   .debug_str:00000000000000fb .LASF204
     /tmp/cck5lb9f.s:4805   .debug_str:00000000000007b1 .LASF205
     /tmp/cck5lb9f.s:4955   .debug_str:0000000000000cfb .LASF215
     /tmp/cck5lb9f.s:4675   .debug_str:000000000000039d .LASF216
     /tmp/cck5lb9f.s:777    .text:0000000000000484 .LVL81
     /tmp/cck5lb9f.s:794    .text:00000000000004a4 .LVL82
     /tmp/cck5lb9f.s:843    .text:0000000000000508 .LVL88
     /tmp/cck5lb9f.s:808    .text:00000000000004c4 .LVL85
     /tmp/cck5lb9f.s:846    .text:000000000000050c .LVL89
     /tmp/cck5lb9f.s:697    .text:00000000000003f4 .LVL74
     /tmp/cck5lb9f.s:715    .text:0000000000000418 .LVL75
     /tmp/cck5lb9f.s:761    .text:0000000000000478 .LVL80
     /tmp/cck5lb9f.s:614    .text:0000000000000364 .LVL65
     /tmp/cck5lb9f.s:631    .text:0000000000000384 .LVL66
     /tmp/cck5lb9f.s:680    .text:00000000000003e8 .LVL72
GAS LISTING /tmp/cck5lb9f.s 			page 30


     /tmp/cck5lb9f.s:645    .text:00000000000003a4 .LVL69
     /tmp/cck5lb9f.s:683    .text:00000000000003ec .LVL73
     /tmp/cck5lb9f.s:454    .text:0000000000000274 .LVL46
     /tmp/cck5lb9f.s:481    .text:000000000000029c .LVL48
     /tmp/cck5lb9f.s:589    .text:0000000000000358 .LVL64
     /tmp/cck5lb9f.s:474    .text:0000000000000298 .LVL47
     /tmp/cck5lb9f.s:496    .text:00000000000002b8 .LVL51
     /tmp/cck5lb9f.s:522    .text:00000000000002e0 .LVL54
     /tmp/cck5lb9f.s:542    .text:0000000000000300 .LVL57
     /tmp/cck5lb9f.s:236    .text:000000000000013c .LVL23
     /tmp/cck5lb9f.s:266    .text:000000000000016c .LVL24
     /tmp/cck5lb9f.s:323    .text:00000000000001f0 .LVL33
     /tmp/cck5lb9f.s:335    .text:000000000000020c .LVL36
     /tmp/cck5lb9f.s:347    .text:0000000000000228 .LVL39
     /tmp/cck5lb9f.s:359    .text:0000000000000244 .LVL42
     /tmp/cck5lb9f.s:379    .text:0000000000000268 .LVL45
     /tmp/cck5lb9f.s:16     .text:0000000000000000 .LVL0
     /tmp/cck5lb9f.s:47     .text:0000000000000034 .LVL1
     /tmp/cck5lb9f.s:104    .text:00000000000000b8 .LVL10
     /tmp/cck5lb9f.s:116    .text:00000000000000d4 .LVL13
     /tmp/cck5lb9f.s:128    .text:00000000000000f0 .LVL16
     /tmp/cck5lb9f.s:140    .text:000000000000010c .LVL19
     /tmp/cck5lb9f.s:160    .text:0000000000000130 .LVL22
     /tmp/cck5lb9f.s:860    .debug_info:0000000000000000 .Ldebug_info0
     /tmp/cck5lb9f.s:170    .gcc_except_table:0000000000000000 .LLSDA65
     /tmp/cck5lb9f.s:388    .gcc_except_table:00000000000000a1 .LLSDA68
     /tmp/cck5lb9f.s:598    .gcc_except_table:0000000000000142 .LLSDA71

UNDEFINED SYMBOLS
_ZN4_semnwEm
_ZN4_semC1EPPS_j
_ZN4_semdlEPv
_Unwind_Resume
__gxx_personality_v0
_ZN4_sem5closeEv
_Z9sem_closeP4_sem
_Z8sem_waitP4_sem
_Z10sem_signalP4_sem
_ZN4_sem4waitEv
_ZN4_sem6signalEv
