GAS LISTING /tmp/ccH7aWCj.s 			page 1


   1              		.file	"Descriptor.cpp"
   2              		.option pic
   3              		.option norelax
   4              		.text
   5              	.Ltext0:
   6              		.align	2
   7              		.globl	_Z6insertPP10DescriptorS0_
   9              	_Z6insertPP10DescriptorS0_:
  10              	.LFB0:
  11              		.file 1 "src/Descriptor.cpp"
   1:src/Descriptor.cpp **** //
   2:src/Descriptor.cpp **** // Created by os on 8/24/22.
   3:src/Descriptor.cpp **** //
   4:src/Descriptor.cpp **** #include "../h/Descriptor.hpp"
   5:src/Descriptor.cpp **** void insert(Descriptor** head,Descriptor*des){
  12              		.loc 1 5 46
  13              		.cfi_startproc
  14              	.LVL0:
  15 0000 130101FF 		addi	sp,sp,-16
  16              		.cfi_def_cfa_offset 16
  17 0004 23348100 		sd	s0,8(sp)
  18              		.cfi_offset 8, -8
  19 0008 13040101 		addi	s0,sp,16
  20              		.cfi_def_cfa 8, 0
   6:src/Descriptor.cpp ****     if(!(*head)){
  21              		.loc 1 6 5
  22              	.LBB2:
  23              		.loc 1 6 10 is_stmt 0
  24 000c 03370500 		ld	a4,0(a0)
  25              		.loc 1 6 5
  26 0010 63000702 		beqz	a4,.L9
  27              	.LBB3:
   7:src/Descriptor.cpp ****         //ako je lista prazna
   8:src/Descriptor.cpp ****         *head=des;
   9:src/Descriptor.cpp ****         return;
  10:src/Descriptor.cpp ****     }else{
  11:src/Descriptor.cpp ****         //ako lista nije prazna
  12:src/Descriptor.cpp ****         Descriptor *head_m =*head;
  28              		.loc 1 12 9 is_stmt 1
  29              	.LVL1:
  13:src/Descriptor.cpp **** 
  14:src/Descriptor.cpp ****         if(des<head_m){
  30              		.loc 1 14 9
  31 0014 63E2E502 		bgtu	a4,a1,.L10
  15:src/Descriptor.cpp ****             //ako je prvi
  16:src/Descriptor.cpp ****             des->next=head_m;
  17:src/Descriptor.cpp ****             head_m->prev=des;
  18:src/Descriptor.cpp ****             *head=des;
  19:src/Descriptor.cpp ****             return;
  20:src/Descriptor.cpp ****         }
  21:src/Descriptor.cpp ****         Descriptor *cur = head_m->next;
  32              		.loc 1 21 9
  33              		.loc 1 21 21 is_stmt 0
  34 0018 83370700 		ld	a5,0(a4)
  35              	.LVL2:
  22:src/Descriptor.cpp ****         Descriptor *prev=head_m;
  36              		.loc 1 22 9 is_stmt 1
GAS LISTING /tmp/ccH7aWCj.s 			page 2


  37              	.L7:
  23:src/Descriptor.cpp ****         while(cur){
  38              		.loc 1 23 9
  39              		.loc 1 23 15
  40 001c 63840704 		beqz	a5,.L5
  24:src/Descriptor.cpp ****             //ako je u sredini
  25:src/Descriptor.cpp ****             if(des<cur) {
  41              		.loc 1 25 13
  42 0020 63E8F502 		bgtu	a5,a1,.L11
  26:src/Descriptor.cpp ****                 prev->next = des;
  27:src/Descriptor.cpp ****                 cur->prev = des;
  28:src/Descriptor.cpp ****                 des->next = cur;
  29:src/Descriptor.cpp ****                 des->prev = prev;
  30:src/Descriptor.cpp ****                 return;
  31:src/Descriptor.cpp ****             }
  32:src/Descriptor.cpp ****             prev=cur;
  43              		.loc 1 32 13
  44              	.LVL3:
  33:src/Descriptor.cpp ****             cur=cur->next;
  45              		.loc 1 33 13
  32:src/Descriptor.cpp ****             cur=cur->next;
  46              		.loc 1 32 17 is_stmt 0
  47 0024 13870700 		mv	a4,a5
  48              		.loc 1 33 16
  49 0028 83B70700 		ld	a5,0(a5)
  50              	.LVL4:
  23:src/Descriptor.cpp ****             //ako je u sredini
  51              		.loc 1 23 9
  52 002c 6FF01FFF 		j	.L7
  53              	.LVL5:
  54              	.L9:
  55              	.LBE3:
   8:src/Descriptor.cpp ****         return;
  56              		.loc 1 8 9 is_stmt 1
   8:src/Descriptor.cpp ****         return;
  57              		.loc 1 8 14 is_stmt 0
  58 0030 2330B500 		sd	a1,0(a0)
   9:src/Descriptor.cpp ****     }else{
  59              		.loc 1 9 9 is_stmt 1
  60 0034 6F000001 		j	.L1
  61              	.LVL6:
  62              	.L10:
  63              	.LBB4:
  16:src/Descriptor.cpp ****             head_m->prev=des;
  64              		.loc 1 16 13
  16:src/Descriptor.cpp ****             head_m->prev=des;
  65              		.loc 1 16 22 is_stmt 0
  66 0038 23B0E500 		sd	a4,0(a1)
  17:src/Descriptor.cpp ****             *head=des;
  67              		.loc 1 17 13 is_stmt 1
  17:src/Descriptor.cpp ****             *head=des;
  68              		.loc 1 17 25 is_stmt 0
  69 003c 2334B700 		sd	a1,8(a4)
  18:src/Descriptor.cpp ****             return;
  70              		.loc 1 18 13 is_stmt 1
  18:src/Descriptor.cpp ****             return;
  71              		.loc 1 18 18 is_stmt 0
GAS LISTING /tmp/ccH7aWCj.s 			page 3


  72 0040 2330B500 		sd	a1,0(a0)
  19:src/Descriptor.cpp ****         }
  73              		.loc 1 19 13 is_stmt 1
  74              	.LVL7:
  75              	.L1:
  76              	.LBE4:
  77              	.LBE2:
  34:src/Descriptor.cpp ****         }
  35:src/Descriptor.cpp ****         //ako je na kraju
  36:src/Descriptor.cpp ****         prev->next=des;
  37:src/Descriptor.cpp ****         des->prev=prev;
  38:src/Descriptor.cpp **** 
  39:src/Descriptor.cpp ****     }
  40:src/Descriptor.cpp **** }
  78              		.loc 1 40 1 is_stmt 0
  79 0044 03348100 		ld	s0,8(sp)
  80              		.cfi_remember_state
  81              		.cfi_restore 8
  82              		.cfi_def_cfa 2, 16
  83 0048 13010101 		addi	sp,sp,16
  84              		.cfi_def_cfa_offset 0
  85 004c 67800000 		jr	ra
  86              	.LVL8:
  87              	.L11:
  88              		.cfi_restore_state
  89              	.LBB6:
  90              	.LBB5:
  26:src/Descriptor.cpp ****                 cur->prev = des;
  91              		.loc 1 26 17 is_stmt 1
  26:src/Descriptor.cpp ****                 cur->prev = des;
  92              		.loc 1 26 28 is_stmt 0
  93 0050 2330B700 		sd	a1,0(a4)
  94              	.LVL9:
  27:src/Descriptor.cpp ****                 des->next = cur;
  95              		.loc 1 27 17 is_stmt 1
  27:src/Descriptor.cpp ****                 des->next = cur;
  96              		.loc 1 27 27 is_stmt 0
  97 0054 23B4B700 		sd	a1,8(a5)
  28:src/Descriptor.cpp ****                 des->prev = prev;
  98              		.loc 1 28 17 is_stmt 1
  28:src/Descriptor.cpp ****                 des->prev = prev;
  99              		.loc 1 28 27 is_stmt 0
 100 0058 23B0F500 		sd	a5,0(a1)
  29:src/Descriptor.cpp ****                 return;
 101              		.loc 1 29 17 is_stmt 1
  29:src/Descriptor.cpp ****                 return;
 102              		.loc 1 29 27 is_stmt 0
 103 005c 23B4E500 		sd	a4,8(a1)
  30:src/Descriptor.cpp ****             }
 104              		.loc 1 30 17 is_stmt 1
 105 0060 6FF05FFE 		j	.L1
 106              	.LVL10:
 107              	.L5:
  36:src/Descriptor.cpp ****         des->prev=prev;
 108              		.loc 1 36 9
  36:src/Descriptor.cpp ****         des->prev=prev;
 109              		.loc 1 36 19 is_stmt 0
GAS LISTING /tmp/ccH7aWCj.s 			page 4


 110 0064 2330B700 		sd	a1,0(a4)
 111              	.LVL11:
  37:src/Descriptor.cpp **** 
 112              		.loc 1 37 9 is_stmt 1
  37:src/Descriptor.cpp **** 
 113              		.loc 1 37 18 is_stmt 0
 114 0068 23B4E500 		sd	a4,8(a1)
 115 006c 6FF09FFD 		j	.L1
 116              	.LBE5:
 117              	.LBE6:
 118              		.cfi_endproc
 119              	.LFE0:
 121              		.align	2
 122              		.globl	_Z6removePP10DescriptorS0_
 124              	_Z6removePP10DescriptorS0_:
 125              	.LFB1:
  41:src/Descriptor.cpp **** void remove(Descriptor**head_p,Descriptor*des){
 126              		.loc 1 41 47 is_stmt 1
 127              		.cfi_startproc
 128              	.LVL12:
 129 0070 130101FF 		addi	sp,sp,-16
 130              		.cfi_def_cfa_offset 16
 131 0074 23348100 		sd	s0,8(sp)
 132              		.cfi_offset 8, -8
 133 0078 13040101 		addi	s0,sp,16
 134              		.cfi_def_cfa 8, 0
  42:src/Descriptor.cpp ****     if(!des)return;
 135              		.loc 1 42 5
 136 007c 63880502 		beqz	a1,.L12
  43:src/Descriptor.cpp ****     if(!head_p)return;
 137              		.loc 1 43 5
 138 0080 63060502 		beqz	a0,.L12
  44:src/Descriptor.cpp ****     Descriptor *head=*head_p;
 139              		.loc 1 44 5
 140              		.loc 1 44 17 is_stmt 0
 141 0084 83370500 		ld	a5,0(a0)
 142              	.LVL13:
  45:src/Descriptor.cpp ****     if(head==des){
 143              		.loc 1 45 5 is_stmt 1
 144 0088 6388F502 		beq	a1,a5,.L18
  46:src/Descriptor.cpp ****         *head_p=head->next;
  47:src/Descriptor.cpp ****         if(*head_p){
  48:src/Descriptor.cpp ****             (*head_p)->prev= nullptr;
  49:src/Descriptor.cpp ****         }
  50:src/Descriptor.cpp ****         des->next= nullptr;
  51:src/Descriptor.cpp ****         des->prev= nullptr;
  52:src/Descriptor.cpp **** 
  53:src/Descriptor.cpp ****     }else {
  54:src/Descriptor.cpp ****         des->prev->next = des->next;
 145              		.loc 1 54 9
 146              		.loc 1 54 14 is_stmt 0
 147 008c 03B78500 		ld	a4,8(a1)
 148              		.loc 1 54 32
 149 0090 83B70500 		ld	a5,0(a1)
 150              	.LVL14:
 151              		.loc 1 54 25
 152 0094 2330F700 		sd	a5,0(a4)
GAS LISTING /tmp/ccH7aWCj.s 			page 5


 153              	.LVL15:
  55:src/Descriptor.cpp **** 
  56:src/Descriptor.cpp ****         if (des->next) {
 154              		.loc 1 56 9 is_stmt 1
 155 0098 63860700 		beqz	a5,.L16
  57:src/Descriptor.cpp ****             des->next->prev = des->prev;
 156              		.loc 1 57 13
 157              		.loc 1 57 36 is_stmt 0
 158 009c 03B78500 		ld	a4,8(a1)
 159              		.loc 1 57 29
 160 00a0 23B4E700 		sd	a4,8(a5)
 161              	.L16:
  58:src/Descriptor.cpp ****         }
  59:src/Descriptor.cpp ****         des->next = nullptr;
 162              		.loc 1 59 9 is_stmt 1
 163              		.loc 1 59 19 is_stmt 0
 164 00a4 23B00500 		sd	zero,0(a1)
  60:src/Descriptor.cpp ****         des->prev = nullptr;
 165              		.loc 1 60 9 is_stmt 1
 166              		.loc 1 60 19 is_stmt 0
 167 00a8 23B40500 		sd	zero,8(a1)
 168              	.L12:
  61:src/Descriptor.cpp ****     }
  62:src/Descriptor.cpp **** }
 169              		.loc 1 62 1
 170 00ac 03348100 		ld	s0,8(sp)
 171              		.cfi_remember_state
 172              		.cfi_restore 8
 173              		.cfi_def_cfa 2, 16
 174 00b0 13010101 		addi	sp,sp,16
 175              		.cfi_def_cfa_offset 0
 176 00b4 67800000 		jr	ra
 177              	.LVL16:
 178              	.L18:
 179              		.cfi_restore_state
  46:src/Descriptor.cpp ****         if(*head_p){
 180              		.loc 1 46 9 is_stmt 1
  46:src/Descriptor.cpp ****         if(*head_p){
 181              		.loc 1 46 23 is_stmt 0
 182 00b8 83B70700 		ld	a5,0(a5)
 183              	.LVL17:
  46:src/Descriptor.cpp ****         if(*head_p){
 184              		.loc 1 46 16
 185 00bc 2330F500 		sd	a5,0(a0)
 186              	.LVL18:
  47:src/Descriptor.cpp ****             (*head_p)->prev= nullptr;
 187              		.loc 1 47 9 is_stmt 1
 188 00c0 63840700 		beqz	a5,.L15
  48:src/Descriptor.cpp ****         }
 189              		.loc 1 48 13
  48:src/Descriptor.cpp ****         }
 190              		.loc 1 48 28 is_stmt 0
 191 00c4 23B40700 		sd	zero,8(a5)
 192              	.L15:
  50:src/Descriptor.cpp ****         des->prev= nullptr;
 193              		.loc 1 50 9 is_stmt 1
  50:src/Descriptor.cpp ****         des->prev= nullptr;
GAS LISTING /tmp/ccH7aWCj.s 			page 6


 194              		.loc 1 50 18 is_stmt 0
 195 00c8 23B00500 		sd	zero,0(a1)
  51:src/Descriptor.cpp **** 
 196              		.loc 1 51 9 is_stmt 1
  51:src/Descriptor.cpp **** 
 197              		.loc 1 51 18 is_stmt 0
 198 00cc 23B40500 		sd	zero,8(a1)
 199 00d0 6FF0DFFD 		j	.L12
 200              		.cfi_endproc
 201              	.LFE1:
 203              		.align	2
 204              		.globl	_Z6formatP10Descriptor
 206              	_Z6formatP10Descriptor:
 207              	.LFB2:
  63:src/Descriptor.cpp **** void format(Descriptor*cur){
 208              		.loc 1 63 28 is_stmt 1
 209              		.cfi_startproc
 210              	.LVL19:
 211 00d4 130101FF 		addi	sp,sp,-16
 212              		.cfi_def_cfa_offset 16
 213 00d8 23348100 		sd	s0,8(sp)
 214              		.cfi_offset 8, -8
 215 00dc 13040101 		addi	s0,sp,16
 216              		.cfi_def_cfa 8, 0
  64:src/Descriptor.cpp **** 
  65:src/Descriptor.cpp ****     if(!cur)return;
 217              		.loc 1 65 5
 218 00e0 630E0500 		beqz	a0,.L19
  66:src/Descriptor.cpp ****     if(cur->next &&(char *)cur+cur->size+MEM_BLOCK_SIZE==(char *)(cur->next)){
 219              		.loc 1 66 5
 220              		.loc 1 66 13 is_stmt 0
 221 00e4 83370500 		ld	a5,0(a0)
 222              		.loc 1 66 5
 223 00e8 638A0700 		beqz	a5,.L19
 224              		.loc 1 66 37 discriminator 1
 225 00ec 83360501 		ld	a3,16(a0)
 226              		.loc 1 66 41 discriminator 1
 227 00f0 13870604 		addi	a4,a3,64
 228 00f4 3307E500 		add	a4,a0,a4
 229              		.loc 1 66 18 discriminator 1
 230 00f8 6388E700 		beq	a5,a4,.L23
 231              	.L19:
  67:src/Descriptor.cpp ****         cur->size+=cur->next->size+MEM_BLOCK_SIZE;
  68:src/Descriptor.cpp ****         cur->next=cur->next->next;
  69:src/Descriptor.cpp ****         if(cur->next)cur->next->prev=cur;
  70:src/Descriptor.cpp ****         return;
  71:src/Descriptor.cpp ****     }
  72:src/Descriptor.cpp **** }
 232              		.loc 1 72 1
 233 00fc 03348100 		ld	s0,8(sp)
 234              		.cfi_remember_state
 235              		.cfi_restore 8
 236              		.cfi_def_cfa 2, 16
 237 0100 13010101 		addi	sp,sp,16
 238              		.cfi_def_cfa_offset 0
 239 0104 67800000 		jr	ra
 240              	.L23:
GAS LISTING /tmp/ccH7aWCj.s 			page 7


 241              		.cfi_restore_state
  67:src/Descriptor.cpp ****         cur->size+=cur->next->size+MEM_BLOCK_SIZE;
 242              		.loc 1 67 9 is_stmt 1
  67:src/Descriptor.cpp ****         cur->size+=cur->next->size+MEM_BLOCK_SIZE;
 243              		.loc 1 67 31 is_stmt 0
 244 0108 03B70701 		ld	a4,16(a5)
  67:src/Descriptor.cpp ****         cur->size+=cur->next->size+MEM_BLOCK_SIZE;
 245              		.loc 1 67 18
 246 010c B386E600 		add	a3,a3,a4
 247 0110 93860604 		addi	a3,a3,64
 248 0114 2338D500 		sd	a3,16(a0)
  68:src/Descriptor.cpp ****         if(cur->next)cur->next->prev=cur;
 249              		.loc 1 68 9 is_stmt 1
  68:src/Descriptor.cpp ****         if(cur->next)cur->next->prev=cur;
 250              		.loc 1 68 30 is_stmt 0
 251 0118 83B70700 		ld	a5,0(a5)
  68:src/Descriptor.cpp ****         if(cur->next)cur->next->prev=cur;
 252              		.loc 1 68 18
 253 011c 2330F500 		sd	a5,0(a0)
  69:src/Descriptor.cpp ****         return;
 254              		.loc 1 69 9 is_stmt 1
 255 0120 E38E07FC 		beqz	a5,.L19
  69:src/Descriptor.cpp ****         return;
 256              		.loc 1 69 22 discriminator 1
  69:src/Descriptor.cpp ****         return;
 257              		.loc 1 69 37 is_stmt 0 discriminator 1
 258 0124 23B4A700 		sd	a0,8(a5)
  70:src/Descriptor.cpp ****     }
 259              		.loc 1 70 9 is_stmt 1 discriminator 1
 260 0128 6FF05FFD 		j	.L19
 261              		.cfi_endproc
 262              	.LFE2:
 264              		.align	2
 265              		.globl	_Z7convertm
 267              	_Z7convertm:
 268              	.LFB3:
  73:src/Descriptor.cpp **** size_t convert(size_t size){
 269              		.loc 1 73 28
 270              		.cfi_startproc
 271              	.LVL20:
 272 012c 130101FF 		addi	sp,sp,-16
 273              		.cfi_def_cfa_offset 16
 274 0130 23348100 		sd	s0,8(sp)
 275              		.cfi_offset 8, -8
 276 0134 13040101 		addi	s0,sp,16
 277              		.cfi_def_cfa 8, 0
  74:src/Descriptor.cpp ****     if(size%MEM_BLOCK_SIZE==0){
 278              		.loc 1 74 5
 279              		.loc 1 74 12 is_stmt 0
 280 0138 9377F503 		andi	a5,a0,63
 281              		.loc 1 74 5
 282 013c 63880700 		beqz	a5,.L25
  75:src/Descriptor.cpp ****         return size;
  76:src/Descriptor.cpp ****     }else{
  77:src/Descriptor.cpp ****         return (size/MEM_BLOCK_SIZE+1)*MEM_BLOCK_SIZE;
 283              		.loc 1 77 9 is_stmt 1
 284              		.loc 1 77 21 is_stmt 0
GAS LISTING /tmp/ccH7aWCj.s 			page 8


 285 0140 13556500 		srli	a0,a0,6
 286              	.LVL21:
 287              		.loc 1 77 36
 288 0144 13051500 		addi	a0,a0,1
 289              		.loc 1 77 40
 290 0148 13156500 		slli	a0,a0,6
 291              	.L25:
  78:src/Descriptor.cpp ****     }
  79:src/Descriptor.cpp **** }...
 292              		.loc 1 79 1
 293 014c 03348100 		ld	s0,8(sp)
 294              		.cfi_restore 8
 295              		.cfi_def_cfa 2, 16
 296 0150 13010101 		addi	sp,sp,16
 297              		.cfi_def_cfa_offset 0
 298 0154 67800000 		jr	ra
 299              		.cfi_endproc
 300              	.LFE3:
 302              	.Letext0:
 303              		.file 2 "src/../h/../lib/hw.h"
 304              		.file 3 "src/../h/Descriptor.hpp"
GAS LISTING /tmp/ccH7aWCj.s 			page 9

