GAS LISTING /tmp/ccAwbUSk.s 			page 1


   1              		.file	"Descriptor.cpp"
   2              		.option pic
   3              		.option norelax
   4              		.text
   5              	.Ltext0:
   6              		.align	2
   7              		.globl	_Z6formatP10Descriptor
   9              	_Z6formatP10Descriptor:
  10              	.LFB0:
  11              		.file 1 "src/Descriptor.cpp"
   1:src/Descriptor.cpp **** //
   2:src/Descriptor.cpp **** // Created by os on 8/24/22.
   3:src/Descriptor.cpp **** //
   4:src/Descriptor.cpp **** #include "../h/Descriptor.hpp"
   5:src/Descriptor.cpp **** 
   6:src/Descriptor.cpp **** void format(Descriptor*cur){
  12              		.loc 1 6 28
  13              		.cfi_startproc
  14              	.LVL0:
  15 0000 130101FF 		addi	sp,sp,-16
  16              		.cfi_def_cfa_offset 16
  17 0004 23348100 		sd	s0,8(sp)
  18              		.cfi_offset 8, -8
  19 0008 13040101 		addi	s0,sp,16
  20              		.cfi_def_cfa 8, 0
   7:src/Descriptor.cpp **** 
   8:src/Descriptor.cpp ****     if(!cur)return;
  21              		.loc 1 8 5
  22 000c 630E0500 		beqz	a0,.L1
   9:src/Descriptor.cpp ****     if(cur->next &&(char *)cur+cur->size+MEM_BLOCK_SIZE==(char *)(cur->next)){
  23              		.loc 1 9 5
  24              		.loc 1 9 13 is_stmt 0
  25 0010 83370500 		ld	a5,0(a0)
  26              		.loc 1 9 5
  27 0014 638A0700 		beqz	a5,.L1
  28              		.loc 1 9 37 discriminator 1
  29 0018 83360501 		ld	a3,16(a0)
  30              		.loc 1 9 41 discriminator 1
  31 001c 13870604 		addi	a4,a3,64
  32 0020 3307E500 		add	a4,a0,a4
  33              		.loc 1 9 18 discriminator 1
  34 0024 6388E700 		beq	a5,a4,.L5
  35              	.L1:
  10:src/Descriptor.cpp ****         cur->size+=cur->next->size+MEM_BLOCK_SIZE;
  11:src/Descriptor.cpp ****         cur->next=cur->next->next;
  12:src/Descriptor.cpp ****         if(cur->next)cur->next->prev=cur;
  13:src/Descriptor.cpp ****         return;
  14:src/Descriptor.cpp ****     }
  15:src/Descriptor.cpp **** }
  36              		.loc 1 15 1
  37 0028 03348100 		ld	s0,8(sp)
  38              		.cfi_remember_state
  39              		.cfi_restore 8
  40              		.cfi_def_cfa 2, 16
  41 002c 13010101 		addi	sp,sp,16
  42              		.cfi_def_cfa_offset 0
  43 0030 67800000 		jr	ra
GAS LISTING /tmp/ccAwbUSk.s 			page 2


  44              	.L5:
  45              		.cfi_restore_state
  10:src/Descriptor.cpp ****         cur->size+=cur->next->size+MEM_BLOCK_SIZE;
  46              		.loc 1 10 9 is_stmt 1
  10:src/Descriptor.cpp ****         cur->size+=cur->next->size+MEM_BLOCK_SIZE;
  47              		.loc 1 10 31 is_stmt 0
  48 0034 03B70701 		ld	a4,16(a5)
  10:src/Descriptor.cpp ****         cur->size+=cur->next->size+MEM_BLOCK_SIZE;
  49              		.loc 1 10 18
  50 0038 B386E600 		add	a3,a3,a4
  51 003c 93860604 		addi	a3,a3,64
  52 0040 2338D500 		sd	a3,16(a0)
  11:src/Descriptor.cpp ****         if(cur->next)cur->next->prev=cur;
  53              		.loc 1 11 9 is_stmt 1
  11:src/Descriptor.cpp ****         if(cur->next)cur->next->prev=cur;
  54              		.loc 1 11 30 is_stmt 0
  55 0044 83B70700 		ld	a5,0(a5)
  11:src/Descriptor.cpp ****         if(cur->next)cur->next->prev=cur;
  56              		.loc 1 11 18
  57 0048 2330F500 		sd	a5,0(a0)
  12:src/Descriptor.cpp ****         return;
  58              		.loc 1 12 9 is_stmt 1
  59 004c E38E07FC 		beqz	a5,.L1
  12:src/Descriptor.cpp ****         return;
  60              		.loc 1 12 22 discriminator 1
  12:src/Descriptor.cpp ****         return;
  61              		.loc 1 12 37 is_stmt 0 discriminator 1
  62 0050 23B4A700 		sd	a0,8(a5)
  13:src/Descriptor.cpp ****     }
  63              		.loc 1 13 9 is_stmt 1 discriminator 1
  64 0054 6FF05FFD 		j	.L1
  65              		.cfi_endproc
  66              	.LFE0:
  68              		.align	2
  69              		.globl	_Z7convertm
  71              	_Z7convertm:
  72              	.LFB1:
  16:src/Descriptor.cpp **** size_t convert(size_t size){
  73              		.loc 1 16 28
  74              		.cfi_startproc
  75              	.LVL1:
  76 0058 130101FF 		addi	sp,sp,-16
  77              		.cfi_def_cfa_offset 16
  78 005c 23348100 		sd	s0,8(sp)
  79              		.cfi_offset 8, -8
  80 0060 13040101 		addi	s0,sp,16
  81              		.cfi_def_cfa 8, 0
  17:src/Descriptor.cpp ****     if(size%MEM_BLOCK_SIZE==0){
  82              		.loc 1 17 5
  83              		.loc 1 17 12 is_stmt 0
  84 0064 9377F503 		andi	a5,a0,63
  85              		.loc 1 17 5
  86 0068 63880700 		beqz	a5,.L7
  18:src/Descriptor.cpp ****         return size;
  19:src/Descriptor.cpp ****     }else{
  20:src/Descriptor.cpp ****         return (size/MEM_BLOCK_SIZE+1)*MEM_BLOCK_SIZE;
  87              		.loc 1 20 9 is_stmt 1
GAS LISTING /tmp/ccAwbUSk.s 			page 3


  88              		.loc 1 20 21 is_stmt 0
  89 006c 13556500 		srli	a0,a0,6
  90              	.LVL2:
  91              		.loc 1 20 36
  92 0070 13051500 		addi	a0,a0,1
  93              		.loc 1 20 40
  94 0074 13156500 		slli	a0,a0,6
  95              	.L7:
  21:src/Descriptor.cpp ****     }
  22:src/Descriptor.cpp **** }...
  96              		.loc 1 22 1
  97 0078 03348100 		ld	s0,8(sp)
  98              		.cfi_restore 8
  99              		.cfi_def_cfa 2, 16
 100 007c 13010101 		addi	sp,sp,16
 101              		.cfi_def_cfa_offset 0
 102 0080 67800000 		jr	ra
 103              		.cfi_endproc
 104              	.LFE1:
 106              	.Letext0:
 107              		.file 2 "src/../h/../lib/hw.h"
 108              		.file 3 "src/../h/Descriptor.hpp"
GAS LISTING /tmp/ccAwbUSk.s 			page 4


DEFINED SYMBOLS
                            *ABS*:0000000000000000 Descriptor.cpp
     /tmp/ccAwbUSk.s:9      .text:0000000000000000 _Z6formatP10Descriptor
     /tmp/ccAwbUSk.s:13     .text:0000000000000000 .L0 
     /tmp/ccAwbUSk.s:15     .text:0000000000000000 .L0 
     /tmp/ccAwbUSk.s:16     .text:0000000000000004 .L0 
     /tmp/ccAwbUSk.s:18     .text:0000000000000008 .L0 
     /tmp/ccAwbUSk.s:20     .text:000000000000000c .L0 
     /tmp/ccAwbUSk.s:22     .text:000000000000000c .L0 
     /tmp/ccAwbUSk.s:24     .text:0000000000000010 .L0 
     /tmp/ccAwbUSk.s:25     .text:0000000000000010 .L0 
     /tmp/ccAwbUSk.s:27     .text:0000000000000014 .L0 
     /tmp/ccAwbUSk.s:29     .text:0000000000000018 .L0 
     /tmp/ccAwbUSk.s:31     .text:000000000000001c .L0 
     /tmp/ccAwbUSk.s:34     .text:0000000000000024 .L0 
     /tmp/ccAwbUSk.s:37     .text:0000000000000028 .L0 
     /tmp/ccAwbUSk.s:38     .text:000000000000002c .L0 
     /tmp/ccAwbUSk.s:39     .text:000000000000002c .L0 
     /tmp/ccAwbUSk.s:40     .text:000000000000002c .L0 
     /tmp/ccAwbUSk.s:42     .text:0000000000000030 .L0 
     /tmp/ccAwbUSk.s:45     .text:0000000000000034 .L0 
     /tmp/ccAwbUSk.s:47     .text:0000000000000034 .L0 
     /tmp/ccAwbUSk.s:48     .text:0000000000000034 .L0 
     /tmp/ccAwbUSk.s:50     .text:0000000000000038 .L0 
     /tmp/ccAwbUSk.s:54     .text:0000000000000044 .L0 
     /tmp/ccAwbUSk.s:55     .text:0000000000000044 .L0 
     /tmp/ccAwbUSk.s:57     .text:0000000000000048 .L0 
     /tmp/ccAwbUSk.s:59     .text:000000000000004c .L0 
     /tmp/ccAwbUSk.s:61     .text:0000000000000050 .L0 
     /tmp/ccAwbUSk.s:62     .text:0000000000000050 .L0 
     /tmp/ccAwbUSk.s:64     .text:0000000000000054 .L0 
     /tmp/ccAwbUSk.s:65     .text:0000000000000058 .L0 
     /tmp/ccAwbUSk.s:71     .text:0000000000000058 _Z7convertm
     /tmp/ccAwbUSk.s:74     .text:0000000000000058 .L0 
     /tmp/ccAwbUSk.s:76     .text:0000000000000058 .L0 
     /tmp/ccAwbUSk.s:77     .text:000000000000005c .L0 
     /tmp/ccAwbUSk.s:79     .text:0000000000000060 .L0 
     /tmp/ccAwbUSk.s:81     .text:0000000000000064 .L0 
     /tmp/ccAwbUSk.s:83     .text:0000000000000064 .L0 
     /tmp/ccAwbUSk.s:84     .text:0000000000000064 .L0 
     /tmp/ccAwbUSk.s:86     .text:0000000000000068 .L0 
     /tmp/ccAwbUSk.s:88     .text:000000000000006c .L0 
     /tmp/ccAwbUSk.s:89     .text:000000000000006c .L0 
     /tmp/ccAwbUSk.s:92     .text:0000000000000070 .L0 
     /tmp/ccAwbUSk.s:94     .text:0000000000000074 .L0 
     /tmp/ccAwbUSk.s:97     .text:0000000000000078 .L0 
     /tmp/ccAwbUSk.s:98     .text:000000000000007c .L0 
     /tmp/ccAwbUSk.s:99     .text:000000000000007c .L0 
     /tmp/ccAwbUSk.s:101    .text:0000000000000080 .L0 
     /tmp/ccAwbUSk.s:103    .text:0000000000000084 .L0 
     /tmp/ccAwbUSk.s:109    .text:0000000000000084 .L0 
     /tmp/ccAwbUSk.s:35     .text:0000000000000028 .L1
     /tmp/ccAwbUSk.s:44     .text:0000000000000034 .L5
     /tmp/ccAwbUSk.s:95     .text:0000000000000078 .L7
     /tmp/ccAwbUSk.s:325    .debug_abbrev:0000000000000000 .Ldebug_abbrev0
     /tmp/ccAwbUSk.s:654    .debug_str:0000000000000129 .LASF22
     /tmp/ccAwbUSk.s:638    .debug_str:00000000000000a7 .LASF23
GAS LISTING /tmp/ccAwbUSk.s 			page 5


     /tmp/ccAwbUSk.s:658    .debug_str:00000000000001fc .LASF24
     /tmp/ccAwbUSk.s:5      .text:0000000000000000 .Ltext0
     /tmp/ccAwbUSk.s:106    .text:0000000000000084 .Letext0
     /tmp/ccAwbUSk.s:610    .debug_line:0000000000000000 .Ldebug_line0
     /tmp/ccAwbUSk.s:614    .debug_str:000000000000000c .LASF0
     /tmp/ccAwbUSk.s:652    .debug_str:0000000000000116 .LASF1
     /tmp/ccAwbUSk.s:640    .debug_str:00000000000000ba .LASF2
     /tmp/ccAwbUSk.s:634    .debug_str:000000000000009b .LASF4
     /tmp/ccAwbUSk.s:626    .debug_str:0000000000000054 .LASF3
     /tmp/ccAwbUSk.s:620    .debug_str:0000000000000036 .LASF5
     /tmp/ccAwbUSk.s:632    .debug_str:0000000000000088 .LASF6
     /tmp/ccAwbUSk.s:650    .debug_str:0000000000000103 .LASF7
     /tmp/ccAwbUSk.s:660    .debug_str:000000000000021b .LASF8
     /tmp/ccAwbUSk.s:616    .debug_str:0000000000000019 .LASF9
     /tmp/ccAwbUSk.s:618    .debug_str:0000000000000027 .LASF10
     /tmp/ccAwbUSk.s:656    .debug_str:00000000000001ed .LASF11
     /tmp/ccAwbUSk.s:622    .debug_str:000000000000003d .LASF12
     /tmp/ccAwbUSk.s:664    .debug_str:0000000000000230 .LASF13
     /tmp/ccAwbUSk.s:612    .debug_str:0000000000000000 .LASF14
     /tmp/ccAwbUSk.s:646    .debug_str:00000000000000e6 .LASF15
     /tmp/ccAwbUSk.s:642    .debug_str:00000000000000c8 .LASF16
     /tmp/ccAwbUSk.s:628    .debug_str:0000000000000066 .LASF21
     /tmp/ccAwbUSk.s:668    .debug_str:000000000000024c .LASF17
     /tmp/ccAwbUSk.s:662    .debug_str:000000000000022b .LASF18
     /tmp/ccAwbUSk.s:636    .debug_str:00000000000000a2 .LASF19
     /tmp/ccAwbUSk.s:624    .debug_str:000000000000004d .LASF20
     /tmp/ccAwbUSk.s:644    .debug_str:00000000000000de .LASF25
     /tmp/ccAwbUSk.s:666    .debug_str:0000000000000240 .LASF26
     /tmp/ccAwbUSk.s:72     .text:0000000000000058 .LFB1
     /tmp/ccAwbUSk.s:104    .text:0000000000000084 .LFE1
     /tmp/ccAwbUSk.s:583    .debug_loc:0000000000000000 .LLST0
     /tmp/ccAwbUSk.s:648    .debug_str:00000000000000fc .LASF27
     /tmp/ccAwbUSk.s:630    .debug_str:0000000000000071 .LASF28
     /tmp/ccAwbUSk.s:10     .text:0000000000000000 .LFB0
     /tmp/ccAwbUSk.s:66     .text:0000000000000058 .LFE0
     /tmp/ccAwbUSk.s:75     .text:0000000000000058 .LVL1
     /tmp/ccAwbUSk.s:90     .text:0000000000000070 .LVL2
     /tmp/ccAwbUSk.s:110    .debug_info:0000000000000000 .Ldebug_info0

NO UNDEFINED SYMBOLS
