GAS LISTING /tmp/ccy2p691.s 			page 1


   1              		.file	"global.cpp"
   2              		.option pic
   3              		.option norelax
   4              		.text
   5              	.Ltext0:
   6              		.align	2
   7              		.globl	_ZN4Idle11idleWrapperEPv
   9              	_ZN4Idle11idleWrapperEPv:
  10              	.LFB95:
  11              		.file 1 "src/global.cpp"
   1:src/global.cpp **** //
   2:src/global.cpp **** // Created by os on 8/23/22.
   3:src/global.cpp **** //
   4:src/global.cpp **** #include "../h/globals.hpp"
   5:src/global.cpp **** _Buffer * StruLisBuf::bufferIn = nullptr;
   6:src/global.cpp **** _Buffer * StruLisBuf::bufferOut = nullptr;
   7:src/global.cpp **** TimeList * StruLisBuf::timelist = nullptr;
   8:src/global.cpp **** TCB *Idle::idle = nullptr;
   9:src/global.cpp **** TCB *Kernel::kernel = nullptr;
  10:src/global.cpp **** TCB *Output::output = nullptr;
  11:src/global.cpp **** 
  12:src/global.cpp **** TCB* Idle::getIdle() {
  13:src/global.cpp ****     if(!idle) {
  14:src/global.cpp ****         idle = initThreadWithNoRun(idleWrapper, nullptr, (uint64 *) __mem_alloc(sizeof(uint64) * DE
  15:src/global.cpp ****         idle->status.delAll();
  16:src/global.cpp ****         idle->status.setIdle();
  17:src/global.cpp ****         idle->status.setSystematic();
  18:src/global.cpp ****     }
  19:src/global.cpp ****     return idle;
  20:src/global.cpp **** }
  21:src/global.cpp **** void Idle::idleWrapper(void*) {
  12              		.loc 1 21 31
  13              		.cfi_startproc
  14 0000 130101FF 		addi	sp,sp,-16
  15              		.cfi_def_cfa_offset 16
  16 0004 23341100 		sd	ra,8(sp)
  17 0008 23308100 		sd	s0,0(sp)
  18              		.cfi_offset 1, -8
  19              		.cfi_offset 8, -16
  20 000c 13040101 		addi	s0,sp,16
  21              		.cfi_def_cfa 8, 0
  22              	.L2:
  22:src/global.cpp **** 
  23:src/global.cpp ****     while(true){
  23              		.loc 1 23 5 discriminator 1
  24:src/global.cpp ****         thread_dispatch();
  24              		.loc 1 24 9 discriminator 1
  25              		.loc 1 24 24 is_stmt 0 discriminator 1
  26 0010 97000000 		call	_Z15thread_dispatchv@plt
  26      E7800000 
  27              	.LVL0:
  23:src/global.cpp ****         thread_dispatch();
  28              		.loc 1 23 5 is_stmt 1 discriminator 1
  29 0018 6FF09FFF 		j	.L2
  30              		.cfi_endproc
  31              	.LFE95:
  33              		.align	2
GAS LISTING /tmp/ccy2p691.s 			page 2


  34              		.globl	_ZN6Output15outputThWrapperEPv
  36              	_ZN6Output15outputThWrapperEPv:
  37              	.LFB98:
  25:src/global.cpp ****     }
  26:src/global.cpp **** }
  27:src/global.cpp **** 
  28:src/global.cpp **** TCB* Kernel::getKernel() {
  29:src/global.cpp ****     if(kernel)return kernel;
  30:src/global.cpp ****     kernel=new TCB();
  31:src/global.cpp **** 
  32:src/global.cpp ****     kernel->status.setSystematic();
  33:src/global.cpp ****     running=kernel;
  34:src/global.cpp ****     return kernel;
  35:src/global.cpp **** }
  36:src/global.cpp **** TCB*Output::getOutputTh() {
  37:src/global.cpp ****     if(output)return output;
  38:src/global.cpp ****     output= initThreadWithRun(outputThWrapper, nullptr, (uint64*)__mem_alloc(sizeof(uint64) * DEFAU
  39:src/global.cpp ****     output->status.setSystematic();
  40:src/global.cpp **** 
  41:src/global.cpp ****     return output;
  42:src/global.cpp **** }
  43:src/global.cpp **** void Output::outputThWrapper(void *) {
  38              		.loc 1 43 38
  39              		.cfi_startproc
  40              	.L8:
  44:src/global.cpp ****     while(true){
  41              		.loc 1 44 5
  42              	.LBB45:
  45:src/global.cpp ****         while (*((char*)CONSOLE_STATUS) & CONSOLE_TX_STATUS_BIT){
  43              		.loc 1 45 9
  44              		.loc 1 45 43
  45              		.loc 1 45 16 is_stmt 0
  46 001c 97070000 		la	a5,CONSOLE_STATUS
  46      83B70700 
  47 0024 83B70700 		ld	a5,0(a5)
  48 0028 83C70700 		lbu	a5,0(a5)
  49              		.loc 1 45 43
  50 002c 93F70702 		andi	a5,a5,32
  51 0030 E38607FE 		beqz	a5,.L8
  52              	.LBE45:
  43:src/global.cpp ****     while(true){
  53              		.loc 1 43 38
  54 0034 130101FF 		addi	sp,sp,-16
  55              		.cfi_def_cfa_offset 16
  56 0038 23341100 		sd	ra,8(sp)
  57 003c 23308100 		sd	s0,0(sp)
  58              		.cfi_offset 1, -8
  59              		.cfi_offset 8, -16
  60 0040 13040101 		addi	s0,sp,16
  61              		.cfi_def_cfa 8, 0
  62              	.L9:
  63              	.LBB47:
  64              	.LBB46:
  46:src/global.cpp ****             char inpChar = StruLisBuf::bufferOut->get();
  65              		.loc 1 46 13 is_stmt 1
  66              		.loc 1 46 54 is_stmt 0
  67 0044 17050000 		ld	a0,.LANCHOR0
GAS LISTING /tmp/ccy2p691.s 			page 3


  67      03350500 
  68 004c 97000000 		call	_ZN7_Buffer3getEv@plt
  68      E7800000 
  69              	.LVL1:
  47:src/global.cpp ****             *((char*)CONSOLE_TX_DATA)=inpChar;
  70              		.loc 1 47 13 is_stmt 1
  71 0054 97070000 		la	a5,CONSOLE_TX_DATA
  71      83B70700 
  72 005c 83B70700 		ld	a5,0(a5)
  73              		.loc 1 47 38 is_stmt 0
  74 0060 2380A700 		sb	a0,0(a5)
  75              	.L5:
  76              	.LBE46:
  77              	.LBE47:
  44:src/global.cpp ****         while (*((char*)CONSOLE_STATUS) & CONSOLE_TX_STATUS_BIT){
  78              		.loc 1 44 5 is_stmt 1
  79              	.LBB48:
  45:src/global.cpp ****             char inpChar = StruLisBuf::bufferOut->get();
  80              		.loc 1 45 9
  45:src/global.cpp ****             char inpChar = StruLisBuf::bufferOut->get();
  81              		.loc 1 45 43
  45:src/global.cpp ****             char inpChar = StruLisBuf::bufferOut->get();
  82              		.loc 1 45 16 is_stmt 0
  83 0064 97070000 		la	a5,CONSOLE_STATUS
  83      83B70700 
  84 006c 83B70700 		ld	a5,0(a5)
  85 0070 83C70700 		lbu	a5,0(a5)
  45:src/global.cpp ****             char inpChar = StruLisBuf::bufferOut->get();
  86              		.loc 1 45 43
  87 0074 93F70702 		andi	a5,a5,32
  88 0078 E38607FE 		beqz	a5,.L5
  89 007c 6FF09FFC 		j	.L9
  90              	.LBE48:
  91              		.cfi_endproc
  92              	.LFE98:
  94              		.align	2
  95              		.globl	_ZN4Idle7getIdleEv
  97              	_ZN4Idle7getIdleEv:
  98              	.LFB94:
  12:src/global.cpp ****     if(!idle) {
  99              		.loc 1 12 22 is_stmt 1
 100              		.cfi_startproc
  13:src/global.cpp ****         idle = initThreadWithNoRun(idleWrapper, nullptr, (uint64 *) __mem_alloc(sizeof(uint64) * DE
 101              		.loc 1 13 5
  13:src/global.cpp ****         idle = initThreadWithNoRun(idleWrapper, nullptr, (uint64 *) __mem_alloc(sizeof(uint64) * DE
 102              		.loc 1 13 8 is_stmt 0
 103 0080 97070000 		ld	a5,.LANCHOR0+8
 103      83B70700 
  13:src/global.cpp ****         idle = initThreadWithNoRun(idleWrapper, nullptr, (uint64 *) __mem_alloc(sizeof(uint64) * DE
 104              		.loc 1 13 5
 105 0088 63880700 		beqz	a5,.L16
  19:src/global.cpp **** }
 106              		.loc 1 19 5 is_stmt 1
  20:src/global.cpp **** void Idle::idleWrapper(void*) {
 107              		.loc 1 20 1 is_stmt 0
 108 008c 17050000 		ld	a0,.LANCHOR0+8
 108      03350500 
GAS LISTING /tmp/ccy2p691.s 			page 4


 109 0094 67800000 		ret
 110              	.L16:
  12:src/global.cpp ****     if(!idle) {
 111              		.loc 1 12 22
 112 0098 130101FF 		addi	sp,sp,-16
 113              		.cfi_def_cfa_offset 16
 114 009c 23341100 		sd	ra,8(sp)
 115 00a0 23308100 		sd	s0,0(sp)
 116              		.cfi_offset 1, -8
 117              		.cfi_offset 8, -16
 118 00a4 13040101 		addi	s0,sp,16
 119              		.cfi_def_cfa 8, 0
  14:src/global.cpp ****         idle->status.delAll();
 120              		.loc 1 14 9 is_stmt 1
  14:src/global.cpp ****         idle->status.delAll();
 121              		.loc 1 14 80 is_stmt 0
 122 00a8 37850000 		li	a0,32768
 123 00ac 97000000 		call	__mem_alloc@plt
 123      E7800000 
 124              	.LVL2:
 125 00b4 13060500 		mv	a2,a0
  14:src/global.cpp ****         idle->status.delAll();
 126              		.loc 1 14 35
 127 00b8 93050000 		li	a1,0
 128 00bc 17050000 		lla	a0,_ZN4Idle11idleWrapperEPv
 128      13050500 
 129 00c4 97000000 		call	_ZN3TCB19initThreadWithNoRunEPFvPvES0_Pm@plt
 129      E7800000 
 130              	.LVL3:
  14:src/global.cpp ****         idle->status.delAll();
 131              		.loc 1 14 14
 132 00cc 97070000 		sd	a0,.LANCHOR0+8,a5
 132      23B0A700 
  15:src/global.cpp ****         idle->status.setIdle();
 133              		.loc 1 15 9 is_stmt 1
 134              	.LVL4:
 135              	.LBB49:
 136              	.LBB50:
 137              		.file 2 "src/../h/tcb.hpp"
   1:src/../h/tcb.hpp **** //
   2:src/../h/tcb.hpp **** // Created by os on 7/30/22.
   3:src/../h/tcb.hpp **** //
   4:src/../h/tcb.hpp **** 
   5:src/../h/tcb.hpp **** #ifndef OSPROJECT_TCB_HPP
   6:src/../h/tcb.hpp **** #define OSPROJECT_TCB_HPP
   7:src/../h/tcb.hpp **** 
   8:src/../h/tcb.hpp **** #include "../lib/hw.h"
   9:src/../h/tcb.hpp **** #include "scheduler.hpp"
  10:src/../h/tcb.hpp **** 
  11:src/../h/tcb.hpp **** class TCB{
  12:src/../h/tcb.hpp **** 
  13:src/../h/tcb.hpp **** public:
  14:src/../h/tcb.hpp ****     ~TCB(){delete[] stack;}
  15:src/../h/tcb.hpp ****     using Body = void (*)(void*);
  16:src/../h/tcb.hpp ****     static TCB *initThreadWithRun(Body body,void *arg,uint64*stack);
  17:src/../h/tcb.hpp ****     static TCB *initThreadWithNoRun(Body body , void*arg,uint64*stack);
  18:src/../h/tcb.hpp ****     static TCB* running;
GAS LISTING /tmp/ccy2p691.s 			page 5


  19:src/../h/tcb.hpp ****     bool isFinished(){return status.getFinished();}
  20:src/../h/tcb.hpp ****     uint64 getTimeSlice(){return timeSlice;}
  21:src/../h/tcb.hpp ****     int start();
  22:src/../h/tcb.hpp ****     int getID(){return myId;}
  23:src/../h/tcb.hpp ****     void *operator new(size_t size) { return __mem_alloc(size); }
  24:src/../h/tcb.hpp ****     void operator delete(void *ptr) { __mem_free(ptr); }
  25:src/../h/tcb.hpp **** protected:
  26:src/../h/tcb.hpp ****     static int idS;
  27:src/../h/tcb.hpp ****     int myId;
  28:src/../h/tcb.hpp ****     explicit TCB(Body body,void *arg, uint64 *stack):
  29:src/../h/tcb.hpp ****     body(body),
  30:src/../h/tcb.hpp ****     stack(stack),
  31:src/../h/tcb.hpp ****     arg(arg),
  32:src/../h/tcb.hpp ****     timeSlice(DEFAULT_TIME_SLICE)
  33:src/../h/tcb.hpp ****     {
  34:src/../h/tcb.hpp ****         myId=idS++;
  35:src/../h/tcb.hpp ****         status.setCreated();
  36:src/../h/tcb.hpp ****         context={(uint64) &threadWrapper,
  37:src/../h/tcb.hpp ****                  (uint64) &stack[DEFAULT_STACK_SIZE]};
  38:src/../h/tcb.hpp ****     }
  39:src/../h/tcb.hpp **** 
  40:src/../h/tcb.hpp ****     explicit TCB(){
  41:src/../h/tcb.hpp ****         body= nullptr;
  42:src/../h/tcb.hpp ****         stack= nullptr;
  43:src/../h/tcb.hpp ****         arg= nullptr;
  44:src/../h/tcb.hpp ****         myId=idS++;
  45:src/../h/tcb.hpp ****         timeSlice=DEFAULT_TIME_SLICE;
  46:src/../h/tcb.hpp ****         context = {0, 0};
  47:src/../h/tcb.hpp ****         status.delAll();
  48:src/../h/tcb.hpp ****         status.setRunning();
  49:src/../h/tcb.hpp ****     }
  50:src/../h/tcb.hpp **** 
  51:src/../h/tcb.hpp ****     struct Context
  52:src/../h/tcb.hpp ****     {
  53:src/../h/tcb.hpp ****         uint64 ra;
  54:src/../h/tcb.hpp ****         uint64 sp;
  55:src/../h/tcb.hpp ****     };
  56:src/../h/tcb.hpp ****     struct Status{
  57:src/../h/tcb.hpp ****         bool FINISHED= false;
  58:src/../h/tcb.hpp ****         bool RUNNING = false;
  59:src/../h/tcb.hpp ****         bool READY= false;
  60:src/../h/tcb.hpp ****         bool CREATED= false;
  61:src/../h/tcb.hpp ****         bool WAITING= false;
  62:src/../h/tcb.hpp ****         bool SLEEPING= false;
  63:src/../h/tcb.hpp ****         bool IDLE= false;
  64:src/../h/tcb.hpp ****         bool SYSTEMATIC= false;
  65:src/../h/tcb.hpp ****     public:
  66:src/../h/tcb.hpp ****         void* operator new(size_t size){return __mem_alloc(size);}
  67:src/../h/tcb.hpp ****         void operator delete (void* ptr){ __mem_free(ptr);}
  68:src/../h/tcb.hpp ****         void setFinished(){FINISHED=true;}
  69:src/../h/tcb.hpp ****         void delFinished(){FINISHED= false;}
  70:src/../h/tcb.hpp ****         void setRunning(){RUNNING=true;}
  71:src/../h/tcb.hpp ****         void delRunning(){RUNNING= false;}
  72:src/../h/tcb.hpp ****         void setReady(){READY=true;}
  73:src/../h/tcb.hpp ****         void delReady(){READY= false;}
  74:src/../h/tcb.hpp ****         void setCreated(){CREATED=true;}
  75:src/../h/tcb.hpp ****         void delCreated(){CREATED= false;}
GAS LISTING /tmp/ccy2p691.s 			page 6


  76:src/../h/tcb.hpp ****         void setWaiting(){WAITING=true;}
  77:src/../h/tcb.hpp ****         void delWaiting(){WAITING= false;}
  78:src/../h/tcb.hpp ****         void setSleeping(){SLEEPING=true;}
  79:src/../h/tcb.hpp ****         void delSleeping(){SLEEPING= false;}
  80:src/../h/tcb.hpp ****         void setIdle(){IDLE=true;}
  81:src/../h/tcb.hpp ****         void delIdle(){IDLE= false;}
  82:src/../h/tcb.hpp ****         bool getFinished(){ return FINISHED;}
  83:src/../h/tcb.hpp ****         bool getRunning(){ return RUNNING;}
  84:src/../h/tcb.hpp ****         bool getReady(){return  READY;}
  85:src/../h/tcb.hpp ****         bool getCreated(){return CREATED;}
  86:src/../h/tcb.hpp ****         bool getWaiting(){return WAITING;}
  87:src/../h/tcb.hpp ****         bool getSleeping(){return SLEEPING;}
  88:src/../h/tcb.hpp ****         bool getIdle(){return IDLE;}
  89:src/../h/tcb.hpp ****         void setSystematic(){ SYSTEMATIC= true;}
  90:src/../h/tcb.hpp ****         bool getSystematic(){return  SYSTEMATIC;}
  91:src/../h/tcb.hpp ****         void delAll(){
  92:src/../h/tcb.hpp ****              FINISHED= false;
 138              		.loc 2 92 14
 139              		.loc 2 92 22 is_stmt 0
 140 00d4 23040502 		sb	zero,40(a0)
  93:src/../h/tcb.hpp ****              RUNNING = false;
 141              		.loc 2 93 14 is_stmt 1
 142              		.loc 2 93 22 is_stmt 0
 143 00d8 A3040502 		sb	zero,41(a0)
  94:src/../h/tcb.hpp ****              READY= false;
 144              		.loc 2 94 14 is_stmt 1
 145              		.loc 2 94 19 is_stmt 0
 146 00dc 23050502 		sb	zero,42(a0)
  95:src/../h/tcb.hpp ****              CREATED= false;
 147              		.loc 2 95 14 is_stmt 1
 148              		.loc 2 95 21 is_stmt 0
 149 00e0 A3050502 		sb	zero,43(a0)
  96:src/../h/tcb.hpp ****              WAITING= false;
 150              		.loc 2 96 14 is_stmt 1
 151              		.loc 2 96 21 is_stmt 0
 152 00e4 23060502 		sb	zero,44(a0)
  97:src/../h/tcb.hpp ****              SLEEPING= false;
 153              		.loc 2 97 14 is_stmt 1
 154              		.loc 2 97 22 is_stmt 0
 155 00e8 A3060502 		sb	zero,45(a0)
 156              	.LVL5:
 157              	.LBE50:
 158              	.LBE49:
  16:src/global.cpp ****         idle->status.setSystematic();
 159              		.loc 1 16 9 is_stmt 1
 160              	.LBB51:
 161              	.LBB52:
  80:src/../h/tcb.hpp ****         void delIdle(){IDLE= false;}
 162              		.loc 2 80 24
  80:src/../h/tcb.hpp ****         void delIdle(){IDLE= false;}
 163              		.loc 2 80 28 is_stmt 0
 164 00ec 93071000 		li	a5,1
 165 00f0 2307F502 		sb	a5,46(a0)
 166              	.LVL6:
 167              	.LBE52:
 168              	.LBE51:
  17:src/global.cpp ****     }
GAS LISTING /tmp/ccy2p691.s 			page 7


 169              		.loc 1 17 9 is_stmt 1
 170              	.LBB53:
 171              	.LBB54:
  89:src/../h/tcb.hpp ****         bool getSystematic(){return  SYSTEMATIC;}
 172              		.loc 2 89 31
  89:src/../h/tcb.hpp ****         bool getSystematic(){return  SYSTEMATIC;}
 173              		.loc 2 89 41 is_stmt 0
 174 00f4 A307F502 		sb	a5,47(a0)
 175              	.LVL7:
 176              	.LBE54:
 177              	.LBE53:
  19:src/global.cpp **** }
 178              		.loc 1 19 5 is_stmt 1
  20:src/global.cpp **** void Idle::idleWrapper(void*) {
 179              		.loc 1 20 1 is_stmt 0
 180 00f8 17050000 		ld	a0,.LANCHOR0+8
 180      03350500 
 181 0100 83308100 		ld	ra,8(sp)
 182              		.cfi_restore 1
 183 0104 03340100 		ld	s0,0(sp)
 184              		.cfi_restore 8
 185              		.cfi_def_cfa 2, 16
 186 0108 13010101 		addi	sp,sp,16
 187              		.cfi_def_cfa_offset 0
 188 010c 67800000 		jr	ra
 189              		.cfi_endproc
 190              	.LFE94:
 192              		.align	2
 193              		.globl	_ZN6Kernel9getKernelEv
 195              	_ZN6Kernel9getKernelEv:
 196              	.LFB96:
  28:src/global.cpp ****     if(kernel)return kernel;
 197              		.loc 1 28 26 is_stmt 1
 198              		.cfi_startproc
  29:src/global.cpp ****     kernel=new TCB();
 199              		.loc 1 29 5
  29:src/global.cpp ****     kernel=new TCB();
 200              		.loc 1 29 14 is_stmt 0
 201 0110 17050000 		ld	a0,.LANCHOR0+16
 201      03350500 
  29:src/global.cpp ****     kernel=new TCB();
 202              		.loc 1 29 5
 203 0118 63040500 		beqz	a0,.L23
  35:src/global.cpp **** TCB*Output::getOutputTh() {
 204              		.loc 1 35 1
 205 011c 67800000 		ret
 206              	.L23:
  28:src/global.cpp ****     if(kernel)return kernel;
 207              		.loc 1 28 26
 208 0120 130101FF 		addi	sp,sp,-16
 209              		.cfi_def_cfa_offset 16
 210 0124 23341100 		sd	ra,8(sp)
 211 0128 23308100 		sd	s0,0(sp)
 212              		.cfi_offset 1, -8
 213              		.cfi_offset 8, -16
 214 012c 13040101 		addi	s0,sp,16
 215              		.cfi_def_cfa 8, 0
GAS LISTING /tmp/ccy2p691.s 			page 8


  30:src/global.cpp **** 
 216              		.loc 1 30 5 is_stmt 1
 217              	.LVL8:
 218              	.LBB55:
 219              	.LBB56:
  23:src/../h/tcb.hpp ****     void operator delete(void *ptr) { __mem_free(ptr); }
 220              		.loc 2 23 39
  23:src/../h/tcb.hpp ****     void operator delete(void *ptr) { __mem_free(ptr); }
 221              		.loc 2 23 57 is_stmt 0
 222 0130 13050004 		li	a0,64
 223 0134 97000000 		call	__mem_alloc@plt
 223      E7800000 
 224              	.LVL9:
 225              	.LBE56:
 226              	.LBE55:
 227              	.LBB57:
 228              	.LBB58:
 229              	.LBB59:
 230              	.LBB60:
  56:src/../h/tcb.hpp ****         bool FINISHED= false;
 231              		.loc 2 56 12
 232 013c 23040502 		sb	zero,40(a0)
 233 0140 23050502 		sb	zero,42(a0)
 234 0144 A3050502 		sb	zero,43(a0)
 235 0148 23060502 		sb	zero,44(a0)
 236 014c A3060502 		sb	zero,45(a0)
 237 0150 23070502 		sb	zero,46(a0)
 238              	.LVL10:
 239              	.LBE60:
 240              	.LBE59:
  41:src/../h/tcb.hpp ****         stack= nullptr;
 241              		.loc 2 41 9 is_stmt 1
  41:src/../h/tcb.hpp ****         stack= nullptr;
 242              		.loc 2 41 13 is_stmt 0
 243 0154 23340500 		sd	zero,8(a0)
  42:src/../h/tcb.hpp ****         arg= nullptr;
 244              		.loc 2 42 9 is_stmt 1
  42:src/../h/tcb.hpp ****         arg= nullptr;
 245              		.loc 2 42 14 is_stmt 0
 246 0158 23380500 		sd	zero,16(a0)
  43:src/../h/tcb.hpp ****         myId=idS++;
 247              		.loc 2 43 9 is_stmt 1
  43:src/../h/tcb.hpp ****         myId=idS++;
 248              		.loc 2 43 12 is_stmt 0
 249 015c 23380502 		sd	zero,48(a0)
  44:src/../h/tcb.hpp ****         timeSlice=DEFAULT_TIME_SLICE;
 250              		.loc 2 44 9 is_stmt 1
  44:src/../h/tcb.hpp ****         timeSlice=DEFAULT_TIME_SLICE;
 251              		.loc 2 44 17 is_stmt 0
 252 0160 17070000 		la	a4,_ZN3TCB3idSE
 252      03370700 
 253 0168 83270700 		lw	a5,0(a4)
 254 016c 9B861700 		addiw	a3,a5,1
 255 0170 2320D700 		sw	a3,0(a4)
  44:src/../h/tcb.hpp ****         timeSlice=DEFAULT_TIME_SLICE;
 256              		.loc 2 44 13
 257 0174 2320F500 		sw	a5,0(a0)
GAS LISTING /tmp/ccy2p691.s 			page 9


  45:src/../h/tcb.hpp ****         context = {0, 0};
 258              		.loc 2 45 9 is_stmt 1
  45:src/../h/tcb.hpp ****         context = {0, 0};
 259              		.loc 2 45 18 is_stmt 0
 260 0178 93072000 		li	a5,2
 261 017c 233CF502 		sd	a5,56(a0)
  46:src/../h/tcb.hpp ****         status.delAll();
 262              		.loc 2 46 9 is_stmt 1
  46:src/../h/tcb.hpp ****         status.delAll();
 263              		.loc 2 46 17 is_stmt 0
 264 0180 233C0500 		sd	zero,24(a0)
 265 0184 23300502 		sd	zero,32(a0)
  47:src/../h/tcb.hpp ****         status.setRunning();
 266              		.loc 2 47 9 is_stmt 1
 267              	.LVL11:
 268              	.LBE58:
 269              	.LBE57:
  92:src/../h/tcb.hpp ****              RUNNING = false;
 270              		.loc 2 92 14
  93:src/../h/tcb.hpp ****              READY= false;
 271              		.loc 2 93 14
  94:src/../h/tcb.hpp ****              CREATED= false;
 272              		.loc 2 94 14
  95:src/../h/tcb.hpp ****              WAITING= false;
 273              		.loc 2 95 14
  96:src/../h/tcb.hpp ****              SLEEPING= false;
 274              		.loc 2 96 14
 275              		.loc 2 97 14
 276              	.LBB64:
 277              	.LBB63:
  48:src/../h/tcb.hpp ****     }
 278              		.loc 2 48 9
 279              	.LBB61:
 280              	.LBB62:
  70:src/../h/tcb.hpp ****         void delRunning(){RUNNING= false;}
 281              		.loc 2 70 27
  70:src/../h/tcb.hpp ****         void delRunning(){RUNNING= false;}
 282              		.loc 2 70 34 is_stmt 0
 283 0188 93071000 		li	a5,1
 284 018c A304F502 		sb	a5,41(a0)
 285              	.LVL12:
 286              	.LBE62:
 287              	.LBE61:
 288              	.LBE63:
 289              	.LBE64:
  30:src/global.cpp **** 
 290              		.loc 1 30 11
 291 0190 17070000 		sd	a0,.LANCHOR0+16,a4
 291      2330A700 
  32:src/global.cpp ****     running=kernel;
 292              		.loc 1 32 5 is_stmt 1
 293              	.LVL13:
 294              	.LBB65:
 295              	.LBB66:
  89:src/../h/tcb.hpp ****         bool getSystematic(){return  SYSTEMATIC;}
 296              		.loc 2 89 31
  89:src/../h/tcb.hpp ****         bool getSystematic(){return  SYSTEMATIC;}
GAS LISTING /tmp/ccy2p691.s 			page 10


 297              		.loc 2 89 41 is_stmt 0
 298 0198 A307F502 		sb	a5,47(a0)
 299              	.LVL14:
 300              	.LBE66:
 301              	.LBE65:
  33:src/global.cpp ****     return kernel;
 302              		.loc 1 33 5 is_stmt 1
  33:src/global.cpp ****     return kernel;
 303              		.loc 1 33 12 is_stmt 0
 304 019c 97070000 		la	a5,_ZN3TCB7runningE
 304      83B70700 
 305 01a4 23B0A700 		sd	a0,0(a5)
  34:src/global.cpp **** }
 306              		.loc 1 34 5 is_stmt 1
  35:src/global.cpp **** TCB*Output::getOutputTh() {
 307              		.loc 1 35 1 is_stmt 0
 308 01a8 83308100 		ld	ra,8(sp)
 309              		.cfi_restore 1
 310 01ac 03340100 		ld	s0,0(sp)
 311              		.cfi_restore 8
 312              		.cfi_def_cfa 2, 16
 313 01b0 13010101 		addi	sp,sp,16
 314              		.cfi_def_cfa_offset 0
 315 01b4 67800000 		jr	ra
 316              		.cfi_endproc
 317              	.LFE96:
 319              		.align	2
 320              		.globl	_ZN6Output11getOutputThEv
 322              	_ZN6Output11getOutputThEv:
 323              	.LFB97:
  36:src/global.cpp ****     if(output)return output;
 324              		.loc 1 36 27 is_stmt 1
 325              		.cfi_startproc
  37:src/global.cpp ****     output= initThreadWithRun(outputThWrapper, nullptr, (uint64*)__mem_alloc(sizeof(uint64) * DEFAU
 326              		.loc 1 37 5
  37:src/global.cpp ****     output= initThreadWithRun(outputThWrapper, nullptr, (uint64*)__mem_alloc(sizeof(uint64) * DEFAU
 327              		.loc 1 37 14 is_stmt 0
 328 01b8 17050000 		ld	a0,.LANCHOR0+24
 328      03350500 
  37:src/global.cpp ****     output= initThreadWithRun(outputThWrapper, nullptr, (uint64*)__mem_alloc(sizeof(uint64) * DEFAU
 329              		.loc 1 37 5
 330 01c0 63040500 		beqz	a0,.L30
  42:src/global.cpp **** void Output::outputThWrapper(void *) {
 331              		.loc 1 42 1
 332 01c4 67800000 		ret
 333              	.L30:
  36:src/global.cpp ****     if(output)return output;
 334              		.loc 1 36 27
 335 01c8 130101FF 		addi	sp,sp,-16
 336              		.cfi_def_cfa_offset 16
 337 01cc 23341100 		sd	ra,8(sp)
 338 01d0 23308100 		sd	s0,0(sp)
 339              		.cfi_offset 1, -8
 340              		.cfi_offset 8, -16
 341 01d4 13040101 		addi	s0,sp,16
 342              		.cfi_def_cfa 8, 0
  38:src/global.cpp ****     output->status.setSystematic();
GAS LISTING /tmp/ccy2p691.s 			page 11


 343              		.loc 1 38 5 is_stmt 1
  38:src/global.cpp ****     output->status.setSystematic();
 344              		.loc 1 38 77 is_stmt 0
 345 01d8 37850000 		li	a0,32768
 346 01dc 97000000 		call	__mem_alloc@plt
 346      E7800000 
 347              	.LVL15:
 348 01e4 13060500 		mv	a2,a0
  38:src/global.cpp ****     output->status.setSystematic();
 349              		.loc 1 38 30
 350 01e8 93050000 		li	a1,0
 351 01ec 17050000 		lla	a0,_ZN6Output15outputThWrapperEPv
 351      13050500 
 352 01f4 97000000 		call	_ZN3TCB17initThreadWithRunEPFvPvES0_Pm@plt
 352      E7800000 
 353              	.LVL16:
  38:src/global.cpp ****     output->status.setSystematic();
 354              		.loc 1 38 11
 355 01fc 97070000 		sd	a0,.LANCHOR0+24,a5
 355      23B0A700 
  39:src/global.cpp **** 
 356              		.loc 1 39 5 is_stmt 1
 357              	.LVL17:
 358              	.LBB67:
 359              	.LBB68:
  89:src/../h/tcb.hpp ****         bool getSystematic(){return  SYSTEMATIC;}
 360              		.loc 2 89 31
  89:src/../h/tcb.hpp ****         bool getSystematic(){return  SYSTEMATIC;}
 361              		.loc 2 89 41 is_stmt 0
 362 0204 93071000 		li	a5,1
 363 0208 A307F502 		sb	a5,47(a0)
 364              	.LVL18:
 365              	.LBE68:
 366              	.LBE67:
  41:src/global.cpp **** }
 367              		.loc 1 41 5 is_stmt 1
  42:src/global.cpp **** void Output::outputThWrapper(void *) {
 368              		.loc 1 42 1 is_stmt 0
 369 020c 83308100 		ld	ra,8(sp)
 370              		.cfi_restore 1
 371 0210 03340100 		ld	s0,0(sp)
 372              		.cfi_restore 8
 373              		.cfi_def_cfa 2, 16
 374 0214 13010101 		addi	sp,sp,16
 375              		.cfi_def_cfa_offset 0
 376 0218 67800000 		jr	ra
 377              		.cfi_endproc
 378              	.LFE97:
 380              		.align	2
 381              		.globl	_Z14deinitializeThv
 383              	_Z14deinitializeThv:
 384              	.LFB99:
  48:src/global.cpp ****         }
  49:src/global.cpp ****     }
  50:src/global.cpp **** }
  51:src/global.cpp **** 
  52:src/global.cpp **** void deinitializeTh(){
GAS LISTING /tmp/ccy2p691.s 			page 12


 385              		.loc 1 52 22 is_stmt 1
 386              		.cfi_startproc
 387 021c 130101FE 		addi	sp,sp,-32
 388              		.cfi_def_cfa_offset 32
 389 0220 233C1100 		sd	ra,24(sp)
 390 0224 23388100 		sd	s0,16(sp)
 391 0228 23349100 		sd	s1,8(sp)
 392              		.cfi_offset 1, -8
 393              		.cfi_offset 8, -16
 394              		.cfi_offset 9, -24
 395 022c 13040102 		addi	s0,sp,32
 396              		.cfi_def_cfa 8, 0
  53:src/global.cpp **** Kernel::endSysThr();
 397              		.loc 1 53 1
 398              	.LBB87:
 399              	.LBB88:
 400              		.file 3 "src/../h/globals.hpp"
   1:src/../h/globals.hpp **** //
   2:src/../h/globals.hpp **** // Created by os on 7/30/22.
   3:src/../h/globals.hpp **** //
   4:src/../h/globals.hpp **** 
   5:src/../h/globals.hpp **** #ifndef OSPROJECT_GLOBALS_H
   6:src/../h/globals.hpp **** #define OSPROJECT_GLOBALS_H
   7:src/../h/globals.hpp **** #include "TimeList.hpp"
   8:src/../h/globals.hpp **** #include "Buffer.hpp"
   9:src/../h/globals.hpp **** #include "tcb.hpp"
  10:src/../h/globals.hpp **** const uint64 MEM_ALLOC = 0x01;
  11:src/../h/globals.hpp **** const uint64 MEM_FREE = 0x02;
  12:src/../h/globals.hpp **** const uint64 THREAD_START=0x10;
  13:src/../h/globals.hpp **** const uint64 THREAD_CREATE = 0x11;
  14:src/../h/globals.hpp **** const uint64 THREAD_EXIT = 0x12;
  15:src/../h/globals.hpp **** const uint64 THREAD_DISPATCH = 0x13;
  16:src/../h/globals.hpp **** const uint64 THREAD_PREPARE = 0x14;
  17:src/../h/globals.hpp **** const uint64 THREAD_DELETE = 0x15;
  18:src/../h/globals.hpp **** const uint64 THREAD_JOIN =  0x16;
  19:src/../h/globals.hpp **** const uint64 THREAD_GETID = 0x17;
  20:src/../h/globals.hpp **** const uint64 SEM_OPEN = 0x21;
  21:src/../h/globals.hpp **** const uint64 SEM_CLOSE= 0x22;
  22:src/../h/globals.hpp **** const uint64 SEM_WAIT = 0x23;
  23:src/../h/globals.hpp **** const uint64 SEM_SIGNAL = 0x24;
  24:src/../h/globals.hpp **** const uint64 TIME_SLEEP = 0x31;
  25:src/../h/globals.hpp **** const uint64 GETC= 0x41;
  26:src/../h/globals.hpp **** const uint64 PUTC = 0x42;
  27:src/../h/globals.hpp **** 
  28:src/../h/globals.hpp **** const uint64 SOFTWARE =  0x8000000000000001UL;
  29:src/../h/globals.hpp **** const uint64 ECALL_S = 0x0000000000000009UL;
  30:src/../h/globals.hpp **** const uint64 ECALL_U = 0x0000000000000008UL;
  31:src/../h/globals.hpp **** const uint64 HARDWARE = 0x8000000000000009UL;
  32:src/../h/globals.hpp **** 
  33:src/../h/globals.hpp **** using Body = void(*)(void*);
  34:src/../h/globals.hpp **** 
  35:src/../h/globals.hpp **** struct StruLisBuf{
  36:src/../h/globals.hpp **** static _Buffer * bufferIn ;
  37:src/../h/globals.hpp **** static _Buffer * bufferOut ;
  38:src/../h/globals.hpp **** static TimeList * timelist;
  39:src/../h/globals.hpp **** static void initLB(){
  40:src/../h/globals.hpp ****     StruLisBuf::bufferOut= new _Buffer();
GAS LISTING /tmp/ccy2p691.s 			page 13


  41:src/../h/globals.hpp ****     StruLisBuf::bufferIn= new _Buffer();
  42:src/../h/globals.hpp ****     StruLisBuf::timelist =  new TimeList();
  43:src/../h/globals.hpp **** }
  44:src/../h/globals.hpp **** };
  45:src/../h/globals.hpp **** 
  46:src/../h/globals.hpp **** class Idle:public TCB{
  47:src/../h/globals.hpp ****     static TCB* idle;
  48:src/../h/globals.hpp **** 
  49:src/../h/globals.hpp **** public:
  50:src/../h/globals.hpp ****     static TCB* getIdle();
  51:src/../h/globals.hpp ****     static void idleWrapper(void*);
  52:src/../h/globals.hpp ****     static void endSysThr(){ delete idle;}
  53:src/../h/globals.hpp **** };
  54:src/../h/globals.hpp **** 
  55:src/../h/globals.hpp **** class Kernel:public TCB{
  56:src/../h/globals.hpp **** static TCB* kernel;
  57:src/../h/globals.hpp **** public:
  58:src/../h/globals.hpp ****     static TCB* getKernel();
  59:src/../h/globals.hpp ****     static void endSysThr(){ delete kernel;}
 401              		.loc 3 59 30
 402              		.loc 3 59 37 is_stmt 0
 403 0230 97040000 		ld	s1,.LANCHOR0+16
 403      83B40400 
 404              		.loc 3 59 43
 405 0238 63800402 		beqz	s1,.L32
 406              	.LVL19:
 407              	.LBB89:
 408              	.LBB90:
  14:src/../h/tcb.hpp ****     using Body = void (*)(void*);
 409              		.loc 2 14 12 is_stmt 1
  14:src/../h/tcb.hpp ****     using Body = void (*)(void*);
 410              		.loc 2 14 21 is_stmt 0
 411 023c 03B50401 		ld	a0,16(s1)
  14:src/../h/tcb.hpp ****     using Body = void (*)(void*);
 412              		.loc 2 14 26
 413 0240 63060500 		beqz	a0,.L33
  14:src/../h/tcb.hpp ****     using Body = void (*)(void*);
 414              		.loc 2 14 21
 415 0244 97000000 		call	_ZdaPv@plt
 415      E7800000 
 416              	.LVL20:
 417              	.L33:
 418              	.LBE90:
 419              	.LBE89:
 420              	.LBB91:
 421              	.LBB92:
  24:src/../h/tcb.hpp **** protected:
 422              		.loc 2 24 39 is_stmt 1
  24:src/../h/tcb.hpp **** protected:
 423              		.loc 2 24 49 is_stmt 0
 424 024c 13850400 		mv	a0,s1
 425 0250 97000000 		call	__mem_free@plt
 425      E7800000 
 426              	.LVL21:
 427              	.L32:
 428              	.LBE92:
 429              	.LBE91:
GAS LISTING /tmp/ccy2p691.s 			page 14


 430              	.LBE88:
 431              	.LBE87:
  54:src/global.cpp **** Output::endSysThr();
 432              		.loc 1 54 1 is_stmt 1
 433              	.LBB93:
 434              	.LBB94:
  60:src/../h/globals.hpp **** 
  61:src/../h/globals.hpp **** };
  62:src/../h/globals.hpp **** class Output:public TCB{
  63:src/../h/globals.hpp **** static TCB*output;
  64:src/../h/globals.hpp **** public:
  65:src/../h/globals.hpp ****     static TCB* getOutputTh();
  66:src/../h/globals.hpp ****     static void outputThWrapper(void*);
  67:src/../h/globals.hpp ****     static void endSysThr(){ delete output;}
 435              		.loc 3 67 30
 436              		.loc 3 67 37 is_stmt 0
 437 0258 97040000 		ld	s1,.LANCHOR0+24
 437      83B40400 
 438              		.loc 3 67 43
 439 0260 63800402 		beqz	s1,.L34
 440              	.LVL22:
 441              	.LBB95:
 442              	.LBB96:
  14:src/../h/tcb.hpp ****     using Body = void (*)(void*);
 443              		.loc 2 14 12 is_stmt 1
  14:src/../h/tcb.hpp ****     using Body = void (*)(void*);
 444              		.loc 2 14 21 is_stmt 0
 445 0264 03B50401 		ld	a0,16(s1)
  14:src/../h/tcb.hpp ****     using Body = void (*)(void*);
 446              		.loc 2 14 26
 447 0268 63060500 		beqz	a0,.L35
  14:src/../h/tcb.hpp ****     using Body = void (*)(void*);
 448              		.loc 2 14 21
 449 026c 97000000 		call	_ZdaPv@plt
 449      E7800000 
 450              	.LVL23:
 451              	.L35:
 452              	.LBE96:
 453              	.LBE95:
 454              	.LBB97:
 455              	.LBB98:
  24:src/../h/tcb.hpp **** protected:
 456              		.loc 2 24 39 is_stmt 1
  24:src/../h/tcb.hpp **** protected:
 457              		.loc 2 24 49 is_stmt 0
 458 0274 13850400 		mv	a0,s1
 459 0278 97000000 		call	__mem_free@plt
 459      E7800000 
 460              	.LVL24:
 461              	.L34:
 462              	.LBE98:
 463              	.LBE97:
 464              	.LBE94:
 465              	.LBE93:
  55:src/global.cpp **** Idle::endSysThr();
 466              		.loc 1 55 1 is_stmt 1
 467              	.LBB99:
GAS LISTING /tmp/ccy2p691.s 			page 15


 468              	.LBB100:
  52:src/../h/globals.hpp **** };
 469              		.loc 3 52 30
  52:src/../h/globals.hpp **** };
 470              		.loc 3 52 37 is_stmt 0
 471 0280 97040000 		ld	s1,.LANCHOR0+8
 471      83B40400 
  52:src/../h/globals.hpp **** };
 472              		.loc 3 52 41
 473 0288 63800402 		beqz	s1,.L31
 474              	.LVL25:
 475              	.LBB101:
 476              	.LBB102:
  14:src/../h/tcb.hpp ****     using Body = void (*)(void*);
 477              		.loc 2 14 12 is_stmt 1
  14:src/../h/tcb.hpp ****     using Body = void (*)(void*);
 478              		.loc 2 14 21 is_stmt 0
 479 028c 03B50401 		ld	a0,16(s1)
  14:src/../h/tcb.hpp ****     using Body = void (*)(void*);
 480              		.loc 2 14 26
 481 0290 63060500 		beqz	a0,.L37
  14:src/../h/tcb.hpp ****     using Body = void (*)(void*);
 482              		.loc 2 14 21
 483 0294 97000000 		call	_ZdaPv@plt
 483      E7800000 
 484              	.LVL26:
 485              	.L37:
 486              	.LBE102:
 487              	.LBE101:
 488              	.LBB103:
 489              	.LBB104:
  24:src/../h/tcb.hpp **** protected:
 490              		.loc 2 24 39 is_stmt 1
  24:src/../h/tcb.hpp **** protected:
 491              		.loc 2 24 49 is_stmt 0
 492 029c 13850400 		mv	a0,s1
 493 02a0 97000000 		call	__mem_free@plt
 493      E7800000 
 494              	.LVL27:
 495              	.L31:
 496              	.LBE104:
 497              	.LBE103:
 498              	.LBE100:
 499              	.LBE99:
  56:src/global.cpp **** }
 500              		.loc 1 56 1
 501 02a8 83308101 		ld	ra,24(sp)
 502              		.cfi_restore 1
 503 02ac 03340101 		ld	s0,16(sp)
 504              		.cfi_restore 8
 505              		.cfi_def_cfa 2, 32
 506 02b0 83348100 		ld	s1,8(sp)
 507              		.cfi_restore 9
 508 02b4 13010102 		addi	sp,sp,32
 509              		.cfi_def_cfa_offset 0
 510 02b8 67800000 		jr	ra
 511              		.cfi_endproc
GAS LISTING /tmp/ccy2p691.s 			page 16


 512              	.LFE99:
 514              		.align	2
 515              		.globl	_Z12initializeThv
 517              	_Z12initializeThv:
 518              	.LFB100:
  57:src/global.cpp **** void initializeTh(){
 519              		.loc 1 57 20 is_stmt 1
 520              		.cfi_startproc
 521 02bc 130101FF 		addi	sp,sp,-16
 522              		.cfi_def_cfa_offset 16
 523 02c0 23341100 		sd	ra,8(sp)
 524 02c4 23308100 		sd	s0,0(sp)
 525              		.cfi_offset 1, -8
 526              		.cfi_offset 8, -16
 527 02c8 13040101 		addi	s0,sp,16
 528              		.cfi_def_cfa 8, 0
  58:src/global.cpp ****     Kernel::getKernel();
 529              		.loc 1 58 5
 530              		.loc 1 58 22 is_stmt 0
 531 02cc 97000000 		call	_ZN6Kernel9getKernelEv
 531      E7800000 
 532              	.LVL28:
  59:src/global.cpp ****     Idle::getIdle();
 533              		.loc 1 59 5 is_stmt 1
 534              		.loc 1 59 18 is_stmt 0
 535 02d4 97000000 		call	_ZN4Idle7getIdleEv
 535      E7800000 
 536              	.LVL29:
  60:src/global.cpp ****     Output::getOutputTh();
 537              		.loc 1 60 5 is_stmt 1
 538              		.loc 1 60 24 is_stmt 0
 539 02dc 97000000 		call	_ZN6Output11getOutputThEv
 539      E7800000 
 540              	.LVL30:
  61:src/global.cpp **** }...
 541              		.loc 1 61 1
 542 02e4 83308100 		ld	ra,8(sp)
 543              		.cfi_restore 1
 544 02e8 03340100 		ld	s0,0(sp)
 545              		.cfi_restore 8
 546              		.cfi_def_cfa 2, 16
 547 02ec 13010101 		addi	sp,sp,16
 548              		.cfi_def_cfa_offset 0
 549 02f0 67800000 		jr	ra
 550              		.cfi_endproc
 551              	.LFE100:
 553              		.globl	_ZN6Output6outputE
 554              		.globl	_ZN6Kernel6kernelE
 555              		.globl	_ZN4Idle4idleE
 556              		.globl	_ZN10StruLisBuf8timelistE
 557              		.globl	_ZN10StruLisBuf9bufferOutE
 558              		.globl	_ZN10StruLisBuf8bufferInE
 559              		.bss
 560              		.align	3
 561              		.set	.LANCHOR0,. + 0
 564              	_ZN10StruLisBuf9bufferOutE:
 565 0000 00000000 		.zero	8
GAS LISTING /tmp/ccy2p691.s 			page 17


 565      00000000 
 568              	_ZN4Idle4idleE:
 569 0008 00000000 		.zero	8
 569      00000000 
 572              	_ZN6Kernel6kernelE:
 573 0010 00000000 		.zero	8
 573      00000000 
 576              	_ZN6Output6outputE:
 577 0018 00000000 		.zero	8
 577      00000000 
 580              	_ZN10StruLisBuf8timelistE:
 581 0020 00000000 		.zero	8
 581      00000000 
 584              	_ZN10StruLisBuf8bufferInE:
 585 0028 00000000 		.zero	8
 585      00000000 
 586              		.text
 587              	.Letext0:
 588              		.file 4 "src/../h/../lib/hw.h"
 589              		.file 5 "src/../h/TimeList.hpp"
 590              		.file 6 "src/../h/list.hpp"
 591              		.file 7 "src/../h/syscall_c.hpp"
 592              		.file 8 "src/../h/_sem.hpp"
 593              		.file 9 "src/../h/MyWaitList.hpp"
 594              		.file 10 "src/../h/Buffer.hpp"
 595              		.file 11 "src/../h/../lib/mem.h"
GAS LISTING /tmp/ccy2p691.s 			page 18

