GAS LISTING /tmp/ccgHMkRD.s 			page 1


   1              		.file	"main.cpp"
   2              		.option pic
   3              		.option norelax
   4              		.text
   5              	.Ltext0:
   6              		.section	.rodata.str1.8,"aMS",@progbits,1
   7              		.align	3
   8              	.LC0:
   9 0000 75736572 		.string	"userMain() started\n"
   9      4D61696E 
   9      28292073 
   9      74617274 
   9      65640A00 
  10 0014 00000000 		.align	3
  11              	.LC1:
  12 0018 75736572 		.string	"userMain() finished\n"
  12      4D61696E 
  12      28292066 
  12      696E6973 
  12      6865640A 
  13              		.text
  14              		.align	2
  15              		.globl	_Z12user_wrapperPv
  17              	_Z12user_wrapperPv:
  18              	.LFB91:
  19              		.file 1 "src/main.cpp"
   1:src/main.cpp  **** //
   2:src/main.cpp  **** // Created by os on 7/20/22.
   3:src/main.cpp  **** //
   4:src/main.cpp  **** #include "../lib/console.h"
   5:src/main.cpp  **** #include "../h/tcb.hpp"
   6:src/main.cpp  **** #include "../test/printing.hpp"
   7:src/main.cpp  **** #include "../h/riscv.hpp"
   8:src/main.cpp  **** #include "../h/syscall_c.hpp"
   9:src/main.cpp  **** #include "../h/list.hpp"
  10:src/main.cpp  **** #include "../h/userMain.hpp"
  11:src/main.cpp  **** #include "../h/globals.hpp"
  12:src/main.cpp  **** static volatile uint64 status = 1;
  13:src/main.cpp  **** void user_wrapper(void*sem){
  20              		.loc 1 13 28
  21              		.cfi_startproc
  22              	.LVL0:
  23 0000 130101FE 		addi	sp,sp,-32
  24              		.cfi_def_cfa_offset 32
  25 0004 233C1100 		sd	ra,24(sp)
  26 0008 23388100 		sd	s0,16(sp)
  27 000c 23349100 		sd	s1,8(sp)
  28              		.cfi_offset 1, -8
  29              		.cfi_offset 8, -16
  30              		.cfi_offset 9, -24
  31 0010 13040102 		addi	s0,sp,32
  32              		.cfi_def_cfa 8, 0
  33 0014 93040500 		mv	s1,a0
  14:src/main.cpp  **** 
  15:src/main.cpp  ****     printString("userMain() started\n");
  34              		.loc 1 15 5
  35              		.loc 1 15 16 is_stmt 0
GAS LISTING /tmp/ccgHMkRD.s 			page 2


  36 0018 17050000 		lla	a0,.LC0
  36      13050500 
  37              	.LVL1:
  38 0020 97000000 		call	_Z11printStringPKc@plt
  38      E7800000 
  39              	.LVL2:
  16:src/main.cpp  ****     userMain();
  40              		.loc 1 16 5 is_stmt 1
  41              		.loc 1 16 13 is_stmt 0
  42 0028 97000000 		call	_Z8userMainv@plt
  42      E7800000 
  43              	.LVL3:
  17:src/main.cpp  ****     printString("userMain() finished\n");
  44              		.loc 1 17 5 is_stmt 1
  45              		.loc 1 17 16 is_stmt 0
  46 0030 17050000 		lla	a0,.LC1
  46      13050500 
  47 0038 97000000 		call	_Z11printStringPKc@plt
  47      E7800000 
  48              	.LVL4:
  18:src/main.cpp  ****      sem_signal((sem_t)sem);
  49              		.loc 1 18 6 is_stmt 1
  50              		.loc 1 18 16 is_stmt 0
  51 0040 13850400 		mv	a0,s1
  52 0044 97000000 		call	_Z10sem_signalP4_sem@plt
  52      E7800000 
  53              	.LVL5:
  19:src/main.cpp  **** 
  20:src/main.cpp  ****     status=0;
  54              		.loc 1 20 5 is_stmt 1
  55              		.loc 1 20 11 is_stmt 0
  56 004c 97070000 		sd	zero,.LANCHOR0,a5
  56      23B00700 
  21:src/main.cpp  **** }
  57              		.loc 1 21 1
  58 0054 83308101 		ld	ra,24(sp)
  59              		.cfi_restore 1
  60 0058 03340101 		ld	s0,16(sp)
  61              		.cfi_restore 8
  62              		.cfi_def_cfa 2, 32
  63 005c 83348100 		ld	s1,8(sp)
  64              		.cfi_restore 9
  65              	.LVL6:
  66 0060 13010102 		addi	sp,sp,32
  67              		.cfi_def_cfa_offset 0
  68 0064 67800000 		jr	ra
  69              		.cfi_endproc
  70              	.LFE91:
  72              		.section	.rodata.str1.8
  73 002d 000000   		.align	3
  74              	.LC2:
  75 0030 6D61696E 		.string	"main has fshed\n"
  75      20686173 
  75      20667368 
  75      65640A00 
  76              		.text
  77              		.align	2
GAS LISTING /tmp/ccgHMkRD.s 			page 3


  78              		.globl	main
  80              	main:
  81              	.LFB92:
  22:src/main.cpp  **** 
  23:src/main.cpp  **** int main(){
  82              		.loc 1 23 11 is_stmt 1
  83              		.cfi_startproc
  84              		.cfi_personality 0x9b,DW.ref.__gxx_personality_v0
  85              		.cfi_lsda 0x1b,.LLSDA92
  86 0068 130101FC 		addi	sp,sp,-64
  87              		.cfi_def_cfa_offset 64
  88 006c 233C1102 		sd	ra,56(sp)
  89 0070 23388102 		sd	s0,48(sp)
  90 0074 23349102 		sd	s1,40(sp)
  91 0078 23302103 		sd	s2,32(sp)
  92 007c 233C3101 		sd	s3,24(sp)
  93              		.cfi_offset 1, -8
  94              		.cfi_offset 8, -16
  95              		.cfi_offset 9, -24
  96              		.cfi_offset 18, -32
  97              		.cfi_offset 19, -40
  98 0080 13040104 		addi	s0,sp,64
  99              		.cfi_def_cfa 8, 0
  24:src/main.cpp  **** 
  25:src/main.cpp  ****     Riscv::bufferOut= new _Buffer();
 100              		.loc 1 25 5
 101              	.LVL7:
 102              	.LBB49:
 103              	.LBB50:
 104              		.file 2 "src/../h/Buffer.hpp"
   1:src/../h/Buffer.hpp **** //
   2:src/../h/Buffer.hpp **** // Created by os on 8/10/22.
   3:src/../h/Buffer.hpp **** //
   4:src/../h/Buffer.hpp **** 
   5:src/../h/Buffer.hpp **** #ifndef OSPROJECT_BUFFER_HPP
   6:src/../h/Buffer.hpp **** #define OSPROJECT_BUFFER_HPP
   7:src/../h/Buffer.hpp **** #include "_sem.hpp"
   8:src/../h/Buffer.hpp **** #include "../lib/mem.h"
   9:src/../h/Buffer.hpp **** #define BUFFER_SIZE 256
  10:src/../h/Buffer.hpp **** class _Buffer{
  11:src/../h/Buffer.hpp **** public:
  12:src/../h/Buffer.hpp ****     void* operator new (size_t size){return __mem_alloc(size);}
 105              		.loc 2 12 38
 106              		.loc 2 12 56 is_stmt 0
 107 0084 13050013 		li	a0,304
 108              	.LEHB0:
 109 0088 97000000 		call	__mem_alloc@plt
 109      E7800000 
 110              	.LVL8:
 111              	.LEHE0:
 112 0090 93040500 		mv	s1,a0
 113              	.LVL9:
 114              	.LEHB1:
 115              	.LBE50:
 116              	.LBE49:
 117 0094 97000000 		call	_ZN7_BufferC1Ev@plt
 117      E7800000 
GAS LISTING /tmp/ccgHMkRD.s 			page 4


 118              	.LVL10:
 119              	.LEHE1:
 120              		.loc 1 25 21
 121 009c 97070000 		la	a5,_ZN5Riscv9bufferOutE
 121      83B70700 
 122 00a4 23B09700 		sd	s1,0(a5)
  26:src/main.cpp  ****     Riscv::bufferIn= new _Buffer();
 123              		.loc 1 26 5 is_stmt 1
 124              	.LVL11:
 125              	.LBB51:
 126              	.LBB52:
 127              		.loc 2 12 38
 128              		.loc 2 12 56 is_stmt 0
 129 00a8 13050013 		li	a0,304
 130              	.LEHB2:
 131 00ac 97000000 		call	__mem_alloc@plt
 131      E7800000 
 132              	.LVL12:
 133              	.LEHE2:
 134 00b4 93040500 		mv	s1,a0
 135              	.LVL13:
 136              	.LEHB3:
 137              	.LBE52:
 138              	.LBE51:
 139 00b8 97000000 		call	_ZN7_BufferC1Ev@plt
 139      E7800000 
 140              	.LVL14:
 141              	.LEHE3:
 142              		.loc 1 26 20
 143 00c0 97070000 		la	a5,_ZN5Riscv8bufferInE
 143      83B70700 
 144 00c8 23B09700 		sd	s1,0(a5)
  27:src/main.cpp  ****     Riscv::timelist =  new TimeList();
 145              		.loc 1 27 5 is_stmt 1
 146              	.LVL15:
 147              	.LBB53:
 148              	.LBB54:
 149              		.file 3 "src/../h/TimeList.hpp"
   1:src/../h/TimeList.hpp **** //
   2:src/../h/TimeList.hpp **** // Created by os on 8/5/22.
   3:src/../h/TimeList.hpp **** //
   4:src/../h/TimeList.hpp **** 
   5:src/../h/TimeList.hpp **** #ifndef OSPROJECT_TIMELIST_HPP
   6:src/../h/TimeList.hpp **** #define OSPROJECT_TIMELIST_HPP
   7:src/../h/TimeList.hpp **** #include "tcb.hpp"
   8:src/../h/TimeList.hpp **** #include "../lib/mem.h"
   9:src/../h/TimeList.hpp **** class TimeList{
  10:src/../h/TimeList.hpp **** public:
  11:src/../h/TimeList.hpp ****     struct ElemTime{
  12:src/../h/TimeList.hpp ****         TCB*tcb = nullptr;
  13:src/../h/TimeList.hpp ****         time_t time;
  14:src/../h/TimeList.hpp ****         ElemTime(TCB*tcbToAdd,time_t timeToAdd){
  15:src/../h/TimeList.hpp ****             tcb = tcbToAdd;
  16:src/../h/TimeList.hpp ****             time=timeToAdd;
  17:src/../h/TimeList.hpp ****         }
  18:src/../h/TimeList.hpp ****         void* operator new (size_t size){return __mem_alloc(size);}
  19:src/../h/TimeList.hpp ****         void operator delete (void* ptr){__mem_free(ptr);}
GAS LISTING /tmp/ccgHMkRD.s 			page 5


  20:src/../h/TimeList.hpp ****     };
  21:src/../h/TimeList.hpp **** private:
  22:src/../h/TimeList.hpp ****     static time_t currentTime;
  23:src/../h/TimeList.hpp ****      List<ElemTime>list_Time;
  24:src/../h/TimeList.hpp ****     static time_t currentTimePassed;
  25:src/../h/TimeList.hpp **** public:
  26:src/../h/TimeList.hpp **** 
  27:src/../h/TimeList.hpp ****     ~TimeList(){
  28:src/../h/TimeList.hpp ****         currentTime=0;
  29:src/../h/TimeList.hpp ****         currentTimePassed=0;
  30:src/../h/TimeList.hpp ****     }
  31:src/../h/TimeList.hpp ****     void* operator new (size_t size){return __mem_alloc(size);}
 150              		.loc 3 31 38
 151              		.loc 3 31 56 is_stmt 0
 152 00cc 13058001 		li	a0,24
 153              	.LEHB4:
 154 00d0 97000000 		call	__mem_alloc@plt
 154      E7800000 
 155              	.LVL16:
 156              	.LBE54:
 157              	.LBE53:
 158              	.LBB55:
 159              	.LBB56:
 160              	.LBB57:
 161              		.file 4 "src/../h/list.hpp"
   1:src/../h/list.hpp **** //
   2:src/../h/list.hpp **** // Created by marko on 20.4.22..
   3:src/../h/list.hpp **** //
   4:src/../h/list.hpp **** 
   5:src/../h/list.hpp **** #ifndef OS1_VEZBE07_RISCV_CONTEXT_SWITCH_1_SYNCHRONOUS_LIST_HPP
   6:src/../h/list.hpp **** #define OS1_VEZBE07_RISCV_CONTEXT_SWITCH_1_SYNCHRONOUS_LIST_HPP
   7:src/../h/list.hpp **** #include "../lib/mem.h"
   8:src/../h/list.hpp **** template<typename T>
   9:src/../h/list.hpp **** class List
  10:src/../h/list.hpp **** {
  11:src/../h/list.hpp **** private:
  12:src/../h/list.hpp ****     struct Elem
  13:src/../h/list.hpp ****     {
  14:src/../h/list.hpp ****         T *data;
  15:src/../h/list.hpp ****         Elem *next;
  16:src/../h/list.hpp **** 
  17:src/../h/list.hpp ****         Elem(T *data, Elem *next) : data(data), next(next) {}
  18:src/../h/list.hpp ****         void *operator new (size_t size){return __mem_alloc(size);}
  19:src/../h/list.hpp ****         void operator delete (void * ptr){ __mem_free(ptr);}
  20:src/../h/list.hpp ****     };
  21:src/../h/list.hpp **** 
  22:src/../h/list.hpp ****     Elem *head, *tail;
  23:src/../h/list.hpp ****     unsigned sizeofList=0;
  24:src/../h/list.hpp **** public:
  25:src/../h/list.hpp ****     List() : head(0), tail(0) {
 162              		.loc 4 25 29
 163 00d8 23300500 		sd	zero,0(a0)
 164 00dc 23340500 		sd	zero,8(a0)
 165 00e0 23280500 		sw	zero,16(a0)
 166              	.LVL17:
 167              	.LBE57:
 168              	.LBE56:
GAS LISTING /tmp/ccgHMkRD.s 			page 6


 169              	.LBE55:
 170              		.loc 1 27 21
 171 00e4 97070000 		la	a5,_ZN5Riscv8timelistE
 171      83B70700 
 172 00ec 23B0A700 		sd	a0,0(a5)
  28:src/main.cpp  **** 
  29:src/main.cpp  **** 
  30:src/main.cpp  ****     TCB*kernel = TCB::getKernel();
 173              		.loc 1 30 5 is_stmt 1
 174              		.loc 1 30 32 is_stmt 0
 175 00f0 97000000 		call	_ZN3TCB9getKernelEv@plt
 175      E7800000 
 176              	.LVL18:
 177 00f8 93090500 		mv	s3,a0
 178              	.LVL19:
  31:src/main.cpp  ****     TCB *idle = TCB::getIdle();
 179              		.loc 1 31 5 is_stmt 1
 180              		.loc 1 31 29 is_stmt 0
 181 00fc 97000000 		call	_ZN3TCB7getIdleEv@plt
 181      E7800000 
 182              	.LVL20:
 183 0104 13090500 		mv	s2,a0
 184              	.LVL21:
  32:src/main.cpp  ****     TCB *output = TCB::getOutputTh();
 185              		.loc 1 32 5 is_stmt 1
 186              		.loc 1 32 35 is_stmt 0
 187 0108 97000000 		call	_ZN3TCB11getOutputThEv@plt
 187      E7800000 
 188              	.LVL22:
 189 0110 93040500 		mv	s1,a0
 190              	.LVL23:
  33:src/main.cpp  **** 
  34:src/main.cpp  ****     Riscv::w_stvec((uint64) &Riscv::supervisorTrap);
 191              		.loc 1 34 5 is_stmt 1
 192              		.loc 1 34 19 is_stmt 0
 193 0114 97070000 		la	a5,_ZN5Riscv14supervisorTrapEv
 193      83B70700 
 194              	.LVL24:
 195              	.LBB58:
 196              	.LBB59:
 197              		.file 5 "src/../h/riscv.hpp"
   1:src/../h/riscv.hpp **** //
   2:src/../h/riscv.hpp **** // Created by os on 7/20/22.
   3:src/../h/riscv.hpp **** //
   4:src/../h/riscv.hpp **** 
   5:src/../h/riscv.hpp **** #ifndef OSPROJECT_RISCV_HPP
   6:src/../h/riscv.hpp **** #define OSPROJECT_RISCV_HPP
   7:src/../h/riscv.hpp **** 
   8:src/../h/riscv.hpp **** #include "../lib/hw.h"
   9:src/../h/riscv.hpp **** #include "Buffer.hpp"
  10:src/../h/riscv.hpp **** #include "TimeList.hpp"
  11:src/../h/riscv.hpp **** class Riscv
  12:src/../h/riscv.hpp **** {
  13:src/../h/riscv.hpp **** public:
  14:src/../h/riscv.hpp **** 
  15:src/../h/riscv.hpp ****     // pop sstatus.spp and sstatus.spie bits (has to be a non inline function)
  16:src/../h/riscv.hpp ****     static void popSppSpie();
GAS LISTING /tmp/ccgHMkRD.s 			page 7


  17:src/../h/riscv.hpp **** 
  18:src/../h/riscv.hpp ****     // push x3..x31 registers onto stack
  19:src/../h/riscv.hpp ****     static void pushRegisters();
  20:src/../h/riscv.hpp **** 
  21:src/../h/riscv.hpp ****     // pop x3..x31 registers onto stack
  22:src/../h/riscv.hpp ****     static void popRegisters();
  23:src/../h/riscv.hpp **** 
  24:src/../h/riscv.hpp ****     // read register scause
  25:src/../h/riscv.hpp ****     static uint64 r_scause();
  26:src/../h/riscv.hpp **** 
  27:src/../h/riscv.hpp ****     // write register scause
  28:src/../h/riscv.hpp ****     static void w_scause(uint64 scause);
  29:src/../h/riscv.hpp **** 
  30:src/../h/riscv.hpp ****     // read register sepc
  31:src/../h/riscv.hpp ****     static uint64 r_sepc();
  32:src/../h/riscv.hpp **** 
  33:src/../h/riscv.hpp ****     // write register sepc
  34:src/../h/riscv.hpp ****     static void w_sepc(uint64 sepc);
  35:src/../h/riscv.hpp **** 
  36:src/../h/riscv.hpp ****     // read register stvec
  37:src/../h/riscv.hpp ****     static uint64 r_stvec();
  38:src/../h/riscv.hpp **** 
  39:src/../h/riscv.hpp ****     // write register stvec
  40:src/../h/riscv.hpp ****     static void w_stvec(uint64 stvec);
  41:src/../h/riscv.hpp **** 
  42:src/../h/riscv.hpp ****     // read register stval
  43:src/../h/riscv.hpp ****     static uint64 r_stval();
  44:src/../h/riscv.hpp **** 
  45:src/../h/riscv.hpp ****     // write register stval
  46:src/../h/riscv.hpp ****     static void w_stval(uint64 stval);
  47:src/../h/riscv.hpp **** 
  48:src/../h/riscv.hpp ****     enum BitMaskSip:uint64
  49:src/../h/riscv.hpp ****     {
  50:src/../h/riscv.hpp ****         SIP_SSIP = (1UL << 1),
  51:src/../h/riscv.hpp ****         SIP_STIP = (1UL << 5),
  52:src/../h/riscv.hpp ****         SIP_SEIP = (1UL << 9),
  53:src/../h/riscv.hpp ****     };
  54:src/../h/riscv.hpp **** 
  55:src/../h/riscv.hpp ****     // mask set register sip
  56:src/../h/riscv.hpp ****     static void ms_sip(uint64 mask);
  57:src/../h/riscv.hpp **** 
  58:src/../h/riscv.hpp ****     // mask clear register sip
  59:src/../h/riscv.hpp ****     static void mc_sip(uint64 mask);
  60:src/../h/riscv.hpp **** 
  61:src/../h/riscv.hpp ****     // read register sip
  62:src/../h/riscv.hpp ****     static uint64 r_sip();
  63:src/../h/riscv.hpp **** 
  64:src/../h/riscv.hpp ****     // write register sip
  65:src/../h/riscv.hpp ****     static void w_sip(uint64 sip);
  66:src/../h/riscv.hpp ****     //write return Value
  67:src/../h/riscv.hpp ****     static void retValueRISV(uint64 retVal);
  68:src/../h/riscv.hpp **** 
  69:src/../h/riscv.hpp **** 
  70:src/../h/riscv.hpp ****     enum BitMaskSstatus:uint64
  71:src/../h/riscv.hpp ****     {
  72:src/../h/riscv.hpp ****         SSTATUS_SIE = (1UL << 1),
  73:src/../h/riscv.hpp ****         SSTATUS_SPIE = (1UL << 5),
GAS LISTING /tmp/ccgHMkRD.s 			page 8


  74:src/../h/riscv.hpp ****         SSTATUS_SPP = (1UL << 8),
  75:src/../h/riscv.hpp ****     };
  76:src/../h/riscv.hpp **** 
  77:src/../h/riscv.hpp ****     // mask set register sstatus
  78:src/../h/riscv.hpp ****     static void ms_sstatus(uint64 mask);
  79:src/../h/riscv.hpp **** 
  80:src/../h/riscv.hpp ****     // mask clear register sstatus
  81:src/../h/riscv.hpp ****     static void mc_sstatus(uint64 mask);
  82:src/../h/riscv.hpp **** 
  83:src/../h/riscv.hpp ****     // read register sstatus
  84:src/../h/riscv.hpp ****     static uint64 r_sstatus();
  85:src/../h/riscv.hpp **** 
  86:src/../h/riscv.hpp ****     // write register sstatus
  87:src/../h/riscv.hpp ****     static void w_sstatus(uint64 sstatus);
  88:src/../h/riscv.hpp **** 
  89:src/../h/riscv.hpp ****     //supervisor trap
  90:src/../h/riscv.hpp ****     static void supervisorTrap();
  91:src/../h/riscv.hpp ****     //restores privilage
  92:src/../h/riscv.hpp ****     static void Rest_Priv();
  93:src/../h/riscv.hpp **** 
  94:src/../h/riscv.hpp ****     static _Buffer * bufferIn ;
  95:src/../h/riscv.hpp ****     static _Buffer * bufferOut ;
  96:src/../h/riscv.hpp ****     static TimeList * timelist;
  97:src/../h/riscv.hpp **** 
  98:src/../h/riscv.hpp **** private:
  99:src/../h/riscv.hpp ****     // obradjuje prekid
 100:src/../h/riscv.hpp ****     static void handleSupervisorTrap();
 101:src/../h/riscv.hpp **** 
 102:src/../h/riscv.hpp **** };
 103:src/../h/riscv.hpp **** 
 104:src/../h/riscv.hpp **** inline uint64 Riscv::r_scause()
 105:src/../h/riscv.hpp **** {
 106:src/../h/riscv.hpp ****     uint64 volatile scause;
 107:src/../h/riscv.hpp ****     __asm__ volatile ("csrr %[scause], scause" : [scause] "=r"(scause));
 108:src/../h/riscv.hpp ****     return scause;
 109:src/../h/riscv.hpp **** }
 110:src/../h/riscv.hpp **** 
 111:src/../h/riscv.hpp **** inline void Riscv::w_scause(uint64 scause)
 112:src/../h/riscv.hpp **** {
 113:src/../h/riscv.hpp ****     __asm__ volatile ("csrw scause, %[scause]" : : [scause] "r"(scause));
 114:src/../h/riscv.hpp **** }
 115:src/../h/riscv.hpp **** 
 116:src/../h/riscv.hpp **** inline uint64 Riscv::r_sepc()
 117:src/../h/riscv.hpp **** {
 118:src/../h/riscv.hpp ****     uint64 volatile sepc;
 119:src/../h/riscv.hpp ****     __asm__ volatile ("csrr %[sepc], sepc" : [sepc] "=r"(sepc));
 120:src/../h/riscv.hpp ****     return sepc;
 121:src/../h/riscv.hpp **** }
 122:src/../h/riscv.hpp **** 
 123:src/../h/riscv.hpp **** inline void Riscv::w_sepc(uint64 sepc)
 124:src/../h/riscv.hpp **** {
 125:src/../h/riscv.hpp ****     __asm__ volatile ("csrw sepc, %[sepc]" : : [sepc] "r"(sepc));
 126:src/../h/riscv.hpp **** }
 127:src/../h/riscv.hpp **** 
 128:src/../h/riscv.hpp **** inline uint64 Riscv::r_stvec()
 129:src/../h/riscv.hpp **** {
 130:src/../h/riscv.hpp ****     uint64 volatile stvec;
GAS LISTING /tmp/ccgHMkRD.s 			page 9


 131:src/../h/riscv.hpp ****     __asm__ volatile ("csrr %[stvec], stvec" : [stvec] "=r"(stvec));
 132:src/../h/riscv.hpp ****     return stvec;
 133:src/../h/riscv.hpp **** }
 134:src/../h/riscv.hpp **** 
 135:src/../h/riscv.hpp **** inline void Riscv::w_stvec(uint64 stvec)
 136:src/../h/riscv.hpp **** {
 137:src/../h/riscv.hpp ****     __asm__ volatile ("csrw stvec, %[stvec]" : : [stvec] "r"(stvec));
 198              		.loc 5 137 5 is_stmt 1
 199              		.loc 5 137 69 is_stmt 0
 200              	#APP
 201              	# 137 "src/../h/riscv.hpp" 1
 138              	}
 202              		csrw stvec, a5
 203              	# 0 "" 2
 204              	.LVL25:
 205              	#NO_APP
 206              	.LBE59:
 207              	.LBE58:
  35:src/main.cpp  ****     Riscv::ms_sstatus(Riscv::SSTATUS_SIE);
 208              		.loc 1 35 5 is_stmt 1
 209              	.LBB60:
 210              	.LBB61:
 139:src/../h/riscv.hpp **** 
 140:src/../h/riscv.hpp **** inline uint64 Riscv::r_stval()
 141:src/../h/riscv.hpp **** {
 142:src/../h/riscv.hpp ****     uint64 volatile stval;
 143:src/../h/riscv.hpp ****     __asm__ volatile ("csrr %[stval], stval" : [stval] "=r"(stval));
 144:src/../h/riscv.hpp ****     return stval;
 145:src/../h/riscv.hpp **** }
 146:src/../h/riscv.hpp **** 
 147:src/../h/riscv.hpp **** inline void Riscv::w_stval(uint64 stval)
 148:src/../h/riscv.hpp **** {
 149:src/../h/riscv.hpp ****     __asm__ volatile ("csrw stval, %[stval]" : : [stval] "r"(stval));
 150:src/../h/riscv.hpp **** }
 151:src/../h/riscv.hpp **** 
 152:src/../h/riscv.hpp **** inline void Riscv::ms_sip(uint64 mask)
 153:src/../h/riscv.hpp **** {
 154:src/../h/riscv.hpp ****     __asm__ volatile ("csrs sip, %[mask]" : : [mask] "r"(mask));
 155:src/../h/riscv.hpp **** }
 156:src/../h/riscv.hpp **** 
 157:src/../h/riscv.hpp **** inline void Riscv::mc_sip(uint64 mask)
 158:src/../h/riscv.hpp **** {
 159:src/../h/riscv.hpp ****     __asm__ volatile ("csrc sip, %[mask]" : : [mask] "r"(mask));
 160:src/../h/riscv.hpp **** }
 161:src/../h/riscv.hpp **** 
 162:src/../h/riscv.hpp **** inline uint64 Riscv::r_sip()
 163:src/../h/riscv.hpp **** {
 164:src/../h/riscv.hpp ****     uint64 volatile sip;
 165:src/../h/riscv.hpp ****     __asm__ volatile ("csrr %[sip], sip" : [sip] "=r"(sip));
 166:src/../h/riscv.hpp ****     return sip;
 167:src/../h/riscv.hpp **** }
 168:src/../h/riscv.hpp **** 
 169:src/../h/riscv.hpp **** inline void Riscv::w_sip(uint64 sip)
 170:src/../h/riscv.hpp **** {
 171:src/../h/riscv.hpp ****     __asm__ volatile ("csrw sip, %[sip]" : : [sip] "r"(sip));
 172:src/../h/riscv.hpp **** }
 173:src/../h/riscv.hpp **** 
GAS LISTING /tmp/ccgHMkRD.s 			page 10


 174:src/../h/riscv.hpp **** inline void Riscv::ms_sstatus(uint64 mask)
 175:src/../h/riscv.hpp **** {
 176:src/../h/riscv.hpp ****     __asm__ volatile ("csrs sstatus, %[mask]" : : [mask] "r"(mask));
 211              		.loc 5 176 5
 212              		.loc 5 176 68 is_stmt 0
 213 0120 93072000 		li	a5,2
 214              	#APP
 215              	# 176 "src/../h/riscv.hpp" 1
 177              	}
 216              		csrs sstatus, a5
 217              	# 0 "" 2
 218              	.LVL26:
 219              	#NO_APP
 220              	.LBE61:
 221              	.LBE60:
  36:src/main.cpp  ****     sem_t user_sem;
 222              		.loc 1 36 5 is_stmt 1
  37:src/main.cpp  ****     sem_open(&user_sem, 0);
 223              		.loc 1 37 5
 224              		.loc 1 37 13 is_stmt 0
 225 0128 93050000 		li	a1,0
 226 012c 130584FC 		addi	a0,s0,-56
 227 0130 97000000 		call	_Z8sem_openPP4_semj@plt
 227      E7800000 
 228              	.LVL27:
  38:src/main.cpp  **** 
  39:src/main.cpp  ****     thread_t user;
 229              		.loc 1 39 5 is_stmt 1
  40:src/main.cpp  ****     thread_create(&user, user_wrapper, user_sem);
 230              		.loc 1 40 5
 231              		.loc 1 40 18 is_stmt 0
 232 0138 033684FC 		ld	a2,-56(s0)
 233 013c 97050000 		lla	a1,_Z12user_wrapperPv
 233      93850500 
 234 0144 130504FC 		addi	a0,s0,-64
 235 0148 97000000 		call	_Z13thread_createPP3TCBPFvPvES2_@plt
 235      E7800000 
 236              	.LVL28:
  41:src/main.cpp  ****     sem_wait(user_sem);
 237              		.loc 1 41 5 is_stmt 1
 238              		.loc 1 41 13 is_stmt 0
 239 0150 033584FC 		ld	a0,-56(s0)
 240 0154 97000000 		call	_Z8sem_waitP4_sem@plt
 240      E7800000 
 241              	.LVL29:
 242              	.L5:
  42:src/main.cpp  ****     while(Riscv::bufferOut->retSize()>0){thread_dispatch();}
 243              		.loc 1 42 5 is_stmt 1
 244              		.loc 1 42 38
 245              		.loc 1 42 36 is_stmt 0
 246 015c 97070000 		la	a5,_ZN5Riscv9bufferOutE
 246      83B70700 
 247 0164 83B70700 		ld	a5,0(a5)
 248              	.LVL30:
 249              	.LBB62:
 250              	.LBB63:
  13:src/../h/Buffer.hpp ****     void operator delete (void*ptr){ __mem_free(ptr);}
GAS LISTING /tmp/ccgHMkRD.s 			page 11


  14:src/../h/Buffer.hpp **** 
  15:src/../h/Buffer.hpp ****     _Buffer();
  16:src/../h/Buffer.hpp ****     _Buffer(int cap);
  17:src/../h/Buffer.hpp ****     ~_Buffer();
  18:src/../h/Buffer.hpp **** 
  19:src/../h/Buffer.hpp ****     char get();
  20:src/../h/Buffer.hpp ****     void sys_put(char c);
  21:src/../h/Buffer.hpp ****     char sys_get();
  22:src/../h/Buffer.hpp ****     int retSize()const {return size;}
 251              		.loc 2 22 25 is_stmt 1
 252              		.loc 2 22 32 is_stmt 0
 253 0168 83A70712 		lw	a5,288(a5)
 254              	.LVL31:
 255              	.LBE63:
 256              	.LBE62:
 257              		.loc 1 42 38
 258 016c 6358F000 		blez	a5,.L4
 259              		.loc 1 42 42 is_stmt 1 discriminator 1
 260              		.loc 1 42 57 is_stmt 0 discriminator 1
 261 0170 97000000 		call	_Z15thread_dispatchv@plt
 261      E7800000 
 262              	.LVL32:
 263 0178 6FF05FFE 		j	.L5
 264              	.L4:
  43:src/main.cpp  ****     Riscv::mc_sstatus(Riscv::SSTATUS_SIE);
 265              		.loc 1 43 5 is_stmt 1
 266              	.LVL33:
 267              	.LBB64:
 268              	.LBB65:
 178:src/../h/riscv.hpp **** 
 179:src/../h/riscv.hpp **** inline void Riscv::mc_sstatus(uint64 mask)
 180:src/../h/riscv.hpp **** {
 181:src/../h/riscv.hpp ****     __asm__ volatile ("csrc sstatus, %[mask]" : : [mask] "r"(mask));
 269              		.loc 5 181 5
 270              		.loc 5 181 68 is_stmt 0
 271 017c 93072000 		li	a5,2
 272              	#APP
 273              	# 181 "src/../h/riscv.hpp" 1
 182              	}
 274              		csrc sstatus, a5
 275              	# 0 "" 2
 276              	.LVL34:
 277              	#NO_APP
 278              	.LBE65:
 279              	.LBE64:
  44:src/main.cpp  **** 
  45:src/main.cpp  ****     delete kernel;
 280              		.loc 1 45 5 is_stmt 1
 281              		.loc 1 45 18 is_stmt 0
 282 0184 63800902 		beqz	s3,.L6
 283              	.LVL35:
 284              	.LBB66:
 285              	.LBB67:
 286              		.file 6 "src/../h/tcb.hpp"
   1:src/../h/tcb.hpp **** //
   2:src/../h/tcb.hpp **** // Created by os on 7/30/22.
   3:src/../h/tcb.hpp **** //
GAS LISTING /tmp/ccgHMkRD.s 			page 12


   4:src/../h/tcb.hpp **** 
   5:src/../h/tcb.hpp **** #ifndef OSPROJECT_TCB_HPP
   6:src/../h/tcb.hpp **** #define OSPROJECT_TCB_HPP
   7:src/../h/tcb.hpp **** 
   8:src/../h/tcb.hpp **** #include "../lib/hw.h"
   9:src/../h/tcb.hpp **** #include "scheduler.hpp"
  10:src/../h/tcb.hpp **** #include "../lib/mem.h"
  11:src/../h/tcb.hpp **** class TCB{
  12:src/../h/tcb.hpp **** 
  13:src/../h/tcb.hpp **** public:
  14:src/../h/tcb.hpp ****     ~TCB(){delete[] stack;}
 287              		.loc 6 14 12 is_stmt 1
 288              		.loc 6 14 21 is_stmt 0
 289 0188 03B50901 		ld	a0,16(s3)
 290              		.loc 6 14 26
 291 018c 63060500 		beqz	a0,.L7
 292              		.loc 6 14 21
 293 0190 97000000 		call	_ZdaPv@plt
 293      E7800000 
 294              	.LVL36:
 295              	.L7:
 296              	.LBE67:
 297              	.LBE66:
 298              	.LBB68:
 299              	.LBB69:
  15:src/../h/tcb.hpp ****     using Body = void (*)(void*);
  16:src/../h/tcb.hpp ****     static TCB *initThreadWithRun(Body body,void *arg,uint64*stack);
  17:src/../h/tcb.hpp ****     static TCB *initThreadWithNoRun(Body body , void*arg,uint64*stack);
  18:src/../h/tcb.hpp ****     static TCB* running;
  19:src/../h/tcb.hpp ****     static TCB* idle;
  20:src/../h/tcb.hpp ****     static TCB * kernel;
  21:src/../h/tcb.hpp ****     static TCB * outputTh;
  22:src/../h/tcb.hpp ****     int id=0;
  23:src/../h/tcb.hpp ****     bool isFinished(){
  24:src/../h/tcb.hpp ****         return status.getFinished();
  25:src/../h/tcb.hpp ****     }
  26:src/../h/tcb.hpp ****     uint64 getTimeSlice(){return timeSlice;}
  27:src/../h/tcb.hpp ****     static TCB* getIdle();
  28:src/../h/tcb.hpp ****     static TCB* getKernel();
  29:src/../h/tcb.hpp ****     static TCB* getOutputTh();
  30:src/../h/tcb.hpp ****     int start();
  31:src/../h/tcb.hpp ****     void *operator new(size_t size) { return __mem_alloc(size); }
  32:src/../h/tcb.hpp ****     void operator delete(void *ptr) { __mem_free(ptr); }
 300              		.loc 6 32 39 is_stmt 1
 301              		.loc 6 32 49 is_stmt 0
 302 0198 13850900 		mv	a0,s3
 303 019c 97000000 		call	__mem_free@plt
 303      E7800000 
 304              	.LVL37:
 305              	.L6:
 306              	.LBE69:
 307              	.LBE68:
  46:src/main.cpp  ****     delete idle;
 308              		.loc 1 46 5 is_stmt 1
 309              		.loc 1 46 16 is_stmt 0
 310 01a4 63000902 		beqz	s2,.L8
 311              	.LVL38:
GAS LISTING /tmp/ccgHMkRD.s 			page 13


 312              	.LBB70:
 313              	.LBB71:
  14:src/../h/tcb.hpp ****     using Body = void (*)(void*);
 314              		.loc 6 14 12 is_stmt 1
  14:src/../h/tcb.hpp ****     using Body = void (*)(void*);
 315              		.loc 6 14 21 is_stmt 0
 316 01a8 03350901 		ld	a0,16(s2)
  14:src/../h/tcb.hpp ****     using Body = void (*)(void*);
 317              		.loc 6 14 26
 318 01ac 63060500 		beqz	a0,.L9
  14:src/../h/tcb.hpp ****     using Body = void (*)(void*);
 319              		.loc 6 14 21
 320 01b0 97000000 		call	_ZdaPv@plt
 320      E7800000 
 321              	.LVL39:
 322              	.L9:
 323              	.LBE71:
 324              	.LBE70:
 325              	.LBB72:
 326              	.LBB73:
 327              		.loc 6 32 39 is_stmt 1
 328              		.loc 6 32 49 is_stmt 0
 329 01b8 13050900 		mv	a0,s2
 330 01bc 97000000 		call	__mem_free@plt
 330      E7800000 
 331              	.LVL40:
 332              	.L8:
 333              	.LBE73:
 334              	.LBE72:
  47:src/main.cpp  ****     delete output;
 335              		.loc 1 47 5 is_stmt 1
 336              		.loc 1 47 18 is_stmt 0
 337 01c4 63800402 		beqz	s1,.L10
 338              	.LVL41:
 339              	.LBB74:
 340              	.LBB75:
  14:src/../h/tcb.hpp ****     using Body = void (*)(void*);
 341              		.loc 6 14 12 is_stmt 1
  14:src/../h/tcb.hpp ****     using Body = void (*)(void*);
 342              		.loc 6 14 21 is_stmt 0
 343 01c8 03B50401 		ld	a0,16(s1)
  14:src/../h/tcb.hpp ****     using Body = void (*)(void*);
 344              		.loc 6 14 26
 345 01cc 63060500 		beqz	a0,.L11
  14:src/../h/tcb.hpp ****     using Body = void (*)(void*);
 346              		.loc 6 14 21
 347 01d0 97000000 		call	_ZdaPv@plt
 347      E7800000 
 348              	.LVL42:
 349              	.L11:
 350              	.LBE75:
 351              	.LBE74:
 352              	.LBB76:
 353              	.LBB77:
 354              		.loc 6 32 39 is_stmt 1
 355              		.loc 6 32 49 is_stmt 0
 356 01d8 13850400 		mv	a0,s1
GAS LISTING /tmp/ccgHMkRD.s 			page 14


 357 01dc 97000000 		call	__mem_free@plt
 357      E7800000 
 358              	.LVL43:
 359              	.L10:
 360              	.LBE77:
 361              	.LBE76:
  48:src/main.cpp  ****     delete user;
 362              		.loc 1 48 5 is_stmt 1
 363              		.loc 1 48 12 is_stmt 0
 364 01e4 833404FC 		ld	s1,-64(s0)
 365              	.LVL44:
 366              		.loc 1 48 16
 367 01e8 63800402 		beqz	s1,.L12
 368              	.LVL45:
 369              	.LBB78:
 370              	.LBB79:
  14:src/../h/tcb.hpp ****     using Body = void (*)(void*);
 371              		.loc 6 14 12 is_stmt 1
  14:src/../h/tcb.hpp ****     using Body = void (*)(void*);
 372              		.loc 6 14 21 is_stmt 0
 373 01ec 03B50401 		ld	a0,16(s1)
  14:src/../h/tcb.hpp ****     using Body = void (*)(void*);
 374              		.loc 6 14 26
 375 01f0 63060500 		beqz	a0,.L13
  14:src/../h/tcb.hpp ****     using Body = void (*)(void*);
 376              		.loc 6 14 21
 377 01f4 97000000 		call	_ZdaPv@plt
 377      E7800000 
 378              	.LVL46:
 379              	.L13:
 380              	.LBE79:
 381              	.LBE78:
 382              	.LBB80:
 383              	.LBB81:
 384              		.loc 6 32 39 is_stmt 1
 385              		.loc 6 32 49 is_stmt 0
 386 01fc 13850400 		mv	a0,s1
 387 0200 97000000 		call	__mem_free@plt
 387      E7800000 
 388              	.LVL47:
 389              	.L12:
 390              	.LBE81:
 391              	.LBE80:
  49:src/main.cpp  ****     printString("main has fshed\n");
 392              		.loc 1 49 5 is_stmt 1
 393              		.loc 1 49 16 is_stmt 0
 394 0208 17050000 		lla	a0,.LC2
 394      13050500 
 395 0210 97000000 		call	_Z11printStringPKc@plt
 395      E7800000 
 396              	.LVL48:
 397              	.LEHE4:
  50:src/main.cpp  **** 
  51:src/main.cpp  **** 
  52:src/main.cpp  ****     return 1;
 398              		.loc 1 52 5 is_stmt 1
  53:src/main.cpp  **** }
GAS LISTING /tmp/ccgHMkRD.s 			page 15


 399              		.loc 1 53 1 is_stmt 0
 400 0218 13051000 		li	a0,1
 401 021c 83308103 		ld	ra,56(sp)
 402              		.cfi_remember_state
 403              		.cfi_restore 1
 404 0220 03340103 		ld	s0,48(sp)
 405              		.cfi_restore 8
 406              		.cfi_def_cfa 2, 64
 407 0224 83348102 		ld	s1,40(sp)
 408              		.cfi_restore 9
 409 0228 03390102 		ld	s2,32(sp)
 410              		.cfi_restore 18
 411              	.LVL49:
 412 022c 83398101 		ld	s3,24(sp)
 413              		.cfi_restore 19
 414              	.LVL50:
 415 0230 13010104 		addi	sp,sp,64
 416              		.cfi_def_cfa_offset 0
 417 0234 67800000 		jr	ra
 418              	.L16:
 419              		.cfi_restore_state
 420 0238 13090500 		mv	s2,a0
 421              	.LVL51:
 422              	.LBB82:
 423              	.LBB83:
  13:src/../h/Buffer.hpp **** 
 424              		.loc 2 13 38 is_stmt 1
  13:src/../h/Buffer.hpp **** 
 425              		.loc 2 13 48 is_stmt 0
 426 023c 13850400 		mv	a0,s1
 427 0240 97000000 		call	__mem_free@plt
 427      E7800000 
 428              	.LVL52:
 429 0248 13050900 		mv	a0,s2
 430              	.LEHB5:
 431 024c 97000000 		call	_Unwind_Resume@plt
 431      E7800000 
 432              	.LVL53:
 433              	.LEHE5:
 434              	.L17:
 435 0254 13090500 		mv	s2,a0
 436              	.LVL54:
 437              	.LBE83:
 438              	.LBE82:
 439              	.LBB84:
 440              	.LBB85:
  13:src/../h/Buffer.hpp **** 
 441              		.loc 2 13 38 is_stmt 1
  13:src/../h/Buffer.hpp **** 
 442              		.loc 2 13 48 is_stmt 0
 443 0258 13850400 		mv	a0,s1
 444 025c 97000000 		call	__mem_free@plt
 444      E7800000 
 445              	.LVL55:
 446 0264 13050900 		mv	a0,s2
 447              	.LEHB6:
 448 0268 97000000 		call	_Unwind_Resume@plt
GAS LISTING /tmp/ccgHMkRD.s 			page 16


 448      E7800000 
 449              	.LVL56:
 450              	.LEHE6:
 451              	.LBE85:
 452              	.LBE84:
 453              		.cfi_endproc
 454              	.LFE92:
 455              		.globl	__gxx_personality_v0
 456              		.section	.gcc_except_table,"a",@progbits
 457              	.LLSDA92:
 458 0000 FF       		.byte	0xff
 459 0001 FF       		.byte	0xff
 460 0002 03       		.byte	0x3
 461 0003 5B       		.byte	0x5b
 462 0004 00000000 		.4byte	.LEHB0-.LFB92
 463 0008 00000000 		.4byte	.LEHE0-.LEHB0
 464 000c 00000000 		.4byte	0
 465 0010 00       		.byte	0
 466 0011 00000000 		.4byte	.LEHB1-.LFB92
 467 0015 00000000 		.4byte	.LEHE1-.LEHB1
 468 0019 00000000 		.4byte	.L16-.LFB92
 469 001d 00       		.byte	0
 470 001e 00000000 		.4byte	.LEHB2-.LFB92
 471 0022 00000000 		.4byte	.LEHE2-.LEHB2
 472 0026 00000000 		.4byte	0
 473 002a 00       		.byte	0
 474 002b 00000000 		.4byte	.LEHB3-.LFB92
 475 002f 00000000 		.4byte	.LEHE3-.LEHB3
 476 0033 00000000 		.4byte	.L17-.LFB92
 477 0037 00       		.byte	0
 478 0038 00000000 		.4byte	.LEHB4-.LFB92
 479 003c 00000000 		.4byte	.LEHE4-.LEHB4
 480 0040 00000000 		.4byte	0
 481 0044 00       		.byte	0
 482 0045 00000000 		.4byte	.LEHB5-.LFB92
 483 0049 00000000 		.4byte	.LEHE5-.LEHB5
 484 004d 00000000 		.4byte	0
 485 0051 00       		.byte	0
 486 0052 00000000 		.4byte	.LEHB6-.LFB92
 487 0056 00000000 		.4byte	.LEHE6-.LEHB6
 488 005a 00000000 		.4byte	0
 489 005e 00       		.byte	0
 490              		.text
 492              		.data
 493              		.align	3
 494              		.set	.LANCHOR0,. + 0
 497              	_ZL6status:
 498 0000 01000000 		.dword	1
 498      00000000 
 499              		.text
 500              	.Letext0:
 501              		.file 7 "src/../h/../lib/hw.h"
 502              		.file 8 "src/../test/../h/syscall_c.hpp"
 503              		.file 9 "src/../h/_sem.hpp"
 504              		.file 10 "src/../h/globals.hpp"
 505              		.file 11 "src/../h/../lib/mem.h"
 506              		.file 12 "src/../test/printing.hpp"
GAS LISTING /tmp/ccgHMkRD.s 			page 17


 507              		.file 13 "src/../h/userMain.hpp"
 5883              		.align	3
 5886              	DW.ref.__gxx_personality_v0:
 5887 0000 00000000 		.dword	__gxx_personality_v0
 5887      00000000 
 5888              		.ident	"GCC: (Ubuntu 9.4.0-1ubuntu1~20.04) 9.4.0"
 5889              		.section	.note.GNU-stack,"",@progbits
GAS LISTING /tmp/ccgHMkRD.s 			page 18

