GAS LISTING /tmp/ccnDdHtb.s 			page 1


   1              		.file	"MemAlloc.cpp"
   2              		.option pic
   3              		.option norelax
   4              		.text
   5              	.Ltext0:
   6              		.align	2
   7              		.globl	_ZN8MemAlloc7initMemEv
   9              	_ZN8MemAlloc7initMemEv:
  10              	.LFB0:
  11              		.file 1 "src/MemAlloc.cpp"
   1:src/MemAlloc.cpp **** //
   2:src/MemAlloc.cpp **** // Created by os on 8/24/22.
   3:src/MemAlloc.cpp **** //
   4:src/MemAlloc.cpp **** 
   5:src/MemAlloc.cpp **** #include "../h/MemAlloc.hpp"
   6:src/MemAlloc.cpp **** 
   7:src/MemAlloc.cpp **** Descriptor* MemAlloc::memfree= nullptr;
   8:src/MemAlloc.cpp **** Descriptor* MemAlloc::memalloc= nullptr;
   9:src/MemAlloc.cpp **** 
  10:src/MemAlloc.cpp **** 
  11:src/MemAlloc.cpp **** 
  12:src/MemAlloc.cpp **** void MemAlloc::initMem() {
  12              		.loc 1 12 26
  13              		.cfi_startproc
  14 0000 130101FF 		addi	sp,sp,-16
  15              		.cfi_def_cfa_offset 16
  16 0004 23348100 		sd	s0,8(sp)
  17              		.cfi_offset 8, -8
  18 0008 13040101 		addi	s0,sp,16
  19              		.cfi_def_cfa 8, 0
  13:src/MemAlloc.cpp ****     memfree=(Descriptor*)HEAP_START_ADDR;
  20              		.loc 1 13 5
  21              		.loc 1 13 12 is_stmt 0
  22 000c 97060000 		la	a3,HEAP_START_ADDR
  22      83B60600 
  23 0014 83B70600 		ld	a5,0(a3)
  24 0018 17070000 		lla	a4,.LANCHOR0
  24      13070700 
  25 0020 2330F700 		sd	a5,0(a4)
  14:src/MemAlloc.cpp ****     memfree->prev= nullptr;
  26              		.loc 1 14 5 is_stmt 1
  27              		.loc 1 14 18 is_stmt 0
  28 0024 23B40700 		sd	zero,8(a5)
  15:src/MemAlloc.cpp ****     memfree->next= nullptr;
  29              		.loc 1 15 5 is_stmt 1
  30              		.loc 1 15 18 is_stmt 0
  31 0028 23B00700 		sd	zero,0(a5)
  16:src/MemAlloc.cpp ****     memfree->size=(size_t)(HEAP_SIZE);
  32              		.loc 1 16 5 is_stmt 1
  33              		.loc 1 16 28 is_stmt 0
  34 002c 97070000 		la	a5,HEAP_END_ADDR
  34      83B70700 
  35 0034 83B70700 		ld	a5,0(a5)
  36 0038 83B60600 		ld	a3,0(a3)
  37 003c B387D740 		sub	a5,a5,a3
  38              		.loc 1 16 14
  39 0040 03370700 		ld	a4,0(a4)
GAS LISTING /tmp/ccnDdHtb.s 			page 2


  40              		.loc 1 16 28
  41 0044 938707FC 		addi	a5,a5,-64
  42              		.loc 1 16 18
  43 0048 2338F700 		sd	a5,16(a4)
  17:src/MemAlloc.cpp ****     memfree->status=0;
  44              		.loc 1 17 5 is_stmt 1
  45              		.loc 1 17 20 is_stmt 0
  46 004c 232C0700 		sw	zero,24(a4)
  18:src/MemAlloc.cpp **** }
  47              		.loc 1 18 1
  48 0050 03348100 		ld	s0,8(sp)
  49              		.cfi_restore 8
  50              		.cfi_def_cfa 2, 16
  51 0054 13010101 		addi	sp,sp,16
  52              		.cfi_def_cfa_offset 0
  53 0058 67800000 		jr	ra
  54              		.cfi_endproc
  55              	.LFE0:
  57              		.align	2
  58              		.globl	_ZN8MemAlloc5allocEm
  60              	_ZN8MemAlloc5allocEm:
  61              	.LFB1:
  19:src/MemAlloc.cpp **** 
  20:src/MemAlloc.cpp **** void* MemAlloc::alloc(size_t size) {
  62              		.loc 1 20 36 is_stmt 1
  63              		.cfi_startproc
  64              	.LVL0:
  65 005c 130101FF 		addi	sp,sp,-16
  66              		.cfi_def_cfa_offset 16
  67 0060 23341100 		sd	ra,8(sp)
  68 0064 23308100 		sd	s0,0(sp)
  69              		.cfi_offset 1, -8
  70              		.cfi_offset 8, -16
  71 0068 13040101 		addi	s0,sp,16
  72              		.cfi_def_cfa 8, 0
  21:src/MemAlloc.cpp ****     size_t newSize = convert(size);
  73              		.loc 1 21 5
  74              		.loc 1 21 29 is_stmt 0
  75 006c 97000000 		call	_Z7convertm@plt
  75      E7800000 
  76              	.LVL1:
  77 0074 13070500 		mv	a4,a0
  78              	.LVL2:
  22:src/MemAlloc.cpp ****     Descriptor* cur = memfree;
  79              		.loc 1 22 5 is_stmt 1
  80              		.loc 1 22 17 is_stmt 0
  81 0078 97060000 		ld	a3,.LANCHOR0
  81      83B60600 
  82              	.LVL3:
  83 0080 13850600 		mv	a0,a3
  84              	.LVL4:
  85 0084 6F00C012 		j	.L26
  86              	.LVL5:
  87              	.L32:
  88              	.LBB2:
  89              	.LBB3:
  90              	.LBB4:
GAS LISTING /tmp/ccnDdHtb.s 			page 3


  23:src/MemAlloc.cpp ****     while(cur){
  24:src/MemAlloc.cpp ****         if(cur->size==newSize){
  25:src/MemAlloc.cpp ****            // remove(&memfree,cur);
  26:src/MemAlloc.cpp ****            if(cur==memfree){
  91              		.loc 1 26 12 is_stmt 1
  92 0088 630AD504 		beq	a0,a3,.L28
  27:src/MemAlloc.cpp ****                memfree=memfree->next;
  28:src/MemAlloc.cpp ****                if(memfree)memfree->prev= nullptr;
  29:src/MemAlloc.cpp ****                cur->next=cur->prev= nullptr;
  30:src/MemAlloc.cpp ****            }else
  31:src/MemAlloc.cpp ****                if(cur->next== nullptr){
  93              		.loc 1 31 16
  94              		.loc 1 31 24 is_stmt 0
  95 008c 83370500 		ld	a5,0(a0)
  96              		.loc 1 31 16
  97 0090 63860706 		beqz	a5,.L29
  32:src/MemAlloc.cpp ****                    cur->prev->next= nullptr;
  33:src/MemAlloc.cpp ****                    cur->prev= nullptr;
  34:src/MemAlloc.cpp ****                }else{
  35:src/MemAlloc.cpp ****                    cur->prev->next=cur->next;
  98              		.loc 1 35 20 is_stmt 1
  99              		.loc 1 35 25 is_stmt 0
 100 0094 03378500 		ld	a4,8(a0)
 101              	.LVL6:
 102              		.loc 1 35 35
 103 0098 2330F700 		sd	a5,0(a4)
  36:src/MemAlloc.cpp ****                    cur->next->prev=cur->prev;
 104              		.loc 1 36 20 is_stmt 1
 105              		.loc 1 36 25 is_stmt 0
 106 009c 83370500 		ld	a5,0(a0)
 107              		.loc 1 36 41
 108 00a0 03378500 		ld	a4,8(a0)
 109              		.loc 1 36 35
 110 00a4 23B4E700 		sd	a4,8(a5)
  37:src/MemAlloc.cpp ****                    cur->next=cur->prev= nullptr;
 111              		.loc 1 37 20 is_stmt 1
 112              		.loc 1 37 39 is_stmt 0
 113 00a8 23340500 		sd	zero,8(a0)
 114              		.loc 1 37 29
 115 00ac 23300500 		sd	zero,0(a0)
 116              	.L8:
  38:src/MemAlloc.cpp ****                }
  39:src/MemAlloc.cpp ****             cur->status=1;
 117              		.loc 1 39 13 is_stmt 1
 118              		.loc 1 39 24 is_stmt 0
 119 00b0 93071000 		li	a5,1
 120 00b4 232CF500 		sw	a5,24(a0)
  40:src/MemAlloc.cpp ****             //insert(&memalloc,cur);
  41:src/MemAlloc.cpp ****                 if(memalloc == nullptr){
 121              		.loc 1 41 17 is_stmt 1
 122              	.LBB5:
 123              		.loc 1 41 29 is_stmt 0
 124 00b8 17070000 		ld	a4,.LANCHOR0+8
 124      03370700 
 125              		.loc 1 41 17
 126 00c0 63060704 		beqz	a4,.L30
 127              	.LBB6:
GAS LISTING /tmp/ccnDdHtb.s 			page 4


  42:src/MemAlloc.cpp **** 
  43:src/MemAlloc.cpp ****                     memalloc=cur;
  44:src/MemAlloc.cpp ****                     cur->next=cur->prev= nullptr;
  45:src/MemAlloc.cpp ****                 }else
  46:src/MemAlloc.cpp ****                 {
  47:src/MemAlloc.cpp ****                     Descriptor *pom=memalloc->next;
 128              		.loc 1 47 21 is_stmt 1
 129              		.loc 1 47 33 is_stmt 0
 130 00c4 83370700 		ld	a5,0(a4)
 131              	.LVL7:
  48:src/MemAlloc.cpp ****                     Descriptor *prev = memalloc;
 132              		.loc 1 48 21 is_stmt 1
  49:src/MemAlloc.cpp ****                     bool status= false;
 133              		.loc 1 49 21
 134              	.L13:
  50:src/MemAlloc.cpp ****                     while(pom){
 135              		.loc 1 50 21
 136              		.loc 1 50 27
 137 00c8 63840706 		beqz	a5,.L11
  51:src/MemAlloc.cpp ****                         if(cur<pom){
 138              		.loc 1 51 25
 139 00cc 636AF504 		bltu	a0,a5,.L31
  52:src/MemAlloc.cpp ****                             cur->status=1;
  53:src/MemAlloc.cpp ****                             prev->next=cur;
  54:src/MemAlloc.cpp ****                             pom->prev=cur;
  55:src/MemAlloc.cpp ****                             cur->next=pom;
  56:src/MemAlloc.cpp ****                             cur->prev=prev;
  57:src/MemAlloc.cpp ****                             status=true;
  58:src/MemAlloc.cpp ****                             break;
  59:src/MemAlloc.cpp ****                         }
  60:src/MemAlloc.cpp ****                         prev=pom;
 140              		.loc 1 60 25
 141              	.LVL8:
  61:src/MemAlloc.cpp ****                         pom=pom->next;
 142              		.loc 1 61 25
  60:src/MemAlloc.cpp ****                         pom=pom->next;
 143              		.loc 1 60 29 is_stmt 0
 144 00d0 13870700 		mv	a4,a5
 145              		.loc 1 61 28
 146 00d4 83B70700 		ld	a5,0(a5)
 147              	.LVL9:
  50:src/MemAlloc.cpp ****                         if(cur<pom){
 148              		.loc 1 50 21
 149 00d8 6FF01FFF 		j	.L13
 150              	.LVL10:
 151              	.L28:
 152              	.LBE6:
 153              	.LBE5:
  27:src/MemAlloc.cpp ****                if(memfree)memfree->prev= nullptr;
 154              		.loc 1 27 16 is_stmt 1
  27:src/MemAlloc.cpp ****                if(memfree)memfree->prev= nullptr;
 155              		.loc 1 27 33 is_stmt 0
 156 00dc 83B70600 		ld	a5,0(a3)
  27:src/MemAlloc.cpp ****                if(memfree)memfree->prev= nullptr;
 157              		.loc 1 27 23
 158 00e0 17070000 		sd	a5,.LANCHOR0,a4
 158      2330F700 
GAS LISTING /tmp/ccnDdHtb.s 			page 5


 159              	.LVL11:
  28:src/MemAlloc.cpp ****                cur->next=cur->prev= nullptr;
 160              		.loc 1 28 16 is_stmt 1
 161 00e8 63840700 		beqz	a5,.L7
  28:src/MemAlloc.cpp ****                cur->next=cur->prev= nullptr;
 162              		.loc 1 28 27 discriminator 1
  28:src/MemAlloc.cpp ****                cur->next=cur->prev= nullptr;
 163              		.loc 1 28 40 is_stmt 0 discriminator 1
 164 00ec 23B40700 		sd	zero,8(a5)
 165              	.L7:
  29:src/MemAlloc.cpp ****            }else
 166              		.loc 1 29 16 is_stmt 1
  29:src/MemAlloc.cpp ****            }else
 167              		.loc 1 29 35 is_stmt 0
 168 00f0 23340500 		sd	zero,8(a0)
  29:src/MemAlloc.cpp ****            }else
 169              		.loc 1 29 25
 170 00f4 23300500 		sd	zero,0(a0)
 171 00f8 6FF09FFB 		j	.L8
 172              	.LVL12:
 173              	.L29:
  32:src/MemAlloc.cpp ****                    cur->prev= nullptr;
 174              		.loc 1 32 20 is_stmt 1
  32:src/MemAlloc.cpp ****                    cur->prev= nullptr;
 175              		.loc 1 32 25 is_stmt 0
 176 00fc 83378500 		ld	a5,8(a0)
  32:src/MemAlloc.cpp ****                    cur->prev= nullptr;
 177              		.loc 1 32 35
 178 0100 23B00700 		sd	zero,0(a5)
  33:src/MemAlloc.cpp ****                }else{
 179              		.loc 1 33 20 is_stmt 1
  33:src/MemAlloc.cpp ****                }else{
 180              		.loc 1 33 29 is_stmt 0
 181 0104 23340500 		sd	zero,8(a0)
 182 0108 6FF09FFA 		j	.L8
 183              	.LVL13:
 184              	.L30:
 185              	.LBB8:
  43:src/MemAlloc.cpp ****                     cur->next=cur->prev= nullptr;
 186              		.loc 1 43 21 is_stmt 1
  43:src/MemAlloc.cpp ****                     cur->next=cur->prev= nullptr;
 187              		.loc 1 43 29 is_stmt 0
 188 010c 97070000 		sd	a0,.LANCHOR0+8,a5
 188      23B0A700 
  44:src/MemAlloc.cpp ****                 }else
 189              		.loc 1 44 21 is_stmt 1
  44:src/MemAlloc.cpp ****                 }else
 190              		.loc 1 44 40 is_stmt 0
 191 0114 23340500 		sd	zero,8(a0)
  44:src/MemAlloc.cpp ****                 }else
 192              		.loc 1 44 30
 193 0118 23300500 		sd	zero,0(a0)
 194 011c 6F004001 		j	.L11
 195              	.LVL14:
 196              	.L31:
 197              	.LBB7:
  52:src/MemAlloc.cpp ****                             prev->next=cur;
GAS LISTING /tmp/ccnDdHtb.s 			page 6


 198              		.loc 1 52 29 is_stmt 1
  53:src/MemAlloc.cpp ****                             pom->prev=cur;
 199              		.loc 1 53 29
  54:src/MemAlloc.cpp ****                             cur->next=pom;
 200              		.loc 1 54 29
  54:src/MemAlloc.cpp ****                             cur->next=pom;
 201              		.loc 1 54 38 is_stmt 0
 202 0120 23B4A700 		sd	a0,8(a5)
  55:src/MemAlloc.cpp ****                             cur->prev=prev;
 203              		.loc 1 55 29 is_stmt 1
  55:src/MemAlloc.cpp ****                             cur->prev=prev;
 204              		.loc 1 55 38 is_stmt 0
 205 0124 2330F500 		sd	a5,0(a0)
  56:src/MemAlloc.cpp ****                             status=true;
 206              		.loc 1 56 29 is_stmt 1
  57:src/MemAlloc.cpp ****                             break;
 207              		.loc 1 57 29
 208              	.LVL15:
  58:src/MemAlloc.cpp ****                         }
 209              		.loc 1 58 29
  62:src/MemAlloc.cpp ****                     }
  63:src/MemAlloc.cpp ****                     if(status){
 210              		.loc 1 63 21
  64:src/MemAlloc.cpp ****                         prev->next=cur;
 211              		.loc 1 64 25
 212              		.loc 1 64 35 is_stmt 0
 213 0128 2330A700 		sd	a0,0(a4)
  65:src/MemAlloc.cpp ****                         cur->prev=prev;
 214              		.loc 1 65 25 is_stmt 1
 215              		.loc 1 65 34 is_stmt 0
 216 012c 2334E500 		sd	a4,8(a0)
 217              	.LVL16:
 218              	.L11:
 219              	.LBE7:
 220              	.LBE8:
  66:src/MemAlloc.cpp ****                     }
  67:src/MemAlloc.cpp ****                 }
  68:src/MemAlloc.cpp ****             return (void*)((char*)(cur)+MEM_BLOCK_SIZE);
 221              		.loc 1 68 13 is_stmt 1
 222              		.loc 1 68 55 is_stmt 0
 223 0130 13050504 		addi	a0,a0,64
 224              	.LVL17:
 225              	.L3:
 226              	.LBE4:
 227              	.LBE3:
 228              	.LBE2:
  69:src/MemAlloc.cpp ****         }else
  70:src/MemAlloc.cpp ****         if(cur->size>newSize) {
  71:src/MemAlloc.cpp ****             if(cur==memfree){
  72:src/MemAlloc.cpp ****                 memfree=memfree->next;
  73:src/MemAlloc.cpp ****                 if(memfree)memfree->prev= nullptr;
  74:src/MemAlloc.cpp ****                 cur->next=cur->prev= nullptr;
  75:src/MemAlloc.cpp ****             }else
  76:src/MemAlloc.cpp ****             if(cur->next== nullptr){
  77:src/MemAlloc.cpp ****                 cur->prev->next= nullptr;
  78:src/MemAlloc.cpp ****                 cur->prev= nullptr;
  79:src/MemAlloc.cpp ****             }else{
GAS LISTING /tmp/ccnDdHtb.s 			page 7


  80:src/MemAlloc.cpp ****                 cur->prev->next=cur->next;
  81:src/MemAlloc.cpp ****                 cur->next->prev=cur->prev;
  82:src/MemAlloc.cpp ****                 cur->next=cur->prev= nullptr;
  83:src/MemAlloc.cpp ****             }
  84:src/MemAlloc.cpp ****             cur->status=1;
  85:src/MemAlloc.cpp **** 
  86:src/MemAlloc.cpp ****             Descriptor * newfrgm = (Descriptor*)((char*)cur+newSize+MEM_BLOCK_SIZE);
  87:src/MemAlloc.cpp ****             if(cur->prev)cur->prev->next=newfrgm;
  88:src/MemAlloc.cpp ****             else memfree=newfrgm;
  89:src/MemAlloc.cpp ****             if(cur->next)cur->next->prev=newfrgm;
  90:src/MemAlloc.cpp ****             newfrgm->prev=cur->prev;
  91:src/MemAlloc.cpp ****             newfrgm->next=cur->next;
  92:src/MemAlloc.cpp ****             newfrgm->size= (cur->size - newSize - MEM_BLOCK_SIZE);
  93:src/MemAlloc.cpp ****             newfrgm->status=0;
  94:src/MemAlloc.cpp ****             cur->size = newSize;
  95:src/MemAlloc.cpp ****             cur->status=1;
  96:src/MemAlloc.cpp **** 
  97:src/MemAlloc.cpp ****             if(memalloc == nullptr){
  98:src/MemAlloc.cpp **** 
  99:src/MemAlloc.cpp ****                 memalloc=cur;
 100:src/MemAlloc.cpp ****                 cur->next=cur->prev= nullptr;
 101:src/MemAlloc.cpp ****             }else
 102:src/MemAlloc.cpp ****             {
 103:src/MemAlloc.cpp ****                 Descriptor *pom=memalloc->next;
 104:src/MemAlloc.cpp ****                 Descriptor *prev = memalloc;
 105:src/MemAlloc.cpp ****                 bool status= false;
 106:src/MemAlloc.cpp ****                 while(pom){
 107:src/MemAlloc.cpp ****                     if(cur<pom){
 108:src/MemAlloc.cpp ****                         cur->status=1;
 109:src/MemAlloc.cpp ****                         prev->next=cur;
 110:src/MemAlloc.cpp ****                         pom->prev=cur;
 111:src/MemAlloc.cpp ****                         cur->next=pom;
 112:src/MemAlloc.cpp ****                         cur->prev=prev;
 113:src/MemAlloc.cpp ****                         status=true;
 114:src/MemAlloc.cpp ****                         break;
 115:src/MemAlloc.cpp ****                     }
 116:src/MemAlloc.cpp ****                     prev=pom;
 117:src/MemAlloc.cpp ****                     pom=pom->next;
 118:src/MemAlloc.cpp ****                 }
 119:src/MemAlloc.cpp ****                 if(status){
 120:src/MemAlloc.cpp ****                     prev->next=cur;
 121:src/MemAlloc.cpp ****                     cur->prev=prev;
 122:src/MemAlloc.cpp ****                 }
 123:src/MemAlloc.cpp ****             }
 124:src/MemAlloc.cpp ****             return (void*)((char*)(cur) + MEM_BLOCK_SIZE);
 125:src/MemAlloc.cpp **** 
 126:src/MemAlloc.cpp ****         }
 127:src/MemAlloc.cpp ****     cur=cur->next;
 128:src/MemAlloc.cpp ****     }
 129:src/MemAlloc.cpp ****     return nullptr;
 130:src/MemAlloc.cpp **** 
 131:src/MemAlloc.cpp **** }
 229              		.loc 1 131 1
 230 0134 83308100 		ld	ra,8(sp)
 231              		.cfi_remember_state
 232              		.cfi_restore 1
 233 0138 03340100 		ld	s0,0(sp)
GAS LISTING /tmp/ccnDdHtb.s 			page 8


 234              		.cfi_restore 8
 235              		.cfi_def_cfa 2, 16
 236 013c 13010101 		addi	sp,sp,16
 237              		.cfi_def_cfa_offset 0
 238 0140 67800000 		jr	ra
 239              	.LVL18:
 240              	.L33:
 241              		.cfi_restore_state
 242              	.LBB20:
 243              	.LBB17:
 244              	.LBB9:
 245              	.LBB10:
  72:src/MemAlloc.cpp ****                 if(memfree)memfree->prev= nullptr;
 246              		.loc 1 72 17 is_stmt 1
  72:src/MemAlloc.cpp ****                 if(memfree)memfree->prev= nullptr;
 247              		.loc 1 72 34 is_stmt 0
 248 0144 83B70600 		ld	a5,0(a3)
  72:src/MemAlloc.cpp ****                 if(memfree)memfree->prev= nullptr;
 249              		.loc 1 72 24
 250 0148 97060000 		sd	a5,.LANCHOR0,a3
 250      23B0F600 
  73:src/MemAlloc.cpp ****                 cur->next=cur->prev= nullptr;
 251              		.loc 1 73 17 is_stmt 1
 252 0150 63840700 		beqz	a5,.L16
  73:src/MemAlloc.cpp ****                 cur->next=cur->prev= nullptr;
 253              		.loc 1 73 28 discriminator 1
  73:src/MemAlloc.cpp ****                 cur->next=cur->prev= nullptr;
 254              		.loc 1 73 41 is_stmt 0 discriminator 1
 255 0154 23B40700 		sd	zero,8(a5)
 256              	.L16:
  74:src/MemAlloc.cpp ****             }else
 257              		.loc 1 74 17 is_stmt 1
  74:src/MemAlloc.cpp ****             }else
 258              		.loc 1 74 36 is_stmt 0
 259 0158 23340500 		sd	zero,8(a0)
  74:src/MemAlloc.cpp ****             }else
 260              		.loc 1 74 26
 261 015c 23300500 		sd	zero,0(a0)
 262 0160 6F008008 		j	.L17
 263              	.L34:
  77:src/MemAlloc.cpp ****                 cur->prev= nullptr;
 264              		.loc 1 77 17 is_stmt 1
  77:src/MemAlloc.cpp ****                 cur->prev= nullptr;
 265              		.loc 1 77 22 is_stmt 0
 266 0164 83378500 		ld	a5,8(a0)
  77:src/MemAlloc.cpp ****                 cur->prev= nullptr;
 267              		.loc 1 77 32
 268 0168 23B00700 		sd	zero,0(a5)
  78:src/MemAlloc.cpp ****             }else{
 269              		.loc 1 78 17 is_stmt 1
  78:src/MemAlloc.cpp ****             }else{
 270              		.loc 1 78 26 is_stmt 0
 271 016c 23340500 		sd	zero,8(a0)
 272 0170 6F008007 		j	.L17
 273              	.LVL19:
 274              	.L19:
  88:src/MemAlloc.cpp ****             if(cur->next)cur->next->prev=newfrgm;
GAS LISTING /tmp/ccnDdHtb.s 			page 9


 275              		.loc 1 88 18 is_stmt 1
  88:src/MemAlloc.cpp ****             if(cur->next)cur->next->prev=newfrgm;
 276              		.loc 1 88 25 is_stmt 0
 277 0174 97060000 		sd	a5,.LANCHOR0,a3
 277      23B0F600 
 278 017c 6F008008 		j	.L20
 279              	.LVL20:
 280              	.L35:
 281              	.LBB11:
  99:src/MemAlloc.cpp ****                 cur->next=cur->prev= nullptr;
 282              		.loc 1 99 17 is_stmt 1
  99:src/MemAlloc.cpp ****                 cur->next=cur->prev= nullptr;
 283              		.loc 1 99 25 is_stmt 0
 284 0180 97070000 		sd	a0,.LANCHOR0+8,a5
 284      23B0A700 
 100:src/MemAlloc.cpp ****             }else
 285              		.loc 1 100 17 is_stmt 1
 100:src/MemAlloc.cpp ****             }else
 286              		.loc 1 100 36 is_stmt 0
 287 0188 23340500 		sd	zero,8(a0)
 100:src/MemAlloc.cpp ****             }else
 288              		.loc 1 100 26
 289 018c 23300500 		sd	zero,0(a0)
 290 0190 6F004001 		j	.L23
 291              	.LVL21:
 292              	.L36:
 293              	.LBB12:
 108:src/MemAlloc.cpp ****                         prev->next=cur;
 294              		.loc 1 108 25 is_stmt 1
 109:src/MemAlloc.cpp ****                         pom->prev=cur;
 295              		.loc 1 109 25
 110:src/MemAlloc.cpp ****                         cur->next=pom;
 296              		.loc 1 110 25
 110:src/MemAlloc.cpp ****                         cur->next=pom;
 297              		.loc 1 110 34 is_stmt 0
 298 0194 23B4A700 		sd	a0,8(a5)
 299              	.LVL22:
 111:src/MemAlloc.cpp ****                         cur->prev=prev;
 300              		.loc 1 111 25 is_stmt 1
 111:src/MemAlloc.cpp ****                         cur->prev=prev;
 301              		.loc 1 111 34 is_stmt 0
 302 0198 2330F500 		sd	a5,0(a0)
 112:src/MemAlloc.cpp ****                         status=true;
 303              		.loc 1 112 25 is_stmt 1
 113:src/MemAlloc.cpp ****                         break;
 304              		.loc 1 113 25
 305              	.LVL23:
 114:src/MemAlloc.cpp ****                     }
 306              		.loc 1 114 25
 119:src/MemAlloc.cpp ****                     prev->next=cur;
 307              		.loc 1 119 17
 120:src/MemAlloc.cpp ****                     cur->prev=prev;
 308              		.loc 1 120 21
 120:src/MemAlloc.cpp ****                     cur->prev=prev;
 309              		.loc 1 120 31 is_stmt 0
 310 019c 2330A700 		sd	a0,0(a4)
 121:src/MemAlloc.cpp ****                 }
GAS LISTING /tmp/ccnDdHtb.s 			page 10


 311              		.loc 1 121 21 is_stmt 1
 121:src/MemAlloc.cpp ****                 }
 312              		.loc 1 121 30 is_stmt 0
 313 01a0 2334E500 		sd	a4,8(a0)
 314              	.LVL24:
 315              	.L23:
 316              	.LBE12:
 317              	.LBE11:
 124:src/MemAlloc.cpp **** 
 318              		.loc 1 124 13 is_stmt 1
 124:src/MemAlloc.cpp **** 
 319              		.loc 1 124 57 is_stmt 0
 320 01a4 13050504 		addi	a0,a0,64
 321              	.LVL25:
 322 01a8 6FF0DFF8 		j	.L3
 323              	.LVL26:
 324              	.L14:
 325              	.LBE10:
 326              	.LBE9:
 327              	.LBE17:
 127:src/MemAlloc.cpp ****     }
 328              		.loc 1 127 5 is_stmt 1
 127:src/MemAlloc.cpp ****     }
 329              		.loc 1 127 8 is_stmt 0
 330 01ac 03350500 		ld	a0,0(a0)
 331              	.LVL27:
 332              	.L26:
 333              	.LBE20:
  23:src/MemAlloc.cpp ****         if(cur->size==newSize){
 334              		.loc 1 23 5 is_stmt 1
  23:src/MemAlloc.cpp ****         if(cur->size==newSize){
 335              		.loc 1 23 11
 336 01b0 E30205F8 		beqz	a0,.L3
 337              	.LBB21:
  24:src/MemAlloc.cpp ****            // remove(&memfree,cur);
 338              		.loc 1 24 9
 339              	.LBB18:
  24:src/MemAlloc.cpp ****            // remove(&memfree,cur);
 340              		.loc 1 24 17 is_stmt 0
 341 01b4 83370501 		ld	a5,16(a0)
  24:src/MemAlloc.cpp ****            // remove(&memfree,cur);
 342              		.loc 1 24 9
 343 01b8 E388E7EC 		beq	a5,a4,.L32
 344              	.LBE18:
 345              	.LBE21:
  70:src/MemAlloc.cpp ****             if(cur==memfree){
 346              		.loc 1 70 9 is_stmt 1
 347              	.LBB22:
 348              	.LBB19:
 349              	.LBB16:
 350 01bc E378F7FE 		bleu	a5,a4,.L14
 351              	.LBB15:
  71:src/MemAlloc.cpp ****                 memfree=memfree->next;
 352              		.loc 1 71 13
 353 01c0 E302D5F8 		beq	a0,a3,.L33
  76:src/MemAlloc.cpp ****                 cur->prev->next= nullptr;
 354              		.loc 1 76 13
GAS LISTING /tmp/ccnDdHtb.s 			page 11


  76:src/MemAlloc.cpp ****                 cur->prev->next= nullptr;
 355              		.loc 1 76 21 is_stmt 0
 356 01c4 83370500 		ld	a5,0(a0)
  76:src/MemAlloc.cpp ****                 cur->prev->next= nullptr;
 357              		.loc 1 76 13
 358 01c8 E38E07F8 		beqz	a5,.L34
  80:src/MemAlloc.cpp ****                 cur->next->prev=cur->prev;
 359              		.loc 1 80 17 is_stmt 1
  80:src/MemAlloc.cpp ****                 cur->next->prev=cur->prev;
 360              		.loc 1 80 22 is_stmt 0
 361 01cc 83368500 		ld	a3,8(a0)
  80:src/MemAlloc.cpp ****                 cur->next->prev=cur->prev;
 362              		.loc 1 80 32
 363 01d0 23B0F600 		sd	a5,0(a3)
  81:src/MemAlloc.cpp ****                 cur->next=cur->prev= nullptr;
 364              		.loc 1 81 17 is_stmt 1
  81:src/MemAlloc.cpp ****                 cur->next=cur->prev= nullptr;
 365              		.loc 1 81 22 is_stmt 0
 366 01d4 83370500 		ld	a5,0(a0)
  81:src/MemAlloc.cpp ****                 cur->next=cur->prev= nullptr;
 367              		.loc 1 81 38
 368 01d8 83368500 		ld	a3,8(a0)
  81:src/MemAlloc.cpp ****                 cur->next=cur->prev= nullptr;
 369              		.loc 1 81 32
 370 01dc 23B4D700 		sd	a3,8(a5)
  82:src/MemAlloc.cpp ****             }
 371              		.loc 1 82 17 is_stmt 1
  82:src/MemAlloc.cpp ****             }
 372              		.loc 1 82 36 is_stmt 0
 373 01e0 23340500 		sd	zero,8(a0)
  82:src/MemAlloc.cpp ****             }
 374              		.loc 1 82 26
 375 01e4 23300500 		sd	zero,0(a0)
 376              	.L17:
  84:src/MemAlloc.cpp **** 
 377              		.loc 1 84 13 is_stmt 1
  84:src/MemAlloc.cpp **** 
 378              		.loc 1 84 24 is_stmt 0
 379 01e8 93071000 		li	a5,1
 380 01ec 232CF500 		sw	a5,24(a0)
  86:src/MemAlloc.cpp ****             if(cur->prev)cur->prev->next=newfrgm;
 381              		.loc 1 86 13 is_stmt 1
  86:src/MemAlloc.cpp ****             if(cur->prev)cur->prev->next=newfrgm;
 382              		.loc 1 86 68 is_stmt 0
 383 01f0 93070704 		addi	a5,a4,64
  86:src/MemAlloc.cpp ****             if(cur->prev)cur->prev->next=newfrgm;
 384              		.loc 1 86 26
 385 01f4 B307F500 		add	a5,a0,a5
 386              	.LVL28:
  87:src/MemAlloc.cpp ****             else memfree=newfrgm;
 387              		.loc 1 87 13 is_stmt 1
  87:src/MemAlloc.cpp ****             else memfree=newfrgm;
 388              		.loc 1 87 21 is_stmt 0
 389 01f8 83368500 		ld	a3,8(a0)
  87:src/MemAlloc.cpp ****             else memfree=newfrgm;
 390              		.loc 1 87 13
 391 01fc E38C06F6 		beqz	a3,.L19
GAS LISTING /tmp/ccnDdHtb.s 			page 12


  87:src/MemAlloc.cpp ****             else memfree=newfrgm;
 392              		.loc 1 87 26 is_stmt 1 discriminator 1
  87:src/MemAlloc.cpp ****             else memfree=newfrgm;
 393              		.loc 1 87 41 is_stmt 0 discriminator 1
 394 0200 23B0F600 		sd	a5,0(a3)
 395              	.L20:
  89:src/MemAlloc.cpp ****             newfrgm->prev=cur->prev;
 396              		.loc 1 89 13 is_stmt 1
  89:src/MemAlloc.cpp ****             newfrgm->prev=cur->prev;
 397              		.loc 1 89 21 is_stmt 0
 398 0204 83360500 		ld	a3,0(a0)
  89:src/MemAlloc.cpp ****             newfrgm->prev=cur->prev;
 399              		.loc 1 89 13
 400 0208 63840600 		beqz	a3,.L21
  89:src/MemAlloc.cpp ****             newfrgm->prev=cur->prev;
 401              		.loc 1 89 26 is_stmt 1 discriminator 1
  89:src/MemAlloc.cpp ****             newfrgm->prev=cur->prev;
 402              		.loc 1 89 41 is_stmt 0 discriminator 1
 403 020c 23B4F600 		sd	a5,8(a3)
 404              	.L21:
  90:src/MemAlloc.cpp ****             newfrgm->next=cur->next;
 405              		.loc 1 90 13 is_stmt 1
  90:src/MemAlloc.cpp ****             newfrgm->next=cur->next;
 406              		.loc 1 90 32 is_stmt 0
 407 0210 83368500 		ld	a3,8(a0)
  90:src/MemAlloc.cpp ****             newfrgm->next=cur->next;
 408              		.loc 1 90 26
 409 0214 23B4D700 		sd	a3,8(a5)
  91:src/MemAlloc.cpp ****             newfrgm->size= (cur->size - newSize - MEM_BLOCK_SIZE);
 410              		.loc 1 91 13 is_stmt 1
  91:src/MemAlloc.cpp ****             newfrgm->size= (cur->size - newSize - MEM_BLOCK_SIZE);
 411              		.loc 1 91 32 is_stmt 0
 412 0218 83360500 		ld	a3,0(a0)
  91:src/MemAlloc.cpp ****             newfrgm->size= (cur->size - newSize - MEM_BLOCK_SIZE);
 413              		.loc 1 91 26
 414 021c 23B0D700 		sd	a3,0(a5)
  92:src/MemAlloc.cpp ****             newfrgm->status=0;
 415              		.loc 1 92 13 is_stmt 1
  92:src/MemAlloc.cpp ****             newfrgm->status=0;
 416              		.loc 1 92 34 is_stmt 0
 417 0220 83360501 		ld	a3,16(a0)
  92:src/MemAlloc.cpp ****             newfrgm->status=0;
 418              		.loc 1 92 39
 419 0224 B386E640 		sub	a3,a3,a4
  92:src/MemAlloc.cpp ****             newfrgm->status=0;
 420              		.loc 1 92 49
 421 0228 938606FC 		addi	a3,a3,-64
  92:src/MemAlloc.cpp ****             newfrgm->status=0;
 422              		.loc 1 92 26
 423 022c 23B8D700 		sd	a3,16(a5)
  93:src/MemAlloc.cpp ****             cur->size = newSize;
 424              		.loc 1 93 13 is_stmt 1
  93:src/MemAlloc.cpp ****             cur->size = newSize;
 425              		.loc 1 93 28 is_stmt 0
 426 0230 23AC0700 		sw	zero,24(a5)
  94:src/MemAlloc.cpp ****             cur->status=1;
 427              		.loc 1 94 13 is_stmt 1
GAS LISTING /tmp/ccnDdHtb.s 			page 13


  94:src/MemAlloc.cpp ****             cur->status=1;
 428              		.loc 1 94 23 is_stmt 0
 429 0234 2338E500 		sd	a4,16(a0)
  95:src/MemAlloc.cpp **** 
 430              		.loc 1 95 13 is_stmt 1
  95:src/MemAlloc.cpp **** 
 431              		.loc 1 95 24 is_stmt 0
 432 0238 93071000 		li	a5,1
 433              	.LVL29:
 434 023c 232CF500 		sw	a5,24(a0)
  97:src/MemAlloc.cpp **** 
 435              		.loc 1 97 13 is_stmt 1
 436              	.LBB14:
  97:src/MemAlloc.cpp **** 
 437              		.loc 1 97 25 is_stmt 0
 438 0240 17070000 		ld	a4,.LANCHOR0+8
 438      03370700 
 439              	.LVL30:
  97:src/MemAlloc.cpp **** 
 440              		.loc 1 97 13
 441 0248 E30C07F2 		beqz	a4,.L35
 442              	.LBB13:
 103:src/MemAlloc.cpp ****                 Descriptor *prev = memalloc;
 443              		.loc 1 103 17 is_stmt 1
 103:src/MemAlloc.cpp ****                 Descriptor *prev = memalloc;
 444              		.loc 1 103 29 is_stmt 0
 445 024c 83370700 		ld	a5,0(a4)
 446              	.LVL31:
 104:src/MemAlloc.cpp ****                 bool status= false;
 447              		.loc 1 104 17 is_stmt 1
 105:src/MemAlloc.cpp ****                 while(pom){
 448              		.loc 1 105 17
 449              	.L25:
 106:src/MemAlloc.cpp ****                     if(cur<pom){
 450              		.loc 1 106 17
 106:src/MemAlloc.cpp ****                     if(cur<pom){
 451              		.loc 1 106 23
 452 0250 E38A07F4 		beqz	a5,.L23
 107:src/MemAlloc.cpp ****                         cur->status=1;
 453              		.loc 1 107 21
 454 0254 E360F5F4 		bltu	a0,a5,.L36
 116:src/MemAlloc.cpp ****                     pom=pom->next;
 455              		.loc 1 116 21
 456              	.LVL32:
 117:src/MemAlloc.cpp ****                 }
 457              		.loc 1 117 21
 116:src/MemAlloc.cpp ****                     pom=pom->next;
 458              		.loc 1 116 25 is_stmt 0
 459 0258 13870700 		mv	a4,a5
 117:src/MemAlloc.cpp ****                 }
 460              		.loc 1 117 24
 461 025c 83B70700 		ld	a5,0(a5)
 462              	.LVL33:
 106:src/MemAlloc.cpp ****                     if(cur<pom){
 463              		.loc 1 106 17
 464 0260 6FF01FFF 		j	.L25
 465              	.LBE13:
GAS LISTING /tmp/ccnDdHtb.s 			page 14


 466              	.LBE14:
 467              	.LBE15:
 468              	.LBE16:
 469              	.LBE19:
 470              	.LBE22:
 471              		.cfi_endproc
 472              	.LFE1:
 474              		.align	2
 475              		.globl	_ZN8MemAlloc8mem_freeEPv
 477              	_ZN8MemAlloc8mem_freeEPv:
 478              	.LFB2:
 132:src/MemAlloc.cpp **** 
 133:src/MemAlloc.cpp **** int MemAlloc::mem_free(void*ptr){
 479              		.loc 1 133 33 is_stmt 1
 480              		.cfi_startproc
 481              	.LVL34:
 482 0264 130101FF 		addi	sp,sp,-16
 483              		.cfi_def_cfa_offset 16
 484 0268 23348100 		sd	s0,8(sp)
 485              		.cfi_offset 8, -8
 486 026c 13040101 		addi	s0,sp,16
 487              		.cfi_def_cfa 8, 0
 134:src/MemAlloc.cpp ****     if(!ptr)return -1;
 488              		.loc 1 134 5
 489 0270 6306051C 		beqz	a0,.L56
 135:src/MemAlloc.cpp **** 
 136:src/MemAlloc.cpp ****     Descriptor *pom = (Descriptor*)((char*)(ptr)-MEM_BLOCK_SIZE);
 490              		.loc 1 136 5
 491              		.loc 1 136 17 is_stmt 0
 492 0274 130605FC 		addi	a2,a0,-64
 493              	.LVL35:
 137:src/MemAlloc.cpp ****     if(pom->status==1)return -1;
 494              		.loc 1 137 5 is_stmt 1
 495              		.loc 1 137 13 is_stmt 0
 496 0278 032785FD 		lw	a4,-40(a0)
 497              		.loc 1 137 5
 498 027c 93071000 		li	a5,1
 499 0280 6302F71C 		beq	a4,a5,.L57
 138:src/MemAlloc.cpp **** 
 139:src/MemAlloc.cpp **** //***********
 140:src/MemAlloc.cpp ****     if(pom==memalloc){
 500              		.loc 1 140 5 is_stmt 1
 501              		.loc 1 140 11 is_stmt 0
 502 0284 97070000 		ld	a5,.LANCHOR0+8
 502      83B70700 
 503              		.loc 1 140 5
 504 028c 6386C708 		beq	a5,a2,.L61
 141:src/MemAlloc.cpp ****         memalloc=memalloc->next;
 142:src/MemAlloc.cpp ****         if(memalloc)memalloc->prev= nullptr;
 143:src/MemAlloc.cpp ****         pom->next=pom->prev= nullptr;
 144:src/MemAlloc.cpp ****     }else
 145:src/MemAlloc.cpp ****     if(pom->next== nullptr){
 505              		.loc 1 145 5 is_stmt 1
 506              		.loc 1 145 13 is_stmt 0
 507 0290 833705FC 		ld	a5,-64(a0)
 508              		.loc 1 145 5
 509 0294 6382070A 		beqz	a5,.L62
GAS LISTING /tmp/ccnDdHtb.s 			page 15


 146:src/MemAlloc.cpp ****         pom->prev->next= nullptr;
 147:src/MemAlloc.cpp ****         pom->prev= nullptr;
 148:src/MemAlloc.cpp ****     }else{
 149:src/MemAlloc.cpp ****         pom->prev->next=pom->next;
 510              		.loc 1 149 9 is_stmt 1
 511              		.loc 1 149 14 is_stmt 0
 512 0298 033785FC 		ld	a4,-56(a0)
 513              		.loc 1 149 24
 514 029c 2330F700 		sd	a5,0(a4)
 150:src/MemAlloc.cpp ****         pom->next->prev=pom->prev;
 515              		.loc 1 150 9 is_stmt 1
 516              		.loc 1 150 30 is_stmt 0
 517 02a0 033785FC 		ld	a4,-56(a0)
 518              		.loc 1 150 24
 519 02a4 23B4E700 		sd	a4,8(a5)
 151:src/MemAlloc.cpp ****         pom->next=pom->prev= nullptr;
 520              		.loc 1 151 9 is_stmt 1
 521              		.loc 1 151 28 is_stmt 0
 522 02a8 233405FC 		sd	zero,-56(a0)
 523              		.loc 1 151 18
 524 02ac 233005FC 		sd	zero,-64(a0)
 525              	.L41:
 152:src/MemAlloc.cpp ****     }
 153:src/MemAlloc.cpp ****     pom->status=0;
 526              		.loc 1 153 5 is_stmt 1
 527              		.loc 1 153 16 is_stmt 0
 528 02b0 232C05FC 		sw	zero,-40(a0)
 154:src/MemAlloc.cpp **** 
 155:src/MemAlloc.cpp **** //*********
 156:src/MemAlloc.cpp **** 
 157:src/MemAlloc.cpp ****     Descriptor *cur= nullptr;
 529              		.loc 1 157 5 is_stmt 1
 530              	.LVL36:
 158:src/MemAlloc.cpp ****         pom->status=0;
 531              		.loc 1 158 9
 159:src/MemAlloc.cpp ****   if(!memfree|| (char*)pom<(char*)memfree){
 532              		.loc 1 159 3
 533              		.loc 1 159 6 is_stmt 0
 534 02b4 97060000 		ld	a3,.LANCHOR0
 534      83B60600 
 535              		.loc 1 159 3
 536 02bc 6388060A 		beqz	a3,.L58
 537              		.loc 1 159 14 discriminator 1
 538 02c0 636AD60A 		bgtu	a3,a2,.L59
 160:src/MemAlloc.cpp ****       cur= nullptr;
 161:src/MemAlloc.cpp ****   }else{
 162:src/MemAlloc.cpp ****       for(cur=memfree;cur->next!= nullptr&& (char*)pom>(char*)(cur->next);
 539              		.loc 1 162 14
 540 02c4 93870600 		mv	a5,a3
 541              	.LVL37:
 542              	.L45:
 543              		.loc 1 162 42 is_stmt 1 discriminator 1
 544 02c8 13870700 		mv	a4,a5
 545              		.loc 1 162 28 is_stmt 0 discriminator 1
 546 02cc 83B70700 		ld	a5,0(a5)
 547              	.LVL38:
 548              		.loc 1 162 42 discriminator 1
GAS LISTING /tmp/ccnDdHtb.s 			page 16


 549 02d0 63840700 		beqz	a5,.L44
 550              		.loc 1 162 42 discriminator 2
 551 02d4 E3EAC7FE 		bltu	a5,a2,.L45
 552              	.L44:
 163:src/MemAlloc.cpp ****         cur=cur->next);
 164:src/MemAlloc.cpp ****   }
 165:src/MemAlloc.cpp **** 
 166:src/MemAlloc.cpp ****       if(cur && (char*)cur+cur->size+MEM_BLOCK_SIZE==(char*)pom){
 553              		.loc 1 166 7 is_stmt 1
 554              	.LBB23:
 555 02d8 6300070A 		beqz	a4,.L43
 556              		.loc 1 166 33 is_stmt 0 discriminator 1
 557 02dc 03380701 		ld	a6,16(a4)
 558              		.loc 1 166 37 discriminator 1
 559 02e0 93050804 		addi	a1,a6,64
 560 02e4 B305B700 		add	a1,a4,a1
 561              		.loc 1 166 14 discriminator 1
 562 02e8 6398C508 		bne	a1,a2,.L43
 167:src/MemAlloc.cpp ****           cur->size+=pom->size+MEM_BLOCK_SIZE;
 563              		.loc 1 167 11 is_stmt 1
 564              		.loc 1 167 27 is_stmt 0
 565 02ec 833605FD 		ld	a3,-48(a0)
 566              		.loc 1 167 20
 567 02f0 B306D800 		add	a3,a6,a3
 568 02f4 93860604 		addi	a3,a3,64
 569 02f8 2338D700 		sd	a3,16(a4)
 168:src/MemAlloc.cpp ****           if(cur->next && (char*)cur+cur->size+MEM_BLOCK_SIZE == (char*)(cur->next)){
 570              		.loc 1 168 11 is_stmt 1
 571 02fc 63880700 		beqz	a5,.L46
 572              		.loc 1 168 47 is_stmt 0 discriminator 1
 573 0300 13860604 		addi	a2,a3,64
 574              	.LVL39:
 575 0304 3306C700 		add	a2,a4,a2
 576              		.loc 1 168 24 discriminator 1
 577 0308 6380C704 		beq	a5,a2,.L63
 578              	.L46:
 169:src/MemAlloc.cpp ****               cur->size+=cur->next->size+MEM_BLOCK_SIZE;
 170:src/MemAlloc.cpp ****               cur->next = cur->next->next;
 171:src/MemAlloc.cpp ****               if(cur->next)cur->next->prev=cur;
 172:src/MemAlloc.cpp ****           }
 173:src/MemAlloc.cpp ****           cur->status=0;
 579              		.loc 1 173 11 is_stmt 1
 580              		.loc 1 173 22 is_stmt 0
 581 030c 232C0700 		sw	zero,24(a4)
 174:src/MemAlloc.cpp ****           return 0;
 582              		.loc 1 174 11 is_stmt 1
 583              		.loc 1 174 18 is_stmt 0
 584 0310 13050000 		li	a0,0
 585              	.LVL40:
 586 0314 6F00000B 		j	.L38
 587              	.LVL41:
 588              	.L61:
 589              	.LBE23:
 141:src/MemAlloc.cpp ****         if(memalloc)memalloc->prev= nullptr;
 590              		.loc 1 141 9 is_stmt 1
 141:src/MemAlloc.cpp ****         if(memalloc)memalloc->prev= nullptr;
 591              		.loc 1 141 28 is_stmt 0
GAS LISTING /tmp/ccnDdHtb.s 			page 17


 592 0318 83B70700 		ld	a5,0(a5)
 141:src/MemAlloc.cpp ****         if(memalloc)memalloc->prev= nullptr;
 593              		.loc 1 141 17
 594 031c 17070000 		sd	a5,.LANCHOR0+8,a4
 594      2330F700 
 142:src/MemAlloc.cpp ****         pom->next=pom->prev= nullptr;
 595              		.loc 1 142 9 is_stmt 1
 596 0324 63840700 		beqz	a5,.L40
 142:src/MemAlloc.cpp ****         pom->next=pom->prev= nullptr;
 597              		.loc 1 142 21 discriminator 1
 142:src/MemAlloc.cpp ****         pom->next=pom->prev= nullptr;
 598              		.loc 1 142 35 is_stmt 0 discriminator 1
 599 0328 23B40700 		sd	zero,8(a5)
 600              	.L40:
 143:src/MemAlloc.cpp ****     }else
 601              		.loc 1 143 9 is_stmt 1
 143:src/MemAlloc.cpp ****     }else
 602              		.loc 1 143 28 is_stmt 0
 603 032c 233405FC 		sd	zero,-56(a0)
 143:src/MemAlloc.cpp ****     }else
 604              		.loc 1 143 18
 605 0330 233005FC 		sd	zero,-64(a0)
 606 0334 6FF0DFF7 		j	.L41
 607              	.L62:
 146:src/MemAlloc.cpp ****         pom->prev= nullptr;
 608              		.loc 1 146 9 is_stmt 1
 146:src/MemAlloc.cpp ****         pom->prev= nullptr;
 609              		.loc 1 146 14 is_stmt 0
 610 0338 833785FC 		ld	a5,-56(a0)
 146:src/MemAlloc.cpp ****         pom->prev= nullptr;
 611              		.loc 1 146 24
 612 033c 23B00700 		sd	zero,0(a5)
 147:src/MemAlloc.cpp ****     }else{
 613              		.loc 1 147 9 is_stmt 1
 147:src/MemAlloc.cpp ****     }else{
 614              		.loc 1 147 18 is_stmt 0
 615 0340 233405FC 		sd	zero,-56(a0)
 616 0344 6FF0DFF6 		j	.L41
 617              	.LVL42:
 618              	.L63:
 619              	.LBB31:
 169:src/MemAlloc.cpp ****               cur->next = cur->next->next;
 620              		.loc 1 169 15 is_stmt 1
 169:src/MemAlloc.cpp ****               cur->next = cur->next->next;
 621              		.loc 1 169 37 is_stmt 0
 622 0348 03B60701 		ld	a2,16(a5)
 169:src/MemAlloc.cpp ****               cur->next = cur->next->next;
 623              		.loc 1 169 24
 624 034c B386C600 		add	a3,a3,a2
 625 0350 93860604 		addi	a3,a3,64
 626 0354 2338D700 		sd	a3,16(a4)
 170:src/MemAlloc.cpp ****               if(cur->next)cur->next->prev=cur;
 627              		.loc 1 170 15 is_stmt 1
 170:src/MemAlloc.cpp ****               if(cur->next)cur->next->prev=cur;
 628              		.loc 1 170 38 is_stmt 0
 629 0358 83B70700 		ld	a5,0(a5)
 170:src/MemAlloc.cpp ****               if(cur->next)cur->next->prev=cur;
GAS LISTING /tmp/ccnDdHtb.s 			page 18


 630              		.loc 1 170 25
 631 035c 2330F700 		sd	a5,0(a4)
 171:src/MemAlloc.cpp ****           }
 632              		.loc 1 171 15 is_stmt 1
 633 0360 E38607FA 		beqz	a5,.L46
 171:src/MemAlloc.cpp ****           }
 634              		.loc 1 171 28 discriminator 1
 171:src/MemAlloc.cpp ****           }
 635              		.loc 1 171 43 is_stmt 0 discriminator 1
 636 0364 23B4E700 		sd	a4,8(a5)
 637 0368 6FF05FFA 		j	.L46
 638              	.LVL43:
 639              	.L58:
 640              	.LBE31:
 160:src/MemAlloc.cpp ****   }else{
 641              		.loc 1 160 10
 642 036c 13870600 		mv	a4,a3
 643 0370 6F008000 		j	.L43
 644              	.L59:
 645 0374 13070000 		li	a4,0
 646              	.LVL44:
 647              	.L43:
 648              	.LBB32:
 649              	.LBB24:
 175:src/MemAlloc.cpp ****       }else{
 176:src/MemAlloc.cpp ****             Descriptor *nextSeg = cur?cur->next:memfree;
 650              		.loc 1 176 13 is_stmt 1
 651              		.loc 1 176 38 is_stmt 0
 652 0378 63040700 		beqz	a4,.L47
 653              		.loc 1 176 38 discriminator 1
 654 037c 83360700 		ld	a3,0(a4)
 655              	.L47:
 656              	.LVL45:
 177:src/MemAlloc.cpp ****             if(nextSeg && (char*)pom+pom->size+MEM_BLOCK_SIZE == (char*)nextSeg){
 657              		.loc 1 177 13 is_stmt 1 discriminator 4
 658              	.LBB25:
 659 0380 63880600 		beqz	a3,.L48
 660              		.loc 1 177 43 is_stmt 0 discriminator 1
 661 0384 833705FD 		ld	a5,-48(a0)
 662              		.loc 1 177 47 discriminator 1
 663 0388 B305F500 		add	a1,a0,a5
 664              		.loc 1 177 24 discriminator 1
 665 038c 6382D504 		beq	a1,a3,.L64
 666              	.L48:
 667              	.LBB26:
 178:src/MemAlloc.cpp ****                 Descriptor * newSeg = pom;
 179:src/MemAlloc.cpp ****                 newSeg->size=nextSeg->size+pom->size+MEM_BLOCK_SIZE+MEM_BLOCK_SIZE;
 180:src/MemAlloc.cpp ****                 newSeg->prev=nextSeg->prev;
 181:src/MemAlloc.cpp ****                 newSeg->next=nextSeg->next;
 182:src/MemAlloc.cpp ****                 newSeg->status=0;
 183:src/MemAlloc.cpp ****                 if(nextSeg->next)nextSeg->next->prev=newSeg;
 184:src/MemAlloc.cpp ****                 if(nextSeg->prev)nextSeg->prev->next=newSeg;
 185:src/MemAlloc.cpp ****                 else memfree=newSeg;
 186:src/MemAlloc.cpp ****                 return 0;
 187:src/MemAlloc.cpp ****             }else{
 188:src/MemAlloc.cpp ****                 Descriptor * newSeg =pom;
 668              		.loc 1 188 17 is_stmt 1
GAS LISTING /tmp/ccnDdHtb.s 			page 19


 669              	.LVL46:
 189:src/MemAlloc.cpp ****                 newSeg->size=pom->size+MEM_BLOCK_SIZE;
 670              		.loc 1 189 17
 671              		.loc 1 189 35 is_stmt 0
 672 0390 833705FD 		ld	a5,-48(a0)
 673              		.loc 1 189 39
 674 0394 93870704 		addi	a5,a5,64
 675              		.loc 1 189 29
 676 0398 2338F5FC 		sd	a5,-48(a0)
 190:src/MemAlloc.cpp ****                 newSeg->prev =cur;
 677              		.loc 1 190 17 is_stmt 1
 678              		.loc 1 190 30 is_stmt 0
 679 039c 2334E5FC 		sd	a4,-56(a0)
 191:src/MemAlloc.cpp ****                 newSeg->status=0;
 680              		.loc 1 191 17 is_stmt 1
 192:src/MemAlloc.cpp ****                 if(cur)newSeg->next=cur->next;
 681              		.loc 1 192 17
 682 03a0 630E0706 		beqz	a4,.L52
 683              		.loc 1 192 24 discriminator 1
 684              		.loc 1 192 42 is_stmt 0 discriminator 1
 685 03a4 83370700 		ld	a5,0(a4)
 686              		.loc 1 192 36 discriminator 1
 687 03a8 2330F5FC 		sd	a5,-64(a0)
 688              	.L53:
 193:src/MemAlloc.cpp ****                 else newSeg->next=memfree;
 194:src/MemAlloc.cpp ****                 if(newSeg->next)newSeg->next->prev=newSeg;
 689              		.loc 1 194 17 is_stmt 1
 690              		.loc 1 194 28 is_stmt 0
 691 03ac 833705FC 		ld	a5,-64(a0)
 692              		.loc 1 194 17
 693 03b0 63840700 		beqz	a5,.L54
 694              		.loc 1 194 33 is_stmt 1 discriminator 1
 695              		.loc 1 194 51 is_stmt 0 discriminator 1
 696 03b4 23B4C700 		sd	a2,8(a5)
 697              	.L54:
 195:src/MemAlloc.cpp ****                 if(cur)cur->next=newSeg;
 698              		.loc 1 195 17 is_stmt 1
 699 03b8 630A0706 		beqz	a4,.L55
 700              		.loc 1 195 24 discriminator 1
 701              		.loc 1 195 33 is_stmt 0 discriminator 1
 702 03bc 2330C700 		sd	a2,0(a4)
 703              	.LBE26:
 704              	.LBE25:
 705              	.LBE24:
 706              	.LBE32:
 196:src/MemAlloc.cpp ****                 else memfree=newSeg;
 197:src/MemAlloc.cpp ****             }
 198:src/MemAlloc.cpp ****       }
 199:src/MemAlloc.cpp **** 
 200:src/MemAlloc.cpp ****     return 0;
 707              		.loc 1 200 12 discriminator 1
 708 03c0 13050000 		li	a0,0
 709              	.LVL47:
 710              	.L38:
 201:src/MemAlloc.cpp **** }
 711              		.loc 1 201 1
 712 03c4 03348100 		ld	s0,8(sp)
GAS LISTING /tmp/ccnDdHtb.s 			page 20


 713              		.cfi_remember_state
 714              		.cfi_restore 8
 715              		.cfi_def_cfa 2, 16
 716 03c8 13010101 		addi	sp,sp,16
 717              		.cfi_def_cfa_offset 0
 718 03cc 67800000 		jr	ra
 719              	.LVL48:
 720              	.L64:
 721              		.cfi_restore_state
 722              	.LBB33:
 723              	.LBB30:
 724              	.LBB29:
 725              	.LBB27:
 178:src/MemAlloc.cpp ****                 newSeg->size=nextSeg->size+pom->size+MEM_BLOCK_SIZE+MEM_BLOCK_SIZE;
 726              		.loc 1 178 17 is_stmt 1
 179:src/MemAlloc.cpp ****                 newSeg->prev=nextSeg->prev;
 727              		.loc 1 179 17
 179:src/MemAlloc.cpp ****                 newSeg->prev=nextSeg->prev;
 728              		.loc 1 179 39 is_stmt 0
 729 03d0 03B70601 		ld	a4,16(a3)
 179:src/MemAlloc.cpp ****                 newSeg->prev=nextSeg->prev;
 730              		.loc 1 179 43
 731 03d4 B387E700 		add	a5,a5,a4
 179:src/MemAlloc.cpp ****                 newSeg->prev=nextSeg->prev;
 732              		.loc 1 179 68
 733 03d8 93870708 		addi	a5,a5,128
 179:src/MemAlloc.cpp ****                 newSeg->prev=nextSeg->prev;
 734              		.loc 1 179 29
 735 03dc 2338F5FC 		sd	a5,-48(a0)
 180:src/MemAlloc.cpp ****                 newSeg->next=nextSeg->next;
 736              		.loc 1 180 17 is_stmt 1
 180:src/MemAlloc.cpp ****                 newSeg->next=nextSeg->next;
 737              		.loc 1 180 39 is_stmt 0
 738 03e0 83B78600 		ld	a5,8(a3)
 180:src/MemAlloc.cpp ****                 newSeg->next=nextSeg->next;
 739              		.loc 1 180 29
 740 03e4 2334F5FC 		sd	a5,-56(a0)
 181:src/MemAlloc.cpp ****                 newSeg->status=0;
 741              		.loc 1 181 17 is_stmt 1
 181:src/MemAlloc.cpp ****                 newSeg->status=0;
 742              		.loc 1 181 39 is_stmt 0
 743 03e8 83B70600 		ld	a5,0(a3)
 181:src/MemAlloc.cpp ****                 newSeg->status=0;
 744              		.loc 1 181 29
 745 03ec 2330F5FC 		sd	a5,-64(a0)
 182:src/MemAlloc.cpp ****                 if(nextSeg->next)nextSeg->next->prev=newSeg;
 746              		.loc 1 182 17 is_stmt 1
 183:src/MemAlloc.cpp ****                 if(nextSeg->prev)nextSeg->prev->next=newSeg;
 747              		.loc 1 183 17
 183:src/MemAlloc.cpp ****                 if(nextSeg->prev)nextSeg->prev->next=newSeg;
 748              		.loc 1 183 29 is_stmt 0
 749 03f0 83B70600 		ld	a5,0(a3)
 183:src/MemAlloc.cpp ****                 if(nextSeg->prev)nextSeg->prev->next=newSeg;
 750              		.loc 1 183 17
 751 03f4 63840700 		beqz	a5,.L49
 183:src/MemAlloc.cpp ****                 if(nextSeg->prev)nextSeg->prev->next=newSeg;
 752              		.loc 1 183 34 is_stmt 1 discriminator 1
GAS LISTING /tmp/ccnDdHtb.s 			page 21


 183:src/MemAlloc.cpp ****                 if(nextSeg->prev)nextSeg->prev->next=newSeg;
 753              		.loc 1 183 53 is_stmt 0 discriminator 1
 754 03f8 23B4C700 		sd	a2,8(a5)
 755              	.L49:
 184:src/MemAlloc.cpp ****                 else memfree=newSeg;
 756              		.loc 1 184 17 is_stmt 1
 184:src/MemAlloc.cpp ****                 else memfree=newSeg;
 757              		.loc 1 184 29 is_stmt 0
 758 03fc 83B78600 		ld	a5,8(a3)
 184:src/MemAlloc.cpp ****                 else memfree=newSeg;
 759              		.loc 1 184 17
 760 0400 63880700 		beqz	a5,.L50
 184:src/MemAlloc.cpp ****                 else memfree=newSeg;
 761              		.loc 1 184 34 is_stmt 1 discriminator 1
 184:src/MemAlloc.cpp ****                 else memfree=newSeg;
 762              		.loc 1 184 53 is_stmt 0 discriminator 1
 763 0404 23B0C700 		sd	a2,0(a5)
 764              	.L51:
 186:src/MemAlloc.cpp ****             }else{
 765              		.loc 1 186 17 is_stmt 1
 186:src/MemAlloc.cpp ****             }else{
 766              		.loc 1 186 24 is_stmt 0
 767 0408 13050000 		li	a0,0
 768              	.LVL49:
 769 040c 6FF09FFB 		j	.L38
 770              	.LVL50:
 771              	.L50:
 185:src/MemAlloc.cpp ****                 return 0;
 772              		.loc 1 185 22 is_stmt 1
 185:src/MemAlloc.cpp ****                 return 0;
 773              		.loc 1 185 29 is_stmt 0
 774 0410 97070000 		sd	a2,.LANCHOR0,a5
 774      23B0C700 
 775 0418 6FF01FFF 		j	.L51
 776              	.LVL51:
 777              	.L52:
 778              	.LBE27:
 779              	.LBB28:
 193:src/MemAlloc.cpp ****                 if(newSeg->next)newSeg->next->prev=newSeg;
 780              		.loc 1 193 22 is_stmt 1
 193:src/MemAlloc.cpp ****                 if(newSeg->next)newSeg->next->prev=newSeg;
 781              		.loc 1 193 34 is_stmt 0
 782 041c 97070000 		ld	a5,.LANCHOR0
 782      83B70700 
 783 0424 2330F5FC 		sd	a5,-64(a0)
 784 0428 6FF05FF8 		j	.L53
 785              	.L55:
 196:src/MemAlloc.cpp ****             }
 786              		.loc 1 196 22 is_stmt 1
 196:src/MemAlloc.cpp ****             }
 787              		.loc 1 196 29 is_stmt 0
 788 042c 97070000 		sd	a2,.LANCHOR0,a5
 788      23B0C700 
 789              	.LBE28:
 790              	.LBE29:
 791              	.LBE30:
 792              	.LBE33:
GAS LISTING /tmp/ccnDdHtb.s 			page 22


 200:src/MemAlloc.cpp **** }
 793              		.loc 1 200 12
 794 0434 13050000 		li	a0,0
 795              	.LVL52:
 796 0438 6FF0DFF8 		j	.L38
 797              	.LVL53:
 798              	.L56:
 134:src/MemAlloc.cpp **** 
 799              		.loc 1 134 21
 800 043c 1305F0FF 		li	a0,-1
 801              	.LVL54:
 802 0440 6FF05FF8 		j	.L38
 803              	.LVL55:
 804              	.L57:
 137:src/MemAlloc.cpp **** 
 805              		.loc 1 137 31
 806 0444 1305F0FF 		li	a0,-1
 807              	.LVL56:
 808 0448 6FF0DFF7 		j	.L38
 809              		.cfi_endproc
 810              	.LFE2:
 812              		.align	2
 813              		.globl	_ZN8MemAlloc14mem_alter_freeEPv
 815              	_ZN8MemAlloc14mem_alter_freeEPv:
 816              	.LFB3:
 202:src/MemAlloc.cpp **** 
 203:src/MemAlloc.cpp **** 
 204:src/MemAlloc.cpp **** int MemAlloc::mem_alter_free(void *ptr) {
 817              		.loc 1 204 41 is_stmt 1
 818              		.cfi_startproc
 819              	.LVL57:
 205:src/MemAlloc.cpp ****     if(!ptr)return -1;
 820              		.loc 1 205 5
 821 044c 630A0512 		beqz	a0,.L78
 822 0450 13070500 		mv	a4,a0
 206:src/MemAlloc.cpp **** 
 207:src/MemAlloc.cpp ****     Descriptor *pom = (Descriptor*)((char*)(ptr)-MEM_BLOCK_SIZE);
 823              		.loc 1 207 5
 824              		.loc 1 207 17 is_stmt 0
 825 0454 130505FC 		addi	a0,a0,-64
 826              	.LVL58:
 208:src/MemAlloc.cpp ****     if(pom->status==1)return -1;
 827              		.loc 1 208 5 is_stmt 1
 828              		.loc 1 208 13 is_stmt 0
 829 0458 832687FD 		lw	a3,-40(a4)
 830              		.loc 1 208 5
 831 045c 93071000 		li	a5,1
 832 0460 6384F612 		beq	a3,a5,.L79
 204:src/MemAlloc.cpp ****     if(!ptr)return -1;
 833              		.loc 1 204 41
 834 0464 130101FE 		addi	sp,sp,-32
 835              		.cfi_def_cfa_offset 32
 836 0468 233C1100 		sd	ra,24(sp)
 837 046c 23388100 		sd	s0,16(sp)
 838 0470 23349100 		sd	s1,8(sp)
 839              		.cfi_offset 1, -8
 840              		.cfi_offset 8, -16
GAS LISTING /tmp/ccnDdHtb.s 			page 23


 841              		.cfi_offset 9, -24
 842 0474 13040102 		addi	s0,sp,32
 843              		.cfi_def_cfa 8, 0
 209:src/MemAlloc.cpp ****     if((char*)pom ==(char*)memalloc){
 844              		.loc 1 209 5 is_stmt 1
 845              		.loc 1 209 21 is_stmt 0
 846 0478 97070000 		ld	a5,.LANCHOR0+8
 846      83B70700 
 847              		.loc 1 209 5
 848 0480 6386A704 		beq	a5,a0,.L86
 210:src/MemAlloc.cpp ****         memalloc=memalloc->next;
 211:src/MemAlloc.cpp ****         if(memalloc)memalloc->prev= nullptr;
 212:src/MemAlloc.cpp ****         pom->next=pom->prev= nullptr;
 213:src/MemAlloc.cpp ****     }else
 214:src/MemAlloc.cpp ****     if(pom->next== nullptr){
 849              		.loc 1 214 5 is_stmt 1
 850              		.loc 1 214 13 is_stmt 0
 851 0484 833707FC 		ld	a5,-64(a4)
 852              		.loc 1 214 5
 853 0488 63820706 		beqz	a5,.L87
 215:src/MemAlloc.cpp ****         pom->prev->next= nullptr;
 216:src/MemAlloc.cpp ****         pom->prev= nullptr;
 217:src/MemAlloc.cpp ****     }else{
 218:src/MemAlloc.cpp ****         pom->prev->next=pom->next;
 854              		.loc 1 218 9 is_stmt 1
 855              		.loc 1 218 14 is_stmt 0
 856 048c 833687FC 		ld	a3,-56(a4)
 857              		.loc 1 218 24
 858 0490 23B0F600 		sd	a5,0(a3)
 219:src/MemAlloc.cpp ****         pom->next->prev=pom->prev;
 859              		.loc 1 219 9 is_stmt 1
 860              		.loc 1 219 30 is_stmt 0
 861 0494 833687FC 		ld	a3,-56(a4)
 862              		.loc 1 219 24
 863 0498 23B4D700 		sd	a3,8(a5)
 220:src/MemAlloc.cpp ****         pom->next=pom->prev= nullptr;
 864              		.loc 1 220 9 is_stmt 1
 865              		.loc 1 220 28 is_stmt 0
 866 049c 233407FC 		sd	zero,-56(a4)
 867              		.loc 1 220 18
 868 04a0 233007FC 		sd	zero,-64(a4)
 869              	.L69:
 221:src/MemAlloc.cpp ****     }
 222:src/MemAlloc.cpp ****     pom->status=0;
 870              		.loc 1 222 5 is_stmt 1
 871              		.loc 1 222 16 is_stmt 0
 872 04a4 232C07FC 		sw	zero,-40(a4)
 223:src/MemAlloc.cpp ****     Descriptor *cur= nullptr;
 873              		.loc 1 223 5 is_stmt 1
 874              	.LVL59:
 224:src/MemAlloc.cpp ****     if(!memfree || (char*)pom<(char*)memfree)
 875              		.loc 1 224 5
 876              		.loc 1 224 8 is_stmt 0
 877 04a8 97070000 		ld	a5,.LANCHOR0
 877      83B70700 
 878              		.loc 1 224 5
 879 04b0 63860704 		beqz	a5,.L80
GAS LISTING /tmp/ccnDdHtb.s 			page 24


 880              		.loc 1 224 17 discriminator 1
 881 04b4 6368F504 		bgtu	a5,a0,.L81
 882              	.LVL60:
 883              	.L72:
 225:src/MemAlloc.cpp ****         cur= nullptr;
 226:src/MemAlloc.cpp ****     else {
 227:src/MemAlloc.cpp ****         for (cur = memfree; cur->next != nullptr && (char *) pom > (char *) (cur->next);
 884              		.loc 1 227 50 is_stmt 1 discriminator 1
 885 04b8 93840700 		mv	s1,a5
 886              		.loc 1 227 34 is_stmt 0 discriminator 1
 887 04bc 83B70700 		ld	a5,0(a5)
 888              	.LVL61:
 889              		.loc 1 227 50 discriminator 1
 890 04c0 63840704 		beqz	a5,.L71
 891              		.loc 1 227 50 discriminator 2
 892 04c4 E3EAA7FE 		bltu	a5,a0,.L72
 893 04c8 6F000004 		j	.L71
 894              	.LVL62:
 895              	.L86:
 210:src/MemAlloc.cpp ****         if(memalloc)memalloc->prev= nullptr;
 896              		.loc 1 210 9 is_stmt 1
 210:src/MemAlloc.cpp ****         if(memalloc)memalloc->prev= nullptr;
 897              		.loc 1 210 28 is_stmt 0
 898 04cc 83B70700 		ld	a5,0(a5)
 210:src/MemAlloc.cpp ****         if(memalloc)memalloc->prev= nullptr;
 899              		.loc 1 210 17
 900 04d0 97060000 		sd	a5,.LANCHOR0+8,a3
 900      23B0F600 
 211:src/MemAlloc.cpp ****         pom->next=pom->prev= nullptr;
 901              		.loc 1 211 9 is_stmt 1
 902 04d8 63840700 		beqz	a5,.L68
 211:src/MemAlloc.cpp ****         pom->next=pom->prev= nullptr;
 903              		.loc 1 211 21 discriminator 1
 211:src/MemAlloc.cpp ****         pom->next=pom->prev= nullptr;
 904              		.loc 1 211 35 is_stmt 0 discriminator 1
 905 04dc 23B40700 		sd	zero,8(a5)
 906              	.L68:
 212:src/MemAlloc.cpp ****     }else
 907              		.loc 1 212 9 is_stmt 1
 212:src/MemAlloc.cpp ****     }else
 908              		.loc 1 212 28 is_stmt 0
 909 04e0 233407FC 		sd	zero,-56(a4)
 212:src/MemAlloc.cpp ****     }else
 910              		.loc 1 212 18
 911 04e4 233007FC 		sd	zero,-64(a4)
 912 04e8 6FF0DFFB 		j	.L69
 913              	.L87:
 215:src/MemAlloc.cpp ****         pom->prev= nullptr;
 914              		.loc 1 215 9 is_stmt 1
 215:src/MemAlloc.cpp ****         pom->prev= nullptr;
 915              		.loc 1 215 14 is_stmt 0
 916 04ec 833787FC 		ld	a5,-56(a4)
 215:src/MemAlloc.cpp ****         pom->prev= nullptr;
 917              		.loc 1 215 24
 918 04f0 23B00700 		sd	zero,0(a5)
 216:src/MemAlloc.cpp ****     }else{
 919              		.loc 1 216 9 is_stmt 1
GAS LISTING /tmp/ccnDdHtb.s 			page 25


 216:src/MemAlloc.cpp ****     }else{
 920              		.loc 1 216 18 is_stmt 0
 921 04f4 233407FC 		sd	zero,-56(a4)
 922 04f8 6FF0DFFA 		j	.L69
 923              	.LVL63:
 924              	.L80:
 225:src/MemAlloc.cpp ****     else {
 925              		.loc 1 225 12
 926 04fc 93840700 		mv	s1,a5
 927 0500 6F008000 		j	.L71
 928              	.L81:
 929 0504 93040000 		li	s1,0
 930              	.LVL64:
 931              	.L71:
 228:src/MemAlloc.cpp ****              cur = cur->next);
 229:src/MemAlloc.cpp ****     }
 230:src/MemAlloc.cpp **** 
 231:src/MemAlloc.cpp ****         Descriptor * newSeg =pom;
 932              		.loc 1 231 9 is_stmt 1
 232:src/MemAlloc.cpp ****         newSeg->size=pom->size+MEM_BLOCK_SIZE;
 933              		.loc 1 232 9
 934              		.loc 1 232 27 is_stmt 0
 935 0508 833707FD 		ld	a5,-48(a4)
 936              		.loc 1 232 31
 937 050c 93870704 		addi	a5,a5,64
 938              		.loc 1 232 21
 939 0510 2338F7FC 		sd	a5,-48(a4)
 233:src/MemAlloc.cpp ****         newSeg->prev=cur;
 940              		.loc 1 233 9 is_stmt 1
 941              		.loc 1 233 21 is_stmt 0
 942 0514 233497FC 		sd	s1,-56(a4)
 234:src/MemAlloc.cpp ****         if(cur)newSeg->next=cur->next;
 943              		.loc 1 234 9 is_stmt 1
 944 0518 63860404 		beqz	s1,.L73
 945              		.loc 1 234 16 discriminator 1
 946              		.loc 1 234 34 is_stmt 0 discriminator 1
 947 051c 83B70400 		ld	a5,0(s1)
 948              		.loc 1 234 28 discriminator 1
 949 0520 2330F7FC 		sd	a5,-64(a4)
 950              	.L74:
 235:src/MemAlloc.cpp ****         else newSeg->next=memfree;
 236:src/MemAlloc.cpp ****         if(newSeg->next)newSeg->next->prev=newSeg;
 951              		.loc 1 236 9 is_stmt 1
 952              		.loc 1 236 20 is_stmt 0
 953 0524 833707FC 		ld	a5,-64(a4)
 954              		.loc 1 236 9
 955 0528 63840700 		beqz	a5,.L75
 956              		.loc 1 236 25 is_stmt 1 discriminator 1
 957              		.loc 1 236 43 is_stmt 0 discriminator 1
 958 052c 23B4A700 		sd	a0,8(a5)
 959              	.L75:
 237:src/MemAlloc.cpp ****         if(cur)cur->next=newSeg;
 960              		.loc 1 237 9 is_stmt 1
 961 0530 63820404 		beqz	s1,.L76
 962              		.loc 1 237 16 discriminator 1
 963              		.loc 1 237 25 is_stmt 0 discriminator 1
 964 0534 23B0A400 		sd	a0,0(s1)
GAS LISTING /tmp/ccnDdHtb.s 			page 26


 965              	.L77:
 238:src/MemAlloc.cpp ****         else memfree=newSeg;
 239:src/MemAlloc.cpp ****     format(newSeg);
 966              		.loc 1 239 5 is_stmt 1
 967              		.loc 1 239 11 is_stmt 0
 968 0538 97000000 		call	_Z6formatP10Descriptor@plt
 968      E7800000 
 969              	.LVL65:
 240:src/MemAlloc.cpp ****     format(cur);
 970              		.loc 1 240 5 is_stmt 1
 971              		.loc 1 240 11 is_stmt 0
 972 0540 13850400 		mv	a0,s1
 973 0544 97000000 		call	_Z6formatP10Descriptor@plt
 973      E7800000 
 974              	.LVL66:
 241:src/MemAlloc.cpp **** 
 242:src/MemAlloc.cpp ****     return 0;
 975              		.loc 1 242 5 is_stmt 1
 976              		.loc 1 242 12 is_stmt 0
 977 054c 13050000 		li	a0,0
 243:src/MemAlloc.cpp **** }...
 978              		.loc 1 243 1
 979 0550 83308101 		ld	ra,24(sp)
 980              		.cfi_remember_state
 981              		.cfi_restore 1
 982 0554 03340101 		ld	s0,16(sp)
 983              		.cfi_restore 8
 984              		.cfi_def_cfa 2, 32
 985 0558 83348100 		ld	s1,8(sp)
 986              		.cfi_restore 9
 987              	.LVL67:
 988 055c 13010102 		addi	sp,sp,32
 989              		.cfi_def_cfa_offset 0
 990 0560 67800000 		jr	ra
 991              	.LVL68:
 992              	.L73:
 993              		.cfi_restore_state
 235:src/MemAlloc.cpp ****         else newSeg->next=memfree;
 994              		.loc 1 235 14 is_stmt 1
 235:src/MemAlloc.cpp ****         else newSeg->next=memfree;
 995              		.loc 1 235 26 is_stmt 0
 996 0564 97070000 		ld	a5,.LANCHOR0
 996      83B70700 
 997 056c 2330F7FC 		sd	a5,-64(a4)
 998 0570 6FF05FFB 		j	.L74
 999              	.L76:
 238:src/MemAlloc.cpp ****         else memfree=newSeg;
 1000              		.loc 1 238 14 is_stmt 1
 238:src/MemAlloc.cpp ****         else memfree=newSeg;
 1001              		.loc 1 238 21 is_stmt 0
 1002 0574 97070000 		sd	a0,.LANCHOR0,a5
 1002      23B0A700 
 1003 057c 6FF0DFFB 		j	.L77
 1004              	.LVL69:
 1005              	.L78:
 1006              		.cfi_def_cfa_register 2
 1007              		.cfi_restore 1
GAS LISTING /tmp/ccnDdHtb.s 			page 27


 1008              		.cfi_restore 8
 1009              		.cfi_restore 9
 205:src/MemAlloc.cpp ****     if(!ptr)return -1;
 1010              		.loc 1 205 21
 1011 0580 1305F0FF 		li	a0,-1
 1012              	.LVL70:
 1013 0584 67800000 		ret
 1014              	.LVL71:
 1015              	.L79:
 208:src/MemAlloc.cpp ****     if(pom->status==1)return -1;
 1016              		.loc 1 208 31
 1017 0588 1305F0FF 		li	a0,-1
 1018              	.LVL72:
 1019              		.loc 1 243 1
 1020 058c 67800000 		ret
 1021              		.cfi_endproc
 1022              	.LFE3:
 1024              		.globl	_ZN8MemAlloc8memallocE
 1025              		.globl	_ZN8MemAlloc7memfreeE
 1026              		.bss
 1027              		.align	3
 1028              		.set	.LANCHOR0,. + 0
 1031              	_ZN8MemAlloc7memfreeE:
 1032 0000 00000000 		.zero	8
 1032      00000000 
 1035              	_ZN8MemAlloc8memallocE:
 1036 0008 00000000 		.zero	8
 1036      00000000 
 1037              		.text
 1038              	.Letext0:
 1039              		.file 2 "src/../h/../lib/hw.h"
 1040              		.file 3 "src/../h/../h/Descriptor.hpp"
 1041              		.file 4 "src/../h/MemAlloc.hpp"
GAS LISTING /tmp/ccnDdHtb.s 			page 28


DEFINED SYMBOLS
                            *ABS*:0000000000000000 MemAlloc.cpp
     /tmp/ccnDdHtb.s:9      .text:0000000000000000 _ZN8MemAlloc7initMemEv
     /tmp/ccnDdHtb.s:13     .text:0000000000000000 .L0 
     /tmp/ccnDdHtb.s:14     .text:0000000000000000 .L0 
     /tmp/ccnDdHtb.s:15     .text:0000000000000004 .L0 
     /tmp/ccnDdHtb.s:17     .text:0000000000000008 .L0 
     /tmp/ccnDdHtb.s:19     .text:000000000000000c .L0 
     /tmp/ccnDdHtb.s:21     .text:000000000000000c .L0 
     /tmp/ccnDdHtb.s:22     .text:000000000000000c .L0 
     /tmp/ccnDdHtb.s:27     .text:0000000000000024 .L0 
     /tmp/ccnDdHtb.s:28     .text:0000000000000024 .L0 
     /tmp/ccnDdHtb.s:30     .text:0000000000000028 .L0 
     /tmp/ccnDdHtb.s:31     .text:0000000000000028 .L0 
     /tmp/ccnDdHtb.s:33     .text:000000000000002c .L0 
     /tmp/ccnDdHtb.s:34     .text:000000000000002c .L0 
     /tmp/ccnDdHtb.s:39     .text:0000000000000040 .L0 
     /tmp/ccnDdHtb.s:41     .text:0000000000000044 .L0 
     /tmp/ccnDdHtb.s:43     .text:0000000000000048 .L0 
     /tmp/ccnDdHtb.s:45     .text:000000000000004c .L0 
     /tmp/ccnDdHtb.s:46     .text:000000000000004c .L0 
     /tmp/ccnDdHtb.s:48     .text:0000000000000050 .L0 
     /tmp/ccnDdHtb.s:49     .text:0000000000000054 .L0 
     /tmp/ccnDdHtb.s:50     .text:0000000000000054 .L0 
     /tmp/ccnDdHtb.s:52     .text:0000000000000058 .L0 
     /tmp/ccnDdHtb.s:54     .text:000000000000005c .L0 
     /tmp/ccnDdHtb.s:60     .text:000000000000005c _ZN8MemAlloc5allocEm
     /tmp/ccnDdHtb.s:63     .text:000000000000005c .L0 
     /tmp/ccnDdHtb.s:65     .text:000000000000005c .L0 
     /tmp/ccnDdHtb.s:66     .text:0000000000000060 .L0 
     /tmp/ccnDdHtb.s:69     .text:0000000000000068 .L0 
     /tmp/ccnDdHtb.s:70     .text:0000000000000068 .L0 
     /tmp/ccnDdHtb.s:72     .text:000000000000006c .L0 
     /tmp/ccnDdHtb.s:74     .text:000000000000006c .L0 
     /tmp/ccnDdHtb.s:75     .text:000000000000006c .L0 
     /tmp/ccnDdHtb.s:80     .text:0000000000000078 .L0 
     /tmp/ccnDdHtb.s:81     .text:0000000000000078 .L0 
     /tmp/ccnDdHtb.s:92     .text:0000000000000088 .L0 
     /tmp/ccnDdHtb.s:94     .text:000000000000008c .L0 
     /tmp/ccnDdHtb.s:95     .text:000000000000008c .L0 
     /tmp/ccnDdHtb.s:97     .text:0000000000000090 .L0 
     /tmp/ccnDdHtb.s:99     .text:0000000000000094 .L0 
     /tmp/ccnDdHtb.s:100    .text:0000000000000094 .L0 
     /tmp/ccnDdHtb.s:103    .text:0000000000000098 .L0 
     /tmp/ccnDdHtb.s:105    .text:000000000000009c .L0 
     /tmp/ccnDdHtb.s:106    .text:000000000000009c .L0 
     /tmp/ccnDdHtb.s:108    .text:00000000000000a0 .L0 
     /tmp/ccnDdHtb.s:110    .text:00000000000000a4 .L0 
     /tmp/ccnDdHtb.s:112    .text:00000000000000a8 .L0 
     /tmp/ccnDdHtb.s:113    .text:00000000000000a8 .L0 
     /tmp/ccnDdHtb.s:115    .text:00000000000000ac .L0 
     /tmp/ccnDdHtb.s:118    .text:00000000000000b0 .L0 
     /tmp/ccnDdHtb.s:119    .text:00000000000000b0 .L0 
     /tmp/ccnDdHtb.s:123    .text:00000000000000b8 .L0 
     /tmp/ccnDdHtb.s:124    .text:00000000000000b8 .L0 
     /tmp/ccnDdHtb.s:126    .text:00000000000000c0 .L0 
     /tmp/ccnDdHtb.s:129    .text:00000000000000c4 .L0 
GAS LISTING /tmp/ccnDdHtb.s 			page 29


     /tmp/ccnDdHtb.s:130    .text:00000000000000c4 .L0 
     /tmp/ccnDdHtb.s:133    .text:00000000000000c8 .L0 
     /tmp/ccnDdHtb.s:135    .text:00000000000000c8 .L0 
     /tmp/ccnDdHtb.s:136    .text:00000000000000c8 .L0 
     /tmp/ccnDdHtb.s:137    .text:00000000000000c8 .L0 
     /tmp/ccnDdHtb.s:139    .text:00000000000000cc .L0 
     /tmp/ccnDdHtb.s:142    .text:00000000000000d0 .L0 
     /tmp/ccnDdHtb.s:143    .text:00000000000000d0 .L0 
     /tmp/ccnDdHtb.s:144    .text:00000000000000d0 .L0 
     /tmp/ccnDdHtb.s:146    .text:00000000000000d4 .L0 
     /tmp/ccnDdHtb.s:149    .text:00000000000000d8 .L0 
     /tmp/ccnDdHtb.s:155    .text:00000000000000dc .L0 
     /tmp/ccnDdHtb.s:156    .text:00000000000000dc .L0 
     /tmp/ccnDdHtb.s:158    .text:00000000000000e0 .L0 
     /tmp/ccnDdHtb.s:161    .text:00000000000000e8 .L0 
     /tmp/ccnDdHtb.s:163    .text:00000000000000ec .L0 
     /tmp/ccnDdHtb.s:164    .text:00000000000000ec .L0 
     /tmp/ccnDdHtb.s:167    .text:00000000000000f0 .L0 
     /tmp/ccnDdHtb.s:168    .text:00000000000000f0 .L0 
     /tmp/ccnDdHtb.s:170    .text:00000000000000f4 .L0 
     /tmp/ccnDdHtb.s:175    .text:00000000000000fc .L0 
     /tmp/ccnDdHtb.s:176    .text:00000000000000fc .L0 
     /tmp/ccnDdHtb.s:178    .text:0000000000000100 .L0 
     /tmp/ccnDdHtb.s:180    .text:0000000000000104 .L0 
     /tmp/ccnDdHtb.s:181    .text:0000000000000104 .L0 
     /tmp/ccnDdHtb.s:187    .text:000000000000010c .L0 
     /tmp/ccnDdHtb.s:188    .text:000000000000010c .L0 
     /tmp/ccnDdHtb.s:190    .text:0000000000000114 .L0 
     /tmp/ccnDdHtb.s:191    .text:0000000000000114 .L0 
     /tmp/ccnDdHtb.s:193    .text:0000000000000118 .L0 
     /tmp/ccnDdHtb.s:199    .text:0000000000000120 .L0 
     /tmp/ccnDdHtb.s:200    .text:0000000000000120 .L0 
     /tmp/ccnDdHtb.s:201    .text:0000000000000120 .L0 
     /tmp/ccnDdHtb.s:202    .text:0000000000000120 .L0 
     /tmp/ccnDdHtb.s:204    .text:0000000000000124 .L0 
     /tmp/ccnDdHtb.s:205    .text:0000000000000124 .L0 
     /tmp/ccnDdHtb.s:207    .text:0000000000000128 .L0 
     /tmp/ccnDdHtb.s:209    .text:0000000000000128 .L0 
     /tmp/ccnDdHtb.s:210    .text:0000000000000128 .L0 
     /tmp/ccnDdHtb.s:211    .text:0000000000000128 .L0 
     /tmp/ccnDdHtb.s:212    .text:0000000000000128 .L0 
     /tmp/ccnDdHtb.s:213    .text:0000000000000128 .L0 
     /tmp/ccnDdHtb.s:215    .text:000000000000012c .L0 
     /tmp/ccnDdHtb.s:216    .text:000000000000012c .L0 
     /tmp/ccnDdHtb.s:222    .text:0000000000000130 .L0 
     /tmp/ccnDdHtb.s:223    .text:0000000000000130 .L0 
     /tmp/ccnDdHtb.s:230    .text:0000000000000134 .L0 
     /tmp/ccnDdHtb.s:231    .text:0000000000000138 .L0 
     /tmp/ccnDdHtb.s:232    .text:0000000000000138 .L0 
     /tmp/ccnDdHtb.s:234    .text:000000000000013c .L0 
     /tmp/ccnDdHtb.s:235    .text:000000000000013c .L0 
     /tmp/ccnDdHtb.s:237    .text:0000000000000140 .L0 
     /tmp/ccnDdHtb.s:241    .text:0000000000000144 .L0 
     /tmp/ccnDdHtb.s:247    .text:0000000000000144 .L0 
     /tmp/ccnDdHtb.s:248    .text:0000000000000144 .L0 
     /tmp/ccnDdHtb.s:250    .text:0000000000000148 .L0 
     /tmp/ccnDdHtb.s:252    .text:0000000000000150 .L0 
GAS LISTING /tmp/ccnDdHtb.s 			page 30


     /tmp/ccnDdHtb.s:254    .text:0000000000000154 .L0 
     /tmp/ccnDdHtb.s:255    .text:0000000000000154 .L0 
     /tmp/ccnDdHtb.s:258    .text:0000000000000158 .L0 
     /tmp/ccnDdHtb.s:259    .text:0000000000000158 .L0 
     /tmp/ccnDdHtb.s:261    .text:000000000000015c .L0 
     /tmp/ccnDdHtb.s:265    .text:0000000000000164 .L0 
     /tmp/ccnDdHtb.s:266    .text:0000000000000164 .L0 
     /tmp/ccnDdHtb.s:268    .text:0000000000000168 .L0 
     /tmp/ccnDdHtb.s:270    .text:000000000000016c .L0 
     /tmp/ccnDdHtb.s:271    .text:000000000000016c .L0 
     /tmp/ccnDdHtb.s:276    .text:0000000000000174 .L0 
     /tmp/ccnDdHtb.s:277    .text:0000000000000174 .L0 
     /tmp/ccnDdHtb.s:283    .text:0000000000000180 .L0 
     /tmp/ccnDdHtb.s:284    .text:0000000000000180 .L0 
     /tmp/ccnDdHtb.s:286    .text:0000000000000188 .L0 
     /tmp/ccnDdHtb.s:287    .text:0000000000000188 .L0 
     /tmp/ccnDdHtb.s:289    .text:000000000000018c .L0 
     /tmp/ccnDdHtb.s:295    .text:0000000000000194 .L0 
     /tmp/ccnDdHtb.s:296    .text:0000000000000194 .L0 
     /tmp/ccnDdHtb.s:297    .text:0000000000000194 .L0 
     /tmp/ccnDdHtb.s:298    .text:0000000000000194 .L0 
     /tmp/ccnDdHtb.s:301    .text:0000000000000198 .L0 
     /tmp/ccnDdHtb.s:302    .text:0000000000000198 .L0 
     /tmp/ccnDdHtb.s:304    .text:000000000000019c .L0 
     /tmp/ccnDdHtb.s:306    .text:000000000000019c .L0 
     /tmp/ccnDdHtb.s:307    .text:000000000000019c .L0 
     /tmp/ccnDdHtb.s:308    .text:000000000000019c .L0 
     /tmp/ccnDdHtb.s:309    .text:000000000000019c .L0 
     /tmp/ccnDdHtb.s:310    .text:000000000000019c .L0 
     /tmp/ccnDdHtb.s:312    .text:00000000000001a0 .L0 
     /tmp/ccnDdHtb.s:313    .text:00000000000001a0 .L0 
     /tmp/ccnDdHtb.s:319    .text:00000000000001a4 .L0 
     /tmp/ccnDdHtb.s:320    .text:00000000000001a4 .L0 
     /tmp/ccnDdHtb.s:329    .text:00000000000001ac .L0 
     /tmp/ccnDdHtb.s:330    .text:00000000000001ac .L0 
     /tmp/ccnDdHtb.s:335    .text:00000000000001b0 .L0 
     /tmp/ccnDdHtb.s:336    .text:00000000000001b0 .L0 
     /tmp/ccnDdHtb.s:340    .text:00000000000001b4 .L0 
     /tmp/ccnDdHtb.s:341    .text:00000000000001b4 .L0 
     /tmp/ccnDdHtb.s:343    .text:00000000000001b8 .L0 
     /tmp/ccnDdHtb.s:350    .text:00000000000001bc .L0 
     /tmp/ccnDdHtb.s:353    .text:00000000000001c0 .L0 
     /tmp/ccnDdHtb.s:355    .text:00000000000001c4 .L0 
     /tmp/ccnDdHtb.s:356    .text:00000000000001c4 .L0 
     /tmp/ccnDdHtb.s:358    .text:00000000000001c8 .L0 
     /tmp/ccnDdHtb.s:360    .text:00000000000001cc .L0 
     /tmp/ccnDdHtb.s:361    .text:00000000000001cc .L0 
     /tmp/ccnDdHtb.s:363    .text:00000000000001d0 .L0 
     /tmp/ccnDdHtb.s:365    .text:00000000000001d4 .L0 
     /tmp/ccnDdHtb.s:366    .text:00000000000001d4 .L0 
     /tmp/ccnDdHtb.s:368    .text:00000000000001d8 .L0 
     /tmp/ccnDdHtb.s:370    .text:00000000000001dc .L0 
     /tmp/ccnDdHtb.s:372    .text:00000000000001e0 .L0 
     /tmp/ccnDdHtb.s:373    .text:00000000000001e0 .L0 
     /tmp/ccnDdHtb.s:375    .text:00000000000001e4 .L0 
     /tmp/ccnDdHtb.s:378    .text:00000000000001e8 .L0 
     /tmp/ccnDdHtb.s:379    .text:00000000000001e8 .L0 
GAS LISTING /tmp/ccnDdHtb.s 			page 31


     /tmp/ccnDdHtb.s:382    .text:00000000000001f0 .L0 
     /tmp/ccnDdHtb.s:383    .text:00000000000001f0 .L0 
     /tmp/ccnDdHtb.s:385    .text:00000000000001f4 .L0 
     /tmp/ccnDdHtb.s:388    .text:00000000000001f8 .L0 
     /tmp/ccnDdHtb.s:389    .text:00000000000001f8 .L0 
     /tmp/ccnDdHtb.s:391    .text:00000000000001fc .L0 
     /tmp/ccnDdHtb.s:393    .text:0000000000000200 .L0 
     /tmp/ccnDdHtb.s:394    .text:0000000000000200 .L0 
     /tmp/ccnDdHtb.s:397    .text:0000000000000204 .L0 
     /tmp/ccnDdHtb.s:398    .text:0000000000000204 .L0 
     /tmp/ccnDdHtb.s:400    .text:0000000000000208 .L0 
     /tmp/ccnDdHtb.s:402    .text:000000000000020c .L0 
     /tmp/ccnDdHtb.s:403    .text:000000000000020c .L0 
     /tmp/ccnDdHtb.s:406    .text:0000000000000210 .L0 
     /tmp/ccnDdHtb.s:407    .text:0000000000000210 .L0 
     /tmp/ccnDdHtb.s:409    .text:0000000000000214 .L0 
     /tmp/ccnDdHtb.s:411    .text:0000000000000218 .L0 
     /tmp/ccnDdHtb.s:412    .text:0000000000000218 .L0 
     /tmp/ccnDdHtb.s:414    .text:000000000000021c .L0 
     /tmp/ccnDdHtb.s:416    .text:0000000000000220 .L0 
     /tmp/ccnDdHtb.s:417    .text:0000000000000220 .L0 
     /tmp/ccnDdHtb.s:419    .text:0000000000000224 .L0 
     /tmp/ccnDdHtb.s:421    .text:0000000000000228 .L0 
     /tmp/ccnDdHtb.s:423    .text:000000000000022c .L0 
     /tmp/ccnDdHtb.s:425    .text:0000000000000230 .L0 
     /tmp/ccnDdHtb.s:426    .text:0000000000000230 .L0 
     /tmp/ccnDdHtb.s:428    .text:0000000000000234 .L0 
     /tmp/ccnDdHtb.s:429    .text:0000000000000234 .L0 
     /tmp/ccnDdHtb.s:431    .text:0000000000000238 .L0 
     /tmp/ccnDdHtb.s:432    .text:0000000000000238 .L0 
     /tmp/ccnDdHtb.s:437    .text:0000000000000240 .L0 
     /tmp/ccnDdHtb.s:438    .text:0000000000000240 .L0 
     /tmp/ccnDdHtb.s:441    .text:0000000000000248 .L0 
     /tmp/ccnDdHtb.s:444    .text:000000000000024c .L0 
     /tmp/ccnDdHtb.s:445    .text:000000000000024c .L0 
     /tmp/ccnDdHtb.s:448    .text:0000000000000250 .L0 
     /tmp/ccnDdHtb.s:450    .text:0000000000000250 .L0 
     /tmp/ccnDdHtb.s:451    .text:0000000000000250 .L0 
     /tmp/ccnDdHtb.s:452    .text:0000000000000250 .L0 
     /tmp/ccnDdHtb.s:454    .text:0000000000000254 .L0 
     /tmp/ccnDdHtb.s:457    .text:0000000000000258 .L0 
     /tmp/ccnDdHtb.s:458    .text:0000000000000258 .L0 
     /tmp/ccnDdHtb.s:459    .text:0000000000000258 .L0 
     /tmp/ccnDdHtb.s:461    .text:000000000000025c .L0 
     /tmp/ccnDdHtb.s:464    .text:0000000000000260 .L0 
     /tmp/ccnDdHtb.s:471    .text:0000000000000264 .L0 
     /tmp/ccnDdHtb.s:477    .text:0000000000000264 _ZN8MemAlloc8mem_freeEPv
     /tmp/ccnDdHtb.s:480    .text:0000000000000264 .L0 
     /tmp/ccnDdHtb.s:482    .text:0000000000000264 .L0 
     /tmp/ccnDdHtb.s:483    .text:0000000000000268 .L0 
     /tmp/ccnDdHtb.s:485    .text:000000000000026c .L0 
     /tmp/ccnDdHtb.s:487    .text:0000000000000270 .L0 
     /tmp/ccnDdHtb.s:489    .text:0000000000000270 .L0 
     /tmp/ccnDdHtb.s:491    .text:0000000000000274 .L0 
     /tmp/ccnDdHtb.s:492    .text:0000000000000274 .L0 
     /tmp/ccnDdHtb.s:495    .text:0000000000000278 .L0 
     /tmp/ccnDdHtb.s:496    .text:0000000000000278 .L0 
GAS LISTING /tmp/ccnDdHtb.s 			page 32


     /tmp/ccnDdHtb.s:498    .text:000000000000027c .L0 
     /tmp/ccnDdHtb.s:501    .text:0000000000000284 .L0 
     /tmp/ccnDdHtb.s:502    .text:0000000000000284 .L0 
     /tmp/ccnDdHtb.s:504    .text:000000000000028c .L0 
     /tmp/ccnDdHtb.s:506    .text:0000000000000290 .L0 
     /tmp/ccnDdHtb.s:507    .text:0000000000000290 .L0 
     /tmp/ccnDdHtb.s:509    .text:0000000000000294 .L0 
     /tmp/ccnDdHtb.s:511    .text:0000000000000298 .L0 
     /tmp/ccnDdHtb.s:512    .text:0000000000000298 .L0 
     /tmp/ccnDdHtb.s:514    .text:000000000000029c .L0 
     /tmp/ccnDdHtb.s:516    .text:00000000000002a0 .L0 
     /tmp/ccnDdHtb.s:517    .text:00000000000002a0 .L0 
     /tmp/ccnDdHtb.s:519    .text:00000000000002a4 .L0 
     /tmp/ccnDdHtb.s:521    .text:00000000000002a8 .L0 
     /tmp/ccnDdHtb.s:522    .text:00000000000002a8 .L0 
     /tmp/ccnDdHtb.s:524    .text:00000000000002ac .L0 
     /tmp/ccnDdHtb.s:527    .text:00000000000002b0 .L0 
     /tmp/ccnDdHtb.s:528    .text:00000000000002b0 .L0 
     /tmp/ccnDdHtb.s:531    .text:00000000000002b4 .L0 
     /tmp/ccnDdHtb.s:532    .text:00000000000002b4 .L0 
     /tmp/ccnDdHtb.s:533    .text:00000000000002b4 .L0 
     /tmp/ccnDdHtb.s:534    .text:00000000000002b4 .L0 
     /tmp/ccnDdHtb.s:536    .text:00000000000002bc .L0 
     /tmp/ccnDdHtb.s:538    .text:00000000000002c0 .L0 
     /tmp/ccnDdHtb.s:540    .text:00000000000002c4 .L0 
     /tmp/ccnDdHtb.s:544    .text:00000000000002c8 .L0 
     /tmp/ccnDdHtb.s:546    .text:00000000000002cc .L0 
     /tmp/ccnDdHtb.s:549    .text:00000000000002d0 .L0 
     /tmp/ccnDdHtb.s:551    .text:00000000000002d4 .L0 
     /tmp/ccnDdHtb.s:555    .text:00000000000002d8 .L0 
     /tmp/ccnDdHtb.s:557    .text:00000000000002dc .L0 
     /tmp/ccnDdHtb.s:559    .text:00000000000002e0 .L0 
     /tmp/ccnDdHtb.s:562    .text:00000000000002e8 .L0 
     /tmp/ccnDdHtb.s:564    .text:00000000000002ec .L0 
     /tmp/ccnDdHtb.s:565    .text:00000000000002ec .L0 
     /tmp/ccnDdHtb.s:567    .text:00000000000002f0 .L0 
     /tmp/ccnDdHtb.s:571    .text:00000000000002fc .L0 
     /tmp/ccnDdHtb.s:573    .text:0000000000000300 .L0 
     /tmp/ccnDdHtb.s:577    .text:0000000000000308 .L0 
     /tmp/ccnDdHtb.s:580    .text:000000000000030c .L0 
     /tmp/ccnDdHtb.s:581    .text:000000000000030c .L0 
     /tmp/ccnDdHtb.s:583    .text:0000000000000310 .L0 
     /tmp/ccnDdHtb.s:584    .text:0000000000000310 .L0 
     /tmp/ccnDdHtb.s:591    .text:0000000000000318 .L0 
     /tmp/ccnDdHtb.s:592    .text:0000000000000318 .L0 
     /tmp/ccnDdHtb.s:594    .text:000000000000031c .L0 
     /tmp/ccnDdHtb.s:596    .text:0000000000000324 .L0 
     /tmp/ccnDdHtb.s:598    .text:0000000000000328 .L0 
     /tmp/ccnDdHtb.s:599    .text:0000000000000328 .L0 
     /tmp/ccnDdHtb.s:602    .text:000000000000032c .L0 
     /tmp/ccnDdHtb.s:603    .text:000000000000032c .L0 
     /tmp/ccnDdHtb.s:605    .text:0000000000000330 .L0 
     /tmp/ccnDdHtb.s:609    .text:0000000000000338 .L0 
     /tmp/ccnDdHtb.s:610    .text:0000000000000338 .L0 
     /tmp/ccnDdHtb.s:612    .text:000000000000033c .L0 
     /tmp/ccnDdHtb.s:614    .text:0000000000000340 .L0 
     /tmp/ccnDdHtb.s:615    .text:0000000000000340 .L0 
GAS LISTING /tmp/ccnDdHtb.s 			page 33


     /tmp/ccnDdHtb.s:621    .text:0000000000000348 .L0 
     /tmp/ccnDdHtb.s:622    .text:0000000000000348 .L0 
     /tmp/ccnDdHtb.s:624    .text:000000000000034c .L0 
     /tmp/ccnDdHtb.s:628    .text:0000000000000358 .L0 
     /tmp/ccnDdHtb.s:629    .text:0000000000000358 .L0 
     /tmp/ccnDdHtb.s:631    .text:000000000000035c .L0 
     /tmp/ccnDdHtb.s:633    .text:0000000000000360 .L0 
     /tmp/ccnDdHtb.s:635    .text:0000000000000364 .L0 
     /tmp/ccnDdHtb.s:636    .text:0000000000000364 .L0 
     /tmp/ccnDdHtb.s:642    .text:000000000000036c .L0 
     /tmp/ccnDdHtb.s:651    .text:0000000000000378 .L0 
     /tmp/ccnDdHtb.s:652    .text:0000000000000378 .L0 
     /tmp/ccnDdHtb.s:654    .text:000000000000037c .L0 
     /tmp/ccnDdHtb.s:659    .text:0000000000000380 .L0 
     /tmp/ccnDdHtb.s:661    .text:0000000000000384 .L0 
     /tmp/ccnDdHtb.s:663    .text:0000000000000388 .L0 
     /tmp/ccnDdHtb.s:665    .text:000000000000038c .L0 
     /tmp/ccnDdHtb.s:670    .text:0000000000000390 .L0 
     /tmp/ccnDdHtb.s:671    .text:0000000000000390 .L0 
     /tmp/ccnDdHtb.s:672    .text:0000000000000390 .L0 
     /tmp/ccnDdHtb.s:674    .text:0000000000000394 .L0 
     /tmp/ccnDdHtb.s:676    .text:0000000000000398 .L0 
     /tmp/ccnDdHtb.s:678    .text:000000000000039c .L0 
     /tmp/ccnDdHtb.s:679    .text:000000000000039c .L0 
     /tmp/ccnDdHtb.s:681    .text:00000000000003a0 .L0 
     /tmp/ccnDdHtb.s:682    .text:00000000000003a0 .L0 
     /tmp/ccnDdHtb.s:684    .text:00000000000003a4 .L0 
     /tmp/ccnDdHtb.s:685    .text:00000000000003a4 .L0 
     /tmp/ccnDdHtb.s:687    .text:00000000000003a8 .L0 
     /tmp/ccnDdHtb.s:690    .text:00000000000003ac .L0 
     /tmp/ccnDdHtb.s:691    .text:00000000000003ac .L0 
     /tmp/ccnDdHtb.s:693    .text:00000000000003b0 .L0 
     /tmp/ccnDdHtb.s:695    .text:00000000000003b4 .L0 
     /tmp/ccnDdHtb.s:696    .text:00000000000003b4 .L0 
     /tmp/ccnDdHtb.s:699    .text:00000000000003b8 .L0 
     /tmp/ccnDdHtb.s:701    .text:00000000000003bc .L0 
     /tmp/ccnDdHtb.s:702    .text:00000000000003bc .L0 
     /tmp/ccnDdHtb.s:708    .text:00000000000003c0 .L0 
     /tmp/ccnDdHtb.s:712    .text:00000000000003c4 .L0 
     /tmp/ccnDdHtb.s:713    .text:00000000000003c8 .L0 
     /tmp/ccnDdHtb.s:714    .text:00000000000003c8 .L0 
     /tmp/ccnDdHtb.s:715    .text:00000000000003c8 .L0 
     /tmp/ccnDdHtb.s:717    .text:00000000000003cc .L0 
     /tmp/ccnDdHtb.s:721    .text:00000000000003d0 .L0 
     /tmp/ccnDdHtb.s:727    .text:00000000000003d0 .L0 
     /tmp/ccnDdHtb.s:728    .text:00000000000003d0 .L0 
     /tmp/ccnDdHtb.s:729    .text:00000000000003d0 .L0 
     /tmp/ccnDdHtb.s:731    .text:00000000000003d4 .L0 
     /tmp/ccnDdHtb.s:733    .text:00000000000003d8 .L0 
     /tmp/ccnDdHtb.s:735    .text:00000000000003dc .L0 
     /tmp/ccnDdHtb.s:737    .text:00000000000003e0 .L0 
     /tmp/ccnDdHtb.s:738    .text:00000000000003e0 .L0 
     /tmp/ccnDdHtb.s:740    .text:00000000000003e4 .L0 
     /tmp/ccnDdHtb.s:742    .text:00000000000003e8 .L0 
     /tmp/ccnDdHtb.s:743    .text:00000000000003e8 .L0 
     /tmp/ccnDdHtb.s:745    .text:00000000000003ec .L0 
     /tmp/ccnDdHtb.s:747    .text:00000000000003f0 .L0 
GAS LISTING /tmp/ccnDdHtb.s 			page 34


     /tmp/ccnDdHtb.s:748    .text:00000000000003f0 .L0 
     /tmp/ccnDdHtb.s:749    .text:00000000000003f0 .L0 
     /tmp/ccnDdHtb.s:751    .text:00000000000003f4 .L0 
     /tmp/ccnDdHtb.s:753    .text:00000000000003f8 .L0 
     /tmp/ccnDdHtb.s:754    .text:00000000000003f8 .L0 
     /tmp/ccnDdHtb.s:757    .text:00000000000003fc .L0 
     /tmp/ccnDdHtb.s:758    .text:00000000000003fc .L0 
     /tmp/ccnDdHtb.s:760    .text:0000000000000400 .L0 
     /tmp/ccnDdHtb.s:762    .text:0000000000000404 .L0 
     /tmp/ccnDdHtb.s:763    .text:0000000000000404 .L0 
     /tmp/ccnDdHtb.s:766    .text:0000000000000408 .L0 
     /tmp/ccnDdHtb.s:767    .text:0000000000000408 .L0 
     /tmp/ccnDdHtb.s:773    .text:0000000000000410 .L0 
     /tmp/ccnDdHtb.s:774    .text:0000000000000410 .L0 
     /tmp/ccnDdHtb.s:781    .text:000000000000041c .L0 
     /tmp/ccnDdHtb.s:782    .text:000000000000041c .L0 
     /tmp/ccnDdHtb.s:787    .text:000000000000042c .L0 
     /tmp/ccnDdHtb.s:788    .text:000000000000042c .L0 
     /tmp/ccnDdHtb.s:794    .text:0000000000000434 .L0 
     /tmp/ccnDdHtb.s:800    .text:000000000000043c .L0 
     /tmp/ccnDdHtb.s:806    .text:0000000000000444 .L0 
     /tmp/ccnDdHtb.s:809    .text:000000000000044c .L0 
     /tmp/ccnDdHtb.s:815    .text:000000000000044c _ZN8MemAlloc14mem_alter_freeEPv
     /tmp/ccnDdHtb.s:818    .text:000000000000044c .L0 
     /tmp/ccnDdHtb.s:820    .text:000000000000044c .L0 
     /tmp/ccnDdHtb.s:821    .text:000000000000044c .L0 
     /tmp/ccnDdHtb.s:824    .text:0000000000000454 .L0 
     /tmp/ccnDdHtb.s:825    .text:0000000000000454 .L0 
     /tmp/ccnDdHtb.s:828    .text:0000000000000458 .L0 
     /tmp/ccnDdHtb.s:829    .text:0000000000000458 .L0 
     /tmp/ccnDdHtb.s:831    .text:000000000000045c .L0 
     /tmp/ccnDdHtb.s:834    .text:0000000000000464 .L0 
     /tmp/ccnDdHtb.s:835    .text:0000000000000468 .L0 
     /tmp/ccnDdHtb.s:839    .text:0000000000000474 .L0 
     /tmp/ccnDdHtb.s:840    .text:0000000000000474 .L0 
     /tmp/ccnDdHtb.s:841    .text:0000000000000474 .L0 
     /tmp/ccnDdHtb.s:843    .text:0000000000000478 .L0 
     /tmp/ccnDdHtb.s:845    .text:0000000000000478 .L0 
     /tmp/ccnDdHtb.s:846    .text:0000000000000478 .L0 
     /tmp/ccnDdHtb.s:848    .text:0000000000000480 .L0 
     /tmp/ccnDdHtb.s:850    .text:0000000000000484 .L0 
     /tmp/ccnDdHtb.s:851    .text:0000000000000484 .L0 
     /tmp/ccnDdHtb.s:853    .text:0000000000000488 .L0 
     /tmp/ccnDdHtb.s:855    .text:000000000000048c .L0 
     /tmp/ccnDdHtb.s:856    .text:000000000000048c .L0 
     /tmp/ccnDdHtb.s:858    .text:0000000000000490 .L0 
     /tmp/ccnDdHtb.s:860    .text:0000000000000494 .L0 
     /tmp/ccnDdHtb.s:861    .text:0000000000000494 .L0 
     /tmp/ccnDdHtb.s:863    .text:0000000000000498 .L0 
     /tmp/ccnDdHtb.s:865    .text:000000000000049c .L0 
     /tmp/ccnDdHtb.s:866    .text:000000000000049c .L0 
     /tmp/ccnDdHtb.s:868    .text:00000000000004a0 .L0 
     /tmp/ccnDdHtb.s:871    .text:00000000000004a4 .L0 
     /tmp/ccnDdHtb.s:872    .text:00000000000004a4 .L0 
     /tmp/ccnDdHtb.s:875    .text:00000000000004a8 .L0 
     /tmp/ccnDdHtb.s:876    .text:00000000000004a8 .L0 
     /tmp/ccnDdHtb.s:877    .text:00000000000004a8 .L0 
GAS LISTING /tmp/ccnDdHtb.s 			page 35


     /tmp/ccnDdHtb.s:879    .text:00000000000004b0 .L0 
     /tmp/ccnDdHtb.s:881    .text:00000000000004b4 .L0 
     /tmp/ccnDdHtb.s:885    .text:00000000000004b8 .L0 
     /tmp/ccnDdHtb.s:887    .text:00000000000004bc .L0 
     /tmp/ccnDdHtb.s:890    .text:00000000000004c0 .L0 
     /tmp/ccnDdHtb.s:892    .text:00000000000004c4 .L0 
     /tmp/ccnDdHtb.s:897    .text:00000000000004cc .L0 
     /tmp/ccnDdHtb.s:898    .text:00000000000004cc .L0 
     /tmp/ccnDdHtb.s:900    .text:00000000000004d0 .L0 
     /tmp/ccnDdHtb.s:902    .text:00000000000004d8 .L0 
     /tmp/ccnDdHtb.s:904    .text:00000000000004dc .L0 
     /tmp/ccnDdHtb.s:905    .text:00000000000004dc .L0 
     /tmp/ccnDdHtb.s:908    .text:00000000000004e0 .L0 
     /tmp/ccnDdHtb.s:909    .text:00000000000004e0 .L0 
     /tmp/ccnDdHtb.s:911    .text:00000000000004e4 .L0 
     /tmp/ccnDdHtb.s:915    .text:00000000000004ec .L0 
     /tmp/ccnDdHtb.s:916    .text:00000000000004ec .L0 
     /tmp/ccnDdHtb.s:918    .text:00000000000004f0 .L0 
     /tmp/ccnDdHtb.s:920    .text:00000000000004f4 .L0 
     /tmp/ccnDdHtb.s:921    .text:00000000000004f4 .L0 
     /tmp/ccnDdHtb.s:926    .text:00000000000004fc .L0 
     /tmp/ccnDdHtb.s:933    .text:0000000000000508 .L0 
     /tmp/ccnDdHtb.s:934    .text:0000000000000508 .L0 
     /tmp/ccnDdHtb.s:935    .text:0000000000000508 .L0 
     /tmp/ccnDdHtb.s:937    .text:000000000000050c .L0 
     /tmp/ccnDdHtb.s:939    .text:0000000000000510 .L0 
     /tmp/ccnDdHtb.s:941    .text:0000000000000514 .L0 
     /tmp/ccnDdHtb.s:942    .text:0000000000000514 .L0 
     /tmp/ccnDdHtb.s:944    .text:0000000000000518 .L0 
     /tmp/ccnDdHtb.s:946    .text:000000000000051c .L0 
     /tmp/ccnDdHtb.s:947    .text:000000000000051c .L0 
     /tmp/ccnDdHtb.s:949    .text:0000000000000520 .L0 
     /tmp/ccnDdHtb.s:952    .text:0000000000000524 .L0 
     /tmp/ccnDdHtb.s:953    .text:0000000000000524 .L0 
     /tmp/ccnDdHtb.s:955    .text:0000000000000528 .L0 
     /tmp/ccnDdHtb.s:957    .text:000000000000052c .L0 
     /tmp/ccnDdHtb.s:958    .text:000000000000052c .L0 
     /tmp/ccnDdHtb.s:961    .text:0000000000000530 .L0 
     /tmp/ccnDdHtb.s:963    .text:0000000000000534 .L0 
     /tmp/ccnDdHtb.s:964    .text:0000000000000534 .L0 
     /tmp/ccnDdHtb.s:967    .text:0000000000000538 .L0 
     /tmp/ccnDdHtb.s:968    .text:0000000000000538 .L0 
     /tmp/ccnDdHtb.s:971    .text:0000000000000540 .L0 
     /tmp/ccnDdHtb.s:972    .text:0000000000000540 .L0 
     /tmp/ccnDdHtb.s:976    .text:000000000000054c .L0 
     /tmp/ccnDdHtb.s:977    .text:000000000000054c .L0 
     /tmp/ccnDdHtb.s:979    .text:0000000000000550 .L0 
     /tmp/ccnDdHtb.s:980    .text:0000000000000554 .L0 
     /tmp/ccnDdHtb.s:981    .text:0000000000000554 .L0 
     /tmp/ccnDdHtb.s:983    .text:0000000000000558 .L0 
     /tmp/ccnDdHtb.s:984    .text:0000000000000558 .L0 
     /tmp/ccnDdHtb.s:986    .text:000000000000055c .L0 
     /tmp/ccnDdHtb.s:989    .text:0000000000000560 .L0 
     /tmp/ccnDdHtb.s:993    .text:0000000000000564 .L0 
     /tmp/ccnDdHtb.s:995    .text:0000000000000564 .L0 
     /tmp/ccnDdHtb.s:996    .text:0000000000000564 .L0 
     /tmp/ccnDdHtb.s:1001   .text:0000000000000574 .L0 
GAS LISTING /tmp/ccnDdHtb.s 			page 36


     /tmp/ccnDdHtb.s:1002   .text:0000000000000574 .L0 
     /tmp/ccnDdHtb.s:1006   .text:0000000000000580 .L0 
     /tmp/ccnDdHtb.s:1007   .text:0000000000000580 .L0 
     /tmp/ccnDdHtb.s:1008   .text:0000000000000580 .L0 
     /tmp/ccnDdHtb.s:1009   .text:0000000000000580 .L0 
     /tmp/ccnDdHtb.s:1011   .text:0000000000000580 .L0 
     /tmp/ccnDdHtb.s:1017   .text:0000000000000588 .L0 
     /tmp/ccnDdHtb.s:1020   .text:000000000000058c .L0 
     /tmp/ccnDdHtb.s:1021   .text:0000000000000590 .L0 
     /tmp/ccnDdHtb.s:1035   .bss:0000000000000008 _ZN8MemAlloc8memallocE
     /tmp/ccnDdHtb.s:1031   .bss:0000000000000000 _ZN8MemAlloc7memfreeE
     /tmp/ccnDdHtb.s:1028   .bss:0000000000000000 .LANCHOR0
     /tmp/ccnDdHtb.s:1042   .text:0000000000000590 .L0 
     /tmp/ccnDdHtb.s:22     .text:000000000000000c .L0 
     /tmp/ccnDdHtb.s:24     .text:0000000000000018 .L0 
     /tmp/ccnDdHtb.s:34     .text:000000000000002c .L0 
     /tmp/ccnDdHtb.s:81     .text:0000000000000078 .L0 
     /tmp/ccnDdHtb.s:124    .text:00000000000000b8 .L0 
     /tmp/ccnDdHtb.s:158    .text:00000000000000e0 .L0 
     /tmp/ccnDdHtb.s:188    .text:000000000000010c .L0 
     /tmp/ccnDdHtb.s:250    .text:0000000000000148 .L0 
     /tmp/ccnDdHtb.s:277    .text:0000000000000174 .L0 
     /tmp/ccnDdHtb.s:284    .text:0000000000000180 .L0 
     /tmp/ccnDdHtb.s:438    .text:0000000000000240 .L0 
     /tmp/ccnDdHtb.s:502    .text:0000000000000284 .L0 
     /tmp/ccnDdHtb.s:534    .text:00000000000002b4 .L0 
     /tmp/ccnDdHtb.s:594    .text:000000000000031c .L0 
     /tmp/ccnDdHtb.s:774    .text:0000000000000410 .L0 
     /tmp/ccnDdHtb.s:782    .text:000000000000041c .L0 
     /tmp/ccnDdHtb.s:788    .text:000000000000042c .L0 
     /tmp/ccnDdHtb.s:846    .text:0000000000000478 .L0 
     /tmp/ccnDdHtb.s:877    .text:00000000000004a8 .L0 
     /tmp/ccnDdHtb.s:900    .text:00000000000004d0 .L0 
     /tmp/ccnDdHtb.s:996    .text:0000000000000564 .L0 
     /tmp/ccnDdHtb.s:1002   .text:0000000000000574 .L0 
     /tmp/ccnDdHtb.s:332    .text:00000000000001b0 .L26
     /tmp/ccnDdHtb.s:151    .text:00000000000000dc .L28
     /tmp/ccnDdHtb.s:173    .text:00000000000000fc .L29
     /tmp/ccnDdHtb.s:184    .text:000000000000010c .L30
     /tmp/ccnDdHtb.s:218    .text:0000000000000130 .L11
     /tmp/ccnDdHtb.s:196    .text:0000000000000120 .L31
     /tmp/ccnDdHtb.s:134    .text:00000000000000c8 .L13
     /tmp/ccnDdHtb.s:165    .text:00000000000000f0 .L7
     /tmp/ccnDdHtb.s:116    .text:00000000000000b0 .L8
     /tmp/ccnDdHtb.s:256    .text:0000000000000158 .L16
     /tmp/ccnDdHtb.s:376    .text:00000000000001e8 .L17
     /tmp/ccnDdHtb.s:395    .text:0000000000000204 .L20
     /tmp/ccnDdHtb.s:315    .text:00000000000001a4 .L23
     /tmp/ccnDdHtb.s:225    .text:0000000000000134 .L3
     /tmp/ccnDdHtb.s:87     .text:0000000000000088 .L32
     /tmp/ccnDdHtb.s:324    .text:00000000000001ac .L14
     /tmp/ccnDdHtb.s:240    .text:0000000000000144 .L33
     /tmp/ccnDdHtb.s:263    .text:0000000000000164 .L34
     /tmp/ccnDdHtb.s:274    .text:0000000000000174 .L19
     /tmp/ccnDdHtb.s:404    .text:0000000000000210 .L21
     /tmp/ccnDdHtb.s:280    .text:0000000000000180 .L35
     /tmp/ccnDdHtb.s:292    .text:0000000000000194 .L36
GAS LISTING /tmp/ccnDdHtb.s 			page 37


     /tmp/ccnDdHtb.s:449    .text:0000000000000250 .L25
     /tmp/ccnDdHtb.s:798    .text:000000000000043c .L56
     /tmp/ccnDdHtb.s:804    .text:0000000000000444 .L57
     /tmp/ccnDdHtb.s:588    .text:0000000000000318 .L61
     /tmp/ccnDdHtb.s:607    .text:0000000000000338 .L62
     /tmp/ccnDdHtb.s:639    .text:000000000000036c .L58
     /tmp/ccnDdHtb.s:644    .text:0000000000000374 .L59
     /tmp/ccnDdHtb.s:552    .text:00000000000002d8 .L44
     /tmp/ccnDdHtb.s:542    .text:00000000000002c8 .L45
     /tmp/ccnDdHtb.s:647    .text:0000000000000378 .L43
     /tmp/ccnDdHtb.s:578    .text:000000000000030c .L46
     /tmp/ccnDdHtb.s:618    .text:0000000000000348 .L63
     /tmp/ccnDdHtb.s:710    .text:00000000000003c4 .L38
     /tmp/ccnDdHtb.s:600    .text:000000000000032c .L40
     /tmp/ccnDdHtb.s:525    .text:00000000000002b0 .L41
     /tmp/ccnDdHtb.s:655    .text:0000000000000380 .L47
     /tmp/ccnDdHtb.s:666    .text:0000000000000390 .L48
     /tmp/ccnDdHtb.s:720    .text:00000000000003d0 .L64
     /tmp/ccnDdHtb.s:777    .text:000000000000041c .L52
     /tmp/ccnDdHtb.s:697    .text:00000000000003b8 .L54
     /tmp/ccnDdHtb.s:785    .text:000000000000042c .L55
     /tmp/ccnDdHtb.s:755    .text:00000000000003fc .L49
     /tmp/ccnDdHtb.s:771    .text:0000000000000410 .L50
     /tmp/ccnDdHtb.s:764    .text:0000000000000408 .L51
     /tmp/ccnDdHtb.s:688    .text:00000000000003ac .L53
     /tmp/ccnDdHtb.s:1005   .text:0000000000000580 .L78
     /tmp/ccnDdHtb.s:1015   .text:0000000000000588 .L79
     /tmp/ccnDdHtb.s:895    .text:00000000000004cc .L86
     /tmp/ccnDdHtb.s:913    .text:00000000000004ec .L87
     /tmp/ccnDdHtb.s:924    .text:00000000000004fc .L80
     /tmp/ccnDdHtb.s:928    .text:0000000000000504 .L81
     /tmp/ccnDdHtb.s:931    .text:0000000000000508 .L71
     /tmp/ccnDdHtb.s:883    .text:00000000000004b8 .L72
     /tmp/ccnDdHtb.s:906    .text:00000000000004e0 .L68
     /tmp/ccnDdHtb.s:869    .text:00000000000004a4 .L69
     /tmp/ccnDdHtb.s:992    .text:0000000000000564 .L73
     /tmp/ccnDdHtb.s:959    .text:0000000000000530 .L75
     /tmp/ccnDdHtb.s:999    .text:0000000000000574 .L76
     /tmp/ccnDdHtb.s:950    .text:0000000000000524 .L74
     /tmp/ccnDdHtb.s:965    .text:0000000000000538 .L77
     /tmp/ccnDdHtb.s:1547   .debug_abbrev:0000000000000000 .Ldebug_abbrev0
     /tmp/ccnDdHtb.s:2675   .debug_str:000000000000013c .LASF39
     /tmp/ccnDdHtb.s:2699   .debug_str:000000000000028d .LASF40
     /tmp/ccnDdHtb.s:2703   .debug_str:00000000000002a7 .LASF41
     /tmp/ccnDdHtb.s:5      .text:0000000000000000 .Ltext0
     /tmp/ccnDdHtb.s:1038   .text:0000000000000590 .Letext0
     /tmp/ccnDdHtb.s:2627   .debug_line:0000000000000000 .Ldebug_line0
     /tmp/ccnDdHtb.s:2687   .debug_str:0000000000000239 .LASF0
     /tmp/ccnDdHtb.s:2667   .debug_str:00000000000000ff .LASF1
     /tmp/ccnDdHtb.s:2663   .debug_str:00000000000000df .LASF2
     /tmp/ccnDdHtb.s:2643   .debug_str:0000000000000062 .LASF4
     /tmp/ccnDdHtb.s:2665   .debug_str:00000000000000ed .LASF3
     /tmp/ccnDdHtb.s:2635   .debug_str:0000000000000033 .LASF5
     /tmp/ccnDdHtb.s:2631   .debug_str:0000000000000017 .LASF6
     /tmp/ccnDdHtb.s:2659   .debug_str:00000000000000bd .LASF7
     /tmp/ccnDdHtb.s:2691   .debug_str:000000000000024e .LASF8
     /tmp/ccnDdHtb.s:2641   .debug_str:0000000000000054 .LASF9
GAS LISTING /tmp/ccnDdHtb.s 			page 38


     /tmp/ccnDdHtb.s:2721   .debug_str:0000000000000336 .LASF10
     /tmp/ccnDdHtb.s:2661   .debug_str:00000000000000d0 .LASF11
     /tmp/ccnDdHtb.s:2711   .debug_str:00000000000002fb .LASF12
     /tmp/ccnDdHtb.s:2697   .debug_str:000000000000027d .LASF13
     /tmp/ccnDdHtb.s:2669   .debug_str:0000000000000112 .LASF14
     /tmp/ccnDdHtb.s:2653   .debug_str:0000000000000095 .LASF15
     /tmp/ccnDdHtb.s:2695   .debug_str:0000000000000267 .LASF16
     /tmp/ccnDdHtb.s:2657   .debug_str:00000000000000b2 .LASF21
     /tmp/ccnDdHtb.s:2637   .debug_str:000000000000003a .LASF17
     /tmp/ccnDdHtb.s:2719   .debug_str:0000000000000331 .LASF18
     /tmp/ccnDdHtb.s:2717   .debug_str:000000000000032c .LASF19
     /tmp/ccnDdHtb.s:2655   .debug_str:00000000000000ab .LASF20
     /tmp/ccnDdHtb.s:2701   .debug_str:000000000000029e .LASF42
     /tmp/ccnDdHtb.s:2693   .debug_str:000000000000025e .LASF22
     /tmp/ccnDdHtb.s:2689   .debug_str:0000000000000246 .LASF23
     /tmp/ccnDdHtb.s:2649   .debug_str:0000000000000076 .LASF43
     /tmp/ccnDdHtb.s:2681   .debug_str:0000000000000214 .LASF44
     /tmp/ccnDdHtb.s:2633   .debug_str:000000000000002a .LASF24
     /tmp/ccnDdHtb.s:2713   .debug_str:000000000000030b .LASF26
     /tmp/ccnDdHtb.s:2709   .debug_str:00000000000002f5 .LASF25
     /tmp/ccnDdHtb.s:2639   .debug_str:000000000000003f .LASF27
     /tmp/ccnDdHtb.s:2705   .debug_str:00000000000002c6 .LASF45
     /tmp/ccnDdHtb.s:2707   .debug_str:00000000000002d5 .LASF46
     /tmp/ccnDdHtb.s:2671   .debug_str:000000000000011e .LASF28
     /tmp/ccnDdHtb.s:2651   .debug_str:000000000000007e .LASF29
     /tmp/ccnDdHtb.s:816    .text:000000000000044c .LFB3
     /tmp/ccnDdHtb.s:1022   .text:0000000000000590 .LFE3
     /tmp/ccnDdHtb.s:2063   .debug_loc:0000000000000000 .LLST16
     /tmp/ccnDdHtb.s:2100   .debug_loc:000000000000009b .LLST17
     /tmp/ccnDdHtb.s:2131   .debug_loc:0000000000000112 .LLST18
     /tmp/ccnDdHtb.s:2685   .debug_str:0000000000000232 .LASF30
     /tmp/ccnDdHtb.s:2160   .debug_loc:0000000000000196 .LLST19
     /tmp/ccnDdHtb.s:969    .text:0000000000000540 .LVL65
     /tmp/ccnDdHtb.s:974    .text:000000000000054c .LVL66
     /tmp/ccnDdHtb.s:478    .text:0000000000000264 .LFB2
     /tmp/ccnDdHtb.s:810    .text:000000000000044c .LFE2
     /tmp/ccnDdHtb.s:2181   .debug_loc:00000000000001e5 .LLST10
     /tmp/ccnDdHtb.s:2247   .debug_loc:00000000000002eb .LLST11
     /tmp/ccnDdHtb.s:2292   .debug_loc:000000000000039d .LLST12
     /tmp/ccnDdHtb.s:2595   .debug_ranges:0000000000000000 .Ldebug_ranges0
     /tmp/ccnDdHtb.s:2679   .debug_str:000000000000020c .LASF31
     /tmp/ccnDdHtb.s:2317   .debug_loc:000000000000040e .LLST13
     /tmp/ccnDdHtb.s:725    .text:00000000000003d0 .LBB27
     /tmp/ccnDdHtb.s:778    .text:000000000000041c .LBE27
     /tmp/ccnDdHtb.s:2328   .debug_loc:0000000000000444 .LLST15
     /tmp/ccnDdHtb.s:2335   .debug_loc:0000000000000467 .LLST14
     /tmp/ccnDdHtb.s:61     .text:000000000000005c .LFB1
     /tmp/ccnDdHtb.s:472    .text:0000000000000264 .LFE1
     /tmp/ccnDdHtb.s:2346   .debug_loc:000000000000049d .LLST0
     /tmp/ccnDdHtb.s:2715   .debug_str:0000000000000324 .LASF32
     /tmp/ccnDdHtb.s:2360   .debug_loc:00000000000004d6 .LLST1
     /tmp/ccnDdHtb.s:2397   .debug_loc:0000000000000580 .LLST2
     /tmp/ccnDdHtb.s:2422   .debug_loc:00000000000005f1 .LLST3
     /tmp/ccnDdHtb.s:2442   .debug_loc:000000000000064e .LLST4
     /tmp/ccnDdHtb.s:2461   .debug_loc:00000000000006aa .LLST5
     /tmp/ccnDdHtb.s:2647   .debug_str:000000000000006e .LASF33
     /tmp/ccnDdHtb.s:2479   .debug_loc:00000000000006f6 .LLST6
GAS LISTING /tmp/ccnDdHtb.s 			page 39


     /tmp/ccnDdHtb.s:2525   .debug_loc:000000000000077c .LLST7
     /tmp/ccnDdHtb.s:2545   .debug_loc:00000000000007d9 .LLST8
     /tmp/ccnDdHtb.s:2564   .debug_loc:0000000000000835 .LLST9
     /tmp/ccnDdHtb.s:76     .text:0000000000000074 .LVL1
     /tmp/ccnDdHtb.s:2645   .debug_str:0000000000000069 .LASF34
     /tmp/ccnDdHtb.s:10     .text:0000000000000000 .LFB0
     /tmp/ccnDdHtb.s:55     .text:000000000000005c .LFE0
     /tmp/ccnDdHtb.s:2629   .debug_str:0000000000000000 .LASF35
     /tmp/ccnDdHtb.s:2683   .debug_str:000000000000022b .LASF37
     /tmp/ccnDdHtb.s:2677   .debug_str:0000000000000200 .LASF36
     /tmp/ccnDdHtb.s:2673   .debug_str:0000000000000134 .LASF38
     /tmp/ccnDdHtb.s:819    .text:000000000000044c .LVL57
     /tmp/ccnDdHtb.s:826    .text:0000000000000458 .LVL58
     /tmp/ccnDdHtb.s:991    .text:0000000000000564 .LVL68
     /tmp/ccnDdHtb.s:1004   .text:0000000000000580 .LVL69
     /tmp/ccnDdHtb.s:1012   .text:0000000000000584 .LVL70
     /tmp/ccnDdHtb.s:1014   .text:0000000000000588 .LVL71
     /tmp/ccnDdHtb.s:1018   .text:000000000000058c .LVL72
     /tmp/ccnDdHtb.s:874    .text:00000000000004a8 .LVL59
     /tmp/ccnDdHtb.s:882    .text:00000000000004b8 .LVL60
     /tmp/ccnDdHtb.s:888    .text:00000000000004c0 .LVL61
     /tmp/ccnDdHtb.s:894    .text:00000000000004cc .LVL62
     /tmp/ccnDdHtb.s:923    .text:00000000000004fc .LVL63
     /tmp/ccnDdHtb.s:930    .text:0000000000000508 .LVL64
     /tmp/ccnDdHtb.s:987    .text:000000000000055c .LVL67
     /tmp/ccnDdHtb.s:481    .text:0000000000000264 .LVL34
     /tmp/ccnDdHtb.s:585    .text:0000000000000314 .LVL40
     /tmp/ccnDdHtb.s:587    .text:0000000000000318 .LVL41
     /tmp/ccnDdHtb.s:709    .text:00000000000003c4 .LVL47
     /tmp/ccnDdHtb.s:719    .text:00000000000003d0 .LVL48
     /tmp/ccnDdHtb.s:768    .text:000000000000040c .LVL49
     /tmp/ccnDdHtb.s:770    .text:0000000000000410 .LVL50
     /tmp/ccnDdHtb.s:795    .text:0000000000000438 .LVL52
     /tmp/ccnDdHtb.s:797    .text:000000000000043c .LVL53
     /tmp/ccnDdHtb.s:801    .text:0000000000000440 .LVL54
     /tmp/ccnDdHtb.s:803    .text:0000000000000444 .LVL55
     /tmp/ccnDdHtb.s:807    .text:0000000000000448 .LVL56
     /tmp/ccnDdHtb.s:493    .text:0000000000000278 .LVL35
     /tmp/ccnDdHtb.s:574    .text:0000000000000304 .LVL39
     /tmp/ccnDdHtb.s:617    .text:0000000000000348 .LVL42
     /tmp/ccnDdHtb.s:638    .text:000000000000036c .LVL43
     /tmp/ccnDdHtb.s:530    .text:00000000000002b4 .LVL36
     /tmp/ccnDdHtb.s:541    .text:00000000000002c8 .LVL37
     /tmp/ccnDdHtb.s:547    .text:00000000000002d0 .LVL38
     /tmp/ccnDdHtb.s:646    .text:0000000000000378 .LVL44
     /tmp/ccnDdHtb.s:656    .text:0000000000000380 .LVL45
     /tmp/ccnDdHtb.s:776    .text:000000000000041c .LVL51
     /tmp/ccnDdHtb.s:669    .text:0000000000000390 .LVL46
     /tmp/ccnDdHtb.s:64     .text:000000000000005c .LVL0
     /tmp/ccnDdHtb.s:78     .text:0000000000000078 .LVL2
     /tmp/ccnDdHtb.s:84     .text:0000000000000084 .LVL4
     /tmp/ccnDdHtb.s:101    .text:0000000000000098 .LVL6
     /tmp/ccnDdHtb.s:150    .text:00000000000000dc .LVL10
     /tmp/ccnDdHtb.s:159    .text:00000000000000e8 .LVL11
     /tmp/ccnDdHtb.s:172    .text:00000000000000fc .LVL12
     /tmp/ccnDdHtb.s:183    .text:000000000000010c .LVL13
     /tmp/ccnDdHtb.s:239    .text:0000000000000144 .LVL18
GAS LISTING /tmp/ccnDdHtb.s 			page 40


     /tmp/ccnDdHtb.s:279    .text:0000000000000180 .LVL20
     /tmp/ccnDdHtb.s:299    .text:0000000000000198 .LVL22
     /tmp/ccnDdHtb.s:323    .text:00000000000001ac .LVL26
     /tmp/ccnDdHtb.s:439    .text:0000000000000248 .LVL30
     /tmp/ccnDdHtb.s:82     .text:0000000000000080 .LVL3
     /tmp/ccnDdHtb.s:86     .text:0000000000000088 .LVL5
     /tmp/ccnDdHtb.s:224    .text:0000000000000134 .LVL17
     /tmp/ccnDdHtb.s:321    .text:00000000000001a8 .LVL25
     /tmp/ccnDdHtb.s:131    .text:00000000000000c8 .LVL7
     /tmp/ccnDdHtb.s:141    .text:00000000000000d0 .LVL8
     /tmp/ccnDdHtb.s:147    .text:00000000000000d8 .LVL9
     /tmp/ccnDdHtb.s:195    .text:0000000000000120 .LVL14
     /tmp/ccnDdHtb.s:217    .text:0000000000000130 .LVL16
     /tmp/ccnDdHtb.s:208    .text:0000000000000128 .LVL15
     /tmp/ccnDdHtb.s:273    .text:0000000000000174 .LVL19
     /tmp/ccnDdHtb.s:386    .text:00000000000001f8 .LVL28
     /tmp/ccnDdHtb.s:433    .text:000000000000023c .LVL29
     /tmp/ccnDdHtb.s:291    .text:0000000000000194 .LVL21
     /tmp/ccnDdHtb.s:314    .text:00000000000001a4 .LVL24
     /tmp/ccnDdHtb.s:446    .text:0000000000000250 .LVL31
     /tmp/ccnDdHtb.s:456    .text:0000000000000258 .LVL32
     /tmp/ccnDdHtb.s:462    .text:0000000000000260 .LVL33
     /tmp/ccnDdHtb.s:305    .text:000000000000019c .LVL23
     /tmp/ccnDdHtb.s:1043   .debug_info:0000000000000000 .Ldebug_info0
     /tmp/ccnDdHtb.s:127    .text:00000000000000c4 .LBB6
     /tmp/ccnDdHtb.s:152    .text:00000000000000dc .LBE6
     /tmp/ccnDdHtb.s:197    .text:0000000000000120 .LBB7
     /tmp/ccnDdHtb.s:219    .text:0000000000000130 .LBE7
     /tmp/ccnDdHtb.s:245    .text:0000000000000144 .LBB10
     /tmp/ccnDdHtb.s:325    .text:00000000000001ac .LBE10
     /tmp/ccnDdHtb.s:351    .text:00000000000001c0 .LBB15
     /tmp/ccnDdHtb.s:467    .text:0000000000000264 .LBE15
     /tmp/ccnDdHtb.s:293    .text:0000000000000194 .LBB12
     /tmp/ccnDdHtb.s:316    .text:00000000000001a4 .LBE12
     /tmp/ccnDdHtb.s:442    .text:000000000000024c .LBB13
     /tmp/ccnDdHtb.s:465    .text:0000000000000264 .LBE13
     /tmp/ccnDdHtb.s:649    .text:0000000000000378 .LBB24
     /tmp/ccnDdHtb.s:705    .text:00000000000003c0 .LBE24
     /tmp/ccnDdHtb.s:723    .text:00000000000003d0 .LBB30
     /tmp/ccnDdHtb.s:791    .text:0000000000000434 .LBE30
     /tmp/ccnDdHtb.s:667    .text:0000000000000390 .LBB26
     /tmp/ccnDdHtb.s:703    .text:00000000000003c0 .LBE26
     /tmp/ccnDdHtb.s:779    .text:000000000000041c .LBB28
     /tmp/ccnDdHtb.s:789    .text:0000000000000434 .LBE28

UNDEFINED SYMBOLS
HEAP_START_ADDR
HEAP_END_ADDR
_Z7convertm
_Z6formatP10Descriptor
