GAS LISTING /tmp/ccDL7Chx.s 			page 1


   1              		.file	"riscv.cpp"
   2              		.option pic
   3              		.option norelax
   4              		.text
   5              	.Ltext0:
   6              		.align	2
   7              		.globl	_ZN5Riscv10popSppSpieEv
   9              	_ZN5Riscv10popSppSpieEv:
  10              	.LFB111:
  11              		.file 1 "src/riscv.cpp"
   1:src/riscv.cpp **** //
   2:src/riscv.cpp **** // Created by os on 7/30/22.
   3:src/riscv.cpp **** //
   4:src/riscv.cpp **** #include "../h/riscv.hpp"
   5:src/riscv.cpp **** #include "../h/globals.hpp"
   6:src/riscv.cpp **** #include "../lib/console.h"
   7:src/riscv.cpp **** #include "../test/printing.hpp"
   8:src/riscv.cpp **** #include "../h/tcb.hpp"
   9:src/riscv.cpp **** #include "../h/syscall_c.hpp"
  10:src/riscv.cpp **** #include "../h/_sem.hpp"
  11:src/riscv.cpp **** 
  12:src/riscv.cpp **** 
  13:src/riscv.cpp **** void Riscv::popSppSpie() {
  12              		.loc 1 13 26
  13              		.cfi_startproc
  14 0000 130101FF 		addi	sp,sp,-16
  15              		.cfi_def_cfa_offset 16
  16 0004 23348100 		sd	s0,8(sp)
  17              		.cfi_offset 8, -8
  18 0008 13040101 		addi	s0,sp,16
  19              		.cfi_def_cfa 8, 0
  14:src/riscv.cpp ****     mc_sstatus(SSTATUS_SPP);
  20              		.loc 1 14 5
  21              	.LVL0:
  22              	.LBB51:
  23              	.LBB52:
  24              		.file 2 "src/../h/riscv.hpp"
   1:src/../h/riscv.hpp **** //
   2:src/../h/riscv.hpp **** // Created by os on 7/20/22.
   3:src/../h/riscv.hpp **** //
   4:src/../h/riscv.hpp **** 
   5:src/../h/riscv.hpp **** #ifndef OSPROJECT_RISCV_HPP
   6:src/../h/riscv.hpp **** #define OSPROJECT_RISCV_HPP
   7:src/../h/riscv.hpp **** 
   8:src/../h/riscv.hpp **** #include "../lib/hw.h"
   9:src/../h/riscv.hpp **** #include "Buffer.hpp"
  10:src/../h/riscv.hpp **** #include "TimeList.hpp"
  11:src/../h/riscv.hpp **** class Riscv
  12:src/../h/riscv.hpp **** {
  13:src/../h/riscv.hpp **** public:
  14:src/../h/riscv.hpp **** 
  15:src/../h/riscv.hpp ****     // pop sstatus.spp and sstatus.spie bits (has to be a non inline function)
  16:src/../h/riscv.hpp ****     static void popSppSpie();
  17:src/../h/riscv.hpp **** 
  18:src/../h/riscv.hpp ****     // push x3..x31 registers onto stack
  19:src/../h/riscv.hpp ****     static void pushRegisters();
  20:src/../h/riscv.hpp **** 
GAS LISTING /tmp/ccDL7Chx.s 			page 2


  21:src/../h/riscv.hpp ****     // pop x3..x31 registers onto stack
  22:src/../h/riscv.hpp ****     static void popRegisters();
  23:src/../h/riscv.hpp **** 
  24:src/../h/riscv.hpp ****     // read register scause
  25:src/../h/riscv.hpp ****     static uint64 r_scause();
  26:src/../h/riscv.hpp **** 
  27:src/../h/riscv.hpp ****     // write register scause
  28:src/../h/riscv.hpp ****     static void w_scause(uint64 scause);
  29:src/../h/riscv.hpp **** 
  30:src/../h/riscv.hpp ****     // read register sepc
  31:src/../h/riscv.hpp ****     static uint64 r_sepc();
  32:src/../h/riscv.hpp **** 
  33:src/../h/riscv.hpp ****     // write register sepc
  34:src/../h/riscv.hpp ****     static void w_sepc(uint64 sepc);
  35:src/../h/riscv.hpp **** 
  36:src/../h/riscv.hpp ****     // read register stvec
  37:src/../h/riscv.hpp ****     static uint64 r_stvec();
  38:src/../h/riscv.hpp **** 
  39:src/../h/riscv.hpp ****     // write register stvec
  40:src/../h/riscv.hpp ****     static void w_stvec(uint64 stvec);
  41:src/../h/riscv.hpp **** 
  42:src/../h/riscv.hpp ****     // read register stval
  43:src/../h/riscv.hpp ****     static uint64 r_stval();
  44:src/../h/riscv.hpp **** 
  45:src/../h/riscv.hpp ****     // write register stval
  46:src/../h/riscv.hpp ****     static void w_stval(uint64 stval);
  47:src/../h/riscv.hpp **** 
  48:src/../h/riscv.hpp ****     enum BitMaskSip:uint64
  49:src/../h/riscv.hpp ****     {
  50:src/../h/riscv.hpp ****         SIP_SSIP = (1UL << 1),
  51:src/../h/riscv.hpp ****         SIP_STIP = (1UL << 5),
  52:src/../h/riscv.hpp ****         SIP_SEIP = (1UL << 9),
  53:src/../h/riscv.hpp ****     };
  54:src/../h/riscv.hpp **** 
  55:src/../h/riscv.hpp ****     // mask set register sip
  56:src/../h/riscv.hpp ****     static void ms_sip(uint64 mask);
  57:src/../h/riscv.hpp **** 
  58:src/../h/riscv.hpp ****     // mask clear register sip
  59:src/../h/riscv.hpp ****     static void mc_sip(uint64 mask);
  60:src/../h/riscv.hpp **** 
  61:src/../h/riscv.hpp ****     // read register sip
  62:src/../h/riscv.hpp ****     static uint64 r_sip();
  63:src/../h/riscv.hpp **** 
  64:src/../h/riscv.hpp ****     // write register sip
  65:src/../h/riscv.hpp ****     static void w_sip(uint64 sip);
  66:src/../h/riscv.hpp ****     //write return Value
  67:src/../h/riscv.hpp ****     static void retValueRISV(uint64 retVal);
  68:src/../h/riscv.hpp **** 
  69:src/../h/riscv.hpp **** 
  70:src/../h/riscv.hpp ****     enum BitMaskSstatus:uint64
  71:src/../h/riscv.hpp ****     {
  72:src/../h/riscv.hpp ****         SSTATUS_SIE = (1UL << 1),
  73:src/../h/riscv.hpp ****         SSTATUS_SPIE = (1UL << 5),
  74:src/../h/riscv.hpp ****         SSTATUS_SPP = (1UL << 8),
  75:src/../h/riscv.hpp ****     };
  76:src/../h/riscv.hpp **** 
  77:src/../h/riscv.hpp ****     // mask set register sstatus
GAS LISTING /tmp/ccDL7Chx.s 			page 3


  78:src/../h/riscv.hpp ****     static void ms_sstatus(uint64 mask);
  79:src/../h/riscv.hpp **** 
  80:src/../h/riscv.hpp ****     // mask clear register sstatus
  81:src/../h/riscv.hpp ****     static void mc_sstatus(uint64 mask);
  82:src/../h/riscv.hpp **** 
  83:src/../h/riscv.hpp ****     // read register sstatus
  84:src/../h/riscv.hpp ****     static uint64 r_sstatus();
  85:src/../h/riscv.hpp **** 
  86:src/../h/riscv.hpp ****     // write register sstatus
  87:src/../h/riscv.hpp ****     static void w_sstatus(uint64 sstatus);
  88:src/../h/riscv.hpp **** 
  89:src/../h/riscv.hpp ****     //supervisor trap
  90:src/../h/riscv.hpp ****     static void supervisorTrap();
  91:src/../h/riscv.hpp ****     //restores privilage
  92:src/../h/riscv.hpp ****     static void Rest_Priv(bool status);
  93:src/../h/riscv.hpp **** 
  94:src/../h/riscv.hpp **** 
  95:src/../h/riscv.hpp **** 
  96:src/../h/riscv.hpp **** private:
  97:src/../h/riscv.hpp ****     // obradjuje prekid
  98:src/../h/riscv.hpp ****     static void handleSupervisorTrap();
  99:src/../h/riscv.hpp **** 
 100:src/../h/riscv.hpp **** };
 101:src/../h/riscv.hpp **** 
 102:src/../h/riscv.hpp **** inline uint64 Riscv::r_scause()
 103:src/../h/riscv.hpp **** {
 104:src/../h/riscv.hpp ****     uint64 volatile scause;
 105:src/../h/riscv.hpp ****     __asm__ volatile ("csrr %[scause], scause" : [scause] "=r"(scause));
 106:src/../h/riscv.hpp ****     return scause;
 107:src/../h/riscv.hpp **** }
 108:src/../h/riscv.hpp **** 
 109:src/../h/riscv.hpp **** inline void Riscv::w_scause(uint64 scause)
 110:src/../h/riscv.hpp **** {
 111:src/../h/riscv.hpp ****     __asm__ volatile ("csrw scause, %[scause]" : : [scause] "r"(scause));
 112:src/../h/riscv.hpp **** }
 113:src/../h/riscv.hpp **** 
 114:src/../h/riscv.hpp **** inline uint64 Riscv::r_sepc()
 115:src/../h/riscv.hpp **** {
 116:src/../h/riscv.hpp ****     uint64 volatile sepc;
 117:src/../h/riscv.hpp ****     __asm__ volatile ("csrr %[sepc], sepc" : [sepc] "=r"(sepc));
 118:src/../h/riscv.hpp ****     return sepc;
 119:src/../h/riscv.hpp **** }
 120:src/../h/riscv.hpp **** 
 121:src/../h/riscv.hpp **** inline void Riscv::w_sepc(uint64 sepc)
 122:src/../h/riscv.hpp **** {
 123:src/../h/riscv.hpp ****     __asm__ volatile ("csrw sepc, %[sepc]" : : [sepc] "r"(sepc));
 124:src/../h/riscv.hpp **** }
 125:src/../h/riscv.hpp **** 
 126:src/../h/riscv.hpp **** inline uint64 Riscv::r_stvec()
 127:src/../h/riscv.hpp **** {
 128:src/../h/riscv.hpp ****     uint64 volatile stvec;
 129:src/../h/riscv.hpp ****     __asm__ volatile ("csrr %[stvec], stvec" : [stvec] "=r"(stvec));
 130:src/../h/riscv.hpp ****     return stvec;
 131:src/../h/riscv.hpp **** }
 132:src/../h/riscv.hpp **** 
 133:src/../h/riscv.hpp **** inline void Riscv::w_stvec(uint64 stvec)
 134:src/../h/riscv.hpp **** {
GAS LISTING /tmp/ccDL7Chx.s 			page 4


 135:src/../h/riscv.hpp ****     __asm__ volatile ("csrw stvec, %[stvec]" : : [stvec] "r"(stvec));
 136:src/../h/riscv.hpp **** }
 137:src/../h/riscv.hpp **** 
 138:src/../h/riscv.hpp **** inline uint64 Riscv::r_stval()
 139:src/../h/riscv.hpp **** {
 140:src/../h/riscv.hpp ****     uint64 volatile stval;
 141:src/../h/riscv.hpp ****     __asm__ volatile ("csrr %[stval], stval" : [stval] "=r"(stval));
 142:src/../h/riscv.hpp ****     return stval;
 143:src/../h/riscv.hpp **** }
 144:src/../h/riscv.hpp **** 
 145:src/../h/riscv.hpp **** inline void Riscv::w_stval(uint64 stval)
 146:src/../h/riscv.hpp **** {
 147:src/../h/riscv.hpp ****     __asm__ volatile ("csrw stval, %[stval]" : : [stval] "r"(stval));
 148:src/../h/riscv.hpp **** }
 149:src/../h/riscv.hpp **** 
 150:src/../h/riscv.hpp **** inline void Riscv::ms_sip(uint64 mask)
 151:src/../h/riscv.hpp **** {
 152:src/../h/riscv.hpp ****     __asm__ volatile ("csrs sip, %[mask]" : : [mask] "r"(mask));
 153:src/../h/riscv.hpp **** }
 154:src/../h/riscv.hpp **** 
 155:src/../h/riscv.hpp **** inline void Riscv::mc_sip(uint64 mask)
 156:src/../h/riscv.hpp **** {
 157:src/../h/riscv.hpp ****     __asm__ volatile ("csrc sip, %[mask]" : : [mask] "r"(mask));
 158:src/../h/riscv.hpp **** }
 159:src/../h/riscv.hpp **** 
 160:src/../h/riscv.hpp **** inline uint64 Riscv::r_sip()
 161:src/../h/riscv.hpp **** {
 162:src/../h/riscv.hpp ****     uint64 volatile sip;
 163:src/../h/riscv.hpp ****     __asm__ volatile ("csrr %[sip], sip" : [sip] "=r"(sip));
 164:src/../h/riscv.hpp ****     return sip;
 165:src/../h/riscv.hpp **** }
 166:src/../h/riscv.hpp **** 
 167:src/../h/riscv.hpp **** inline void Riscv::w_sip(uint64 sip)
 168:src/../h/riscv.hpp **** {
 169:src/../h/riscv.hpp ****     __asm__ volatile ("csrw sip, %[sip]" : : [sip] "r"(sip));
 170:src/../h/riscv.hpp **** }
 171:src/../h/riscv.hpp **** 
 172:src/../h/riscv.hpp **** inline void Riscv::ms_sstatus(uint64 mask)
 173:src/../h/riscv.hpp **** {
 174:src/../h/riscv.hpp ****     __asm__ volatile ("csrs sstatus, %[mask]" : : [mask] "r"(mask));
 175:src/../h/riscv.hpp **** }
 176:src/../h/riscv.hpp **** 
 177:src/../h/riscv.hpp **** inline void Riscv::mc_sstatus(uint64 mask)
 178:src/../h/riscv.hpp **** {
 179:src/../h/riscv.hpp ****     __asm__ volatile ("csrc sstatus, %[mask]" : : [mask] "r"(mask));
  25              		.loc 2 179 5
  26              		.loc 2 179 68 is_stmt 0
  27 000c 93070010 		li	a5,256
  28              	#APP
  29              	# 179 "src/../h/riscv.hpp" 1
 180              	}
  30              		csrc sstatus, a5
  31              	# 0 "" 2
  32              	.LVL1:
  33              	#NO_APP
  34              	.LBE52:
  35              	.LBE51:
GAS LISTING /tmp/ccDL7Chx.s 			page 5


  15:src/riscv.cpp ****     __asm__ volatile ("csrw sepc, ra");
  36              		.loc 1 15 5 is_stmt 1
  37              		.loc 1 15 39 is_stmt 0
  38              	#APP
  39              	# 15 "src/riscv.cpp" 1
  16              	    __asm__ volatile ("sret");
  40              		csrw sepc, ra
  41              	# 0 "" 2
  42              		.loc 1 16 5 is_stmt 1
  43              		.loc 1 16 30 is_stmt 0
  44              	# 16 "src/riscv.cpp" 1
  17              	}
  45              		sret
  46              	# 0 "" 2
  47              		.loc 1 17 1
  48              	#NO_APP
  49 001c 03348100 		ld	s0,8(sp)
  50              		.cfi_restore 8
  51              		.cfi_def_cfa 2, 16
  52 0020 13010101 		addi	sp,sp,16
  53              		.cfi_def_cfa_offset 0
  54 0024 67800000 		jr	ra
  55              		.cfi_endproc
  56              	.LFE111:
  58              		.align	2
  59              		.globl	_ZN5Riscv9Rest_PrivEb
  61              	_ZN5Riscv9Rest_PrivEb:
  62              	.LFB112:
  18:src/riscv.cpp **** 
  19:src/riscv.cpp **** void Riscv::Rest_Priv(bool status) {
  63              		.loc 1 19 36 is_stmt 1
  64              		.cfi_startproc
  65              	.LVL2:
  66 0028 130101FF 		addi	sp,sp,-16
  67              		.cfi_def_cfa_offset 16
  68 002c 23348100 		sd	s0,8(sp)
  69              		.cfi_offset 8, -8
  70 0030 13040101 		addi	s0,sp,16
  71              		.cfi_def_cfa 8, 0
  20:src/riscv.cpp ****     if(status){
  72              		.loc 1 20 5
  73 0034 630C0500 		beqz	a0,.L4
  21:src/riscv.cpp ****         ms_sstatus(SSTATUS_SPP);
  74              		.loc 1 21 9
  75              	.LVL3:
  76              	.LBB53:
  77              	.LBB54:
 174:src/../h/riscv.hpp **** }
  78              		.loc 2 174 5
 174:src/../h/riscv.hpp **** }
  79              		.loc 2 174 68 is_stmt 0
  80 0038 93070010 		li	a5,256
  81              	#APP
  82              	# 174 "src/../h/riscv.hpp" 1
  83              		csrs sstatus, a5
  84              	# 0 "" 2
  85              	.LVL4:
GAS LISTING /tmp/ccDL7Chx.s 			page 6


  86              	#NO_APP
  87              	.L3:
  88              	.LBE54:
  89              	.LBE53:
  22:src/riscv.cpp ****     }else{
  23:src/riscv.cpp ****         mc_sstatus(SSTATUS_SPP);
  24:src/riscv.cpp ****     }
  25:src/riscv.cpp **** }
  90              		.loc 1 25 1
  91 0040 03348100 		ld	s0,8(sp)
  92              		.cfi_remember_state
  93              		.cfi_restore 8
  94              		.cfi_def_cfa 2, 16
  95 0044 13010101 		addi	sp,sp,16
  96              		.cfi_def_cfa_offset 0
  97 0048 67800000 		jr	ra
  98              	.L4:
  99              		.cfi_restore_state
  23:src/riscv.cpp ****     }
 100              		.loc 1 23 9 is_stmt 1
 101              	.LVL5:
 102              	.LBB55:
 103              	.LBB56:
 179:src/../h/riscv.hpp **** }
 104              		.loc 2 179 5
 179:src/../h/riscv.hpp **** }
 105              		.loc 2 179 68 is_stmt 0
 106 004c 93070010 		li	a5,256
 107              	#APP
 108              	# 179 "src/../h/riscv.hpp" 1
 109              		csrc sstatus, a5
 110              	# 0 "" 2
 111              	.LVL6:
 112              	#NO_APP
 113              	.LBE56:
 114              	.LBE55:
 115              		.loc 1 25 1
 116 0054 6FF0DFFE 		j	.L3
 117              		.cfi_endproc
 118              	.LFE112:
 120              		.section	.rodata.str1.8,"aMS",@progbits,1
 121              		.align	3
 122              	.LC0:
 123 0000 73636175 		.string	"scause code: "
 123      73652063 
 123      6F64653A 
 123      2000
 124 000e 0000     		.align	3
 125              	.LC1:
 126 0010 0A00     		.string	"\n"
 127 0012 00000000 		.align	3
 127      0000
 128              	.LC2:
 129 0018 73657063 		.string	"sepc code: "
 129      20636F64 
 129      653A2000 
 130 0024 00000000 		.align	3
GAS LISTING /tmp/ccDL7Chx.s 			page 7


 131              	.LC3:
 132 0028 73747661 		.string	"stval code: "
 132      6C20636F 
 132      64653A20 
 132      00
 133 0035 000000   		.align	3
 134              	.LC4:
 135 0038 73737461 		.string	"sstatus code: "
 135      74757320 
 135      636F6465 
 135      3A2000
 136              		.text
 137              		.align	2
 138              		.globl	_ZN5Riscv20handleSupervisorTrapEv
 140              	_ZN5Riscv20handleSupervisorTrapEv:
 141              	.LFB113:
  26:src/riscv.cpp **** void Riscv::handleSupervisorTrap() {
 142              		.loc 1 26 36 is_stmt 1
 143              		.cfi_startproc
 144              		.cfi_personality 0x9b,DW.ref.__gxx_personality_v0
 145              		.cfi_lsda 0x1b,.LLSDA113
 146 0058 130101F5 		addi	sp,sp,-176
 147              		.cfi_def_cfa_offset 176
 148 005c 2334110A 		sd	ra,168(sp)
 149 0060 2330810A 		sd	s0,160(sp)
 150 0064 233C9108 		sd	s1,152(sp)
 151 0068 23382109 		sd	s2,144(sp)
 152 006c 23343109 		sd	s3,136(sp)
 153 0070 23304109 		sd	s4,128(sp)
 154              		.cfi_offset 1, -8
 155              		.cfi_offset 8, -16
 156              		.cfi_offset 9, -24
 157              		.cfi_offset 18, -32
 158              		.cfi_offset 19, -40
 159              		.cfi_offset 20, -48
 160 0074 1304010B 		addi	s0,sp,176
 161              		.cfi_def_cfa 8, 0
  27:src/riscv.cpp **** 
  28:src/riscv.cpp ****     uint64 args[5];
 162              		.loc 1 28 5
  29:src/riscv.cpp ****     __asm__ volatile ("mv %0, a4" : "=r" (args[4]));
 163              		.loc 1 29 5
 164              		.loc 1 29 52 is_stmt 0
 165              	#APP
 166              	# 29 "src/riscv.cpp" 1
  30              	    __asm__ volatile ("mv %0, a3" : "=r" (args[3]));
 167              		mv a5, a4
 168              	# 0 "" 2
 169              	#NO_APP
 170 007c 2334F4FC 		sd	a5,-56(s0)
 171              		.loc 1 30 5 is_stmt 1
 172              		.loc 1 30 52 is_stmt 0
 173              	#APP
 174              	# 30 "src/riscv.cpp" 1
  31              	    __asm__ volatile ("mv %0, a2" : "=r" (args[2]));
 175              		mv a5, a3
 176              	# 0 "" 2
GAS LISTING /tmp/ccDL7Chx.s 			page 8


 177              	#NO_APP
 178 0084 2330F4FC 		sd	a5,-64(s0)
 179              		.loc 1 31 5 is_stmt 1
 180              		.loc 1 31 52 is_stmt 0
 181              	#APP
 182              	# 31 "src/riscv.cpp" 1
  32              	    __asm__ volatile ("mv %0, a1" : "=r" (args[1]));
 183              		mv a5, a2
 184              	# 0 "" 2
 185              	#NO_APP
 186 008c 233CF4FA 		sd	a5,-72(s0)
 187              		.loc 1 32 5 is_stmt 1
 188              		.loc 1 32 52 is_stmt 0
 189              	#APP
 190              	# 32 "src/riscv.cpp" 1
  33              	    __asm__ volatile ("mv %0, a0" : "=r" (args[0]));
 191              		mv a5, a1
 192              	# 0 "" 2
 193              	#NO_APP
 194 0094 2338F4FA 		sd	a5,-80(s0)
 195              		.loc 1 33 5 is_stmt 1
 196              		.loc 1 33 52 is_stmt 0
 197              	#APP
 198              	# 33 "src/riscv.cpp" 1
  34              	    uint64 scause = r_scause();
 199              		mv a5, a0
 200              	# 0 "" 2
 201              	#NO_APP
 202 009c 2334F4FA 		sd	a5,-88(s0)
 203              		.loc 1 34 5 is_stmt 1
 204              	.LBB57:
 205              	.LBB58:
 104:src/../h/riscv.hpp ****     __asm__ volatile ("csrr %[scause], scause" : [scause] "=r"(scause));
 206              		.loc 2 104 5
 105:src/../h/riscv.hpp ****     return scause;
 207              		.loc 2 105 5
 105:src/../h/riscv.hpp ****     return scause;
 208              		.loc 2 105 72 is_stmt 0
 209              	#APP
 210              	# 105 "src/../h/riscv.hpp" 1
 211              		csrr a5, scause
 212              	# 0 "" 2
 213              	#NO_APP
 214 00a4 233CF4F6 		sd	a5,-136(s0)
 106:src/../h/riscv.hpp **** }
 215              		.loc 2 106 5 is_stmt 1
 106:src/../h/riscv.hpp **** }
 216              		.loc 2 106 12 is_stmt 0
 217 00a8 833484F7 		ld	s1,-136(s0)
 218              	.LVL7:
 219              	.LBE58:
 220              	.LBE57:
  35:src/riscv.cpp **** 
  36:src/riscv.cpp ****     if(scause==SOFTWARE){
 221              		.loc 1 36 5 is_stmt 1
 222              	.LBB59:
 223 00ac 9307F0FF 		li	a5,-1
GAS LISTING /tmp/ccDL7Chx.s 			page 9


 224 00b0 9397F703 		slli	a5,a5,63
 225 00b4 93871700 		addi	a5,a5,1
 226 00b8 638EF404 		beq	s1,a5,.L41
 227              	.LBE59:
  37:src/riscv.cpp **** 
  38:src/riscv.cpp ****         //interrupt: yes,  couse code: supervisor software interrupt timer
  39:src/riscv.cpp ****         TCB::timeSliceCounter++;
  40:src/riscv.cpp ****         StruLisBuf::timelist->tick();
  41:src/riscv.cpp ****         if(TCB::timeSliceCounter >= TCB::running->timeSlice) {
  42:src/riscv.cpp **** 
  43:src/riscv.cpp ****             uint64 sepc = r_sepc();
  44:src/riscv.cpp ****             TCB::timeSliceCounter=0;
  45:src/riscv.cpp ****             TCB::dispatch();
  46:src/riscv.cpp ****             w_sepc(sepc);
  47:src/riscv.cpp **** 
  48:src/riscv.cpp ****         }
  49:src/riscv.cpp **** 
  50:src/riscv.cpp ****         mc_sip(SIP_SSIP);
  51:src/riscv.cpp **** 
  52:src/riscv.cpp ****     }else if(scause==HARDWARE){
 228              		.loc 1 52 11
 229              	.LBB111:
 230              	.LBB60:
 231 00bc 9307F0FF 		li	a5,-1
 232 00c0 9397F703 		slli	a5,a5,63
 233 00c4 93879700 		addi	a5,a5,9
 234 00c8 6380F40C 		beq	s1,a5,.L42
 235              	.LBE60:
 236              	.LBE111:
  53:src/riscv.cpp **** 
  54:src/riscv.cpp ****         //interrupt: yes,  couse code: supervisore external interrupt console
  55:src/riscv.cpp ****         int irq = plic_claim();
  56:src/riscv.cpp **** 
  57:src/riscv.cpp ****         if(irq==10){
  58:src/riscv.cpp ****             while (*((char*)CONSOLE_STATUS) & CONSOLE_RX_STATUS_BIT){
  59:src/riscv.cpp ****                 char inpChar = (*(char*)CONSOLE_RX_DATA);
  60:src/riscv.cpp ****                 StruLisBuf::bufferIn->sys_put(inpChar);
  61:src/riscv.cpp ****             }
  62:src/riscv.cpp **** 
  63:src/riscv.cpp ****         }
  64:src/riscv.cpp **** 
  65:src/riscv.cpp ****         plic_complete(irq);
  66:src/riscv.cpp **** 
  67:src/riscv.cpp ****     } else if(scause==ECALL_S || scause==ECALL_U){
 237              		.loc 1 67 12
 238              	.LBB112:
 239              	.LBB97:
 240              	.LBB61:
 241              		.loc 1 67 31 is_stmt 0
 242 00cc 938784FF 		addi	a5,s1,-8
 243              		.loc 1 67 12
 244 00d0 13071000 		li	a4,1
 245 00d4 636CF732 		bgtu	a5,a4,.L14
 246              	.LBB62:
  68:src/riscv.cpp **** 
  69:src/riscv.cpp ****             uint64 sepc = r_sepc()+4;
 247              		.loc 1 69 13 is_stmt 1
GAS LISTING /tmp/ccDL7Chx.s 			page 10


 248              	.LBB63:
 249              	.LBB64:
 116:src/../h/riscv.hpp ****     __asm__ volatile ("csrr %[sepc], sepc" : [sepc] "=r"(sepc));
 250              		.loc 2 116 5
 117:src/../h/riscv.hpp ****     return sepc;
 251              		.loc 2 117 5
 117:src/../h/riscv.hpp ****     return sepc;
 252              		.loc 2 117 64 is_stmt 0
 253              	#APP
 254              	# 117 "src/../h/riscv.hpp" 1
 255              		csrr a5, sepc
 256              	# 0 "" 2
 257              	#NO_APP
 258 00dc 2334F4F8 		sd	a5,-120(s0)
 118:src/../h/riscv.hpp **** }
 259              		.loc 2 118 5 is_stmt 1
 118:src/../h/riscv.hpp **** }
 260              		.loc 2 118 12 is_stmt 0
 261 00e0 833484F8 		ld	s1,-120(s0)
 262              	.LVL8:
 263              	.LBE64:
 264              	.LBE63:
 265              		.loc 1 69 36
 266 00e4 93844400 		addi	s1,s1,4
 267              	.LVL9:
  70:src/riscv.cpp ****             uint64 volatile retVal=0;
 268              		.loc 1 70 13 is_stmt 1
 269              		.loc 1 70 29 is_stmt 0
 270 00e8 233C04F4 		sd	zero,-168(s0)
  71:src/riscv.cpp ****         thread_t * handler;
 271              		.loc 1 71 9 is_stmt 1
  72:src/riscv.cpp ****         sem_t*handleSem;
 272              		.loc 1 72 9
  73:src/riscv.cpp ****         sem_t handleSemSem;
 273              		.loc 1 73 9
  74:src/riscv.cpp ****         sem_t volatile id;
 274              		.loc 1 74 9
  75:src/riscv.cpp ****         thread_t volatile thHandl;
 275              		.loc 1 75 9
  76:src/riscv.cpp ****         size_t  volatile size;
 276              		.loc 1 76 9
  77:src/riscv.cpp ****         char c;
 277              		.loc 1 77 9
  78:src/riscv.cpp ****         time_t time;
 278              		.loc 1 78 9
  79:src/riscv.cpp ****         uint64 retchar;
 279              		.loc 1 79 9
  80:src/riscv.cpp ****         void * pointerForDealoc;
 280              		.loc 1 80 9
  81:src/riscv.cpp ****         unsigned init;
 281              		.loc 1 81 9
  82:src/riscv.cpp ****         switch (args[0]) {
 282              		.loc 1 82 9
 283              		.loc 1 82 23 is_stmt 0
 284 00ec 833784FA 		ld	a5,-88(s0)
 285 00f0 13072004 		li	a4,66
 286 00f4 636AF710 		bgtu	a5,a4,.L15
GAS LISTING /tmp/ccDL7Chx.s 			page 11


 287 00f8 93972700 		slli	a5,a5,2
 288 00fc 17070000 		lla	a4,.L17
 288      13070700 
 289 0104 B387E700 		add	a5,a5,a4
 290 0108 83A70700 		lw	a5,0(a5)
 291 010c B387E700 		add	a5,a5,a4
 292 0110 67800700 		jr	a5
 293              		.section	.rodata
 294              		.align	2
 295              		.align	2
 296              	.L17:
 297 0000 00000000 		.word	.L15-.L17
 298 0004 00000000 		.word	.L33-.L17
 299 0008 00000000 		.word	.L32-.L17
 300 000c 00000000 		.word	.L15-.L17
 301 0010 00000000 		.word	.L15-.L17
 302 0014 00000000 		.word	.L15-.L17
 303 0018 00000000 		.word	.L15-.L17
 304 001c 00000000 		.word	.L15-.L17
 305 0020 00000000 		.word	.L15-.L17
 306 0024 00000000 		.word	.L15-.L17
 307 0028 00000000 		.word	.L15-.L17
 308 002c 00000000 		.word	.L15-.L17
 309 0030 00000000 		.word	.L15-.L17
 310 0034 00000000 		.word	.L15-.L17
 311 0038 00000000 		.word	.L15-.L17
 312 003c 00000000 		.word	.L15-.L17
 313 0040 00000000 		.word	.L31-.L17
 314 0044 00000000 		.word	.L30-.L17
 315 0048 00000000 		.word	.L29-.L17
 316 004c 00000000 		.word	.L28-.L17
 317 0050 00000000 		.word	.L27-.L17
 318 0054 00000000 		.word	.L26-.L17
 319 0058 00000000 		.word	.L25-.L17
 320 005c 00000000 		.word	.L24-.L17
 321 0060 00000000 		.word	.L15-.L17
 322 0064 00000000 		.word	.L15-.L17
 323 0068 00000000 		.word	.L15-.L17
 324 006c 00000000 		.word	.L15-.L17
 325 0070 00000000 		.word	.L15-.L17
 326 0074 00000000 		.word	.L15-.L17
 327 0078 00000000 		.word	.L15-.L17
 328 007c 00000000 		.word	.L15-.L17
 329 0080 00000000 		.word	.L15-.L17
 330 0084 00000000 		.word	.L23-.L17
 331 0088 00000000 		.word	.L22-.L17
 332 008c 00000000 		.word	.L21-.L17
 333 0090 00000000 		.word	.L20-.L17
 334 0094 00000000 		.word	.L15-.L17
 335 0098 00000000 		.word	.L15-.L17
 336 009c 00000000 		.word	.L15-.L17
 337 00a0 00000000 		.word	.L15-.L17
 338 00a4 00000000 		.word	.L15-.L17
 339 00a8 00000000 		.word	.L15-.L17
 340 00ac 00000000 		.word	.L15-.L17
 341 00b0 00000000 		.word	.L15-.L17
 342 00b4 00000000 		.word	.L15-.L17
GAS LISTING /tmp/ccDL7Chx.s 			page 12


 343 00b8 00000000 		.word	.L15-.L17
 344 00bc 00000000 		.word	.L15-.L17
 345 00c0 00000000 		.word	.L15-.L17
 346 00c4 00000000 		.word	.L19-.L17
 347 00c8 00000000 		.word	.L15-.L17
 348 00cc 00000000 		.word	.L15-.L17
 349 00d0 00000000 		.word	.L15-.L17
 350 00d4 00000000 		.word	.L15-.L17
 351 00d8 00000000 		.word	.L15-.L17
 352 00dc 00000000 		.word	.L15-.L17
 353 00e0 00000000 		.word	.L15-.L17
 354 00e4 00000000 		.word	.L15-.L17
 355 00e8 00000000 		.word	.L15-.L17
 356 00ec 00000000 		.word	.L15-.L17
 357 00f0 00000000 		.word	.L15-.L17
 358 00f4 00000000 		.word	.L15-.L17
 359 00f8 00000000 		.word	.L15-.L17
 360 00fc 00000000 		.word	.L15-.L17
 361 0100 00000000 		.word	.L15-.L17
 362 0104 00000000 		.word	.L18-.L17
 363 0108 00000000 		.word	.L16-.L17
 364              		.text
 365              	.LVL10:
 366              	.L41:
 367              	.LBE62:
 368              	.LBE61:
 369              	.LBE97:
 370              	.LBB98:
  39:src/riscv.cpp ****         StruLisBuf::timelist->tick();
 371              		.loc 1 39 9 is_stmt 1
  39:src/riscv.cpp ****         StruLisBuf::timelist->tick();
 372              		.loc 1 39 30 is_stmt 0
 373 0114 97040000 		la	s1,_ZN3TCB16timeSliceCounterE
 373      83B40400 
 374              	.LVL11:
 375 011c 83B70400 		ld	a5,0(s1)
 376 0120 93871700 		addi	a5,a5,1
 377 0124 23B0F400 		sd	a5,0(s1)
  40:src/riscv.cpp ****         if(TCB::timeSliceCounter >= TCB::running->timeSlice) {
 378              		.loc 1 40 9 is_stmt 1
  40:src/riscv.cpp ****         if(TCB::timeSliceCounter >= TCB::running->timeSlice) {
 379              		.loc 1 40 35 is_stmt 0
 380 0128 97070000 		la	a5,_ZN10StruLisBuf8timelistE
 380      83B70700 
 381 0130 03B50700 		ld	a0,0(a5)
 382              	.LEHB0:
 383 0134 97000000 		call	_ZN8TimeList4tickEv@plt
 383      E7800000 
 384              	.LVL12:
  41:src/riscv.cpp **** 
 385              		.loc 1 41 9 is_stmt 1
 386              	.LBB99:
  41:src/riscv.cpp **** 
 387              		.loc 1 41 51 is_stmt 0
 388 013c 97070000 		la	a5,_ZN3TCB7runningE
 388      83B70700 
 389 0144 83B70700 		ld	a5,0(a5)
GAS LISTING /tmp/ccDL7Chx.s 			page 13


 390 0148 03B78703 		ld	a4,56(a5)
  41:src/riscv.cpp **** 
 391              		.loc 1 41 34
 392 014c 83B70400 		ld	a5,0(s1)
  41:src/riscv.cpp **** 
 393              		.loc 1 41 9
 394 0150 63F8E700 		bleu	a4,a5,.L43
 395              	.L9:
 396              	.LBE99:
  50:src/riscv.cpp **** 
 397              		.loc 1 50 9 is_stmt 1
 398              	.LVL13:
 399              	.LBB105:
 400              	.LBB106:
 157:src/../h/riscv.hpp **** }
 401              		.loc 2 157 5
 157:src/../h/riscv.hpp **** }
 402              		.loc 2 157 64 is_stmt 0
 403 0154 93072000 		li	a5,2
 404              	#APP
 405              	# 157 "src/../h/riscv.hpp" 1
 158:src/../h/riscv.hpp **** 
 406              		csrc sip, a5
 407              	# 0 "" 2
 408              		.loc 2 158 1
 409              	#NO_APP
 410 015c 6F00800B 		j	.L7
 411              	.LVL14:
 412              	.L43:
 413              	.LBE106:
 414              	.LBE105:
 415              	.LBB107:
 416              	.LBB100:
  43:src/riscv.cpp ****             TCB::timeSliceCounter=0;
 417              		.loc 1 43 13 is_stmt 1
 418              	.LBB101:
 419              	.LBB102:
 116:src/../h/riscv.hpp ****     __asm__ volatile ("csrr %[sepc], sepc" : [sepc] "=r"(sepc));
 420              		.loc 2 116 5
 117:src/../h/riscv.hpp ****     return sepc;
 421              		.loc 2 117 5
 117:src/../h/riscv.hpp ****     return sepc;
 422              		.loc 2 117 64 is_stmt 0
 423              	#APP
 424              	# 117 "src/../h/riscv.hpp" 1
 425              		csrr a5, sepc
 426              	# 0 "" 2
 427              	#NO_APP
 428 0164 2330F4F8 		sd	a5,-128(s0)
 118:src/../h/riscv.hpp **** }
 429              		.loc 2 118 5 is_stmt 1
 118:src/../h/riscv.hpp **** }
 430              		.loc 2 118 12 is_stmt 0
 431 0168 833404F8 		ld	s1,-128(s0)
 432              	.LVL15:
 433              	.LBE102:
 434              	.LBE101:
GAS LISTING /tmp/ccDL7Chx.s 			page 14


  44:src/riscv.cpp ****             TCB::dispatch();
 435              		.loc 1 44 13 is_stmt 1
  44:src/riscv.cpp ****             TCB::dispatch();
 436              		.loc 1 44 34 is_stmt 0
 437 016c 97070000 		la	a5,_ZN3TCB16timeSliceCounterE
 437      83B70700 
 438 0174 23B00700 		sd	zero,0(a5)
  45:src/riscv.cpp ****             w_sepc(sepc);
 439              		.loc 1 45 13 is_stmt 1
  45:src/riscv.cpp ****             w_sepc(sepc);
 440              		.loc 1 45 26 is_stmt 0
 441 0178 97000000 		call	_ZN3TCB8dispatchEv@plt
 441      E7800000 
 442              	.LVL16:
  46:src/riscv.cpp **** 
 443              		.loc 1 46 13 is_stmt 1
 444              	.LBB103:
 445              	.LBB104:
 123:src/../h/riscv.hpp **** }
 446              		.loc 2 123 5
 123:src/../h/riscv.hpp **** }
 447              		.loc 2 123 65 is_stmt 0
 448              	#APP
 449              	# 123 "src/../h/riscv.hpp" 1
 124:src/../h/riscv.hpp **** 
 450              		csrw sepc, s1
 451              	# 0 "" 2
 452              		.loc 2 124 1
 453              	#NO_APP
 454 0184 6FF01FFD 		j	.L9
 455              	.LVL17:
 456              	.L42:
 457              	.LBE104:
 458              	.LBE103:
 459              	.LBE100:
 460              	.LBE107:
 461              	.LBE98:
 462              	.LBB108:
 463              	.LBB89:
  55:src/riscv.cpp **** 
 464              		.loc 1 55 9 is_stmt 1
  55:src/riscv.cpp **** 
 465              		.loc 1 55 29 is_stmt 0
 466 0188 97000000 		call	plic_claim@plt
 466      E7800000 
 467              	.LVL18:
 468 0190 93040500 		mv	s1,a0
 469              	.LVL19:
  57:src/riscv.cpp ****             while (*((char*)CONSOLE_STATUS) & CONSOLE_RX_STATUS_BIT){
 470              		.loc 1 57 9 is_stmt 1
 471              	.LBB90:
 472 0194 9307A000 		li	a5,10
 473 0198 630AF500 		beq	a0,a5,.L13
 474              	.LVL20:
 475              	.L12:
 476              	.LBE90:
  65:src/riscv.cpp **** 
GAS LISTING /tmp/ccDL7Chx.s 			page 15


 477              		.loc 1 65 9
  65:src/riscv.cpp **** 
 478              		.loc 1 65 22 is_stmt 0
 479 019c 13850400 		mv	a0,s1
 480 01a0 97000000 		call	plic_complete@plt
 480      E7800000 
 481              	.LVL21:
 482 01a8 6F00C006 		j	.L7
 483              	.L13:
 484              	.LBB93:
 485              	.LBB91:
  58:src/riscv.cpp ****                 char inpChar = (*(char*)CONSOLE_RX_DATA);
 486              		.loc 1 58 13 is_stmt 1
  58:src/riscv.cpp ****                 char inpChar = (*(char*)CONSOLE_RX_DATA);
 487              		.loc 1 58 47
  58:src/riscv.cpp ****                 char inpChar = (*(char*)CONSOLE_RX_DATA);
 488              		.loc 1 58 20 is_stmt 0
 489 01ac 97070000 		la	a5,CONSOLE_STATUS
 489      83B70700 
 490 01b4 83B70700 		ld	a5,0(a5)
 491 01b8 83C70700 		lbu	a5,0(a5)
  58:src/riscv.cpp ****                 char inpChar = (*(char*)CONSOLE_RX_DATA);
 492              		.loc 1 58 47
 493 01bc 93F71700 		andi	a5,a5,1
 494 01c0 E38E07FC 		beqz	a5,.L12
 495              	.LBB92:
  59:src/riscv.cpp ****                 StruLisBuf::bufferIn->sys_put(inpChar);
 496              		.loc 1 59 17 is_stmt 1
  59:src/riscv.cpp ****                 StruLisBuf::bufferIn->sys_put(inpChar);
 497              		.loc 1 59 33 is_stmt 0
 498 01c4 97070000 		la	a5,CONSOLE_RX_DATA
 498      83B70700 
 499 01cc 83B70700 		ld	a5,0(a5)
 500              	.LVL22:
  60:src/riscv.cpp ****             }
 501              		.loc 1 60 17 is_stmt 1
  60:src/riscv.cpp ****             }
 502              		.loc 1 60 46 is_stmt 0
 503 01d0 83C50700 		lbu	a1,0(a5)
 504 01d4 97070000 		la	a5,_ZN10StruLisBuf8bufferInE
 504      83B70700 
 505              	.LVL23:
 506 01dc 03B50700 		ld	a0,0(a5)
 507 01e0 97000000 		call	_ZN7_Buffer7sys_putEc@plt
 507      E7800000 
 508              	.LVL24:
 509 01e8 6FF05FFC 		j	.L13
 510              	.LVL25:
 511              	.L30:
 512              	.LBE92:
 513              	.LBE91:
 514              	.LBE93:
 515              	.LBE89:
 516              	.LBB94:
 517              	.LBB79:
  83:src/riscv.cpp **** 
  84:src/riscv.cpp ****             case THREAD_CREATE:
GAS LISTING /tmp/ccDL7Chx.s 			page 16


 518              		.loc 1 84 13 is_stmt 1
  85:src/riscv.cpp ****             handler = (thread_t*)args[1];
 519              		.loc 1 85 13
 520              		.loc 1 85 40 is_stmt 0
 521 01ec 033904FB 		ld	s2,-80(s0)
 522              	.LVL26:
  86:src/riscv.cpp ****             *handler= TCB::initThreadWithRun((Body)args[2],(void*)args[3],(uint64*)args[4]);
 523              		.loc 1 86 13 is_stmt 1
 524              		.loc 1 86 45 is_stmt 0
 525 01f0 033684FC 		ld	a2,-56(s0)
 526 01f4 833504FC 		ld	a1,-64(s0)
 527 01f8 033584FB 		ld	a0,-72(s0)
 528 01fc 97000000 		call	_ZN3TCB17initThreadWithRunEPFvPvES0_Pm@plt
 528      E7800000 
 529              	.LVL27:
 530              		.loc 1 86 21
 531 0204 2330A900 		sd	a0,0(s2)
  87:src/riscv.cpp **** 
  88:src/riscv.cpp ****                 break;
 532              		.loc 1 88 17 is_stmt 1
 533              	.LVL28:
 534              	.L15:
  89:src/riscv.cpp ****             case THREAD_PREPARE:
  90:src/riscv.cpp ****                     handler = (thread_t*)args[1];
  91:src/riscv.cpp ****                     *handler= TCB::initThreadWithNoRun((Body)args[2],(void*)args[3],(uint64*)args[4
  92:src/riscv.cpp **** 
  93:src/riscv.cpp ****                     break;
  94:src/riscv.cpp ****             case THREAD_START:
  95:src/riscv.cpp ****                 thHandl=(thread_t)args[1];
  96:src/riscv.cpp ****                 retVal= thHandl->start();
  97:src/riscv.cpp ****                 break;
  98:src/riscv.cpp ****             case THREAD_EXIT:
  99:src/riscv.cpp ****                 retVal=TCB::exit();
 100:src/riscv.cpp ****                 break;
 101:src/riscv.cpp ****             case THREAD_DISPATCH:
 102:src/riscv.cpp ****                 TCB::dispatch();
 103:src/riscv.cpp ****                 break;
 104:src/riscv.cpp ****             case THREAD_DELETE:
 105:src/riscv.cpp ****                 thHandl = (thread_t)args[1];
 106:src/riscv.cpp ****                 while(!thHandl->status.getFinished()){
 107:src/riscv.cpp ****                     TCB::dispatch();
 108:src/riscv.cpp **** 
 109:src/riscv.cpp ****                 }
 110:src/riscv.cpp ****                 delete thHandl;
 111:src/riscv.cpp ****             case THREAD_JOIN:
 112:src/riscv.cpp ****                 thHandl = (thread_t)args[1];
 113:src/riscv.cpp ****                 while(!thHandl->status.getFinished()){
 114:src/riscv.cpp ****                     TCB::dispatch();
 115:src/riscv.cpp ****                 }
 116:src/riscv.cpp ****                 break;
 117:src/riscv.cpp ****             case THREAD_GETID:
 118:src/riscv.cpp ****                 thHandl = (thread_t)args[1];
 119:src/riscv.cpp ****                 retVal = thHandl->getID();
 120:src/riscv.cpp ****                 break;
 121:src/riscv.cpp ****             case MEM_FREE:
 122:src/riscv.cpp ****                     pointerForDealoc = (void*)args[1];
 123:src/riscv.cpp ****                     retVal=(uint64)__mem_free(pointerForDealoc);
GAS LISTING /tmp/ccDL7Chx.s 			page 17


 124:src/riscv.cpp ****                 break;
 125:src/riscv.cpp ****             case MEM_ALLOC:
 126:src/riscv.cpp ****                     size = args[1]*MEM_BLOCK_SIZE;
 127:src/riscv.cpp ****                     retVal = (uint64) __mem_alloc(size);
 128:src/riscv.cpp ****                 break;
 129:src/riscv.cpp ****             case SEM_OPEN:
 130:src/riscv.cpp ****                 handleSem = (sem_t*)args[3];
 131:src/riscv.cpp ****                 init = (unsigned)args[2];
 132:src/riscv.cpp ****                 new _sem(handleSem,init);
 133:src/riscv.cpp ****                 retVal=1;
 134:src/riscv.cpp **** 
 135:src/riscv.cpp ****                 break;
 136:src/riscv.cpp ****             case SEM_CLOSE:
 137:src/riscv.cpp ****                 handleSemSem = (sem_t)args[1];
 138:src/riscv.cpp ****                 handleSemSem->close();
 139:src/riscv.cpp ****                 retVal=1;
 140:src/riscv.cpp ****                 break;
 141:src/riscv.cpp ****             case SEM_WAIT:
 142:src/riscv.cpp ****                 id = (sem_t)args[1];
 143:src/riscv.cpp ****                 retVal=id->wait();
 144:src/riscv.cpp **** 
 145:src/riscv.cpp ****                 break;
 146:src/riscv.cpp ****             case SEM_SIGNAL:
 147:src/riscv.cpp ****                 id = (sem_t)args[1];
 148:src/riscv.cpp ****                 retVal=id->signal();
 149:src/riscv.cpp ****                 break;
 150:src/riscv.cpp ****             case PUTC:
 151:src/riscv.cpp ****                  c = (char)args[1];
 152:src/riscv.cpp ****                 StruLisBuf::bufferOut->sys_put(c);
 153:src/riscv.cpp ****                 break;
 154:src/riscv.cpp ****             case GETC:
 155:src/riscv.cpp ****                retchar = StruLisBuf::bufferIn->sys_get();
 156:src/riscv.cpp ****                 retVal=(uint64)retchar;
 157:src/riscv.cpp **** 
 158:src/riscv.cpp ****                 break;
 159:src/riscv.cpp ****             case TIME_SLEEP:
 160:src/riscv.cpp ****                 time = (time_t)args[1];
 161:src/riscv.cpp ****                     retVal = TCB::sleep(time);
 162:src/riscv.cpp ****                 break;
 163:src/riscv.cpp ****         }
 164:src/riscv.cpp ****               retValueRISV(retVal);
 535              		.loc 1 164 15
 536              		.loc 1 164 27 is_stmt 0
 537 0208 833784F5 		ld	a5,-168(s0)
 538              	.LVL29:
 539              	.LBB65:
 540              	.LBB66:
 181:src/../h/riscv.hpp **** 
 182:src/../h/riscv.hpp **** inline uint64 Riscv::r_sstatus()
 183:src/../h/riscv.hpp **** {
 184:src/../h/riscv.hpp ****     uint64 volatile sstatus;
 185:src/../h/riscv.hpp ****     __asm__ volatile ("csrr %[sstatus], sstatus" : [sstatus] "=r"(sstatus));
 186:src/../h/riscv.hpp ****     return sstatus;
 187:src/../h/riscv.hpp **** }
 188:src/../h/riscv.hpp **** 
 189:src/../h/riscv.hpp **** inline void Riscv::w_sstatus(uint64 sstatus)
 190:src/../h/riscv.hpp **** {
GAS LISTING /tmp/ccDL7Chx.s 			page 18


 191:src/../h/riscv.hpp ****     __asm__ volatile ("csrw sstatus, %[sstatus]" : : [sstatus] "r"(sstatus));
 192:src/../h/riscv.hpp **** }
 193:src/../h/riscv.hpp **** inline void Riscv::retValueRISV(uint64 retVal)
 194:src/../h/riscv.hpp **** {
 195:src/../h/riscv.hpp ****     __asm__ volatile ("mv a0, %0" : : "r" (retVal));
 541              		.loc 2 195 5 is_stmt 1
 542              		.loc 2 195 52 is_stmt 0
 543              	#APP
 544              	# 195 "src/../h/riscv.hpp" 1
 196              	}
 545              		mv a0, a5
 546              	# 0 "" 2
 547              	.LVL30:
 548              	#NO_APP
 549              	.LBE66:
 550              	.LBE65:
 165:src/riscv.cpp ****                w_sepc(sepc);
 551              		.loc 1 165 16 is_stmt 1
 552              	.LBB67:
 553              	.LBB68:
 123:src/../h/riscv.hpp **** }
 554              		.loc 2 123 5
 123:src/../h/riscv.hpp **** }
 555              		.loc 2 123 65 is_stmt 0
 556              	#APP
 557              	# 123 "src/../h/riscv.hpp" 1
 558              		csrw sepc, s1
 559              	# 0 "" 2
 560              	.LVL31:
 561              	#NO_APP
 562              	.L7:
 563              	.LBE68:
 564              	.LBE67:
 565              	.LBE79:
 566              	.LBE94:
 567              	.LBE108:
 568              	.LBE112:
 166:src/riscv.cpp **** 
 167:src/riscv.cpp **** 
 168:src/riscv.cpp ****     }else{
 169:src/riscv.cpp ****         uint64 sepc = r_sepc();
 170:src/riscv.cpp ****         uint64 stval = r_stval();
 171:src/riscv.cpp ****         uint64  sstatus = r_sstatus();
 172:src/riscv.cpp ****         printString("scause code: ");
 173:src/riscv.cpp ****         printInt(scause);
 174:src/riscv.cpp ****         printString("\n");
 175:src/riscv.cpp **** 
 176:src/riscv.cpp ****         printString("sepc code: ");
 177:src/riscv.cpp ****         printInt(sepc);
 178:src/riscv.cpp ****         printString("\n");
 179:src/riscv.cpp **** 
 180:src/riscv.cpp **** 
 181:src/riscv.cpp ****         printString("stval code: ");
 182:src/riscv.cpp ****         printInt(stval);
 183:src/riscv.cpp ****         printString("\n");
 184:src/riscv.cpp **** 
 185:src/riscv.cpp ****         printString("sstatus code: ");
GAS LISTING /tmp/ccDL7Chx.s 			page 19


 186:src/riscv.cpp ****         printInt(sstatus);
 187:src/riscv.cpp ****         printString("\n");
 188:src/riscv.cpp ****     }
 189:src/riscv.cpp **** 
 190:src/riscv.cpp **** 
 191:src/riscv.cpp **** 
 192:src/riscv.cpp **** 
 193:src/riscv.cpp **** 
 194:src/riscv.cpp **** }...
 569              		.loc 1 194 1
 570 0214 8330810A 		ld	ra,168(sp)
 571              		.cfi_remember_state
 572              		.cfi_restore 1
 573 0218 0334010A 		ld	s0,160(sp)
 574              		.cfi_restore 8
 575              		.cfi_def_cfa 2, 176
 576 021c 83348109 		ld	s1,152(sp)
 577              		.cfi_restore 9
 578 0220 03390109 		ld	s2,144(sp)
 579              		.cfi_restore 18
 580 0224 83398108 		ld	s3,136(sp)
 581              		.cfi_restore 19
 582 0228 033A0108 		ld	s4,128(sp)
 583              		.cfi_restore 20
 584 022c 1301010B 		addi	sp,sp,176
 585              		.cfi_def_cfa_offset 0
 586 0230 67800000 		jr	ra
 587              	.LVL32:
 588              	.L27:
 589              		.cfi_restore_state
 590              	.LBB113:
 591              	.LBB109:
 592              	.LBB95:
 593              	.LBB80:
  89:src/riscv.cpp ****             case THREAD_PREPARE:
 594              		.loc 1 89 13 is_stmt 1
  90:src/riscv.cpp ****                     handler = (thread_t*)args[1];
 595              		.loc 1 90 21
  90:src/riscv.cpp ****                     handler = (thread_t*)args[1];
 596              		.loc 1 90 48 is_stmt 0
 597 0234 033904FB 		ld	s2,-80(s0)
 598              	.LVL33:
  91:src/riscv.cpp ****                     *handler= TCB::initThreadWithNoRun((Body)args[2],(void*)args[3],(uint64*)args[4
 599              		.loc 1 91 21 is_stmt 1
  91:src/riscv.cpp ****                     *handler= TCB::initThreadWithNoRun((Body)args[2],(void*)args[3],(uint64*)args[4
 600              		.loc 1 91 55 is_stmt 0
 601 0238 033684FC 		ld	a2,-56(s0)
 602 023c 833504FC 		ld	a1,-64(s0)
 603 0240 033584FB 		ld	a0,-72(s0)
 604 0244 97000000 		call	_ZN3TCB19initThreadWithNoRunEPFvPvES0_Pm@plt
 604      E7800000 
 605              	.LVL34:
  91:src/riscv.cpp ****                     *handler= TCB::initThreadWithNoRun((Body)args[2],(void*)args[3],(uint64*)args[4
 606              		.loc 1 91 29
 607 024c 2330A900 		sd	a0,0(s2)
  93:src/riscv.cpp ****                     break;
 608              		.loc 1 93 21 is_stmt 1
GAS LISTING /tmp/ccDL7Chx.s 			page 20


 609 0250 6FF09FFB 		j	.L15
 610              	.LVL35:
 611              	.L31:
  94:src/riscv.cpp ****             case THREAD_START:
 612              		.loc 1 94 13
  95:src/riscv.cpp ****                 thHandl=(thread_t)args[1];
 613              		.loc 1 95 17
  95:src/riscv.cpp ****                 thHandl=(thread_t)args[1];
 614              		.loc 1 95 41 is_stmt 0
 615 0254 833704FB 		ld	a5,-80(s0)
  95:src/riscv.cpp ****                 thHandl=(thread_t)args[1];
 616              		.loc 1 95 24
 617 0258 2334F4F6 		sd	a5,-152(s0)
  96:src/riscv.cpp ****                 retVal= thHandl->start();
 618              		.loc 1 96 17 is_stmt 1
  96:src/riscv.cpp ****                 retVal= thHandl->start();
 619              		.loc 1 96 39 is_stmt 0
 620 025c 033584F6 		ld	a0,-152(s0)
 621 0260 97000000 		call	_ZN3TCB5startEv@plt
 621      E7800000 
 622              	.LVL36:
  96:src/riscv.cpp ****                 retVal= thHandl->start();
 623              		.loc 1 96 23
 624 0268 233CA4F4 		sd	a0,-168(s0)
  97:src/riscv.cpp ****                 break;
 625              		.loc 1 97 17 is_stmt 1
 626 026c 6FF0DFF9 		j	.L15
 627              	.L29:
  98:src/riscv.cpp ****             case THREAD_EXIT:
 628              		.loc 1 98 13
  99:src/riscv.cpp ****                 retVal=TCB::exit();
 629              		.loc 1 99 17
  99:src/riscv.cpp ****                 retVal=TCB::exit();
 630              		.loc 1 99 33 is_stmt 0
 631 0270 97000000 		call	_ZN3TCB4exitEv@plt
 631      E7800000 
 632              	.LVL37:
  99:src/riscv.cpp ****                 retVal=TCB::exit();
 633              		.loc 1 99 23
 634 0278 233CA4F4 		sd	a0,-168(s0)
 100:src/riscv.cpp ****                 break;
 635              		.loc 1 100 17 is_stmt 1
 636 027c 6FF0DFF8 		j	.L15
 637              	.L28:
 101:src/riscv.cpp ****             case THREAD_DISPATCH:
 638              		.loc 1 101 13
 102:src/riscv.cpp ****                 TCB::dispatch();
 639              		.loc 1 102 17
 102:src/riscv.cpp ****                 TCB::dispatch();
 640              		.loc 1 102 30 is_stmt 0
 641 0280 97000000 		call	_ZN3TCB8dispatchEv@plt
 641      E7800000 
 642              	.LVL38:
 643 0288 6FF01FF8 		j	.L15
 644              	.L26:
 104:src/riscv.cpp ****             case THREAD_DELETE:
 645              		.loc 1 104 13 is_stmt 1
GAS LISTING /tmp/ccDL7Chx.s 			page 21


 105:src/riscv.cpp ****                 thHandl = (thread_t)args[1];
 646              		.loc 1 105 17
 105:src/riscv.cpp ****                 thHandl = (thread_t)args[1];
 647              		.loc 1 105 43 is_stmt 0
 648 028c 833704FB 		ld	a5,-80(s0)
 105:src/riscv.cpp ****                 thHandl = (thread_t)args[1];
 649              		.loc 1 105 25
 650 0290 2334F4F6 		sd	a5,-152(s0)
 651              	.L35:
 106:src/riscv.cpp ****                 while(!thHandl->status.getFinished()){
 652              		.loc 1 106 17 is_stmt 1
 106:src/riscv.cpp ****                 while(!thHandl->status.getFinished()){
 653              		.loc 1 106 23
 106:src/riscv.cpp ****                 while(!thHandl->status.getFinished()){
 654              		.loc 1 106 24 is_stmt 0
 655 0294 833784F6 		ld	a5,-152(s0)
 656              	.LVL39:
 657              	.LBB69:
 658              	.LBB70:
 659              		.file 3 "src/../h/tcb.hpp"
   1:src/../h/tcb.hpp **** //
   2:src/../h/tcb.hpp **** // Created by os on 7/30/22.
   3:src/../h/tcb.hpp **** //
   4:src/../h/tcb.hpp **** 
   5:src/../h/tcb.hpp **** #ifndef OSPROJECT_TCB_HPP
   6:src/../h/tcb.hpp **** #define OSPROJECT_TCB_HPP
   7:src/../h/tcb.hpp **** 
   8:src/../h/tcb.hpp **** #include "../lib/hw.h"
   9:src/../h/tcb.hpp **** #include "scheduler.hpp"
  10:src/../h/tcb.hpp **** 
  11:src/../h/tcb.hpp **** class TCB{
  12:src/../h/tcb.hpp **** 
  13:src/../h/tcb.hpp **** public:
  14:src/../h/tcb.hpp ****     ~TCB(){delete[] stack;}
  15:src/../h/tcb.hpp ****     using Body = void (*)(void*);
  16:src/../h/tcb.hpp ****     static TCB *initThreadWithRun(Body body,void *arg,uint64*stack);
  17:src/../h/tcb.hpp ****     static TCB *initThreadWithNoRun(Body body , void*arg,uint64*stack);
  18:src/../h/tcb.hpp ****     static TCB* running;
  19:src/../h/tcb.hpp ****     bool isFinished(){return status.getFinished();}
  20:src/../h/tcb.hpp ****     uint64 getTimeSlice(){return timeSlice;}
  21:src/../h/tcb.hpp ****     int start();
  22:src/../h/tcb.hpp ****     int getID(){return myId;}
  23:src/../h/tcb.hpp ****     void *operator new(size_t size) { return __mem_alloc(size); }
  24:src/../h/tcb.hpp ****     void operator delete(void *ptr) { __mem_free(ptr); }
  25:src/../h/tcb.hpp **** protected:
  26:src/../h/tcb.hpp ****     static int idS;
  27:src/../h/tcb.hpp ****     int myId;
  28:src/../h/tcb.hpp ****     explicit TCB(Body body,void *arg, uint64 *stack):
  29:src/../h/tcb.hpp ****     body(body),
  30:src/../h/tcb.hpp ****     stack(stack),
  31:src/../h/tcb.hpp ****     arg(arg),
  32:src/../h/tcb.hpp ****     timeSlice(DEFAULT_TIME_SLICE)
  33:src/../h/tcb.hpp ****     {
  34:src/../h/tcb.hpp ****         myId=idS++;
  35:src/../h/tcb.hpp ****         status.setCreated();
  36:src/../h/tcb.hpp ****         context={(uint64) &threadWrapper,
  37:src/../h/tcb.hpp ****                  (uint64) &stack[DEFAULT_STACK_SIZE]};
GAS LISTING /tmp/ccDL7Chx.s 			page 22


  38:src/../h/tcb.hpp ****     }
  39:src/../h/tcb.hpp **** 
  40:src/../h/tcb.hpp ****     explicit TCB(){
  41:src/../h/tcb.hpp ****         body= nullptr;
  42:src/../h/tcb.hpp ****         stack= nullptr;
  43:src/../h/tcb.hpp ****         arg= nullptr;
  44:src/../h/tcb.hpp ****         myId=idS++;
  45:src/../h/tcb.hpp ****         timeSlice=DEFAULT_TIME_SLICE;
  46:src/../h/tcb.hpp ****         context = {0, 0};
  47:src/../h/tcb.hpp ****         status.delAll();
  48:src/../h/tcb.hpp ****         status.setRunning();
  49:src/../h/tcb.hpp ****     }
  50:src/../h/tcb.hpp **** 
  51:src/../h/tcb.hpp ****     struct Context
  52:src/../h/tcb.hpp ****     {
  53:src/../h/tcb.hpp ****         uint64 ra;
  54:src/../h/tcb.hpp ****         uint64 sp;
  55:src/../h/tcb.hpp ****     };
  56:src/../h/tcb.hpp ****     struct Status{
  57:src/../h/tcb.hpp ****         bool FINISHED= false;
  58:src/../h/tcb.hpp ****         bool RUNNING = false;
  59:src/../h/tcb.hpp ****         bool READY= false;
  60:src/../h/tcb.hpp ****         bool CREATED= false;
  61:src/../h/tcb.hpp ****         bool WAITING= false;
  62:src/../h/tcb.hpp ****         bool SLEEPING= false;
  63:src/../h/tcb.hpp ****         bool IDLE= false;
  64:src/../h/tcb.hpp ****         bool SYSTEMATIC= false;
  65:src/../h/tcb.hpp ****     public:
  66:src/../h/tcb.hpp ****         void* operator new(size_t size){return __mem_alloc(size);}
  67:src/../h/tcb.hpp ****         void operator delete (void* ptr){ __mem_free(ptr);}
  68:src/../h/tcb.hpp ****         void setFinished(){FINISHED=true;}
  69:src/../h/tcb.hpp ****         void delFinished(){FINISHED= false;}
  70:src/../h/tcb.hpp ****         void setRunning(){RUNNING=true;}
  71:src/../h/tcb.hpp ****         void delRunning(){RUNNING= false;}
  72:src/../h/tcb.hpp ****         void setReady(){READY=true;}
  73:src/../h/tcb.hpp ****         void delReady(){READY= false;}
  74:src/../h/tcb.hpp ****         void setCreated(){CREATED=true;}
  75:src/../h/tcb.hpp ****         void delCreated(){CREATED= false;}
  76:src/../h/tcb.hpp ****         void setWaiting(){WAITING=true;}
  77:src/../h/tcb.hpp ****         void delWaiting(){WAITING= false;}
  78:src/../h/tcb.hpp ****         void setSleeping(){SLEEPING=true;}
  79:src/../h/tcb.hpp ****         void delSleeping(){SLEEPING= false;}
  80:src/../h/tcb.hpp ****         void setIdle(){IDLE=true;}
  81:src/../h/tcb.hpp ****         void delIdle(){IDLE= false;}
  82:src/../h/tcb.hpp ****         bool getFinished(){ return FINISHED;}
 660              		.loc 3 82 29 is_stmt 1
 661              		.loc 3 82 36 is_stmt 0
 662 0298 83C78702 		lbu	a5,40(a5)
 663              	.LVL40:
 664              	.LBE70:
 665              	.LBE69:
 106:src/riscv.cpp ****                 while(!thHandl->status.getFinished()){
 666              		.loc 1 106 23
 667 029c 63980700 		bnez	a5,.L34
 107:src/riscv.cpp ****                     TCB::dispatch();
 668              		.loc 1 107 21 is_stmt 1
 107:src/riscv.cpp ****                     TCB::dispatch();
GAS LISTING /tmp/ccDL7Chx.s 			page 23


 669              		.loc 1 107 34 is_stmt 0
 670 02a0 97000000 		call	_ZN3TCB8dispatchEv@plt
 670      E7800000 
 671              	.LVL41:
 672 02a8 6FF0DFFE 		j	.L35
 673              	.L34:
 110:src/riscv.cpp ****                 delete thHandl;
 674              		.loc 1 110 17 is_stmt 1
 110:src/riscv.cpp ****                 delete thHandl;
 675              		.loc 1 110 24 is_stmt 0
 676 02ac 033984F6 		ld	s2,-152(s0)
 110:src/riscv.cpp ****                 delete thHandl;
 677              		.loc 1 110 31
 678 02b0 63000902 		beqz	s2,.L25
 679              	.LVL42:
 680              	.LBB71:
 681              	.LBB72:
  14:src/../h/tcb.hpp ****     using Body = void (*)(void*);
 682              		.loc 3 14 12 is_stmt 1
  14:src/../h/tcb.hpp ****     using Body = void (*)(void*);
 683              		.loc 3 14 21 is_stmt 0
 684 02b4 03350901 		ld	a0,16(s2)
  14:src/../h/tcb.hpp ****     using Body = void (*)(void*);
 685              		.loc 3 14 26
 686 02b8 63060500 		beqz	a0,.L36
  14:src/../h/tcb.hpp ****     using Body = void (*)(void*);
 687              		.loc 3 14 21
 688 02bc 97000000 		call	_ZdaPv@plt
 688      E7800000 
 689              	.LVL43:
 690              	.L36:
 691              	.LBE72:
 692              	.LBE71:
 693              	.LBB73:
 694              	.LBB74:
  24:src/../h/tcb.hpp **** protected:
 695              		.loc 3 24 39 is_stmt 1
  24:src/../h/tcb.hpp **** protected:
 696              		.loc 3 24 49 is_stmt 0
 697 02c4 13050900 		mv	a0,s2
 698 02c8 97000000 		call	__mem_free@plt
 698      E7800000 
 699              	.LVL44:
 700              	.L25:
 701              	.LBE74:
 702              	.LBE73:
 111:src/riscv.cpp ****             case THREAD_JOIN:
 703              		.loc 1 111 13 is_stmt 1
 112:src/riscv.cpp ****                 thHandl = (thread_t)args[1];
 704              		.loc 1 112 17
 112:src/riscv.cpp ****                 thHandl = (thread_t)args[1];
 705              		.loc 1 112 43 is_stmt 0
 706 02d0 833704FB 		ld	a5,-80(s0)
 112:src/riscv.cpp ****                 thHandl = (thread_t)args[1];
 707              		.loc 1 112 25
 708 02d4 2334F4F6 		sd	a5,-152(s0)
 709              	.L37:
GAS LISTING /tmp/ccDL7Chx.s 			page 24


 113:src/riscv.cpp ****                 while(!thHandl->status.getFinished()){
 710              		.loc 1 113 17 is_stmt 1
 113:src/riscv.cpp ****                 while(!thHandl->status.getFinished()){
 711              		.loc 1 113 23
 113:src/riscv.cpp ****                 while(!thHandl->status.getFinished()){
 712              		.loc 1 113 24 is_stmt 0
 713 02d8 833784F6 		ld	a5,-152(s0)
 714              	.LVL45:
 715              	.LBB75:
 716              	.LBB76:
 717              		.loc 3 82 29 is_stmt 1
 718              		.loc 3 82 36 is_stmt 0
 719 02dc 83C78702 		lbu	a5,40(a5)
 720              	.LVL46:
 721              	.LBE76:
 722              	.LBE75:
 113:src/riscv.cpp ****                 while(!thHandl->status.getFinished()){
 723              		.loc 1 113 23
 724 02e0 E39407F2 		bnez	a5,.L15
 114:src/riscv.cpp ****                     TCB::dispatch();
 725              		.loc 1 114 21 is_stmt 1
 114:src/riscv.cpp ****                     TCB::dispatch();
 726              		.loc 1 114 34 is_stmt 0
 727 02e4 97000000 		call	_ZN3TCB8dispatchEv@plt
 727      E7800000 
 728              	.LVL47:
 729 02ec 6FF0DFFE 		j	.L37
 730              	.L24:
 117:src/riscv.cpp ****             case THREAD_GETID:
 731              		.loc 1 117 13 is_stmt 1
 118:src/riscv.cpp ****                 thHandl = (thread_t)args[1];
 732              		.loc 1 118 17
 118:src/riscv.cpp ****                 thHandl = (thread_t)args[1];
 733              		.loc 1 118 43 is_stmt 0
 734 02f0 833704FB 		ld	a5,-80(s0)
 118:src/riscv.cpp ****                 thHandl = (thread_t)args[1];
 735              		.loc 1 118 25
 736 02f4 2334F4F6 		sd	a5,-152(s0)
 119:src/riscv.cpp ****                 retVal = thHandl->getID();
 737              		.loc 1 119 17 is_stmt 1
 119:src/riscv.cpp ****                 retVal = thHandl->getID();
 738              		.loc 1 119 40 is_stmt 0
 739 02f8 833784F6 		ld	a5,-152(s0)
 740              	.LVL48:
 741              	.LBB77:
 742              	.LBB78:
  22:src/../h/tcb.hpp ****     void *operator new(size_t size) { return __mem_alloc(size); }
 743              		.loc 3 22 17 is_stmt 1
  22:src/../h/tcb.hpp ****     void *operator new(size_t size) { return __mem_alloc(size); }
 744              		.loc 3 22 24 is_stmt 0
 745 02fc 83A70700 		lw	a5,0(a5)
 746              	.LVL49:
 747              	.LBE78:
 748              	.LBE77:
 119:src/riscv.cpp ****                 retVal = thHandl->getID();
 749              		.loc 1 119 24
 750 0300 233CF4F4 		sd	a5,-168(s0)
GAS LISTING /tmp/ccDL7Chx.s 			page 25


 120:src/riscv.cpp ****                 break;
 751              		.loc 1 120 17 is_stmt 1
 752 0304 6FF05FF0 		j	.L15
 753              	.L32:
 121:src/riscv.cpp ****             case MEM_FREE:
 754              		.loc 1 121 13
 122:src/riscv.cpp ****                     pointerForDealoc = (void*)args[1];
 755              		.loc 1 122 21
 756              	.LVL50:
 123:src/riscv.cpp ****                     retVal=(uint64)__mem_free(pointerForDealoc);
 757              		.loc 1 123 21
 123:src/riscv.cpp ****                     retVal=(uint64)__mem_free(pointerForDealoc);
 758              		.loc 1 123 46 is_stmt 0
 759 0308 033504FB 		ld	a0,-80(s0)
 760 030c 97000000 		call	__mem_free@plt
 760      E7800000 
 761              	.LVL51:
 123:src/riscv.cpp ****                     retVal=(uint64)__mem_free(pointerForDealoc);
 762              		.loc 1 123 27
 763 0314 233CA4F4 		sd	a0,-168(s0)
 124:src/riscv.cpp ****                 break;
 764              		.loc 1 124 17 is_stmt 1
 765 0318 6FF01FEF 		j	.L15
 766              	.LVL52:
 767              	.L33:
 125:src/riscv.cpp ****             case MEM_ALLOC:
 768              		.loc 1 125 13
 126:src/riscv.cpp ****                     size = args[1]*MEM_BLOCK_SIZE;
 769              		.loc 1 126 21
 126:src/riscv.cpp ****                     size = args[1]*MEM_BLOCK_SIZE;
 770              		.loc 1 126 34 is_stmt 0
 771 031c 833704FB 		ld	a5,-80(s0)
 126:src/riscv.cpp ****                     size = args[1]*MEM_BLOCK_SIZE;
 772              		.loc 1 126 35
 773 0320 93976700 		slli	a5,a5,6
 126:src/riscv.cpp ****                     size = args[1]*MEM_BLOCK_SIZE;
 774              		.loc 1 126 26
 775 0324 2338F4F6 		sd	a5,-144(s0)
 127:src/riscv.cpp ****                     retVal = (uint64) __mem_alloc(size);
 776              		.loc 1 127 21 is_stmt 1
 127:src/riscv.cpp ****                     retVal = (uint64) __mem_alloc(size);
 777              		.loc 1 127 50 is_stmt 0
 778 0328 033504F7 		ld	a0,-144(s0)
 779 032c 97000000 		call	__mem_alloc@plt
 779      E7800000 
 780              	.LVL53:
 127:src/riscv.cpp ****                     retVal = (uint64) __mem_alloc(size);
 781              		.loc 1 127 28
 782 0334 233CA4F4 		sd	a0,-168(s0)
 128:src/riscv.cpp ****                 break;
 783              		.loc 1 128 17 is_stmt 1
 784 0338 6FF01FED 		j	.L15
 785              	.L23:
 129:src/riscv.cpp ****             case SEM_OPEN:
 786              		.loc 1 129 13
 130:src/riscv.cpp ****                 handleSem = (sem_t*)args[3];
 787              		.loc 1 130 17
GAS LISTING /tmp/ccDL7Chx.s 			page 26


 130:src/riscv.cpp ****                 handleSem = (sem_t*)args[3];
 788              		.loc 1 130 43 is_stmt 0
 789 033c 833904FC 		ld	s3,-64(s0)
 790              	.LVL54:
 131:src/riscv.cpp ****                 init = (unsigned)args[2];
 791              		.loc 1 131 17 is_stmt 1
 131:src/riscv.cpp ****                 init = (unsigned)args[2];
 792              		.loc 1 131 22 is_stmt 0
 793 0340 032A84FB 		lw	s4,-72(s0)
 794              	.LVL55:
 132:src/riscv.cpp ****                 new _sem(handleSem,init);
 795              		.loc 1 132 17 is_stmt 1
 132:src/riscv.cpp ****                 new _sem(handleSem,init);
 796              		.loc 1 132 40 is_stmt 0
 797 0344 13050001 		li	a0,16
 798 0348 97000000 		call	_ZN4_semnwEm@plt
 798      E7800000 
 799              	.LVL56:
 800              	.LEHE0:
 801 0350 13090500 		mv	s2,a0
 802 0354 13060A00 		mv	a2,s4
 803 0358 93850900 		mv	a1,s3
 804              	.LEHB1:
 805 035c 97000000 		call	_ZN4_semC1EPPS_j@plt
 805      E7800000 
 806              	.LVL57:
 807              	.LEHE1:
 133:src/riscv.cpp ****                 retVal=1;
 808              		.loc 1 133 17 is_stmt 1
 133:src/riscv.cpp ****                 retVal=1;
 809              		.loc 1 133 23 is_stmt 0
 810 0364 93071000 		li	a5,1
 811 0368 233CF4F4 		sd	a5,-168(s0)
 135:src/riscv.cpp ****                 break;
 812              		.loc 1 135 17 is_stmt 1
 813 036c 6FF0DFE9 		j	.L15
 814              	.LVL58:
 815              	.L22:
 136:src/riscv.cpp ****             case SEM_CLOSE:
 816              		.loc 1 136 13
 137:src/riscv.cpp ****                 handleSemSem = (sem_t)args[1];
 817              		.loc 1 137 17
 138:src/riscv.cpp ****                 handleSemSem->close();
 818              		.loc 1 138 17
 138:src/riscv.cpp ****                 handleSemSem->close();
 819              		.loc 1 138 36 is_stmt 0
 820 0370 033504FB 		ld	a0,-80(s0)
 821              	.LEHB2:
 822 0374 97000000 		call	_ZN4_sem5closeEv@plt
 822      E7800000 
 823              	.LVL59:
 139:src/riscv.cpp ****                 retVal=1;
 824              		.loc 1 139 17 is_stmt 1
 139:src/riscv.cpp ****                 retVal=1;
 825              		.loc 1 139 23 is_stmt 0
 826 037c 93071000 		li	a5,1
 827 0380 233CF4F4 		sd	a5,-168(s0)
GAS LISTING /tmp/ccDL7Chx.s 			page 27


 140:src/riscv.cpp ****                 break;
 828              		.loc 1 140 17 is_stmt 1
 829 0384 6FF05FE8 		j	.L15
 830              	.LVL60:
 831              	.L21:
 141:src/riscv.cpp ****             case SEM_WAIT:
 832              		.loc 1 141 13
 142:src/riscv.cpp ****                 id = (sem_t)args[1];
 833              		.loc 1 142 17
 142:src/riscv.cpp ****                 id = (sem_t)args[1];
 834              		.loc 1 142 35 is_stmt 0
 835 0388 833704FB 		ld	a5,-80(s0)
 142:src/riscv.cpp ****                 id = (sem_t)args[1];
 836              		.loc 1 142 20
 837 038c 2330F4F6 		sd	a5,-160(s0)
 143:src/riscv.cpp ****                 retVal=id->wait();
 838              		.loc 1 143 17 is_stmt 1
 143:src/riscv.cpp ****                 retVal=id->wait();
 839              		.loc 1 143 32 is_stmt 0
 840 0390 033504F6 		ld	a0,-160(s0)
 841 0394 97000000 		call	_ZN4_sem4waitEv@plt
 841      E7800000 
 842              	.LVL61:
 143:src/riscv.cpp ****                 retVal=id->wait();
 843              		.loc 1 143 23
 844 039c 233CA4F4 		sd	a0,-168(s0)
 145:src/riscv.cpp ****                 break;
 845              		.loc 1 145 17 is_stmt 1
 846 03a0 6FF09FE6 		j	.L15
 847              	.L20:
 146:src/riscv.cpp ****             case SEM_SIGNAL:
 848              		.loc 1 146 13
 147:src/riscv.cpp ****                 id = (sem_t)args[1];
 849              		.loc 1 147 17
 147:src/riscv.cpp ****                 id = (sem_t)args[1];
 850              		.loc 1 147 35 is_stmt 0
 851 03a4 833704FB 		ld	a5,-80(s0)
 147:src/riscv.cpp ****                 id = (sem_t)args[1];
 852              		.loc 1 147 20
 853 03a8 2330F4F6 		sd	a5,-160(s0)
 148:src/riscv.cpp ****                 retVal=id->signal();
 854              		.loc 1 148 17 is_stmt 1
 148:src/riscv.cpp ****                 retVal=id->signal();
 855              		.loc 1 148 34 is_stmt 0
 856 03ac 033504F6 		ld	a0,-160(s0)
 857 03b0 97000000 		call	_ZN4_sem6signalEv@plt
 857      E7800000 
 858              	.LVL62:
 148:src/riscv.cpp ****                 retVal=id->signal();
 859              		.loc 1 148 23
 860 03b8 233CA4F4 		sd	a0,-168(s0)
 149:src/riscv.cpp ****                 break;
 861              		.loc 1 149 17 is_stmt 1
 862 03bc 6FF0DFE4 		j	.L15
 863              	.L16:
 150:src/riscv.cpp ****             case PUTC:
 864              		.loc 1 150 13
GAS LISTING /tmp/ccDL7Chx.s 			page 28


 151:src/riscv.cpp ****                  c = (char)args[1];
 865              		.loc 1 151 18
 866              	.LVL63:
 152:src/riscv.cpp ****                 StruLisBuf::bufferOut->sys_put(c);
 867              		.loc 1 152 17
 152:src/riscv.cpp ****                 StruLisBuf::bufferOut->sys_put(c);
 868              		.loc 1 152 47 is_stmt 0
 869 03c0 834504FB 		lbu	a1,-80(s0)
 870 03c4 97070000 		la	a5,_ZN10StruLisBuf9bufferOutE
 870      83B70700 
 871 03cc 03B50700 		ld	a0,0(a5)
 872 03d0 97000000 		call	_ZN7_Buffer7sys_putEc@plt
 872      E7800000 
 873              	.LVL64:
 874 03d8 6FF01FE3 		j	.L15
 875              	.LVL65:
 876              	.L18:
 154:src/riscv.cpp ****             case GETC:
 877              		.loc 1 154 13 is_stmt 1
 155:src/riscv.cpp ****                retchar = StruLisBuf::bufferIn->sys_get();
 878              		.loc 1 155 16
 155:src/riscv.cpp ****                retchar = StruLisBuf::bufferIn->sys_get();
 879              		.loc 1 155 55 is_stmt 0
 880 03dc 97070000 		la	a5,_ZN10StruLisBuf8bufferInE
 880      83B70700 
 881 03e4 03B50700 		ld	a0,0(a5)
 882 03e8 97000000 		call	_ZN7_Buffer7sys_getEv@plt
 882      E7800000 
 883              	.LVL66:
 156:src/riscv.cpp ****                 retVal=(uint64)retchar;
 884              		.loc 1 156 17 is_stmt 1
 156:src/riscv.cpp ****                 retVal=(uint64)retchar;
 885              		.loc 1 156 23 is_stmt 0
 886 03f0 233CA4F4 		sd	a0,-168(s0)
 158:src/riscv.cpp ****                 break;
 887              		.loc 1 158 17 is_stmt 1
 888 03f4 6FF05FE1 		j	.L15
 889              	.LVL67:
 890              	.L19:
 159:src/riscv.cpp ****             case TIME_SLEEP:
 891              		.loc 1 159 13
 160:src/riscv.cpp ****                 time = (time_t)args[1];
 892              		.loc 1 160 17
 161:src/riscv.cpp ****                     retVal = TCB::sleep(time);
 893              		.loc 1 161 21
 161:src/riscv.cpp ****                     retVal = TCB::sleep(time);
 894              		.loc 1 161 40 is_stmt 0
 895 03f8 033504FB 		ld	a0,-80(s0)
 896 03fc 97000000 		call	_ZN3TCB5sleepEm@plt
 896      E7800000 
 897              	.LVL68:
 161:src/riscv.cpp ****                     retVal = TCB::sleep(time);
 898              		.loc 1 161 28
 899 0404 233CA4F4 		sd	a0,-168(s0)
 162:src/riscv.cpp ****                 break;
 900              		.loc 1 162 17 is_stmt 1
 901 0408 6FF01FE0 		j	.L15
GAS LISTING /tmp/ccDL7Chx.s 			page 29


 902              	.LVL69:
 903              	.L14:
 904              	.LBE80:
 905              	.LBB81:
 169:src/riscv.cpp ****         uint64 sepc = r_sepc();
 906              		.loc 1 169 9
 907              	.LBB82:
 908              	.LBB83:
 116:src/../h/riscv.hpp ****     __asm__ volatile ("csrr %[sepc], sepc" : [sepc] "=r"(sepc));
 909              		.loc 2 116 5
 117:src/../h/riscv.hpp ****     return sepc;
 910              		.loc 2 117 5
 117:src/../h/riscv.hpp ****     return sepc;
 911              		.loc 2 117 64 is_stmt 0
 912              	#APP
 913              	# 117 "src/../h/riscv.hpp" 1
 914              		csrr a5, sepc
 915              	# 0 "" 2
 916              	#NO_APP
 917 0410 2330F4FA 		sd	a5,-96(s0)
 118:src/../h/riscv.hpp **** }
 918              		.loc 2 118 5 is_stmt 1
 118:src/../h/riscv.hpp **** }
 919              		.loc 2 118 12 is_stmt 0
 920 0414 033A04FA 		ld	s4,-96(s0)
 921              	.LVL70:
 922              	.LBE83:
 923              	.LBE82:
 170:src/riscv.cpp ****         uint64 stval = r_stval();
 924              		.loc 1 170 9 is_stmt 1
 925              	.LBB84:
 926              	.LBB85:
 140:src/../h/riscv.hpp ****     __asm__ volatile ("csrr %[stval], stval" : [stval] "=r"(stval));
 927              		.loc 2 140 5
 141:src/../h/riscv.hpp ****     return stval;
 928              		.loc 2 141 5
 141:src/../h/riscv.hpp ****     return stval;
 929              		.loc 2 141 68 is_stmt 0
 930              	#APP
 931              	# 141 "src/../h/riscv.hpp" 1
 932              		csrr a5, stval
 933              	# 0 "" 2
 934              	#NO_APP
 935 041c 233CF4F8 		sd	a5,-104(s0)
 142:src/../h/riscv.hpp **** }
 936              		.loc 2 142 5 is_stmt 1
 142:src/../h/riscv.hpp **** }
 937              		.loc 2 142 12 is_stmt 0
 938 0420 833984F9 		ld	s3,-104(s0)
 939              	.LVL71:
 940              	.LBE85:
 941              	.LBE84:
 171:src/riscv.cpp ****         uint64  sstatus = r_sstatus();
 942              		.loc 1 171 9 is_stmt 1
 943              	.LBB86:
 944              	.LBB87:
 184:src/../h/riscv.hpp ****     __asm__ volatile ("csrr %[sstatus], sstatus" : [sstatus] "=r"(sstatus));
GAS LISTING /tmp/ccDL7Chx.s 			page 30


 945              		.loc 2 184 5
 185:src/../h/riscv.hpp ****     return sstatus;
 946              		.loc 2 185 5
 185:src/../h/riscv.hpp ****     return sstatus;
 947              		.loc 2 185 76 is_stmt 0
 948              	#APP
 949              	# 185 "src/../h/riscv.hpp" 1
 950              		csrr a5, sstatus
 951              	# 0 "" 2
 952              	#NO_APP
 953 0428 2338F4F8 		sd	a5,-112(s0)
 186:src/../h/riscv.hpp **** }
 954              		.loc 2 186 5 is_stmt 1
 186:src/../h/riscv.hpp **** }
 955              		.loc 2 186 12 is_stmt 0
 956 042c 033904F9 		ld	s2,-112(s0)
 957              	.LVL72:
 958              	.LBE87:
 959              	.LBE86:
 172:src/riscv.cpp ****         printString("scause code: ");
 960              		.loc 1 172 9 is_stmt 1
 172:src/riscv.cpp ****         printString("scause code: ");
 961              		.loc 1 172 20 is_stmt 0
 962 0430 17050000 		lla	a0,.LC0
 962      13050500 
 963 0438 97000000 		call	_Z11printStringPKc@plt
 963      E7800000 
 964              	.LVL73:
 173:src/riscv.cpp ****         printInt(scause);
 965              		.loc 1 173 9 is_stmt 1
 173:src/riscv.cpp ****         printInt(scause);
 966              		.loc 1 173 17 is_stmt 0
 967 0440 13060000 		li	a2,0
 968 0444 9305A000 		li	a1,10
 969 0448 1B850400 		sext.w	a0,s1
 970 044c 97000000 		call	_Z8printIntiii@plt
 970      E7800000 
 971              	.LVL74:
 174:src/riscv.cpp ****         printString("\n");
 972              		.loc 1 174 9 is_stmt 1
 174:src/riscv.cpp ****         printString("\n");
 973              		.loc 1 174 20 is_stmt 0
 974 0454 17050000 		lla	a0,.LC1
 974      13050500 
 975 045c 97000000 		call	_Z11printStringPKc@plt
 975      E7800000 
 976              	.LVL75:
 176:src/riscv.cpp ****         printString("sepc code: ");
 977              		.loc 1 176 9 is_stmt 1
 176:src/riscv.cpp ****         printString("sepc code: ");
 978              		.loc 1 176 20 is_stmt 0
 979 0464 17050000 		lla	a0,.LC2
 979      13050500 
 980 046c 97000000 		call	_Z11printStringPKc@plt
 980      E7800000 
 981              	.LVL76:
 177:src/riscv.cpp ****         printInt(sepc);
GAS LISTING /tmp/ccDL7Chx.s 			page 31


 982              		.loc 1 177 9 is_stmt 1
 177:src/riscv.cpp ****         printInt(sepc);
 983              		.loc 1 177 17 is_stmt 0
 984 0474 13060000 		li	a2,0
 985 0478 9305A000 		li	a1,10
 986 047c 1B050A00 		sext.w	a0,s4
 987 0480 97000000 		call	_Z8printIntiii@plt
 987      E7800000 
 988              	.LVL77:
 178:src/riscv.cpp ****         printString("\n");
 989              		.loc 1 178 9 is_stmt 1
 178:src/riscv.cpp ****         printString("\n");
 990              		.loc 1 178 20 is_stmt 0
 991 0488 17050000 		lla	a0,.LC1
 991      13050500 
 992 0490 97000000 		call	_Z11printStringPKc@plt
 992      E7800000 
 993              	.LVL78:
 181:src/riscv.cpp ****         printString("stval code: ");
 994              		.loc 1 181 9 is_stmt 1
 181:src/riscv.cpp ****         printString("stval code: ");
 995              		.loc 1 181 20 is_stmt 0
 996 0498 17050000 		lla	a0,.LC3
 996      13050500 
 997 04a0 97000000 		call	_Z11printStringPKc@plt
 997      E7800000 
 998              	.LVL79:
 182:src/riscv.cpp ****         printInt(stval);
 999              		.loc 1 182 9 is_stmt 1
 182:src/riscv.cpp ****         printInt(stval);
 1000              		.loc 1 182 17 is_stmt 0
 1001 04a8 13060000 		li	a2,0
 1002 04ac 9305A000 		li	a1,10
 1003 04b0 1B850900 		sext.w	a0,s3
 1004 04b4 97000000 		call	_Z8printIntiii@plt
 1004      E7800000 
 1005              	.LVL80:
 183:src/riscv.cpp ****         printString("\n");
 1006              		.loc 1 183 9 is_stmt 1
 183:src/riscv.cpp ****         printString("\n");
 1007              		.loc 1 183 20 is_stmt 0
 1008 04bc 17050000 		lla	a0,.LC1
 1008      13050500 
 1009 04c4 97000000 		call	_Z11printStringPKc@plt
 1009      E7800000 
 1010              	.LVL81:
 185:src/riscv.cpp ****         printString("sstatus code: ");
 1011              		.loc 1 185 9 is_stmt 1
 185:src/riscv.cpp ****         printString("sstatus code: ");
 1012              		.loc 1 185 20 is_stmt 0
 1013 04cc 17050000 		lla	a0,.LC4
 1013      13050500 
 1014 04d4 97000000 		call	_Z11printStringPKc@plt
 1014      E7800000 
 1015              	.LVL82:
 186:src/riscv.cpp ****         printInt(sstatus);
 1016              		.loc 1 186 9 is_stmt 1
GAS LISTING /tmp/ccDL7Chx.s 			page 32


 186:src/riscv.cpp ****         printInt(sstatus);
 1017              		.loc 1 186 17 is_stmt 0
 1018 04dc 13060000 		li	a2,0
 1019 04e0 9305A000 		li	a1,10
 1020 04e4 1B050900 		sext.w	a0,s2
 1021 04e8 97000000 		call	_Z8printIntiii@plt
 1021      E7800000 
 1022              	.LVL83:
 187:src/riscv.cpp ****         printString("\n");
 1023              		.loc 1 187 9 is_stmt 1
 187:src/riscv.cpp ****         printString("\n");
 1024              		.loc 1 187 20 is_stmt 0
 1025 04f0 17050000 		lla	a0,.LC1
 1025      13050500 
 1026 04f8 97000000 		call	_Z11printStringPKc@plt
 1026      E7800000 
 1027              	.LVL84:
 1028              	.LEHE2:
 1029              	.LBE81:
 1030              	.LBE95:
 1031              	.LBE109:
 1032              	.LBE113:
 1033              		.loc 1 194 1
 1034 0500 6FF05FD1 		j	.L7
 1035              	.LVL85:
 1036              	.L39:
 1037 0504 93040500 		mv	s1,a0
 1038              	.LVL86:
 1039              	.LBB114:
 1040              	.LBB110:
 1041              	.LBB96:
 1042              	.LBB88:
 132:src/riscv.cpp ****                 new _sem(handleSem,init);
 1043              		.loc 1 132 40
 1044 0508 13050900 		mv	a0,s2
 1045 050c 97000000 		call	_ZN4_semdlEPv@plt
 1045      E7800000 
 1046              	.LVL87:
 1047 0514 13850400 		mv	a0,s1
 1048              	.LEHB3:
 1049 0518 97000000 		call	_Unwind_Resume@plt
 1049      E7800000 
 1050              	.LVL88:
 1051              	.LEHE3:
 1052              	.LBE88:
 1053              	.LBE96:
 1054              	.LBE110:
 1055              	.LBE114:
 1056              		.cfi_endproc
 1057              	.LFE113:
 1058              		.globl	__gxx_personality_v0
 1059              		.section	.gcc_except_table,"a",@progbits
 1060              	.LLSDA113:
 1061 0000 FF       		.byte	0xff
 1062 0001 FF       		.byte	0xff
 1063 0002 03       		.byte	0x3
 1064 0003 34       		.byte	0x34
GAS LISTING /tmp/ccDL7Chx.s 			page 33


 1065 0004 00000000 		.4byte	.LEHB0-.LFB113
 1066 0008 00000000 		.4byte	.LEHE0-.LEHB0
 1067 000c 00000000 		.4byte	0
 1068 0010 00       		.byte	0
 1069 0011 00000000 		.4byte	.LEHB1-.LFB113
 1070 0015 00000000 		.4byte	.LEHE1-.LEHB1
 1071 0019 00000000 		.4byte	.L39-.LFB113
 1072 001d 00       		.byte	0
 1073 001e 00000000 		.4byte	.LEHB2-.LFB113
 1074 0022 00000000 		.4byte	.LEHE2-.LEHB2
 1075 0026 00000000 		.4byte	0
 1076 002a 00       		.byte	0
 1077 002b 00000000 		.4byte	.LEHB3-.LFB113
 1078 002f 00000000 		.4byte	.LEHE3-.LEHB3
 1079 0033 00000000 		.4byte	0
 1080 0037 00       		.byte	0
 1081              		.text
 1083              	.Letext0:
 1084              		.file 4 "src/../h/../lib/hw.h"
 1085              		.file 5 "src/../h/syscall_c.hpp"
 1086              		.file 6 "src/../h/_sem.hpp"
 1087              		.file 7 "src/../h/MyWaitList.hpp"
 1088              		.file 8 "src/../h/Buffer.hpp"
 1089              		.file 9 "src/../h/TimeList.hpp"
 1090              		.file 10 "src/../h/list.hpp"
 1091              		.file 11 "src/../h/globals.hpp"
 1092              		.file 12 "src/../h/../lib/mem.h"
 1093              		.file 13 "src/../test/printing.hpp"
 6770              		.align	3
 6773              	DW.ref.__gxx_personality_v0:
 6774 0000 00000000 		.dword	__gxx_personality_v0
 6774      00000000 
 6775              		.ident	"GCC: (Ubuntu 9.4.0-1ubuntu1~20.04) 9.4.0"
 6776              		.section	.note.GNU-stack,"",@progbits
GAS LISTING /tmp/ccDL7Chx.s 			page 34


DEFINED SYMBOLS
                            *ABS*:0000000000000000 riscv.cpp
     /tmp/ccDL7Chx.s:9      .text:0000000000000000 _ZN5Riscv10popSppSpieEv
     /tmp/ccDL7Chx.s:13     .text:0000000000000000 .L0 
     /tmp/ccDL7Chx.s:14     .text:0000000000000000 .L0 
     /tmp/ccDL7Chx.s:15     .text:0000000000000004 .L0 
     /tmp/ccDL7Chx.s:17     .text:0000000000000008 .L0 
     /tmp/ccDL7Chx.s:19     .text:000000000000000c .L0 
     /tmp/ccDL7Chx.s:25     .text:000000000000000c .L0 
     /tmp/ccDL7Chx.s:26     .text:000000000000000c .L0 
     /tmp/ccDL7Chx.s:27     .text:000000000000000c .L0 
     /tmp/ccDL7Chx.s:37     .text:0000000000000014 .L0 
       src/riscv.cpp:15     .text:0000000000000014 .L0 
     /tmp/ccDL7Chx.s:43     .text:0000000000000018 .L0 
       src/riscv.cpp:16     .text:0000000000000018 .L0 
     /tmp/ccDL7Chx.s:49     .text:000000000000001c .L0 
     /tmp/ccDL7Chx.s:50     .text:0000000000000020 .L0 
     /tmp/ccDL7Chx.s:51     .text:0000000000000020 .L0 
     /tmp/ccDL7Chx.s:53     .text:0000000000000024 .L0 
     /tmp/ccDL7Chx.s:55     .text:0000000000000028 .L0 
     /tmp/ccDL7Chx.s:61     .text:0000000000000028 _ZN5Riscv9Rest_PrivEb
     /tmp/ccDL7Chx.s:64     .text:0000000000000028 .L0 
     /tmp/ccDL7Chx.s:66     .text:0000000000000028 .L0 
     /tmp/ccDL7Chx.s:67     .text:000000000000002c .L0 
     /tmp/ccDL7Chx.s:69     .text:0000000000000030 .L0 
     /tmp/ccDL7Chx.s:71     .text:0000000000000034 .L0 
     /tmp/ccDL7Chx.s:73     .text:0000000000000034 .L0 
     /tmp/ccDL7Chx.s:78     .text:0000000000000038 .L0 
     /tmp/ccDL7Chx.s:79     .text:0000000000000038 .L0 
     /tmp/ccDL7Chx.s:80     .text:0000000000000038 .L0 
     /tmp/ccDL7Chx.s:91     .text:0000000000000040 .L0 
     /tmp/ccDL7Chx.s:92     .text:0000000000000044 .L0 
     /tmp/ccDL7Chx.s:93     .text:0000000000000044 .L0 
     /tmp/ccDL7Chx.s:94     .text:0000000000000044 .L0 
     /tmp/ccDL7Chx.s:96     .text:0000000000000048 .L0 
     /tmp/ccDL7Chx.s:99     .text:000000000000004c .L0 
     /tmp/ccDL7Chx.s:104    .text:000000000000004c .L0 
     /tmp/ccDL7Chx.s:105    .text:000000000000004c .L0 
     /tmp/ccDL7Chx.s:106    .text:000000000000004c .L0 
     /tmp/ccDL7Chx.s:116    .text:0000000000000054 .L0 
     /tmp/ccDL7Chx.s:117    .text:0000000000000058 .L0 
     /tmp/ccDL7Chx.s:140    .text:0000000000000058 _ZN5Riscv20handleSupervisorTrapEv
     /tmp/ccDL7Chx.s:143    .text:0000000000000058 .L0 
     /tmp/ccDL7Chx.s:6773   .data.rel.local.DW.ref.__gxx_personality_v0:0000000000000000 DW.ref.__gxx_personality_v0
     /tmp/ccDL7Chx.s:146    .text:0000000000000058 .L0 
     /tmp/ccDL7Chx.s:147    .text:000000000000005c .L0 
     /tmp/ccDL7Chx.s:154    .text:0000000000000074 .L0 
     /tmp/ccDL7Chx.s:155    .text:0000000000000074 .L0 
     /tmp/ccDL7Chx.s:156    .text:0000000000000074 .L0 
     /tmp/ccDL7Chx.s:157    .text:0000000000000074 .L0 
     /tmp/ccDL7Chx.s:158    .text:0000000000000074 .L0 
     /tmp/ccDL7Chx.s:159    .text:0000000000000074 .L0 
     /tmp/ccDL7Chx.s:161    .text:0000000000000078 .L0 
     /tmp/ccDL7Chx.s:163    .text:0000000000000078 .L0 
     /tmp/ccDL7Chx.s:164    .text:0000000000000078 .L0 
       src/riscv.cpp:29     .text:0000000000000078 .L0 
     /tmp/ccDL7Chx.s:172    .text:0000000000000080 .L0 
GAS LISTING /tmp/ccDL7Chx.s 			page 35


       src/riscv.cpp:30     .text:0000000000000080 .L0 
     /tmp/ccDL7Chx.s:180    .text:0000000000000088 .L0 
       src/riscv.cpp:31     .text:0000000000000088 .L0 
     /tmp/ccDL7Chx.s:188    .text:0000000000000090 .L0 
       src/riscv.cpp:32     .text:0000000000000090 .L0 
     /tmp/ccDL7Chx.s:196    .text:0000000000000098 .L0 
       src/riscv.cpp:33     .text:0000000000000098 .L0 
     /tmp/ccDL7Chx.s:206    .text:00000000000000a0 .L0 
     /tmp/ccDL7Chx.s:207    .text:00000000000000a0 .L0 
     /tmp/ccDL7Chx.s:208    .text:00000000000000a0 .L0 
  src/../h/riscv.hpp:105    .text:00000000000000a0 .L0 
     /tmp/ccDL7Chx.s:216    .text:00000000000000a8 .L0 
     /tmp/ccDL7Chx.s:217    .text:00000000000000a8 .L0 
     /tmp/ccDL7Chx.s:223    .text:00000000000000ac .L0 
     /tmp/ccDL7Chx.s:231    .text:00000000000000bc .L0 
     /tmp/ccDL7Chx.s:241    .text:00000000000000cc .L0 
     /tmp/ccDL7Chx.s:242    .text:00000000000000cc .L0 
     /tmp/ccDL7Chx.s:244    .text:00000000000000d0 .L0 
     /tmp/ccDL7Chx.s:250    .text:00000000000000d8 .L0 
     /tmp/ccDL7Chx.s:251    .text:00000000000000d8 .L0 
     /tmp/ccDL7Chx.s:252    .text:00000000000000d8 .L0 
  src/../h/riscv.hpp:117    .text:00000000000000d8 .L0 
     /tmp/ccDL7Chx.s:260    .text:00000000000000e0 .L0 
     /tmp/ccDL7Chx.s:261    .text:00000000000000e0 .L0 
     /tmp/ccDL7Chx.s:266    .text:00000000000000e4 .L0 
     /tmp/ccDL7Chx.s:269    .text:00000000000000e8 .L0 
     /tmp/ccDL7Chx.s:270    .text:00000000000000e8 .L0 
     /tmp/ccDL7Chx.s:272    .text:00000000000000ec .L0 
     /tmp/ccDL7Chx.s:273    .text:00000000000000ec .L0 
     /tmp/ccDL7Chx.s:274    .text:00000000000000ec .L0 
     /tmp/ccDL7Chx.s:275    .text:00000000000000ec .L0 
     /tmp/ccDL7Chx.s:276    .text:00000000000000ec .L0 
     /tmp/ccDL7Chx.s:277    .text:00000000000000ec .L0 
     /tmp/ccDL7Chx.s:278    .text:00000000000000ec .L0 
     /tmp/ccDL7Chx.s:279    .text:00000000000000ec .L0 
     /tmp/ccDL7Chx.s:280    .text:00000000000000ec .L0 
     /tmp/ccDL7Chx.s:281    .text:00000000000000ec .L0 
     /tmp/ccDL7Chx.s:282    .text:00000000000000ec .L0 
     /tmp/ccDL7Chx.s:283    .text:00000000000000ec .L0 
     /tmp/ccDL7Chx.s:284    .text:00000000000000ec .L0 
     /tmp/ccDL7Chx.s:372    .text:0000000000000114 .L0 
     /tmp/ccDL7Chx.s:373    .text:0000000000000114 .L0 
     /tmp/ccDL7Chx.s:379    .text:0000000000000128 .L0 
     /tmp/ccDL7Chx.s:380    .text:0000000000000128 .L0 
     /tmp/ccDL7Chx.s:387    .text:000000000000013c .L0 
     /tmp/ccDL7Chx.s:388    .text:000000000000013c .L0 
     /tmp/ccDL7Chx.s:392    .text:000000000000014c .L0 
     /tmp/ccDL7Chx.s:394    .text:0000000000000150 .L0 
     /tmp/ccDL7Chx.s:401    .text:0000000000000154 .L0 
     /tmp/ccDL7Chx.s:402    .text:0000000000000154 .L0 
     /tmp/ccDL7Chx.s:403    .text:0000000000000154 .L0 
     /tmp/ccDL7Chx.s:410    .text:000000000000015c .L0 
     /tmp/ccDL7Chx.s:420    .text:0000000000000160 .L0 
     /tmp/ccDL7Chx.s:421    .text:0000000000000160 .L0 
     /tmp/ccDL7Chx.s:422    .text:0000000000000160 .L0 
  src/../h/riscv.hpp:117    .text:0000000000000160 .L0 
     /tmp/ccDL7Chx.s:430    .text:0000000000000168 .L0 
GAS LISTING /tmp/ccDL7Chx.s 			page 36


     /tmp/ccDL7Chx.s:431    .text:0000000000000168 .L0 
     /tmp/ccDL7Chx.s:436    .text:000000000000016c .L0 
     /tmp/ccDL7Chx.s:437    .text:000000000000016c .L0 
     /tmp/ccDL7Chx.s:440    .text:0000000000000178 .L0 
     /tmp/ccDL7Chx.s:441    .text:0000000000000178 .L0 
     /tmp/ccDL7Chx.s:446    .text:0000000000000180 .L0 
     /tmp/ccDL7Chx.s:447    .text:0000000000000180 .L0 
  src/../h/riscv.hpp:123    .text:0000000000000180 .L0 
     /tmp/ccDL7Chx.s:454    .text:0000000000000184 .L0 
     /tmp/ccDL7Chx.s:465    .text:0000000000000188 .L0 
     /tmp/ccDL7Chx.s:466    .text:0000000000000188 .L0 
     /tmp/ccDL7Chx.s:472    .text:0000000000000194 .L0 
     /tmp/ccDL7Chx.s:478    .text:000000000000019c .L0 
     /tmp/ccDL7Chx.s:479    .text:000000000000019c .L0 
     /tmp/ccDL7Chx.s:487    .text:00000000000001ac .L0 
     /tmp/ccDL7Chx.s:488    .text:00000000000001ac .L0 
     /tmp/ccDL7Chx.s:489    .text:00000000000001ac .L0 
     /tmp/ccDL7Chx.s:493    .text:00000000000001bc .L0 
     /tmp/ccDL7Chx.s:497    .text:00000000000001c4 .L0 
     /tmp/ccDL7Chx.s:498    .text:00000000000001c4 .L0 
     /tmp/ccDL7Chx.s:502    .text:00000000000001d0 .L0 
     /tmp/ccDL7Chx.s:503    .text:00000000000001d0 .L0 
     /tmp/ccDL7Chx.s:519    .text:00000000000001ec .L0 
     /tmp/ccDL7Chx.s:520    .text:00000000000001ec .L0 
     /tmp/ccDL7Chx.s:521    .text:00000000000001ec .L0 
     /tmp/ccDL7Chx.s:524    .text:00000000000001f0 .L0 
     /tmp/ccDL7Chx.s:525    .text:00000000000001f0 .L0 
     /tmp/ccDL7Chx.s:531    .text:0000000000000204 .L0 
     /tmp/ccDL7Chx.s:535    .text:0000000000000208 .L0 
     /tmp/ccDL7Chx.s:536    .text:0000000000000208 .L0 
     /tmp/ccDL7Chx.s:537    .text:0000000000000208 .L0 
     /tmp/ccDL7Chx.s:542    .text:000000000000020c .L0 
  src/../h/riscv.hpp:195    .text:000000000000020c .L0 
     /tmp/ccDL7Chx.s:554    .text:0000000000000210 .L0 
     /tmp/ccDL7Chx.s:555    .text:0000000000000210 .L0 
  src/../h/riscv.hpp:123    .text:0000000000000210 .L0 
     /tmp/ccDL7Chx.s:570    .text:0000000000000214 .L0 
     /tmp/ccDL7Chx.s:571    .text:0000000000000218 .L0 
     /tmp/ccDL7Chx.s:572    .text:0000000000000218 .L0 
     /tmp/ccDL7Chx.s:574    .text:000000000000021c .L0 
     /tmp/ccDL7Chx.s:575    .text:000000000000021c .L0 
     /tmp/ccDL7Chx.s:577    .text:0000000000000220 .L0 
     /tmp/ccDL7Chx.s:579    .text:0000000000000224 .L0 
     /tmp/ccDL7Chx.s:581    .text:0000000000000228 .L0 
     /tmp/ccDL7Chx.s:583    .text:000000000000022c .L0 
     /tmp/ccDL7Chx.s:585    .text:0000000000000230 .L0 
     /tmp/ccDL7Chx.s:589    .text:0000000000000234 .L0 
     /tmp/ccDL7Chx.s:595    .text:0000000000000234 .L0 
     /tmp/ccDL7Chx.s:596    .text:0000000000000234 .L0 
     /tmp/ccDL7Chx.s:597    .text:0000000000000234 .L0 
     /tmp/ccDL7Chx.s:600    .text:0000000000000238 .L0 
     /tmp/ccDL7Chx.s:601    .text:0000000000000238 .L0 
     /tmp/ccDL7Chx.s:607    .text:000000000000024c .L0 
     /tmp/ccDL7Chx.s:609    .text:0000000000000250 .L0 
     /tmp/ccDL7Chx.s:613    .text:0000000000000254 .L0 
     /tmp/ccDL7Chx.s:614    .text:0000000000000254 .L0 
     /tmp/ccDL7Chx.s:615    .text:0000000000000254 .L0 
GAS LISTING /tmp/ccDL7Chx.s 			page 37


     /tmp/ccDL7Chx.s:617    .text:0000000000000258 .L0 
     /tmp/ccDL7Chx.s:619    .text:000000000000025c .L0 
     /tmp/ccDL7Chx.s:620    .text:000000000000025c .L0 
     /tmp/ccDL7Chx.s:624    .text:0000000000000268 .L0 
     /tmp/ccDL7Chx.s:626    .text:000000000000026c .L0 
     /tmp/ccDL7Chx.s:629    .text:0000000000000270 .L0 
     /tmp/ccDL7Chx.s:630    .text:0000000000000270 .L0 
     /tmp/ccDL7Chx.s:631    .text:0000000000000270 .L0 
     /tmp/ccDL7Chx.s:634    .text:0000000000000278 .L0 
     /tmp/ccDL7Chx.s:636    .text:000000000000027c .L0 
     /tmp/ccDL7Chx.s:639    .text:0000000000000280 .L0 
     /tmp/ccDL7Chx.s:640    .text:0000000000000280 .L0 
     /tmp/ccDL7Chx.s:641    .text:0000000000000280 .L0 
     /tmp/ccDL7Chx.s:646    .text:000000000000028c .L0 
     /tmp/ccDL7Chx.s:647    .text:000000000000028c .L0 
     /tmp/ccDL7Chx.s:648    .text:000000000000028c .L0 
     /tmp/ccDL7Chx.s:650    .text:0000000000000290 .L0 
     /tmp/ccDL7Chx.s:653    .text:0000000000000294 .L0 
     /tmp/ccDL7Chx.s:654    .text:0000000000000294 .L0 
     /tmp/ccDL7Chx.s:655    .text:0000000000000294 .L0 
     /tmp/ccDL7Chx.s:661    .text:0000000000000298 .L0 
     /tmp/ccDL7Chx.s:662    .text:0000000000000298 .L0 
     /tmp/ccDL7Chx.s:667    .text:000000000000029c .L0 
     /tmp/ccDL7Chx.s:669    .text:00000000000002a0 .L0 
     /tmp/ccDL7Chx.s:670    .text:00000000000002a0 .L0 
     /tmp/ccDL7Chx.s:675    .text:00000000000002ac .L0 
     /tmp/ccDL7Chx.s:676    .text:00000000000002ac .L0 
     /tmp/ccDL7Chx.s:678    .text:00000000000002b0 .L0 
     /tmp/ccDL7Chx.s:683    .text:00000000000002b4 .L0 
     /tmp/ccDL7Chx.s:684    .text:00000000000002b4 .L0 
     /tmp/ccDL7Chx.s:686    .text:00000000000002b8 .L0 
     /tmp/ccDL7Chx.s:688    .text:00000000000002bc .L0 
     /tmp/ccDL7Chx.s:696    .text:00000000000002c4 .L0 
     /tmp/ccDL7Chx.s:697    .text:00000000000002c4 .L0 
     /tmp/ccDL7Chx.s:704    .text:00000000000002d0 .L0 
     /tmp/ccDL7Chx.s:705    .text:00000000000002d0 .L0 
     /tmp/ccDL7Chx.s:706    .text:00000000000002d0 .L0 
     /tmp/ccDL7Chx.s:708    .text:00000000000002d4 .L0 
     /tmp/ccDL7Chx.s:711    .text:00000000000002d8 .L0 
     /tmp/ccDL7Chx.s:712    .text:00000000000002d8 .L0 
     /tmp/ccDL7Chx.s:713    .text:00000000000002d8 .L0 
     /tmp/ccDL7Chx.s:718    .text:00000000000002dc .L0 
     /tmp/ccDL7Chx.s:719    .text:00000000000002dc .L0 
     /tmp/ccDL7Chx.s:724    .text:00000000000002e0 .L0 
     /tmp/ccDL7Chx.s:726    .text:00000000000002e4 .L0 
     /tmp/ccDL7Chx.s:727    .text:00000000000002e4 .L0 
     /tmp/ccDL7Chx.s:732    .text:00000000000002f0 .L0 
     /tmp/ccDL7Chx.s:733    .text:00000000000002f0 .L0 
     /tmp/ccDL7Chx.s:734    .text:00000000000002f0 .L0 
     /tmp/ccDL7Chx.s:736    .text:00000000000002f4 .L0 
     /tmp/ccDL7Chx.s:738    .text:00000000000002f8 .L0 
     /tmp/ccDL7Chx.s:739    .text:00000000000002f8 .L0 
     /tmp/ccDL7Chx.s:744    .text:00000000000002fc .L0 
     /tmp/ccDL7Chx.s:745    .text:00000000000002fc .L0 
     /tmp/ccDL7Chx.s:750    .text:0000000000000300 .L0 
     /tmp/ccDL7Chx.s:752    .text:0000000000000304 .L0 
     /tmp/ccDL7Chx.s:755    .text:0000000000000308 .L0 
GAS LISTING /tmp/ccDL7Chx.s 			page 38


     /tmp/ccDL7Chx.s:757    .text:0000000000000308 .L0 
     /tmp/ccDL7Chx.s:758    .text:0000000000000308 .L0 
     /tmp/ccDL7Chx.s:759    .text:0000000000000308 .L0 
     /tmp/ccDL7Chx.s:763    .text:0000000000000314 .L0 
     /tmp/ccDL7Chx.s:765    .text:0000000000000318 .L0 
     /tmp/ccDL7Chx.s:769    .text:000000000000031c .L0 
     /tmp/ccDL7Chx.s:770    .text:000000000000031c .L0 
     /tmp/ccDL7Chx.s:771    .text:000000000000031c .L0 
     /tmp/ccDL7Chx.s:773    .text:0000000000000320 .L0 
     /tmp/ccDL7Chx.s:775    .text:0000000000000324 .L0 
     /tmp/ccDL7Chx.s:777    .text:0000000000000328 .L0 
     /tmp/ccDL7Chx.s:778    .text:0000000000000328 .L0 
     /tmp/ccDL7Chx.s:782    .text:0000000000000334 .L0 
     /tmp/ccDL7Chx.s:784    .text:0000000000000338 .L0 
     /tmp/ccDL7Chx.s:787    .text:000000000000033c .L0 
     /tmp/ccDL7Chx.s:788    .text:000000000000033c .L0 
     /tmp/ccDL7Chx.s:789    .text:000000000000033c .L0 
     /tmp/ccDL7Chx.s:792    .text:0000000000000340 .L0 
     /tmp/ccDL7Chx.s:793    .text:0000000000000340 .L0 
     /tmp/ccDL7Chx.s:796    .text:0000000000000344 .L0 
     /tmp/ccDL7Chx.s:797    .text:0000000000000344 .L0 
     /tmp/ccDL7Chx.s:809    .text:0000000000000364 .L0 
     /tmp/ccDL7Chx.s:810    .text:0000000000000364 .L0 
     /tmp/ccDL7Chx.s:813    .text:000000000000036c .L0 
     /tmp/ccDL7Chx.s:817    .text:0000000000000370 .L0 
     /tmp/ccDL7Chx.s:818    .text:0000000000000370 .L0 
     /tmp/ccDL7Chx.s:819    .text:0000000000000370 .L0 
     /tmp/ccDL7Chx.s:820    .text:0000000000000370 .L0 
     /tmp/ccDL7Chx.s:825    .text:000000000000037c .L0 
     /tmp/ccDL7Chx.s:826    .text:000000000000037c .L0 
     /tmp/ccDL7Chx.s:829    .text:0000000000000384 .L0 
     /tmp/ccDL7Chx.s:833    .text:0000000000000388 .L0 
     /tmp/ccDL7Chx.s:834    .text:0000000000000388 .L0 
     /tmp/ccDL7Chx.s:835    .text:0000000000000388 .L0 
     /tmp/ccDL7Chx.s:837    .text:000000000000038c .L0 
     /tmp/ccDL7Chx.s:839    .text:0000000000000390 .L0 
     /tmp/ccDL7Chx.s:840    .text:0000000000000390 .L0 
     /tmp/ccDL7Chx.s:844    .text:000000000000039c .L0 
     /tmp/ccDL7Chx.s:846    .text:00000000000003a0 .L0 
     /tmp/ccDL7Chx.s:849    .text:00000000000003a4 .L0 
     /tmp/ccDL7Chx.s:850    .text:00000000000003a4 .L0 
     /tmp/ccDL7Chx.s:851    .text:00000000000003a4 .L0 
     /tmp/ccDL7Chx.s:853    .text:00000000000003a8 .L0 
     /tmp/ccDL7Chx.s:855    .text:00000000000003ac .L0 
     /tmp/ccDL7Chx.s:856    .text:00000000000003ac .L0 
     /tmp/ccDL7Chx.s:860    .text:00000000000003b8 .L0 
     /tmp/ccDL7Chx.s:862    .text:00000000000003bc .L0 
     /tmp/ccDL7Chx.s:865    .text:00000000000003c0 .L0 
     /tmp/ccDL7Chx.s:867    .text:00000000000003c0 .L0 
     /tmp/ccDL7Chx.s:868    .text:00000000000003c0 .L0 
     /tmp/ccDL7Chx.s:869    .text:00000000000003c0 .L0 
     /tmp/ccDL7Chx.s:878    .text:00000000000003dc .L0 
     /tmp/ccDL7Chx.s:879    .text:00000000000003dc .L0 
     /tmp/ccDL7Chx.s:880    .text:00000000000003dc .L0 
     /tmp/ccDL7Chx.s:885    .text:00000000000003f0 .L0 
     /tmp/ccDL7Chx.s:886    .text:00000000000003f0 .L0 
     /tmp/ccDL7Chx.s:888    .text:00000000000003f4 .L0 
GAS LISTING /tmp/ccDL7Chx.s 			page 39


     /tmp/ccDL7Chx.s:892    .text:00000000000003f8 .L0 
     /tmp/ccDL7Chx.s:893    .text:00000000000003f8 .L0 
     /tmp/ccDL7Chx.s:894    .text:00000000000003f8 .L0 
     /tmp/ccDL7Chx.s:895    .text:00000000000003f8 .L0 
     /tmp/ccDL7Chx.s:899    .text:0000000000000404 .L0 
     /tmp/ccDL7Chx.s:901    .text:0000000000000408 .L0 
     /tmp/ccDL7Chx.s:909    .text:000000000000040c .L0 
     /tmp/ccDL7Chx.s:910    .text:000000000000040c .L0 
     /tmp/ccDL7Chx.s:911    .text:000000000000040c .L0 
  src/../h/riscv.hpp:117    .text:000000000000040c .L0 
     /tmp/ccDL7Chx.s:919    .text:0000000000000414 .L0 
     /tmp/ccDL7Chx.s:920    .text:0000000000000414 .L0 
     /tmp/ccDL7Chx.s:927    .text:0000000000000418 .L0 
     /tmp/ccDL7Chx.s:928    .text:0000000000000418 .L0 
     /tmp/ccDL7Chx.s:929    .text:0000000000000418 .L0 
  src/../h/riscv.hpp:141    .text:0000000000000418 .L0 
     /tmp/ccDL7Chx.s:937    .text:0000000000000420 .L0 
     /tmp/ccDL7Chx.s:938    .text:0000000000000420 .L0 
     /tmp/ccDL7Chx.s:945    .text:0000000000000424 .L0 
     /tmp/ccDL7Chx.s:946    .text:0000000000000424 .L0 
     /tmp/ccDL7Chx.s:947    .text:0000000000000424 .L0 
  src/../h/riscv.hpp:185    .text:0000000000000424 .L0 
     /tmp/ccDL7Chx.s:955    .text:000000000000042c .L0 
     /tmp/ccDL7Chx.s:956    .text:000000000000042c .L0 
     /tmp/ccDL7Chx.s:961    .text:0000000000000430 .L0 
     /tmp/ccDL7Chx.s:962    .text:0000000000000430 .L0 
     /tmp/ccDL7Chx.s:966    .text:0000000000000440 .L0 
     /tmp/ccDL7Chx.s:967    .text:0000000000000440 .L0 
     /tmp/ccDL7Chx.s:973    .text:0000000000000454 .L0 
     /tmp/ccDL7Chx.s:974    .text:0000000000000454 .L0 
     /tmp/ccDL7Chx.s:978    .text:0000000000000464 .L0 
     /tmp/ccDL7Chx.s:979    .text:0000000000000464 .L0 
     /tmp/ccDL7Chx.s:983    .text:0000000000000474 .L0 
     /tmp/ccDL7Chx.s:984    .text:0000000000000474 .L0 
     /tmp/ccDL7Chx.s:990    .text:0000000000000488 .L0 
     /tmp/ccDL7Chx.s:991    .text:0000000000000488 .L0 
     /tmp/ccDL7Chx.s:995    .text:0000000000000498 .L0 
     /tmp/ccDL7Chx.s:996    .text:0000000000000498 .L0 
     /tmp/ccDL7Chx.s:1000   .text:00000000000004a8 .L0 
     /tmp/ccDL7Chx.s:1001   .text:00000000000004a8 .L0 
     /tmp/ccDL7Chx.s:1007   .text:00000000000004bc .L0 
     /tmp/ccDL7Chx.s:1008   .text:00000000000004bc .L0 
     /tmp/ccDL7Chx.s:1012   .text:00000000000004cc .L0 
     /tmp/ccDL7Chx.s:1013   .text:00000000000004cc .L0 
     /tmp/ccDL7Chx.s:1017   .text:00000000000004dc .L0 
     /tmp/ccDL7Chx.s:1018   .text:00000000000004dc .L0 
     /tmp/ccDL7Chx.s:1024   .text:00000000000004f0 .L0 
     /tmp/ccDL7Chx.s:1025   .text:00000000000004f0 .L0 
     /tmp/ccDL7Chx.s:1034   .text:0000000000000500 .L0 
     /tmp/ccDL7Chx.s:1044   .text:0000000000000508 .L0 
     /tmp/ccDL7Chx.s:1056   .text:0000000000000520 .L0 
     /tmp/ccDL7Chx.s:1094   .text:0000000000000520 .L0 
     /tmp/ccDL7Chx.s:296    .rodata:0000000000000000 .L17
     /tmp/ccDL7Chx.s:288    .text:00000000000000fc .L0 
     /tmp/ccDL7Chx.s:373    .text:0000000000000114 .L0 
     /tmp/ccDL7Chx.s:380    .text:0000000000000128 .L0 
     /tmp/ccDL7Chx.s:388    .text:000000000000013c .L0 
GAS LISTING /tmp/ccDL7Chx.s 			page 40


     /tmp/ccDL7Chx.s:437    .text:000000000000016c .L0 
     /tmp/ccDL7Chx.s:489    .text:00000000000001ac .L0 
     /tmp/ccDL7Chx.s:498    .text:00000000000001c4 .L0 
     /tmp/ccDL7Chx.s:504    .text:00000000000001d4 .L0 
     /tmp/ccDL7Chx.s:870    .text:00000000000003c4 .L0 
     /tmp/ccDL7Chx.s:880    .text:00000000000003dc .L0 
     /tmp/ccDL7Chx.s:122    .rodata.str1.8:0000000000000000 .LC0
     /tmp/ccDL7Chx.s:962    .text:0000000000000430 .L0 
     /tmp/ccDL7Chx.s:125    .rodata.str1.8:0000000000000010 .LC1
     /tmp/ccDL7Chx.s:974    .text:0000000000000454 .L0 
     /tmp/ccDL7Chx.s:128    .rodata.str1.8:0000000000000018 .LC2
     /tmp/ccDL7Chx.s:979    .text:0000000000000464 .L0 
     /tmp/ccDL7Chx.s:991    .text:0000000000000488 .L0 
     /tmp/ccDL7Chx.s:131    .rodata.str1.8:0000000000000028 .LC3
     /tmp/ccDL7Chx.s:996    .text:0000000000000498 .L0 
     /tmp/ccDL7Chx.s:1008   .text:00000000000004bc .L0 
     /tmp/ccDL7Chx.s:134    .rodata.str1.8:0000000000000038 .LC4
     /tmp/ccDL7Chx.s:1013   .text:00000000000004cc .L0 
     /tmp/ccDL7Chx.s:1025   .text:00000000000004f0 .L0 
     /tmp/ccDL7Chx.s:98     .text:000000000000004c .L4
     /tmp/ccDL7Chx.s:87     .text:0000000000000040 .L3
     /tmp/ccDL7Chx.s:366    .text:0000000000000114 .L41
     /tmp/ccDL7Chx.s:456    .text:0000000000000188 .L42
     /tmp/ccDL7Chx.s:903    .text:000000000000040c .L14
     /tmp/ccDL7Chx.s:534    .text:0000000000000208 .L15
     /tmp/ccDL7Chx.s:412    .text:0000000000000160 .L43
     /tmp/ccDL7Chx.s:562    .text:0000000000000214 .L7
     /tmp/ccDL7Chx.s:395    .text:0000000000000154 .L9
     /tmp/ccDL7Chx.s:483    .text:00000000000001ac .L13
     /tmp/ccDL7Chx.s:475    .text:000000000000019c .L12
     /tmp/ccDL7Chx.s:673    .text:00000000000002ac .L34
     /tmp/ccDL7Chx.s:651    .text:0000000000000294 .L35
     /tmp/ccDL7Chx.s:700    .text:00000000000002d0 .L25
     /tmp/ccDL7Chx.s:690    .text:00000000000002c4 .L36
     /tmp/ccDL7Chx.s:709    .text:00000000000002d8 .L37
     /tmp/ccDL7Chx.s:767    .text:000000000000031c .L33
     /tmp/ccDL7Chx.s:753    .text:0000000000000308 .L32
     /tmp/ccDL7Chx.s:611    .text:0000000000000254 .L31
     /tmp/ccDL7Chx.s:511    .text:00000000000001ec .L30
     /tmp/ccDL7Chx.s:627    .text:0000000000000270 .L29
     /tmp/ccDL7Chx.s:637    .text:0000000000000280 .L28
     /tmp/ccDL7Chx.s:588    .text:0000000000000234 .L27
     /tmp/ccDL7Chx.s:644    .text:000000000000028c .L26
     /tmp/ccDL7Chx.s:730    .text:00000000000002f0 .L24
     /tmp/ccDL7Chx.s:785    .text:000000000000033c .L23
     /tmp/ccDL7Chx.s:815    .text:0000000000000370 .L22
     /tmp/ccDL7Chx.s:831    .text:0000000000000388 .L21
     /tmp/ccDL7Chx.s:847    .text:00000000000003a4 .L20
     /tmp/ccDL7Chx.s:890    .text:00000000000003f8 .L19
     /tmp/ccDL7Chx.s:876    .text:00000000000003dc .L18
     /tmp/ccDL7Chx.s:863    .text:00000000000003c0 .L16
     /tmp/ccDL7Chx.s:382    .text:0000000000000134 .LEHB0
     /tmp/ccDL7Chx.s:141    .text:0000000000000058 .LFB113
     /tmp/ccDL7Chx.s:800    .text:0000000000000350 .LEHE0
     /tmp/ccDL7Chx.s:804    .text:000000000000035c .LEHB1
     /tmp/ccDL7Chx.s:807    .text:0000000000000364 .LEHE1
     /tmp/ccDL7Chx.s:1036   .text:0000000000000504 .L39
GAS LISTING /tmp/ccDL7Chx.s 			page 41


     /tmp/ccDL7Chx.s:821    .text:0000000000000374 .LEHB2
     /tmp/ccDL7Chx.s:1028   .text:0000000000000500 .LEHE2
     /tmp/ccDL7Chx.s:1048   .text:0000000000000518 .LEHB3
     /tmp/ccDL7Chx.s:1051   .text:0000000000000520 .LEHE3
     /tmp/ccDL7Chx.s:4434   .debug_abbrev:0000000000000000 .Ldebug_abbrev0
     /tmp/ccDL7Chx.s:6665   .debug_str:00000000000010fe .LASF332
     /tmp/ccDL7Chx.s:6251   .debug_str:00000000000004af .LASF333
     /tmp/ccDL7Chx.s:6221   .debug_str:000000000000039e .LASF334
     /tmp/ccDL7Chx.s:5      .text:0000000000000000 .Ltext0
     /tmp/ccDL7Chx.s:1083   .text:0000000000000520 .Letext0
     /tmp/ccDL7Chx.s:6083   .debug_line:0000000000000000 .Ldebug_line0
     /tmp/ccDL7Chx.s:6131   .debug_str:0000000000000127 .LASF0
     /tmp/ccDL7Chx.s:6729   .debug_str:00000000000013e3 .LASF1
     /tmp/ccDL7Chx.s:6667   .debug_str:00000000000011c2 .LASF2
     /tmp/ccDL7Chx.s:6625   .debug_str:0000000000000fbb .LASF4
     /tmp/ccDL7Chx.s:6637   .debug_str:0000000000001017 .LASF3
     /tmp/ccDL7Chx.s:6301   .debug_str:0000000000000623 .LASF5
     /tmp/ccDL7Chx.s:6395   .debug_str:0000000000000918 .LASF6
     /tmp/ccDL7Chx.s:6355   .debug_str:00000000000007b8 .LASF7
     /tmp/ccDL7Chx.s:6555   .debug_str:0000000000000dbf .LASF8
     /tmp/ccDL7Chx.s:6169   .debug_str:000000000000024c .LASF9
     /tmp/ccDL7Chx.s:6717   .debug_str:0000000000001374 .LASF10
     /tmp/ccDL7Chx.s:6305   .debug_str:0000000000000638 .LASF11
     /tmp/ccDL7Chx.s:6213   .debug_str:0000000000000366 .LASF12
     /tmp/ccDL7Chx.s:6397   .debug_str:000000000000091f .LASF13
     /tmp/ccDL7Chx.s:6311   .debug_str:0000000000000665 .LASF14
     /tmp/ccDL7Chx.s:6605   .debug_str:0000000000000f62 .LASF15
     /tmp/ccDL7Chx.s:6317   .debug_str:0000000000000698 .LASF16
     /tmp/ccDL7Chx.s:6269   .debug_str:000000000000054c .LASF17
     /tmp/ccDL7Chx.s:6289   .debug_str:00000000000005ce .LASF18
     /tmp/ccDL7Chx.s:6549   .debug_str:0000000000000da4 .LASF19
     /tmp/ccDL7Chx.s:6137   .debug_str:000000000000014b .LASF20
     /tmp/ccDL7Chx.s:6347   .debug_str:0000000000000782 .LASF21
     /tmp/ccDL7Chx.s:6489   .debug_str:0000000000000bfa .LASF22
     /tmp/ccDL7Chx.s:6433   .debug_str:0000000000000a29 .LASF23
     /tmp/ccDL7Chx.s:6685   .debug_str:0000000000001252 .LASF24
     /tmp/ccDL7Chx.s:6423   .debug_str:00000000000009e4 .LASF25
     /tmp/ccDL7Chx.s:6765   .debug_str:0000000000001537 .LASF26
     /tmp/ccDL7Chx.s:6571   .debug_str:0000000000000e5f .LASF27
     /tmp/ccDL7Chx.s:6125   .debug_str:00000000000000fd .LASF28
     /tmp/ccDL7Chx.s:6503   .debug_str:0000000000000c71 .LASF29
     /tmp/ccDL7Chx.s:6459   .debug_str:0000000000000ae2 .LASF31
     /tmp/ccDL7Chx.s:6499   .debug_str:0000000000000c55 .LASF77
     /tmp/ccDL7Chx.s:6641   .debug_str:0000000000001030 .LASF79
     /tmp/ccDL7Chx.s:6341   .debug_str:0000000000000752 .LASF30
     /tmp/ccDL7Chx.s:6691   .debug_str:000000000000128a .LASF32
     /tmp/ccDL7Chx.s:6597   .debug_str:0000000000000f09 .LASF33
     /tmp/ccDL7Chx.s:6705   .debug_str:0000000000001304 .LASF34
     /tmp/ccDL7Chx.s:6245   .debug_str:000000000000047e .LASF35
     /tmp/ccDL7Chx.s:6115   .debug_str:00000000000000b7 .LASF36
     /tmp/ccDL7Chx.s:6669   .debug_str:00000000000011d0 .LASF37
     /tmp/ccDL7Chx.s:6701   .debug_str:00000000000012cf .LASF38
     /tmp/ccDL7Chx.s:6477   .debug_str:0000000000000bb1 .LASF39
     /tmp/ccDL7Chx.s:6687   .debug_str:000000000000125a .LASF40
     /tmp/ccDL7Chx.s:6337   .debug_str:000000000000072f .LASF41
     /tmp/ccDL7Chx.s:6379   .debug_str:0000000000000889 .LASF42
     /tmp/ccDL7Chx.s:6415   .debug_str:00000000000009b8 .LASF43
GAS LISTING /tmp/ccDL7Chx.s 			page 42


     /tmp/ccDL7Chx.s:6455   .debug_str:0000000000000abb .LASF44
     /tmp/ccDL7Chx.s:6409   .debug_str:0000000000000993 .LASF45
     /tmp/ccDL7Chx.s:6333   .debug_str:0000000000000706 .LASF46
     /tmp/ccDL7Chx.s:6171   .debug_str:000000000000025c .LASF47
     /tmp/ccDL7Chx.s:6155   .debug_str:00000000000001b3 .LASF48
     /tmp/ccDL7Chx.s:6587   .debug_str:0000000000000ecd .LASF49
     /tmp/ccDL7Chx.s:6737   .debug_str:0000000000001424 .LASF50
     /tmp/ccDL7Chx.s:6141   .debug_str:0000000000000167 .LASF51
     /tmp/ccDL7Chx.s:6407   .debug_str:0000000000000975 .LASF52
     /tmp/ccDL7Chx.s:6391   .debug_str:0000000000000905 .LASF53
     /tmp/ccDL7Chx.s:6427   .debug_str:00000000000009f4 .LASF54
     /tmp/ccDL7Chx.s:6261   .debug_str:0000000000000512 .LASF55
     /tmp/ccDL7Chx.s:6225   .debug_str:00000000000003c5 .LASF56
     /tmp/ccDL7Chx.s:6565   .debug_str:0000000000000e38 .LASF57
     /tmp/ccDL7Chx.s:6343   .debug_str:000000000000075e .LASF58
     /tmp/ccDL7Chx.s:6431   .debug_str:0000000000000a1d .LASF59
     /tmp/ccDL7Chx.s:6733   .debug_str:00000000000013fe .LASF61
     /tmp/ccDL7Chx.s:6349   .debug_str:000000000000078b .LASF60
     /tmp/ccDL7Chx.s:6713   .debug_str:0000000000001351 .LASF62
     /tmp/ccDL7Chx.s:6283   .debug_str:00000000000005a4 .LASF63
     /tmp/ccDL7Chx.s:6097   .debug_str:000000000000003b .LASF64
     /tmp/ccDL7Chx.s:6529   .debug_str:0000000000000d16 .LASF65
     /tmp/ccDL7Chx.s:6533   .debug_str:0000000000000d2d .LASF66
     /tmp/ccDL7Chx.s:6281   .debug_str:0000000000000599 .LASF67
     /tmp/ccDL7Chx.s:6671   .debug_str:00000000000011db .LASF68
     /tmp/ccDL7Chx.s:6151   .debug_str:000000000000019a .LASF69
     /tmp/ccDL7Chx.s:6523   .debug_str:0000000000000ce1 .LASF70
     /tmp/ccDL7Chx.s:6491   .debug_str:0000000000000c02 .LASF71
     /tmp/ccDL7Chx.s:6629   .debug_str:0000000000000fd2 .LASF72
     /tmp/ccDL7Chx.s:6381   .debug_str:00000000000008a3 .LASF73
     /tmp/ccDL7Chx.s:6263   .debug_str:000000000000051a .LASF74
     /tmp/ccDL7Chx.s:6649   .debug_str:0000000000001087 .LASF75
     /tmp/ccDL7Chx.s:6749   .debug_str:0000000000001492 .LASF76
     /tmp/ccDL7Chx.s:6181   .debug_str:0000000000000299 .LASF78
     /tmp/ccDL7Chx.s:6399   .debug_str:000000000000092f .LASF80
     /tmp/ccDL7Chx.s:6739   .debug_str:0000000000001441 .LASF81
     /tmp/ccDL7Chx.s:6475   .debug_str:0000000000000ba5 .LASF82
     /tmp/ccDL7Chx.s:6285   .debug_str:00000000000005ad .LASF83
     /tmp/ccDL7Chx.s:6469   .debug_str:0000000000000b5e .LASF84
     /tmp/ccDL7Chx.s:6321   .debug_str:00000000000006c1 .LASF302
     /tmp/ccDL7Chx.s:6193   .debug_str:00000000000002fa .LASF85
     /tmp/ccDL7Chx.s:6653   .debug_str:000000000000109a .LASF86
     /tmp/ccDL7Chx.s:6745   .debug_str:0000000000001470 .LASF97
     /tmp/ccDL7Chx.s:6345   .debug_str:0000000000000777 .LASF87
     /tmp/ccDL7Chx.s:6689   .debug_str:0000000000001274 .LASF89
     /tmp/ccDL7Chx.s:6183   .debug_str:00000000000002a0 .LASF88
     /tmp/ccDL7Chx.s:6741   .debug_str:0000000000001446 .LASF90
     /tmp/ccDL7Chx.s:6611   .debug_str:0000000000000f7a .LASF91
     /tmp/ccDL7Chx.s:6627   .debug_str:0000000000000fc2 .LASF92
     /tmp/ccDL7Chx.s:6203   .debug_str:0000000000000330 .LASF93
     /tmp/ccDL7Chx.s:6593   .debug_str:0000000000000ee3 .LASF94
     /tmp/ccDL7Chx.s:6335   .debug_str:0000000000000723 .LASF95
     /tmp/ccDL7Chx.s:6153   .debug_str:00000000000001a6 .LASF96
     /tmp/ccDL7Chx.s:6655   .debug_str:00000000000010c3 .LASF100
     /tmp/ccDL7Chx.s:6595   .debug_str:0000000000000ef3 .LASF98
     /tmp/ccDL7Chx.s:6085   .debug_str:0000000000000000 .LASF99
     /tmp/ccDL7Chx.s:6659   .debug_str:00000000000010d0 .LASF101
GAS LISTING /tmp/ccDL7Chx.s 			page 43


     /tmp/ccDL7Chx.s:6617   .debug_str:0000000000000f97 .LASF102
     /tmp/ccDL7Chx.s:6487   .debug_str:0000000000000bf2 .LASF103
     /tmp/ccDL7Chx.s:6393   .debug_str:0000000000000911 .LASF104
     /tmp/ccDL7Chx.s:6111   .debug_str:00000000000000a3 .LASF105
     /tmp/ccDL7Chx.s:6709   .debug_str:000000000000132e .LASF106
     /tmp/ccDL7Chx.s:6495   .debug_str:0000000000000c16 .LASF107
     /tmp/ccDL7Chx.s:6679   .debug_str:000000000000122e .LASF108
     /tmp/ccDL7Chx.s:6547   .debug_str:0000000000000d9b .LASF109
     /tmp/ccDL7Chx.s:6485   .debug_str:0000000000000bdf .LASF111
     /tmp/ccDL7Chx.s:6759   .debug_str:00000000000014e4 .LASF110
     /tmp/ccDL7Chx.s:6677   .debug_str:0000000000001215 .LASF112
     /tmp/ccDL7Chx.s:6697   .debug_str:00000000000012c0 .LASF113
     /tmp/ccDL7Chx.s:6417   .debug_str:00000000000009c3 .LASF114
     /tmp/ccDL7Chx.s:6373   .debug_str:0000000000000868 .LASF115
     /tmp/ccDL7Chx.s:6359   .debug_str:00000000000007dd .LASF117
     /tmp/ccDL7Chx.s:6479   .debug_str:0000000000000bba .LASF116
     /tmp/ccDL7Chx.s:6287   .debug_str:00000000000005bf .LASF118
     /tmp/ccDL7Chx.s:6607   .debug_str:0000000000000f6e .LASF119
     /tmp/ccDL7Chx.s:6087   .debug_str:000000000000000c .LASF120
     /tmp/ccDL7Chx.s:6249   .debug_str:00000000000004a8 .LASF121
     /tmp/ccDL7Chx.s:6227   .debug_str:00000000000003de .LASF122
     /tmp/ccDL7Chx.s:6591   .debug_str:0000000000000edd .LASF123
     /tmp/ccDL7Chx.s:6589   .debug_str:0000000000000ed8 .LASF124
     /tmp/ccDL7Chx.s:6127   .debug_str:0000000000000108 .LASF125
     /tmp/ccDL7Chx.s:6715   .debug_str:000000000000136e .LASF126
     /tmp/ccDL7Chx.s:6365   .debug_str:000000000000081a .LASF127
     /tmp/ccDL7Chx.s:6411   .debug_str:000000000000099e .LASF128
     /tmp/ccDL7Chx.s:6327   .debug_str:00000000000006dd .LASF129
     /tmp/ccDL7Chx.s:6209   .debug_str:0000000000000347 .LASF130
     /tmp/ccDL7Chx.s:6167   .debug_str:000000000000023a .LASF131
     /tmp/ccDL7Chx.s:6755   .debug_str:00000000000014c8 .LASF132
     /tmp/ccDL7Chx.s:6145   .debug_str:000000000000018a .LASF133
     /tmp/ccDL7Chx.s:6545   .debug_str:0000000000000d8e .LASF134
     /tmp/ccDL7Chx.s:6401   .debug_str:0000000000000947 .LASF135
     /tmp/ccDL7Chx.s:6303   .debug_str:000000000000062a .LASF136
     /tmp/ccDL7Chx.s:6199   .debug_str:0000000000000322 .LASF137
     /tmp/ccDL7Chx.s:6583   .debug_str:0000000000000eab .LASF138
     /tmp/ccDL7Chx.s:6439   .debug_str:0000000000000a5e .LASF139
     /tmp/ccDL7Chx.s:6231   .debug_str:00000000000003f9 .LASF140
     /tmp/ccDL7Chx.s:6371   .debug_str:0000000000000860 .LASF142
     /tmp/ccDL7Chx.s:6135   .debug_str:0000000000000146 .LASF141
     /tmp/ccDL7Chx.s:6559   .debug_str:0000000000000df4 .LASF143
     /tmp/ccDL7Chx.s:6541   .debug_str:0000000000000d6d .LASF144
     /tmp/ccDL7Chx.s:6581   .debug_str:0000000000000e8e .LASF182
     /tmp/ccDL7Chx.s:6149   .debug_str:0000000000000195 .LASF145
     /tmp/ccDL7Chx.s:6609   .debug_str:0000000000000f75 .LASF146
     /tmp/ccDL7Chx.s:6217   .debug_str:0000000000000391 .LASF147
     /tmp/ccDL7Chx.s:6567   .debug_str:0000000000000e40 .LASF148
     /tmp/ccDL7Chx.s:6129   .debug_str:0000000000000112 .LASF149
     /tmp/ccDL7Chx.s:6573   .debug_str:0000000000000e64 .LASF150
     /tmp/ccDL7Chx.s:6747   .debug_str:0000000000001478 .LASF151
     /tmp/ccDL7Chx.s:6309   .debug_str:0000000000000651 .LASF152
     /tmp/ccDL7Chx.s:6175   .debug_str:000000000000026c .LASF191
     /tmp/ccDL7Chx.s:6501   .debug_str:0000000000000c65 .LASF153
     /tmp/ccDL7Chx.s:6361   .debug_str:00000000000007ec .LASF154
     /tmp/ccDL7Chx.s:6511   .debug_str:0000000000000ca3 .LASF155
     /tmp/ccDL7Chx.s:6103   .debug_str:000000000000006b .LASF156
GAS LISTING /tmp/ccDL7Chx.s 			page 44


     /tmp/ccDL7Chx.s:6505   .debug_str:0000000000000c7e .LASF157
     /tmp/ccDL7Chx.s:6537   .debug_str:0000000000000d55 .LASF158
     /tmp/ccDL7Chx.s:6527   .debug_str:0000000000000d06 .LASF159
     /tmp/ccDL7Chx.s:6273   .debug_str:0000000000000567 .LASF160
     /tmp/ccDL7Chx.s:6241   .debug_str:0000000000000443 .LASF161
     /tmp/ccDL7Chx.s:6463   .debug_str:0000000000000b22 .LASF162
     /tmp/ccDL7Chx.s:6657   .debug_str:00000000000010c8 .LASF163
     /tmp/ccDL7Chx.s:6661   .debug_str:00000000000010d5 .LASF164
     /tmp/ccDL7Chx.s:6205   .debug_str:0000000000000336 .LASF165
     /tmp/ccDL7Chx.s:6601   .debug_str:0000000000000f38 .LASF166
     /tmp/ccDL7Chx.s:6331   .debug_str:00000000000006fe .LASF167
     /tmp/ccDL7Chx.s:6143   .debug_str:0000000000000173 .LASF168
     /tmp/ccDL7Chx.s:6497   .debug_str:0000000000000c3e .LASF169
     /tmp/ccDL7Chx.s:6525   .debug_str:0000000000000cff .LASF170
     /tmp/ccDL7Chx.s:6117   .debug_str:00000000000000d4 .LASF171
     /tmp/ccDL7Chx.s:6643   .debug_str:0000000000001044 .LASF172
     /tmp/ccDL7Chx.s:6093   .debug_str:000000000000002b .LASF173
     /tmp/ccDL7Chx.s:6119   .debug_str:00000000000000db .LASF174
     /tmp/ccDL7Chx.s:6107   .debug_str:0000000000000093 .LASF175
     /tmp/ccDL7Chx.s:6101   .debug_str:0000000000000066 .LASF176
     /tmp/ccDL7Chx.s:6421   .debug_str:00000000000009db .LASF177
     /tmp/ccDL7Chx.s:6275   .debug_str:0000000000000570 .LASF178
     /tmp/ccDL7Chx.s:6271   .debug_str:0000000000000562 .LASF179
     /tmp/ccDL7Chx.s:6247   .debug_str:0000000000000489 .LASF180
     /tmp/ccDL7Chx.s:6315   .debug_str:000000000000067e .LASF181
     /tmp/ccDL7Chx.s:6481   .debug_str:0000000000000bbf .LASF183
     /tmp/ccDL7Chx.s:6493   .debug_str:0000000000000c0a .LASF184
     /tmp/ccDL7Chx.s:6517   .debug_str:0000000000000cb7 .LASF185
     /tmp/ccDL7Chx.s:6357   .debug_str:00000000000007cb .LASF186
     /tmp/ccDL7Chx.s:6229   .debug_str:00000000000003ef .LASF187
     /tmp/ccDL7Chx.s:6465   .debug_str:0000000000000b34 .LASF188
     /tmp/ccDL7Chx.s:6329   .debug_str:00000000000006ed .LASF189
     /tmp/ccDL7Chx.s:6133   .debug_str:0000000000000134 .LASF190
     /tmp/ccDL7Chx.s:6473   .debug_str:0000000000000b8d .LASF192
     /tmp/ccDL7Chx.s:6509   .debug_str:0000000000000c9e .LASF193
     /tmp/ccDL7Chx.s:6445   .debug_str:0000000000000a73 .LASF194
     /tmp/ccDL7Chx.s:6313   .debug_str:0000000000000675 .LASF195
     /tmp/ccDL7Chx.s:6727   .debug_str:00000000000013cb .LASF196
     /tmp/ccDL7Chx.s:6389   .debug_str:00000000000008ee .LASF197
     /tmp/ccDL7Chx.s:6449   .debug_str:0000000000000a90 .LASF198
     /tmp/ccDL7Chx.s:6563   .debug_str:0000000000000e20 .LASF199
     /tmp/ccDL7Chx.s:6235   .debug_str:000000000000040d .LASF200
     /tmp/ccDL7Chx.s:6721   .debug_str:0000000000001396 .LASF201
     /tmp/ccDL7Chx.s:6443   .debug_str:0000000000000a69 .LASF202
     /tmp/ccDL7Chx.s:6405   .debug_str:000000000000095c .LASF203
     /tmp/ccDL7Chx.s:6551   .debug_str:0000000000000dac .LASF204
     /tmp/ccDL7Chx.s:6519   .debug_str:0000000000000cc1 .LASF205
     /tmp/ccDL7Chx.s:6719   .debug_str:0000000000001382 .LASF206
     /tmp/ccDL7Chx.s:6467   .debug_str:0000000000000b45 .LASF207
     /tmp/ccDL7Chx.s:6651   .debug_str:0000000000001095 .LASF335
     /tmp/ccDL7Chx.s:6109   .debug_str:0000000000000098 .LASF208
     /tmp/ccDL7Chx.s:6091   .debug_str:0000000000000026 .LASF209
     /tmp/ccDL7Chx.s:6599   .debug_str:0000000000000f15 .LASF210
     /tmp/ccDL7Chx.s:6239   .debug_str:000000000000041c .LASF211
     /tmp/ccDL7Chx.s:6457   .debug_str:0000000000000ad8 .LASF336
     /tmp/ccDL7Chx.s:6387   .debug_str:00000000000008c7 .LASF337
     /tmp/ccDL7Chx.s:6253   .debug_str:00000000000004bd .LASF212
GAS LISTING /tmp/ccDL7Chx.s 			page 45


     /tmp/ccDL7Chx.s:6089   .debug_str:000000000000001d .LASF213
     /tmp/ccDL7Chx.s:6761   .debug_str:00000000000014f2 .LASF214
     /tmp/ccDL7Chx.s:6425   .debug_str:00000000000009ec .LASF215
     /tmp/ccDL7Chx.s:6367   .debug_str:0000000000000820 .LASF216
     /tmp/ccDL7Chx.s:6157   .debug_str:00000000000001d0 .LASF217
     /tmp/ccDL7Chx.s:6453   .debug_str:0000000000000aaf .LASF218
     /tmp/ccDL7Chx.s:6645   .debug_str:000000000000104a .LASF219
     /tmp/ccDL7Chx.s:6113   .debug_str:00000000000000ad .LASF220
     /tmp/ccDL7Chx.s:6187   .debug_str:00000000000002b5 .LASF221
     /tmp/ccDL7Chx.s:6577   .debug_str:0000000000000e75 .LASF222
     /tmp/ccDL7Chx.s:6243   .debug_str:0000000000000453 .LASF223
     /tmp/ccDL7Chx.s:6757   .debug_str:00000000000014d9 .LASF224
     /tmp/ccDL7Chx.s:6461   .debug_str:0000000000000af5 .LASF225
     /tmp/ccDL7Chx.s:6255   .debug_str:00000000000004e4 .LASF226
     /tmp/ccDL7Chx.s:6291   .debug_str:00000000000005d7 .LASF227
     /tmp/ccDL7Chx.s:6195   .debug_str:000000000000030e .LASF228
     /tmp/ccDL7Chx.s:6323   .debug_str:00000000000006c6 .LASF232
     /tmp/ccDL7Chx.s:6297   .debug_str:000000000000060d .LASF229
     /tmp/ccDL7Chx.s:6575   .debug_str:0000000000000e6c .LASF230
     /tmp/ccDL7Chx.s:6621   .debug_str:0000000000000fa8 .LASF231
     /tmp/ccDL7Chx.s:6363   .debug_str:000000000000080b .LASF233
     /tmp/ccDL7Chx.s:6531   .debug_str:0000000000000d21 .LASF234
     /tmp/ccDL7Chx.s:6123   .debug_str:00000000000000f0 .LASF235
     /tmp/ccDL7Chx.s:6325   .debug_str:00000000000006d1 .LASF236
     /tmp/ccDL7Chx.s:6429   .debug_str:0000000000000a12 .LASF237
     /tmp/ccDL7Chx.s:6703   .debug_str:00000000000012ec .LASF238
     /tmp/ccDL7Chx.s:6197   .debug_str:0000000000000314 .LASF239
     /tmp/ccDL7Chx.s:6437   .debug_str:0000000000000a43 .LASF240
     /tmp/ccDL7Chx.s:6385   .debug_str:00000000000008ba .LASF241
     /tmp/ccDL7Chx.s:6631   .debug_str:0000000000000feb .LASF242
     /tmp/ccDL7Chx.s:6751   .debug_str:00000000000014b2 .LASF243
     /tmp/ccDL7Chx.s:6711   .debug_str:000000000000133c .LASF244
     /tmp/ccDL7Chx.s:6207   .debug_str:000000000000033e .LASF245
     /tmp/ccDL7Chx.s:6165   .debug_str:0000000000000225 .LASF246
     /tmp/ccDL7Chx.s:6237   .debug_str:0000000000000415 .LASF247
     /tmp/ccDL7Chx.s:6257   .debug_str:00000000000004ed .LASF248
     /tmp/ccDL7Chx.s:6295   .debug_str:0000000000000606 .LASF249
     /tmp/ccDL7Chx.s:6161   .debug_str:0000000000000207 .LASF250
     /tmp/ccDL7Chx.s:6731   .debug_str:00000000000013f6 .LASF251
     /tmp/ccDL7Chx.s:6603   .debug_str:0000000000000f4e .LASF252
     /tmp/ccDL7Chx.s:6521   .debug_str:0000000000000cd9 .LASF253
     /tmp/ccDL7Chx.s:6189   .debug_str:00000000000002e0 .LASF254
     /tmp/ccDL7Chx.s:6539   .debug_str:0000000000000d65 .LASF255
     /tmp/ccDL7Chx.s:6435   .debug_str:0000000000000a2f .LASF256
     /tmp/ccDL7Chx.s:6419   .debug_str:00000000000009d3 .LASF257
     /tmp/ccDL7Chx.s:6369   .debug_str:000000000000084c .LASF258
     /tmp/ccDL7Chx.s:6683   .debug_str:000000000000124b .LASF259
     /tmp/ccDL7Chx.s:6353   .debug_str:00000000000007a5 .LASF260
     /tmp/ccDL7Chx.s:6201   .debug_str:0000000000000329 .LASF261
     /tmp/ccDL7Chx.s:6663   .debug_str:00000000000010eb .LASF262
     /tmp/ccDL7Chx.s:6441   .debug_str:0000000000000a63 .LASF263
     /tmp/ccDL7Chx.s:6743   .debug_str:000000000000145e .LASF264
     /tmp/ccDL7Chx.s:6375   .debug_str:000000000000086d .LASF265
     /tmp/ccDL7Chx.s:6259   .debug_str:0000000000000500 .LASF266
     /tmp/ccDL7Chx.s:6615   .debug_str:0000000000000f8a .LASF267
     /tmp/ccDL7Chx.s:6339   .debug_str:0000000000000738 .LASF268
     /tmp/ccDL7Chx.s:6569   .debug_str:0000000000000e54 .LASF269
GAS LISTING /tmp/ccDL7Chx.s 			page 46


     /tmp/ccDL7Chx.s:6211   .debug_str:000000000000034e .LASF270
     /tmp/ccDL7Chx.s:6163   .debug_str:000000000000021a .LASF271
     /tmp/ccDL7Chx.s:6763   .debug_str:000000000000151f .LASF272
     /tmp/ccDL7Chx.s:6307   .debug_str:0000000000000647 .LASF273
     /tmp/ccDL7Chx.s:6277   .debug_str:0000000000000579 .LASF274
     /tmp/ccDL7Chx.s:6623   .debug_str:0000000000000fb1 .LASF275
     /tmp/ccDL7Chx.s:6377   .debug_str:0000000000000873 .LASF276
     /tmp/ccDL7Chx.s:6579   .debug_str:0000000000000e7f .LASF277
     /tmp/ccDL7Chx.s:6215   .debug_str:0000000000000375 .LASF278
     /tmp/ccDL7Chx.s:6695   .debug_str:00000000000012b6 .LASF279
     /tmp/ccDL7Chx.s:6451   .debug_str:0000000000000a99 .LASF280
     /tmp/ccDL7Chx.s:6139   .debug_str:0000000000000152 .LASF338
     /tmp/ccDL7Chx.s:6557   .debug_str:0000000000000dd2 .LASF339
     /tmp/ccDL7Chx.s:6265   .debug_str:000000000000053a .LASF281
     /tmp/ccDL7Chx.s:6383   .debug_str:00000000000008b1 .LASF282
     /tmp/ccDL7Chx.s:6299   .debug_str:0000000000000616 .LASF283
     /tmp/ccDL7Chx.s:6675   .debug_str:0000000000001207 .LASF284
     /tmp/ccDL7Chx.s:6681   .debug_str:000000000000123f .LASF285
     /tmp/ccDL7Chx.s:6585   .debug_str:0000000000000ebd .LASF286
     /tmp/ccDL7Chx.s:6351   .debug_str:0000000000000796 .LASF287
     /tmp/ccDL7Chx.s:6121   .debug_str:00000000000000e2 .LASF288
     /tmp/ccDL7Chx.s:6177   .debug_str:0000000000000286 .LASF289
     /tmp/ccDL7Chx.s:6635   .debug_str:000000000000100a .LASF290
     /tmp/ccDL7Chx.s:6699   .debug_str:00000000000012c6 .LASF291
     /tmp/ccDL7Chx.s:6613   .debug_str:0000000000000f80 .LASF292
     /tmp/ccDL7Chx.s:6447   .debug_str:0000000000000a87 .LASF293
     /tmp/ccDL7Chx.s:6619   .debug_str:0000000000000f9d .LASF294
     /tmp/ccDL7Chx.s:6095   .debug_str:0000000000000030 .LASF295
     /tmp/ccDL7Chx.s:6543   .debug_str:0000000000000d89 .LASF296
     /tmp/ccDL7Chx.s:6147   .debug_str:0000000000000190 .LASF297
     /tmp/ccDL7Chx.s:6413   .debug_str:00000000000009af .LASF298
     /tmp/ccDL7Chx.s:6219   .debug_str:0000000000000396 .LASF299
     /tmp/ccDL7Chx.s:6223   .debug_str:00000000000003bd .LASF300
     /tmp/ccDL7Chx.s:6233   .debug_str:0000000000000404 .LASF301
     /tmp/ccDL7Chx.s:1057   .text:0000000000000520 .LFE113
     /tmp/ccDL7Chx.s:6173   .debug_str:0000000000000267 .LASF303
     /tmp/ccDL7Chx.s:6513   .debug_str:0000000000000cab .LASF304
     /tmp/ccDL7Chx.s:5810   .debug_loc:0000000000000000 .LLST3
     /tmp/ccDL7Chx.s:416    .text:0000000000000160 .LBB100
     /tmp/ccDL7Chx.s:459    .text:0000000000000188 .LBE100
     /tmp/ccDL7Chx.s:6293   .debug_str:0000000000000601 .LASF305
     /tmp/ccDL7Chx.s:5829   .debug_loc:000000000000005c .LLST25
     /tmp/ccDL7Chx.s:418    .text:0000000000000160 .LBB101
     /tmp/ccDL7Chx.s:434    .text:000000000000016c .LBE101
     /tmp/ccDL7Chx.s:444    .text:0000000000000180 .LBB103
     /tmp/ccDL7Chx.s:458    .text:0000000000000188 .LBE103
     /tmp/ccDL7Chx.s:5836   .debug_loc:000000000000007f .LLST26
     /tmp/ccDL7Chx.s:442    .text:0000000000000180 .LVL16
     /tmp/ccDL7Chx.s:463    .text:0000000000000188 .LBB89
     /tmp/ccDL7Chx.s:515    .text:00000000000001ec .LBE89
     /tmp/ccDL7Chx.s:5843   .debug_loc:00000000000000a2 .LLST23
     /tmp/ccDL7Chx.s:495    .text:00000000000001c4 .LBB92
     /tmp/ccDL7Chx.s:512    .text:00000000000001ec .LBE92
     /tmp/ccDL7Chx.s:6185   .debug_str:00000000000002ad .LASF306
     /tmp/ccDL7Chx.s:5850   .debug_loc:00000000000000c5 .LLST24
     /tmp/ccDL7Chx.s:508    .text:00000000000001e8 .LVL24
     /tmp/ccDL7Chx.s:467    .text:0000000000000190 .LVL18
GAS LISTING /tmp/ccDL7Chx.s 			page 47


     /tmp/ccDL7Chx.s:481    .text:00000000000001a8 .LVL21
     /tmp/ccDL7Chx.s:6071   .debug_ranges:0000000000000000 .Ldebug_ranges0
     /tmp/ccDL7Chx.s:5858   .debug_loc:00000000000000e9 .LLST4
     /tmp/ccDL7Chx.s:6639   .debug_str:0000000000001029 .LASF307
     /tmp/ccDL7Chx.s:6735   .debug_str:000000000000141c .LASF308
     /tmp/ccDL7Chx.s:5877   .debug_loc:0000000000000145 .LLST5
     /tmp/ccDL7Chx.s:6279   .debug_str:000000000000058f .LASF309
     /tmp/ccDL7Chx.s:5888   .debug_loc:000000000000017b .LLST6
     /tmp/ccDL7Chx.s:6753   .debug_str:00000000000014bb .LASF310
     /tmp/ccDL7Chx.s:5899   .debug_loc:00000000000001b1 .LLST7
     /tmp/ccDL7Chx.s:6267   .debug_str:0000000000000544 .LASF311
     /tmp/ccDL7Chx.s:5907   .debug_loc:00000000000001d6 .LLST8
     /tmp/ccDL7Chx.s:5915   .debug_loc:00000000000001fb .LLST9
     /tmp/ccDL7Chx.s:6471   .debug_str:0000000000000b85 .LASF312
     /tmp/ccDL7Chx.s:5923   .debug_loc:0000000000000220 .LLST10
     /tmp/ccDL7Chx.s:6099   .debug_str:0000000000000055 .LASF313
     /tmp/ccDL7Chx.s:5930   .debug_loc:0000000000000243 .LLST11
     /tmp/ccDL7Chx.s:6633   .debug_str:0000000000001005 .LASF314
     /tmp/ccDL7Chx.s:5938   .debug_loc:0000000000000268 .LLST12
     /tmp/ccDL7Chx.s:248    .text:00000000000000d8 .LBB63
     /tmp/ccDL7Chx.s:264    .text:00000000000000e4 .LBE63
     /tmp/ccDL7Chx.s:539    .text:000000000000020c .LBB65
     /tmp/ccDL7Chx.s:550    .text:0000000000000210 .LBE65
     /tmp/ccDL7Chx.s:5949   .debug_loc:000000000000029e .LLST13
     /tmp/ccDL7Chx.s:552    .text:0000000000000210 .LBB67
     /tmp/ccDL7Chx.s:564    .text:0000000000000214 .LBE67
     /tmp/ccDL7Chx.s:5956   .debug_loc:00000000000002c1 .LLST14
     /tmp/ccDL7Chx.s:657    .text:0000000000000298 .LBB69
     /tmp/ccDL7Chx.s:665    .text:000000000000029c .LBE69
     /tmp/ccDL7Chx.s:5963   .debug_loc:00000000000002e4 .LLST15
     /tmp/ccDL7Chx.s:680    .text:00000000000002b4 .LBB71
     /tmp/ccDL7Chx.s:692    .text:00000000000002c4 .LBE71
     /tmp/ccDL7Chx.s:5972   .debug_loc:0000000000000309 .LLST16
     /tmp/ccDL7Chx.s:689    .text:00000000000002c4 .LVL43
     /tmp/ccDL7Chx.s:693    .text:00000000000002c4 .LBB73
     /tmp/ccDL7Chx.s:702    .text:00000000000002d0 .LBE73
     /tmp/ccDL7Chx.s:5979   .debug_loc:000000000000032c .LLST17
     /tmp/ccDL7Chx.s:699    .text:00000000000002d0 .LVL44
     /tmp/ccDL7Chx.s:715    .text:00000000000002dc .LBB75
     /tmp/ccDL7Chx.s:722    .text:00000000000002e0 .LBE75
     /tmp/ccDL7Chx.s:5986   .debug_loc:000000000000034f .LLST18
     /tmp/ccDL7Chx.s:741    .text:00000000000002fc .LBB77
     /tmp/ccDL7Chx.s:748    .text:0000000000000300 .LBE77
     /tmp/ccDL7Chx.s:5995   .debug_loc:0000000000000374 .LLST19
     /tmp/ccDL7Chx.s:529    .text:0000000000000204 .LVL27
     /tmp/ccDL7Chx.s:605    .text:000000000000024c .LVL34
     /tmp/ccDL7Chx.s:622    .text:0000000000000268 .LVL36
     /tmp/ccDL7Chx.s:632    .text:0000000000000278 .LVL37
     /tmp/ccDL7Chx.s:642    .text:0000000000000288 .LVL38
     /tmp/ccDL7Chx.s:671    .text:00000000000002a8 .LVL41
     /tmp/ccDL7Chx.s:728    .text:00000000000002ec .LVL47
     /tmp/ccDL7Chx.s:761    .text:0000000000000314 .LVL51
     /tmp/ccDL7Chx.s:780    .text:0000000000000334 .LVL53
     /tmp/ccDL7Chx.s:799    .text:0000000000000350 .LVL56
     /tmp/ccDL7Chx.s:806    .text:0000000000000364 .LVL57
     /tmp/ccDL7Chx.s:823    .text:000000000000037c .LVL59
     /tmp/ccDL7Chx.s:842    .text:000000000000039c .LVL61
GAS LISTING /tmp/ccDL7Chx.s 			page 48


     /tmp/ccDL7Chx.s:858    .text:00000000000003b8 .LVL62
     /tmp/ccDL7Chx.s:873    .text:00000000000003d8 .LVL64
     /tmp/ccDL7Chx.s:883    .text:00000000000003f0 .LVL66
     /tmp/ccDL7Chx.s:897    .text:0000000000000404 .LVL68
     /tmp/ccDL7Chx.s:1046   .text:0000000000000514 .LVL87
     /tmp/ccDL7Chx.s:905    .text:000000000000040c .LBB81
     /tmp/ccDL7Chx.s:1029   .text:0000000000000500 .LBE81
     /tmp/ccDL7Chx.s:6002   .debug_loc:0000000000000397 .LLST20
     /tmp/ccDL7Chx.s:6191   .debug_str:00000000000002f4 .LASF315
     /tmp/ccDL7Chx.s:6009   .debug_loc:00000000000003ba .LLST21
     /tmp/ccDL7Chx.s:6403   .debug_str:0000000000000954 .LASF316
     /tmp/ccDL7Chx.s:6016   .debug_loc:00000000000003dd .LLST22
     /tmp/ccDL7Chx.s:907    .text:000000000000040c .LBB82
     /tmp/ccDL7Chx.s:923    .text:0000000000000418 .LBE82
     /tmp/ccDL7Chx.s:925    .text:0000000000000418 .LBB84
     /tmp/ccDL7Chx.s:941    .text:0000000000000424 .LBE84
     /tmp/ccDL7Chx.s:943    .text:0000000000000424 .LBB86
     /tmp/ccDL7Chx.s:959    .text:0000000000000430 .LBE86
     /tmp/ccDL7Chx.s:964    .text:0000000000000440 .LVL73
     /tmp/ccDL7Chx.s:971    .text:0000000000000454 .LVL74
     /tmp/ccDL7Chx.s:976    .text:0000000000000464 .LVL75
     /tmp/ccDL7Chx.s:981    .text:0000000000000474 .LVL76
     /tmp/ccDL7Chx.s:988    .text:0000000000000488 .LVL77
     /tmp/ccDL7Chx.s:993    .text:0000000000000498 .LVL78
     /tmp/ccDL7Chx.s:998    .text:00000000000004a8 .LVL79
     /tmp/ccDL7Chx.s:1005   .text:00000000000004bc .LVL80
     /tmp/ccDL7Chx.s:1010   .text:00000000000004cc .LVL81
     /tmp/ccDL7Chx.s:1015   .text:00000000000004dc .LVL82
     /tmp/ccDL7Chx.s:1022   .text:00000000000004f0 .LVL83
     /tmp/ccDL7Chx.s:1027   .text:0000000000000500 .LVL84
     /tmp/ccDL7Chx.s:204    .text:00000000000000a0 .LBB57
     /tmp/ccDL7Chx.s:220    .text:00000000000000ac .LBE57
     /tmp/ccDL7Chx.s:399    .text:0000000000000154 .LBB105
     /tmp/ccDL7Chx.s:414    .text:0000000000000160 .LBE105
     /tmp/ccDL7Chx.s:6023   .debug_loc:0000000000000400 .LLST27
     /tmp/ccDL7Chx.s:384    .text:000000000000013c .LVL12
     /tmp/ccDL7Chx.s:1050   .text:0000000000000520 .LVL88
     /tmp/ccDL7Chx.s:62     .text:0000000000000028 .LFB112
     /tmp/ccDL7Chx.s:118    .text:0000000000000058 .LFE112
     /tmp/ccDL7Chx.s:76     .text:0000000000000038 .LBB53
     /tmp/ccDL7Chx.s:89     .text:0000000000000040 .LBE53
     /tmp/ccDL7Chx.s:6031   .debug_loc:0000000000000424 .LLST1
     /tmp/ccDL7Chx.s:102    .text:000000000000004c .LBB55
     /tmp/ccDL7Chx.s:114    .text:0000000000000054 .LBE55
     /tmp/ccDL7Chx.s:6040   .debug_loc:000000000000044a .LLST2
     /tmp/ccDL7Chx.s:10     .text:0000000000000000 .LFB111
     /tmp/ccDL7Chx.s:56     .text:0000000000000028 .LFE111
     /tmp/ccDL7Chx.s:22     .text:000000000000000c .LBB51
     /tmp/ccDL7Chx.s:35     .text:0000000000000014 .LBE51
     /tmp/ccDL7Chx.s:6049   .debug_loc:0000000000000470 .LLST0
     /tmp/ccDL7Chx.s:6483   .debug_str:0000000000000bda .LASF317
     /tmp/ccDL7Chx.s:6515   .debug_str:0000000000000cb2 .LASF318
     /tmp/ccDL7Chx.s:6553   .debug_str:0000000000000db5 .LASF319
     /tmp/ccDL7Chx.s:6647   .debug_str:000000000000107b .LASF340
     /tmp/ccDL7Chx.s:6723   .debug_str:00000000000013ad .LASF320
     /tmp/ccDL7Chx.s:6693   .debug_str:00000000000012a8 .LASF321
     /tmp/ccDL7Chx.s:6179   .debug_str:0000000000000292 .LASF328
GAS LISTING /tmp/ccDL7Chx.s 			page 49


     /tmp/ccDL7Chx.s:6319   .debug_str:00000000000006ae .LASF330
     /tmp/ccDL7Chx.s:6535   .debug_str:0000000000000d4a .LASF322
     /tmp/ccDL7Chx.s:6707   .debug_str:0000000000001322 .LASF323
     /tmp/ccDL7Chx.s:6725   .debug_str:00000000000013b8 .LASF324
     /tmp/ccDL7Chx.s:6561   .debug_str:0000000000000e14 .LASF325
     /tmp/ccDL7Chx.s:6507   .debug_str:0000000000000c8f .LASF326
     /tmp/ccDL7Chx.s:6159   .debug_str:00000000000001fe .LASF327
     /tmp/ccDL7Chx.s:6673   .debug_str:00000000000011f8 .LASF329
     /tmp/ccDL7Chx.s:6105   .debug_str:000000000000007b .LASF331
     /tmp/ccDL7Chx.s:218    .text:00000000000000ac .LVL7
     /tmp/ccDL7Chx.s:262    .text:00000000000000e4 .LVL8
     /tmp/ccDL7Chx.s:365    .text:0000000000000114 .LVL10
     /tmp/ccDL7Chx.s:374    .text:000000000000011c .LVL11
     /tmp/ccDL7Chx.s:455    .text:0000000000000188 .LVL17
     /tmp/ccDL7Chx.s:469    .text:0000000000000194 .LVL19
     /tmp/ccDL7Chx.s:902    .text:000000000000040c .LVL69
     /tmp/ccDL7Chx.s:1035   .text:0000000000000504 .LVL85
     /tmp/ccDL7Chx.s:432    .text:000000000000016c .LVL15
     /tmp/ccDL7Chx.s:474    .text:000000000000019c .LVL20
     /tmp/ccDL7Chx.s:500    .text:00000000000001d0 .LVL22
     /tmp/ccDL7Chx.s:505    .text:00000000000001dc .LVL23
     /tmp/ccDL7Chx.s:267    .text:00000000000000e8 .LVL9
     /tmp/ccDL7Chx.s:510    .text:00000000000001ec .LVL25
     /tmp/ccDL7Chx.s:560    .text:0000000000000214 .LVL31
     /tmp/ccDL7Chx.s:587    .text:0000000000000234 .LVL32
     /tmp/ccDL7Chx.s:1038   .text:0000000000000508 .LVL86
     /tmp/ccDL7Chx.s:522    .text:00000000000001f0 .LVL26
     /tmp/ccDL7Chx.s:533    .text:0000000000000208 .LVL28
     /tmp/ccDL7Chx.s:598    .text:0000000000000238 .LVL33
     /tmp/ccDL7Chx.s:610    .text:0000000000000254 .LVL35
     /tmp/ccDL7Chx.s:790    .text:0000000000000340 .LVL54
     /tmp/ccDL7Chx.s:814    .text:0000000000000370 .LVL58
     /tmp/ccDL7Chx.s:830    .text:0000000000000388 .LVL60
     /tmp/ccDL7Chx.s:866    .text:00000000000003c0 .LVL63
     /tmp/ccDL7Chx.s:875    .text:00000000000003dc .LVL65
     /tmp/ccDL7Chx.s:889    .text:00000000000003f8 .LVL67
     /tmp/ccDL7Chx.s:756    .text:0000000000000308 .LVL50
     /tmp/ccDL7Chx.s:766    .text:000000000000031c .LVL52
     /tmp/ccDL7Chx.s:794    .text:0000000000000344 .LVL55
     /tmp/ccDL7Chx.s:538    .text:000000000000020c .LVL29
     /tmp/ccDL7Chx.s:547    .text:0000000000000210 .LVL30
     /tmp/ccDL7Chx.s:656    .text:0000000000000298 .LVL39
     /tmp/ccDL7Chx.s:663    .text:000000000000029c .LVL40
     /tmp/ccDL7Chx.s:679    .text:00000000000002b4 .LVL42
     /tmp/ccDL7Chx.s:714    .text:00000000000002dc .LVL45
     /tmp/ccDL7Chx.s:720    .text:00000000000002e0 .LVL46
     /tmp/ccDL7Chx.s:740    .text:00000000000002fc .LVL48
     /tmp/ccDL7Chx.s:746    .text:0000000000000300 .LVL49
     /tmp/ccDL7Chx.s:921    .text:0000000000000418 .LVL70
     /tmp/ccDL7Chx.s:939    .text:0000000000000424 .LVL71
     /tmp/ccDL7Chx.s:957    .text:0000000000000430 .LVL72
     /tmp/ccDL7Chx.s:398    .text:0000000000000154 .LVL13
     /tmp/ccDL7Chx.s:411    .text:0000000000000160 .LVL14
     /tmp/ccDL7Chx.s:75     .text:0000000000000038 .LVL3
     /tmp/ccDL7Chx.s:85     .text:0000000000000040 .LVL4
     /tmp/ccDL7Chx.s:101    .text:000000000000004c .LVL5
     /tmp/ccDL7Chx.s:111    .text:0000000000000054 .LVL6
GAS LISTING /tmp/ccDL7Chx.s 			page 50


     /tmp/ccDL7Chx.s:21     .text:000000000000000c .LVL0
     /tmp/ccDL7Chx.s:32     .text:0000000000000014 .LVL1
     /tmp/ccDL7Chx.s:1095   .debug_info:0000000000000000 .Ldebug_info0
     /tmp/ccDL7Chx.s:246    .text:00000000000000d8 .LBB62
     /tmp/ccDL7Chx.s:367    .text:0000000000000114 .LBE62
     /tmp/ccDL7Chx.s:517    .text:00000000000001ec .LBB79
     /tmp/ccDL7Chx.s:565    .text:0000000000000214 .LBE79
     /tmp/ccDL7Chx.s:593    .text:0000000000000234 .LBB80
     /tmp/ccDL7Chx.s:904    .text:000000000000040c .LBE80
     /tmp/ccDL7Chx.s:1042   .text:0000000000000508 .LBB88
     /tmp/ccDL7Chx.s:1052   .text:0000000000000520 .LBE88
     /tmp/ccDL7Chx.s:1060   .gcc_except_table:0000000000000000 .LLSDA113

UNDEFINED SYMBOLS
_ZN3TCB16timeSliceCounterE
_ZN10StruLisBuf8timelistE
_ZN8TimeList4tickEv
_ZN3TCB7runningE
_ZN3TCB8dispatchEv
plic_claim
plic_complete
CONSOLE_STATUS
CONSOLE_RX_DATA
_ZN10StruLisBuf8bufferInE
_ZN7_Buffer7sys_putEc
_ZN3TCB17initThreadWithRunEPFvPvES0_Pm
_ZN3TCB19initThreadWithNoRunEPFvPvES0_Pm
_ZN3TCB5startEv
_ZN3TCB4exitEv
_ZdaPv
__mem_free
__mem_alloc
_ZN4_semnwEm
_ZN4_semC1EPPS_j
_ZN4_sem5closeEv
_ZN4_sem4waitEv
_ZN4_sem6signalEv
_ZN10StruLisBuf9bufferOutE
_ZN7_Buffer7sys_getEv
_ZN3TCB5sleepEm
_Z11printStringPKc
_Z8printIntiii
_ZN4_semdlEPv
_Unwind_Resume
__gxx_personality_v0
