GAS LISTING /tmp/ccnTfDU9.s 			page 1


   1              		.file	"riscv.cpp"
   2              		.option pic
   3              		.option norelax
   4              		.text
   5              	.Ltext0:
   6              		.align	2
   7              		.globl	_ZN5Riscv10popSppSpieEv
   9              	_ZN5Riscv10popSppSpieEv:
  10              	.LFB104:
  11              		.file 1 "src/riscv.cpp"
   1:src/riscv.cpp **** //
   2:src/riscv.cpp **** // Created by os on 7/30/22.
   3:src/riscv.cpp **** //
   4:src/riscv.cpp **** #include "../h/riscv.hpp"
   5:src/riscv.cpp **** #include "../h/globals.hpp"
   6:src/riscv.cpp **** #include "../lib/console.h"
   7:src/riscv.cpp **** #include "../test/printing.hpp"
   8:src/riscv.cpp **** #include "../h/tcb.hpp"
   9:src/riscv.cpp **** #include "../h/syscall_c.hpp"
  10:src/riscv.cpp **** #include "../lib/mem.h"
  11:src/riscv.cpp **** #include "../h/_sem.hpp"
  12:src/riscv.cpp **** _Buffer * Riscv::bufferIn = nullptr;
  13:src/riscv.cpp **** _Buffer * Riscv::bufferOut = nullptr;
  14:src/riscv.cpp **** TimeList * Riscv::timelist = nullptr;
  15:src/riscv.cpp **** 
  16:src/riscv.cpp **** void Riscv::popSppSpie() {
  12              		.loc 1 16 26
  13              		.cfi_startproc
  14 0000 130101FF 		addi	sp,sp,-16
  15              		.cfi_def_cfa_offset 16
  16 0004 23348100 		sd	s0,8(sp)
  17              		.cfi_offset 8, -8
  18 0008 13040101 		addi	s0,sp,16
  19              		.cfi_def_cfa 8, 0
  17:src/riscv.cpp ****     mc_sstatus(SSTATUS_SPP);
  20              		.loc 1 17 5
  21              	.LVL0:
  22              	.LBB49:
  23              	.LBB50:
  24              		.file 2 "src/../h/riscv.hpp"
   1:src/../h/riscv.hpp **** //
   2:src/../h/riscv.hpp **** // Created by os on 7/20/22.
   3:src/../h/riscv.hpp **** //
   4:src/../h/riscv.hpp **** 
   5:src/../h/riscv.hpp **** #ifndef OSPROJECT_RISCV_HPP
   6:src/../h/riscv.hpp **** #define OSPROJECT_RISCV_HPP
   7:src/../h/riscv.hpp **** 
   8:src/../h/riscv.hpp **** #include "../lib/hw.h"
   9:src/../h/riscv.hpp **** #include "Buffer.hpp"
  10:src/../h/riscv.hpp **** #include "TimeList.hpp"
  11:src/../h/riscv.hpp **** class Riscv
  12:src/../h/riscv.hpp **** {
  13:src/../h/riscv.hpp **** public:
  14:src/../h/riscv.hpp **** 
  15:src/../h/riscv.hpp ****     // pop sstatus.spp and sstatus.spie bits (has to be a non inline function)
  16:src/../h/riscv.hpp ****     static void popSppSpie();
  17:src/../h/riscv.hpp **** 
GAS LISTING /tmp/ccnTfDU9.s 			page 2


  18:src/../h/riscv.hpp ****     // push x3..x31 registers onto stack
  19:src/../h/riscv.hpp ****     static void pushRegisters();
  20:src/../h/riscv.hpp **** 
  21:src/../h/riscv.hpp ****     // pop x3..x31 registers onto stack
  22:src/../h/riscv.hpp ****     static void popRegisters();
  23:src/../h/riscv.hpp **** 
  24:src/../h/riscv.hpp ****     // read register scause
  25:src/../h/riscv.hpp ****     static uint64 r_scause();
  26:src/../h/riscv.hpp **** 
  27:src/../h/riscv.hpp ****     // write register scause
  28:src/../h/riscv.hpp ****     static void w_scause(uint64 scause);
  29:src/../h/riscv.hpp **** 
  30:src/../h/riscv.hpp ****     // read register sepc
  31:src/../h/riscv.hpp ****     static uint64 r_sepc();
  32:src/../h/riscv.hpp **** 
  33:src/../h/riscv.hpp ****     // write register sepc
  34:src/../h/riscv.hpp ****     static void w_sepc(uint64 sepc);
  35:src/../h/riscv.hpp **** 
  36:src/../h/riscv.hpp ****     // read register stvec
  37:src/../h/riscv.hpp ****     static uint64 r_stvec();
  38:src/../h/riscv.hpp **** 
  39:src/../h/riscv.hpp ****     // write register stvec
  40:src/../h/riscv.hpp ****     static void w_stvec(uint64 stvec);
  41:src/../h/riscv.hpp **** 
  42:src/../h/riscv.hpp ****     // read register stval
  43:src/../h/riscv.hpp ****     static uint64 r_stval();
  44:src/../h/riscv.hpp **** 
  45:src/../h/riscv.hpp ****     // write register stval
  46:src/../h/riscv.hpp ****     static void w_stval(uint64 stval);
  47:src/../h/riscv.hpp **** 
  48:src/../h/riscv.hpp ****     enum BitMaskSip:uint64
  49:src/../h/riscv.hpp ****     {
  50:src/../h/riscv.hpp ****         SIP_SSIP = (1UL << 1),
  51:src/../h/riscv.hpp ****         SIP_STIP = (1UL << 5),
  52:src/../h/riscv.hpp ****         SIP_SEIP = (1UL << 9),
  53:src/../h/riscv.hpp ****     };
  54:src/../h/riscv.hpp **** 
  55:src/../h/riscv.hpp ****     // mask set register sip
  56:src/../h/riscv.hpp ****     static void ms_sip(uint64 mask);
  57:src/../h/riscv.hpp **** 
  58:src/../h/riscv.hpp ****     // mask clear register sip
  59:src/../h/riscv.hpp ****     static void mc_sip(uint64 mask);
  60:src/../h/riscv.hpp **** 
  61:src/../h/riscv.hpp ****     // read register sip
  62:src/../h/riscv.hpp ****     static uint64 r_sip();
  63:src/../h/riscv.hpp **** 
  64:src/../h/riscv.hpp ****     // write register sip
  65:src/../h/riscv.hpp ****     static void w_sip(uint64 sip);
  66:src/../h/riscv.hpp ****     //write return Value
  67:src/../h/riscv.hpp ****     static void retValueRISV(uint64 retVal);
  68:src/../h/riscv.hpp **** 
  69:src/../h/riscv.hpp **** 
  70:src/../h/riscv.hpp ****     enum BitMaskSstatus:uint64
  71:src/../h/riscv.hpp ****     {
  72:src/../h/riscv.hpp ****         SSTATUS_SIE = (1UL << 1),
  73:src/../h/riscv.hpp ****         SSTATUS_SPIE = (1UL << 5),
  74:src/../h/riscv.hpp ****         SSTATUS_SPP = (1UL << 8),
GAS LISTING /tmp/ccnTfDU9.s 			page 3


  75:src/../h/riscv.hpp ****     };
  76:src/../h/riscv.hpp **** 
  77:src/../h/riscv.hpp ****     // mask set register sstatus
  78:src/../h/riscv.hpp ****     static void ms_sstatus(uint64 mask);
  79:src/../h/riscv.hpp **** 
  80:src/../h/riscv.hpp ****     // mask clear register sstatus
  81:src/../h/riscv.hpp ****     static void mc_sstatus(uint64 mask);
  82:src/../h/riscv.hpp **** 
  83:src/../h/riscv.hpp ****     // read register sstatus
  84:src/../h/riscv.hpp ****     static uint64 r_sstatus();
  85:src/../h/riscv.hpp **** 
  86:src/../h/riscv.hpp ****     // write register sstatus
  87:src/../h/riscv.hpp ****     static void w_sstatus(uint64 sstatus);
  88:src/../h/riscv.hpp **** 
  89:src/../h/riscv.hpp ****     //supervisor trap
  90:src/../h/riscv.hpp ****     static void supervisorTrap();
  91:src/../h/riscv.hpp ****     //restores privilage
  92:src/../h/riscv.hpp ****     static void Rest_Priv(bool status);
  93:src/../h/riscv.hpp **** 
  94:src/../h/riscv.hpp ****     static _Buffer * bufferIn ;
  95:src/../h/riscv.hpp ****     static _Buffer * bufferOut ;
  96:src/../h/riscv.hpp ****     static TimeList * timelist;
  97:src/../h/riscv.hpp **** 
  98:src/../h/riscv.hpp **** private:
  99:src/../h/riscv.hpp ****     // obradjuje prekid
 100:src/../h/riscv.hpp ****     static void handleSupervisorTrap();
 101:src/../h/riscv.hpp **** 
 102:src/../h/riscv.hpp **** };
 103:src/../h/riscv.hpp **** 
 104:src/../h/riscv.hpp **** inline uint64 Riscv::r_scause()
 105:src/../h/riscv.hpp **** {
 106:src/../h/riscv.hpp ****     uint64 volatile scause;
 107:src/../h/riscv.hpp ****     __asm__ volatile ("csrr %[scause], scause" : [scause] "=r"(scause));
 108:src/../h/riscv.hpp ****     return scause;
 109:src/../h/riscv.hpp **** }
 110:src/../h/riscv.hpp **** 
 111:src/../h/riscv.hpp **** inline void Riscv::w_scause(uint64 scause)
 112:src/../h/riscv.hpp **** {
 113:src/../h/riscv.hpp ****     __asm__ volatile ("csrw scause, %[scause]" : : [scause] "r"(scause));
 114:src/../h/riscv.hpp **** }
 115:src/../h/riscv.hpp **** 
 116:src/../h/riscv.hpp **** inline uint64 Riscv::r_sepc()
 117:src/../h/riscv.hpp **** {
 118:src/../h/riscv.hpp ****     uint64 volatile sepc;
 119:src/../h/riscv.hpp ****     __asm__ volatile ("csrr %[sepc], sepc" : [sepc] "=r"(sepc));
 120:src/../h/riscv.hpp ****     return sepc;
 121:src/../h/riscv.hpp **** }
 122:src/../h/riscv.hpp **** 
 123:src/../h/riscv.hpp **** inline void Riscv::w_sepc(uint64 sepc)
 124:src/../h/riscv.hpp **** {
 125:src/../h/riscv.hpp ****     __asm__ volatile ("csrw sepc, %[sepc]" : : [sepc] "r"(sepc));
 126:src/../h/riscv.hpp **** }
 127:src/../h/riscv.hpp **** 
 128:src/../h/riscv.hpp **** inline uint64 Riscv::r_stvec()
 129:src/../h/riscv.hpp **** {
 130:src/../h/riscv.hpp ****     uint64 volatile stvec;
 131:src/../h/riscv.hpp ****     __asm__ volatile ("csrr %[stvec], stvec" : [stvec] "=r"(stvec));
GAS LISTING /tmp/ccnTfDU9.s 			page 4


 132:src/../h/riscv.hpp ****     return stvec;
 133:src/../h/riscv.hpp **** }
 134:src/../h/riscv.hpp **** 
 135:src/../h/riscv.hpp **** inline void Riscv::w_stvec(uint64 stvec)
 136:src/../h/riscv.hpp **** {
 137:src/../h/riscv.hpp ****     __asm__ volatile ("csrw stvec, %[stvec]" : : [stvec] "r"(stvec));
 138:src/../h/riscv.hpp **** }
 139:src/../h/riscv.hpp **** 
 140:src/../h/riscv.hpp **** inline uint64 Riscv::r_stval()
 141:src/../h/riscv.hpp **** {
 142:src/../h/riscv.hpp ****     uint64 volatile stval;
 143:src/../h/riscv.hpp ****     __asm__ volatile ("csrr %[stval], stval" : [stval] "=r"(stval));
 144:src/../h/riscv.hpp ****     return stval;
 145:src/../h/riscv.hpp **** }
 146:src/../h/riscv.hpp **** 
 147:src/../h/riscv.hpp **** inline void Riscv::w_stval(uint64 stval)
 148:src/../h/riscv.hpp **** {
 149:src/../h/riscv.hpp ****     __asm__ volatile ("csrw stval, %[stval]" : : [stval] "r"(stval));
 150:src/../h/riscv.hpp **** }
 151:src/../h/riscv.hpp **** 
 152:src/../h/riscv.hpp **** inline void Riscv::ms_sip(uint64 mask)
 153:src/../h/riscv.hpp **** {
 154:src/../h/riscv.hpp ****     __asm__ volatile ("csrs sip, %[mask]" : : [mask] "r"(mask));
 155:src/../h/riscv.hpp **** }
 156:src/../h/riscv.hpp **** 
 157:src/../h/riscv.hpp **** inline void Riscv::mc_sip(uint64 mask)
 158:src/../h/riscv.hpp **** {
 159:src/../h/riscv.hpp ****     __asm__ volatile ("csrc sip, %[mask]" : : [mask] "r"(mask));
 160:src/../h/riscv.hpp **** }
 161:src/../h/riscv.hpp **** 
 162:src/../h/riscv.hpp **** inline uint64 Riscv::r_sip()
 163:src/../h/riscv.hpp **** {
 164:src/../h/riscv.hpp ****     uint64 volatile sip;
 165:src/../h/riscv.hpp ****     __asm__ volatile ("csrr %[sip], sip" : [sip] "=r"(sip));
 166:src/../h/riscv.hpp ****     return sip;
 167:src/../h/riscv.hpp **** }
 168:src/../h/riscv.hpp **** 
 169:src/../h/riscv.hpp **** inline void Riscv::w_sip(uint64 sip)
 170:src/../h/riscv.hpp **** {
 171:src/../h/riscv.hpp ****     __asm__ volatile ("csrw sip, %[sip]" : : [sip] "r"(sip));
 172:src/../h/riscv.hpp **** }
 173:src/../h/riscv.hpp **** 
 174:src/../h/riscv.hpp **** inline void Riscv::ms_sstatus(uint64 mask)
 175:src/../h/riscv.hpp **** {
 176:src/../h/riscv.hpp ****     __asm__ volatile ("csrs sstatus, %[mask]" : : [mask] "r"(mask));
 177:src/../h/riscv.hpp **** }
 178:src/../h/riscv.hpp **** 
 179:src/../h/riscv.hpp **** inline void Riscv::mc_sstatus(uint64 mask)
 180:src/../h/riscv.hpp **** {
 181:src/../h/riscv.hpp ****     __asm__ volatile ("csrc sstatus, %[mask]" : : [mask] "r"(mask));
  25              		.loc 2 181 5
  26              		.loc 2 181 68 is_stmt 0
  27 000c 93070010 		li	a5,256
  28              	#APP
  29              	# 181 "src/../h/riscv.hpp" 1
 182              	}
  30              		csrc sstatus, a5
GAS LISTING /tmp/ccnTfDU9.s 			page 5


  31              	# 0 "" 2
  32              	.LVL1:
  33              	#NO_APP
  34              	.LBE50:
  35              	.LBE49:
  18:src/riscv.cpp ****     __asm__ volatile ("csrw sepc, ra");
  36              		.loc 1 18 5 is_stmt 1
  37              		.loc 1 18 39 is_stmt 0
  38              	#APP
  39              	# 18 "src/riscv.cpp" 1
  19              	    __asm__ volatile ("sret");
  40              		csrw sepc, ra
  41              	# 0 "" 2
  42              		.loc 1 19 5 is_stmt 1
  43              		.loc 1 19 30 is_stmt 0
  44              	# 19 "src/riscv.cpp" 1
  20              	}
  45              		sret
  46              	# 0 "" 2
  47              		.loc 1 20 1
  48              	#NO_APP
  49 001c 03348100 		ld	s0,8(sp)
  50              		.cfi_restore 8
  51              		.cfi_def_cfa 2, 16
  52 0020 13010101 		addi	sp,sp,16
  53              		.cfi_def_cfa_offset 0
  54 0024 67800000 		jr	ra
  55              		.cfi_endproc
  56              	.LFE104:
  58              		.align	2
  59              		.globl	_ZN5Riscv9Rest_PrivEb
  61              	_ZN5Riscv9Rest_PrivEb:
  62              	.LFB105:
  21:src/riscv.cpp **** 
  22:src/riscv.cpp **** void Riscv::Rest_Priv(bool status) {
  63              		.loc 1 22 36 is_stmt 1
  64              		.cfi_startproc
  65              	.LVL2:
  66 0028 130101FF 		addi	sp,sp,-16
  67              		.cfi_def_cfa_offset 16
  68 002c 23348100 		sd	s0,8(sp)
  69              		.cfi_offset 8, -8
  70 0030 13040101 		addi	s0,sp,16
  71              		.cfi_def_cfa 8, 0
  23:src/riscv.cpp ****     if(status){
  72              		.loc 1 23 5
  73 0034 630C0500 		beqz	a0,.L4
  24:src/riscv.cpp ****         ms_sstatus(SSTATUS_SPP);
  74              		.loc 1 24 9
  75              	.LVL3:
  76              	.LBB51:
  77              	.LBB52:
 176:src/../h/riscv.hpp **** }
  78              		.loc 2 176 5
 176:src/../h/riscv.hpp **** }
  79              		.loc 2 176 68 is_stmt 0
  80 0038 93070010 		li	a5,256
GAS LISTING /tmp/ccnTfDU9.s 			page 6


  81              	#APP
  82              	# 176 "src/../h/riscv.hpp" 1
  83              		csrs sstatus, a5
  84              	# 0 "" 2
  85              	.LVL4:
  86              	#NO_APP
  87              	.L3:
  88              	.LBE52:
  89              	.LBE51:
  25:src/riscv.cpp ****     }else{
  26:src/riscv.cpp ****         mc_sstatus(SSTATUS_SPP);
  27:src/riscv.cpp ****     }
  28:src/riscv.cpp **** }
  90              		.loc 1 28 1
  91 0040 03348100 		ld	s0,8(sp)
  92              		.cfi_remember_state
  93              		.cfi_restore 8
  94              		.cfi_def_cfa 2, 16
  95 0044 13010101 		addi	sp,sp,16
  96              		.cfi_def_cfa_offset 0
  97 0048 67800000 		jr	ra
  98              	.L4:
  99              		.cfi_restore_state
  26:src/riscv.cpp ****     }
 100              		.loc 1 26 9 is_stmt 1
 101              	.LVL5:
 102              	.LBB53:
 103              	.LBB54:
 181:src/../h/riscv.hpp **** }
 104              		.loc 2 181 5
 181:src/../h/riscv.hpp **** }
 105              		.loc 2 181 68 is_stmt 0
 106 004c 93070010 		li	a5,256
 107              	#APP
 108              	# 181 "src/../h/riscv.hpp" 1
 109              		csrc sstatus, a5
 110              	# 0 "" 2
 111              	.LVL6:
 112              	#NO_APP
 113              	.LBE54:
 114              	.LBE53:
 115              		.loc 1 28 1
 116 0054 6FF0DFFE 		j	.L3
 117              		.cfi_endproc
 118              	.LFE105:
 120              		.section	.rodata.str1.8,"aMS",@progbits,1
 121              		.align	3
 122              	.LC0:
 123 0000 73636175 		.string	"scause code: "
 123      73652063 
 123      6F64653A 
 123      2000
 124 000e 0000     		.align	3
 125              	.LC1:
 126 0010 0A00     		.string	"\n"
 127 0012 00000000 		.align	3
 127      0000
GAS LISTING /tmp/ccnTfDU9.s 			page 7


 128              	.LC2:
 129 0018 73657063 		.string	"sepc code: "
 129      20636F64 
 129      653A2000 
 130 0024 00000000 		.align	3
 131              	.LC3:
 132 0028 73747661 		.string	"stval code: "
 132      6C20636F 
 132      64653A20 
 132      00
 133 0035 000000   		.align	3
 134              	.LC4:
 135 0038 73737461 		.string	"sstatus code: "
 135      74757320 
 135      636F6465 
 135      3A2000
 136              		.text
 137              		.align	2
 138              		.globl	_ZN5Riscv20handleSupervisorTrapEv
 140              	_ZN5Riscv20handleSupervisorTrapEv:
 141              	.LFB106:
  29:src/riscv.cpp **** void Riscv::handleSupervisorTrap() {
 142              		.loc 1 29 36 is_stmt 1
 143              		.cfi_startproc
 144              		.cfi_personality 0x9b,DW.ref.__gxx_personality_v0
 145              		.cfi_lsda 0x1b,.LLSDA106
 146 0058 130101F5 		addi	sp,sp,-176
 147              		.cfi_def_cfa_offset 176
 148 005c 2334110A 		sd	ra,168(sp)
 149 0060 2330810A 		sd	s0,160(sp)
 150 0064 233C9108 		sd	s1,152(sp)
 151 0068 23382109 		sd	s2,144(sp)
 152 006c 23343109 		sd	s3,136(sp)
 153 0070 23304109 		sd	s4,128(sp)
 154              		.cfi_offset 1, -8
 155              		.cfi_offset 8, -16
 156              		.cfi_offset 9, -24
 157              		.cfi_offset 18, -32
 158              		.cfi_offset 19, -40
 159              		.cfi_offset 20, -48
 160 0074 1304010B 		addi	s0,sp,176
 161              		.cfi_def_cfa 8, 0
  30:src/riscv.cpp **** 
  31:src/riscv.cpp ****     uint64 args[5];
 162              		.loc 1 31 5
  32:src/riscv.cpp ****     __asm__ volatile ("mv %0, a4" : "=r" (args[4]));
 163              		.loc 1 32 5
 164              		.loc 1 32 52 is_stmt 0
 165              	#APP
 166              	# 32 "src/riscv.cpp" 1
  33              	    __asm__ volatile ("mv %0, a3" : "=r" (args[3]));
 167              		mv a5, a4
 168              	# 0 "" 2
 169              	#NO_APP
 170 007c 2334F4FC 		sd	a5,-56(s0)
 171              		.loc 1 33 5 is_stmt 1
 172              		.loc 1 33 52 is_stmt 0
GAS LISTING /tmp/ccnTfDU9.s 			page 8


 173              	#APP
 174              	# 33 "src/riscv.cpp" 1
  34              	    __asm__ volatile ("mv %0, a2" : "=r" (args[2]));
 175              		mv a5, a3
 176              	# 0 "" 2
 177              	#NO_APP
 178 0084 2330F4FC 		sd	a5,-64(s0)
 179              		.loc 1 34 5 is_stmt 1
 180              		.loc 1 34 52 is_stmt 0
 181              	#APP
 182              	# 34 "src/riscv.cpp" 1
  35              	    __asm__ volatile ("mv %0, a1" : "=r" (args[1]));
 183              		mv a5, a2
 184              	# 0 "" 2
 185              	#NO_APP
 186 008c 233CF4FA 		sd	a5,-72(s0)
 187              		.loc 1 35 5 is_stmt 1
 188              		.loc 1 35 52 is_stmt 0
 189              	#APP
 190              	# 35 "src/riscv.cpp" 1
  36              	    __asm__ volatile ("mv %0, a0" : "=r" (args[0]));
 191              		mv a5, a1
 192              	# 0 "" 2
 193              	#NO_APP
 194 0094 2338F4FA 		sd	a5,-80(s0)
 195              		.loc 1 36 5 is_stmt 1
 196              		.loc 1 36 52 is_stmt 0
 197              	#APP
 198              	# 36 "src/riscv.cpp" 1
  37              	    uint64 scause = r_scause();
 199              		mv a5, a0
 200              	# 0 "" 2
 201              	#NO_APP
 202 009c 2334F4FA 		sd	a5,-88(s0)
 203              		.loc 1 37 5 is_stmt 1
 204              	.LBB55:
 205              	.LBB56:
 106:src/../h/riscv.hpp ****     __asm__ volatile ("csrr %[scause], scause" : [scause] "=r"(scause));
 206              		.loc 2 106 5
 107:src/../h/riscv.hpp ****     return scause;
 207              		.loc 2 107 5
 107:src/../h/riscv.hpp ****     return scause;
 208              		.loc 2 107 72 is_stmt 0
 209              	#APP
 210              	# 107 "src/../h/riscv.hpp" 1
 211              		csrr a5, scause
 212              	# 0 "" 2
 213              	#NO_APP
 214 00a4 233CF4F6 		sd	a5,-136(s0)
 108:src/../h/riscv.hpp **** }
 215              		.loc 2 108 5 is_stmt 1
 108:src/../h/riscv.hpp **** }
 216              		.loc 2 108 12 is_stmt 0
 217 00a8 833484F7 		ld	s1,-136(s0)
 218              	.LVL7:
 219              	.LBE56:
 220              	.LBE55:
GAS LISTING /tmp/ccnTfDU9.s 			page 9


  38:src/riscv.cpp **** 
  39:src/riscv.cpp ****     if(scause==SOFTWARE){
 221              		.loc 1 39 5 is_stmt 1
 222              	.LBB57:
 223 00ac 9307F0FF 		li	a5,-1
 224 00b0 9397F703 		slli	a5,a5,63
 225 00b4 93871700 		addi	a5,a5,1
 226 00b8 638EF404 		beq	s1,a5,.L40
 227              	.LBE57:
  40:src/riscv.cpp **** 
  41:src/riscv.cpp ****         //interrupt: yes,  couse code: supervisor software interrupt timer
  42:src/riscv.cpp ****         TCB::timeSliceCounter++;
  43:src/riscv.cpp ****         timelist->tick();
  44:src/riscv.cpp ****         if(TCB::timeSliceCounter >= TCB::running->timeSlice) {
  45:src/riscv.cpp **** 
  46:src/riscv.cpp ****             uint64 sepc = r_sepc();
  47:src/riscv.cpp ****             TCB::timeSliceCounter=0;
  48:src/riscv.cpp ****             TCB::dispatch();
  49:src/riscv.cpp ****             w_sepc(sepc);
  50:src/riscv.cpp **** 
  51:src/riscv.cpp ****         }
  52:src/riscv.cpp **** 
  53:src/riscv.cpp ****         mc_sip(SIP_SSIP);
  54:src/riscv.cpp **** 
  55:src/riscv.cpp ****     }else if(scause==HARDWARE){
 228              		.loc 1 55 11
 229              	.LBB107:
 230              	.LBB58:
 231 00bc 9307F0FF 		li	a5,-1
 232 00c0 9397F703 		slli	a5,a5,63
 233 00c4 93879700 		addi	a5,a5,9
 234 00c8 638EF40A 		beq	s1,a5,.L41
 235              	.LBE58:
 236              	.LBE107:
  56:src/riscv.cpp **** 
  57:src/riscv.cpp ****         //interrupt: yes,  couse code: supervisore external interrupt console
  58:src/riscv.cpp ****         int irq = plic_claim();
  59:src/riscv.cpp **** 
  60:src/riscv.cpp ****         if(irq==10){
  61:src/riscv.cpp ****             while (*((char*)CONSOLE_STATUS) & CONSOLE_RX_STATUS_BIT){
  62:src/riscv.cpp ****                 char inpChar = (*(char*)CONSOLE_RX_DATA);
  63:src/riscv.cpp ****                 bufferIn->sys_put(inpChar);
  64:src/riscv.cpp ****             }
  65:src/riscv.cpp **** 
  66:src/riscv.cpp ****         }
  67:src/riscv.cpp **** 
  68:src/riscv.cpp ****         plic_complete(irq);
  69:src/riscv.cpp **** 
  70:src/riscv.cpp ****     } else if(scause==ECALL_S || scause==ECALL_U){
 237              		.loc 1 70 12
 238              	.LBB108:
 239              	.LBB93:
 240              	.LBB59:
 241              		.loc 1 70 31 is_stmt 0
 242 00cc 938784FF 		addi	a5,s1,-8
 243              		.loc 1 70 12
 244 00d0 13071000 		li	a4,1
GAS LISTING /tmp/ccnTfDU9.s 			page 10


 245 00d4 6368F730 		bgtu	a5,a4,.L14
 246              	.LBB60:
  71:src/riscv.cpp **** 
  72:src/riscv.cpp ****             uint64 sepc = r_sepc()+4;
 247              		.loc 1 72 13 is_stmt 1
 248              	.LBB61:
 249              	.LBB62:
 118:src/../h/riscv.hpp ****     __asm__ volatile ("csrr %[sepc], sepc" : [sepc] "=r"(sepc));
 250              		.loc 2 118 5
 119:src/../h/riscv.hpp ****     return sepc;
 251              		.loc 2 119 5
 119:src/../h/riscv.hpp ****     return sepc;
 252              		.loc 2 119 64 is_stmt 0
 253              	#APP
 254              	# 119 "src/../h/riscv.hpp" 1
 255              		csrr a5, sepc
 256              	# 0 "" 2
 257              	#NO_APP
 258 00dc 2334F4F8 		sd	a5,-120(s0)
 120:src/../h/riscv.hpp **** }
 259              		.loc 2 120 5 is_stmt 1
 120:src/../h/riscv.hpp **** }
 260              		.loc 2 120 12 is_stmt 0
 261 00e0 833484F8 		ld	s1,-120(s0)
 262              	.LVL8:
 263              	.LBE62:
 264              	.LBE61:
 265              		.loc 1 72 36
 266 00e4 93844400 		addi	s1,s1,4
 267              	.LVL9:
  73:src/riscv.cpp ****             uint64 volatile retVal=0;
 268              		.loc 1 73 13 is_stmt 1
 269              		.loc 1 73 29 is_stmt 0
 270 00e8 233C04F4 		sd	zero,-168(s0)
  74:src/riscv.cpp ****         thread_t * handler;
 271              		.loc 1 74 9 is_stmt 1
  75:src/riscv.cpp ****         sem_t*handleSem;
 272              		.loc 1 75 9
  76:src/riscv.cpp ****         sem_t handleSemSem;
 273              		.loc 1 76 9
  77:src/riscv.cpp ****         sem_t volatile id;
 274              		.loc 1 77 9
  78:src/riscv.cpp ****         thread_t volatile thHandl;
 275              		.loc 1 78 9
  79:src/riscv.cpp ****         size_t  volatile size;
 276              		.loc 1 79 9
  80:src/riscv.cpp ****         char c;
 277              		.loc 1 80 9
  81:src/riscv.cpp ****         time_t time;
 278              		.loc 1 81 9
  82:src/riscv.cpp ****         uint64 retchar;
 279              		.loc 1 82 9
  83:src/riscv.cpp ****         void * pointerForDealoc;
 280              		.loc 1 83 9
  84:src/riscv.cpp ****         unsigned init;
 281              		.loc 1 84 9
  85:src/riscv.cpp ****         switch (args[0]) {
GAS LISTING /tmp/ccnTfDU9.s 			page 11


 282              		.loc 1 85 9
 283              		.loc 1 85 23 is_stmt 0
 284 00ec 833784FA 		ld	a5,-88(s0)
 285 00f0 13072004 		li	a4,66
 286 00f4 6366F710 		bgtu	a5,a4,.L15
 287 00f8 93972700 		slli	a5,a5,2
 288 00fc 17070000 		lla	a4,.L17
 288      13070700 
 289 0104 B387E700 		add	a5,a5,a4
 290 0108 83A70700 		lw	a5,0(a5)
 291 010c B387E700 		add	a5,a5,a4
 292 0110 67800700 		jr	a5
 293              		.section	.rodata
 294              		.align	2
 295              		.align	2
 296              	.L17:
 297 0000 00000000 		.word	.L15-.L17
 298 0004 00000000 		.word	.L32-.L17
 299 0008 00000000 		.word	.L31-.L17
 300 000c 00000000 		.word	.L15-.L17
 301 0010 00000000 		.word	.L15-.L17
 302 0014 00000000 		.word	.L15-.L17
 303 0018 00000000 		.word	.L15-.L17
 304 001c 00000000 		.word	.L15-.L17
 305 0020 00000000 		.word	.L15-.L17
 306 0024 00000000 		.word	.L15-.L17
 307 0028 00000000 		.word	.L15-.L17
 308 002c 00000000 		.word	.L15-.L17
 309 0030 00000000 		.word	.L15-.L17
 310 0034 00000000 		.word	.L15-.L17
 311 0038 00000000 		.word	.L15-.L17
 312 003c 00000000 		.word	.L15-.L17
 313 0040 00000000 		.word	.L30-.L17
 314 0044 00000000 		.word	.L29-.L17
 315 0048 00000000 		.word	.L28-.L17
 316 004c 00000000 		.word	.L27-.L17
 317 0050 00000000 		.word	.L26-.L17
 318 0054 00000000 		.word	.L25-.L17
 319 0058 00000000 		.word	.L24-.L17
 320 005c 00000000 		.word	.L15-.L17
 321 0060 00000000 		.word	.L15-.L17
 322 0064 00000000 		.word	.L15-.L17
 323 0068 00000000 		.word	.L15-.L17
 324 006c 00000000 		.word	.L15-.L17
 325 0070 00000000 		.word	.L15-.L17
 326 0074 00000000 		.word	.L15-.L17
 327 0078 00000000 		.word	.L15-.L17
 328 007c 00000000 		.word	.L15-.L17
 329 0080 00000000 		.word	.L15-.L17
 330 0084 00000000 		.word	.L23-.L17
 331 0088 00000000 		.word	.L22-.L17
 332 008c 00000000 		.word	.L21-.L17
 333 0090 00000000 		.word	.L20-.L17
 334 0094 00000000 		.word	.L15-.L17
 335 0098 00000000 		.word	.L15-.L17
 336 009c 00000000 		.word	.L15-.L17
 337 00a0 00000000 		.word	.L15-.L17
GAS LISTING /tmp/ccnTfDU9.s 			page 12


 338 00a4 00000000 		.word	.L15-.L17
 339 00a8 00000000 		.word	.L15-.L17
 340 00ac 00000000 		.word	.L15-.L17
 341 00b0 00000000 		.word	.L15-.L17
 342 00b4 00000000 		.word	.L15-.L17
 343 00b8 00000000 		.word	.L15-.L17
 344 00bc 00000000 		.word	.L15-.L17
 345 00c0 00000000 		.word	.L15-.L17
 346 00c4 00000000 		.word	.L19-.L17
 347 00c8 00000000 		.word	.L15-.L17
 348 00cc 00000000 		.word	.L15-.L17
 349 00d0 00000000 		.word	.L15-.L17
 350 00d4 00000000 		.word	.L15-.L17
 351 00d8 00000000 		.word	.L15-.L17
 352 00dc 00000000 		.word	.L15-.L17
 353 00e0 00000000 		.word	.L15-.L17
 354 00e4 00000000 		.word	.L15-.L17
 355 00e8 00000000 		.word	.L15-.L17
 356 00ec 00000000 		.word	.L15-.L17
 357 00f0 00000000 		.word	.L15-.L17
 358 00f4 00000000 		.word	.L15-.L17
 359 00f8 00000000 		.word	.L15-.L17
 360 00fc 00000000 		.word	.L15-.L17
 361 0100 00000000 		.word	.L15-.L17
 362 0104 00000000 		.word	.L18-.L17
 363 0108 00000000 		.word	.L16-.L17
 364              		.text
 365              	.LVL10:
 366              	.L40:
 367              	.LBE60:
 368              	.LBE59:
 369              	.LBE93:
 370              	.LBB94:
  42:src/riscv.cpp ****         timelist->tick();
 371              		.loc 1 42 9 is_stmt 1
  42:src/riscv.cpp ****         timelist->tick();
 372              		.loc 1 42 30 is_stmt 0
 373 0114 97040000 		la	s1,_ZN3TCB16timeSliceCounterE
 373      83B40400 
 374              	.LVL11:
 375 011c 83B70400 		ld	a5,0(s1)
 376 0120 93871700 		addi	a5,a5,1
 377 0124 23B0F400 		sd	a5,0(s1)
  43:src/riscv.cpp ****         if(TCB::timeSliceCounter >= TCB::running->timeSlice) {
 378              		.loc 1 43 9 is_stmt 1
  43:src/riscv.cpp ****         if(TCB::timeSliceCounter >= TCB::running->timeSlice) {
 379              		.loc 1 43 23 is_stmt 0
 380 0128 17050000 		ld	a0,.LANCHOR0
 380      03350500 
 381              	.LEHB0:
 382 0130 97000000 		call	_ZN8TimeList4tickEv@plt
 382      E7800000 
 383              	.LVL12:
  44:src/riscv.cpp **** 
 384              		.loc 1 44 9 is_stmt 1
 385              	.LBB95:
  44:src/riscv.cpp **** 
GAS LISTING /tmp/ccnTfDU9.s 			page 13


 386              		.loc 1 44 51 is_stmt 0
 387 0138 97070000 		la	a5,_ZN3TCB7runningE
 387      83B70700 
 388 0140 83B70700 		ld	a5,0(a5)
 389 0144 03B78703 		ld	a4,56(a5)
  44:src/riscv.cpp **** 
 390              		.loc 1 44 34
 391 0148 83B70400 		ld	a5,0(s1)
  44:src/riscv.cpp **** 
 392              		.loc 1 44 9
 393 014c 63F8E700 		bleu	a4,a5,.L42
 394              	.L9:
 395              	.LBE95:
  53:src/riscv.cpp **** 
 396              		.loc 1 53 9 is_stmt 1
 397              	.LVL13:
 398              	.LBB101:
 399              	.LBB102:
 159:src/../h/riscv.hpp **** }
 400              		.loc 2 159 5
 159:src/../h/riscv.hpp **** }
 401              		.loc 2 159 64 is_stmt 0
 402 0150 93072000 		li	a5,2
 403              	#APP
 404              	# 159 "src/../h/riscv.hpp" 1
 160:src/../h/riscv.hpp **** 
 405              		csrc sip, a5
 406              	# 0 "" 2
 407              		.loc 2 160 1
 408              	#NO_APP
 409 0158 6F00400B 		j	.L7
 410              	.LVL14:
 411              	.L42:
 412              	.LBE102:
 413              	.LBE101:
 414              	.LBB103:
 415              	.LBB96:
  46:src/riscv.cpp ****             TCB::timeSliceCounter=0;
 416              		.loc 1 46 13 is_stmt 1
 417              	.LBB97:
 418              	.LBB98:
 118:src/../h/riscv.hpp ****     __asm__ volatile ("csrr %[sepc], sepc" : [sepc] "=r"(sepc));
 419              		.loc 2 118 5
 119:src/../h/riscv.hpp ****     return sepc;
 420              		.loc 2 119 5
 119:src/../h/riscv.hpp ****     return sepc;
 421              		.loc 2 119 64 is_stmt 0
 422              	#APP
 423              	# 119 "src/../h/riscv.hpp" 1
 424              		csrr a5, sepc
 425              	# 0 "" 2
 426              	#NO_APP
 427 0160 2330F4F8 		sd	a5,-128(s0)
 120:src/../h/riscv.hpp **** }
 428              		.loc 2 120 5 is_stmt 1
 120:src/../h/riscv.hpp **** }
 429              		.loc 2 120 12 is_stmt 0
GAS LISTING /tmp/ccnTfDU9.s 			page 14


 430 0164 833404F8 		ld	s1,-128(s0)
 431              	.LVL15:
 432              	.LBE98:
 433              	.LBE97:
  47:src/riscv.cpp ****             TCB::dispatch();
 434              		.loc 1 47 13 is_stmt 1
  47:src/riscv.cpp ****             TCB::dispatch();
 435              		.loc 1 47 34 is_stmt 0
 436 0168 97070000 		la	a5,_ZN3TCB16timeSliceCounterE
 436      83B70700 
 437 0170 23B00700 		sd	zero,0(a5)
  48:src/riscv.cpp ****             w_sepc(sepc);
 438              		.loc 1 48 13 is_stmt 1
  48:src/riscv.cpp ****             w_sepc(sepc);
 439              		.loc 1 48 26 is_stmt 0
 440 0174 97000000 		call	_ZN3TCB8dispatchEv@plt
 440      E7800000 
 441              	.LVL16:
  49:src/riscv.cpp **** 
 442              		.loc 1 49 13 is_stmt 1
 443              	.LBB99:
 444              	.LBB100:
 125:src/../h/riscv.hpp **** }
 445              		.loc 2 125 5
 125:src/../h/riscv.hpp **** }
 446              		.loc 2 125 65 is_stmt 0
 447              	#APP
 448              	# 125 "src/../h/riscv.hpp" 1
 126:src/../h/riscv.hpp **** 
 449              		csrw sepc, s1
 450              	# 0 "" 2
 451              		.loc 2 126 1
 452              	#NO_APP
 453 0180 6FF01FFD 		j	.L9
 454              	.LVL17:
 455              	.L41:
 456              	.LBE100:
 457              	.LBE99:
 458              	.LBE96:
 459              	.LBE103:
 460              	.LBE94:
 461              	.LBB104:
 462              	.LBB85:
  58:src/riscv.cpp **** 
 463              		.loc 1 58 9 is_stmt 1
  58:src/riscv.cpp **** 
 464              		.loc 1 58 29 is_stmt 0
 465 0184 97000000 		call	plic_claim@plt
 465      E7800000 
 466              	.LVL18:
 467 018c 93040500 		mv	s1,a0
 468              	.LVL19:
  60:src/riscv.cpp ****             while (*((char*)CONSOLE_STATUS) & CONSOLE_RX_STATUS_BIT){
 469              		.loc 1 60 9 is_stmt 1
 470              	.LBB86:
 471 0190 9307A000 		li	a5,10
 472 0194 630AF500 		beq	a0,a5,.L13
GAS LISTING /tmp/ccnTfDU9.s 			page 15


 473              	.LVL20:
 474              	.L12:
 475              	.LBE86:
  68:src/riscv.cpp **** 
 476              		.loc 1 68 9
  68:src/riscv.cpp **** 
 477              		.loc 1 68 22 is_stmt 0
 478 0198 13850400 		mv	a0,s1
 479 019c 97000000 		call	plic_complete@plt
 479      E7800000 
 480              	.LVL21:
 481 01a4 6F008006 		j	.L7
 482              	.L13:
 483              	.LBB89:
 484              	.LBB87:
  61:src/riscv.cpp ****                 char inpChar = (*(char*)CONSOLE_RX_DATA);
 485              		.loc 1 61 13 is_stmt 1
  61:src/riscv.cpp ****                 char inpChar = (*(char*)CONSOLE_RX_DATA);
 486              		.loc 1 61 47
  61:src/riscv.cpp ****                 char inpChar = (*(char*)CONSOLE_RX_DATA);
 487              		.loc 1 61 20 is_stmt 0
 488 01a8 97070000 		la	a5,CONSOLE_STATUS
 488      83B70700 
 489 01b0 83B70700 		ld	a5,0(a5)
 490 01b4 83C70700 		lbu	a5,0(a5)
  61:src/riscv.cpp ****                 char inpChar = (*(char*)CONSOLE_RX_DATA);
 491              		.loc 1 61 47
 492 01b8 93F71700 		andi	a5,a5,1
 493 01bc E38E07FC 		beqz	a5,.L12
 494              	.LBB88:
  62:src/riscv.cpp ****                 bufferIn->sys_put(inpChar);
 495              		.loc 1 62 17 is_stmt 1
  62:src/riscv.cpp ****                 bufferIn->sys_put(inpChar);
 496              		.loc 1 62 33 is_stmt 0
 497 01c0 97070000 		la	a5,CONSOLE_RX_DATA
 497      83B70700 
 498 01c8 83B70700 		ld	a5,0(a5)
 499              	.LVL22:
  63:src/riscv.cpp ****             }
 500              		.loc 1 63 17 is_stmt 1
  63:src/riscv.cpp ****             }
 501              		.loc 1 63 34 is_stmt 0
 502 01cc 83C50700 		lbu	a1,0(a5)
 503 01d0 17050000 		ld	a0,.LANCHOR0+8
 503      03350500 
 504 01d8 97000000 		call	_ZN7_Buffer7sys_putEc@plt
 504      E7800000 
 505              	.LVL23:
 506 01e0 6FF09FFC 		j	.L13
 507              	.LVL24:
 508              	.L29:
 509              	.LBE88:
 510              	.LBE87:
 511              	.LBE89:
 512              	.LBE85:
 513              	.LBB90:
 514              	.LBB75:
GAS LISTING /tmp/ccnTfDU9.s 			page 16


  86:src/riscv.cpp **** 
  87:src/riscv.cpp ****             case THREAD_CREATE:
 515              		.loc 1 87 13 is_stmt 1
  88:src/riscv.cpp ****             handler = (thread_t*)args[1];
 516              		.loc 1 88 13
 517              		.loc 1 88 40 is_stmt 0
 518 01e4 033904FB 		ld	s2,-80(s0)
 519              	.LVL25:
  89:src/riscv.cpp ****             *handler= TCB::initThreadWithRun((Body)args[2],(void*)args[3],(uint64*)args[4]);
 520              		.loc 1 89 13 is_stmt 1
 521              		.loc 1 89 45 is_stmt 0
 522 01e8 033684FC 		ld	a2,-56(s0)
 523 01ec 833504FC 		ld	a1,-64(s0)
 524 01f0 033584FB 		ld	a0,-72(s0)
 525 01f4 97000000 		call	_ZN3TCB17initThreadWithRunEPFvPvES0_Pm@plt
 525      E7800000 
 526              	.LVL26:
 527              		.loc 1 89 21
 528 01fc 2330A900 		sd	a0,0(s2)
  90:src/riscv.cpp **** 
  91:src/riscv.cpp ****                 break;
 529              		.loc 1 91 17 is_stmt 1
 530              	.LVL27:
 531              	.L15:
  92:src/riscv.cpp ****             case THREAD_PREPARE:
  93:src/riscv.cpp ****                     handler = (thread_t*)args[1];
  94:src/riscv.cpp ****                     *handler= TCB::initThreadWithNoRun((Body)args[2],(void*)args[3],(uint64*)args[4
  95:src/riscv.cpp **** 
  96:src/riscv.cpp ****                     break;
  97:src/riscv.cpp ****             case THREAD_START:
  98:src/riscv.cpp ****                 thHandl=(thread_t)args[1];
  99:src/riscv.cpp ****                 retVal= thHandl->start();
 100:src/riscv.cpp ****                 break;
 101:src/riscv.cpp ****             case THREAD_EXIT:
 102:src/riscv.cpp ****                 retVal=TCB::exit();
 103:src/riscv.cpp **** 
 104:src/riscv.cpp ****                 break;
 105:src/riscv.cpp ****             case THREAD_DISPATCH:
 106:src/riscv.cpp ****                 TCB::dispatch();
 107:src/riscv.cpp ****                 break;
 108:src/riscv.cpp ****             case THREAD_DELETE:
 109:src/riscv.cpp ****                 thHandl = (thread_t)args[1];
 110:src/riscv.cpp ****                 while(!thHandl->status.getFinished()){
 111:src/riscv.cpp ****                     TCB::dispatch();
 112:src/riscv.cpp **** 
 113:src/riscv.cpp ****                 }
 114:src/riscv.cpp ****                 delete thHandl;
 115:src/riscv.cpp ****             case THREAD_JOIN:
 116:src/riscv.cpp ****                 thHandl = (thread_t)args[1];
 117:src/riscv.cpp ****                 while(!thHandl->status.getFinished()){
 118:src/riscv.cpp ****                     TCB::dispatch();
 119:src/riscv.cpp **** 
 120:src/riscv.cpp ****                 }
 121:src/riscv.cpp ****                 break;
 122:src/riscv.cpp ****             case MEM_FREE:
 123:src/riscv.cpp ****                     pointerForDealoc = (void*)args[1];
 124:src/riscv.cpp ****                     retVal=(uint64)__mem_free(pointerForDealoc);
GAS LISTING /tmp/ccnTfDU9.s 			page 17


 125:src/riscv.cpp ****                 break;
 126:src/riscv.cpp ****             case MEM_ALLOC:
 127:src/riscv.cpp ****                     size = args[1]*MEM_BLOCK_SIZE;
 128:src/riscv.cpp ****                     retVal = (uint64) __mem_alloc(size);
 129:src/riscv.cpp ****                 break;
 130:src/riscv.cpp ****             case SEM_OPEN:
 131:src/riscv.cpp ****                 handleSem = (sem_t*)args[3];
 132:src/riscv.cpp ****                 init = (unsigned)args[2];
 133:src/riscv.cpp ****                 new _sem(handleSem,init);
 134:src/riscv.cpp ****                 retVal=1;
 135:src/riscv.cpp **** 
 136:src/riscv.cpp ****                 break;
 137:src/riscv.cpp ****             case SEM_CLOSE:
 138:src/riscv.cpp ****                 handleSemSem = (sem_t)args[1];
 139:src/riscv.cpp ****                 handleSemSem->close();
 140:src/riscv.cpp ****                 retVal=1;
 141:src/riscv.cpp ****                 break;
 142:src/riscv.cpp ****             case SEM_WAIT:
 143:src/riscv.cpp ****                 id = (sem_t)args[1];
 144:src/riscv.cpp ****                 retVal=id->wait();
 145:src/riscv.cpp **** 
 146:src/riscv.cpp ****                 break;
 147:src/riscv.cpp ****             case SEM_SIGNAL:
 148:src/riscv.cpp ****                 id = (sem_t)args[1];
 149:src/riscv.cpp ****                 retVal=id->signal();
 150:src/riscv.cpp ****                 break;
 151:src/riscv.cpp ****             case PUTC:
 152:src/riscv.cpp ****                  c = (char)args[1];
 153:src/riscv.cpp ****                     bufferOut->sys_put(c);
 154:src/riscv.cpp ****                 break;
 155:src/riscv.cpp ****             case GETC:
 156:src/riscv.cpp ****                retchar = bufferIn->sys_get();
 157:src/riscv.cpp ****                 retVal=(uint64)retchar;
 158:src/riscv.cpp **** 
 159:src/riscv.cpp ****                 break;
 160:src/riscv.cpp ****             case TIME_SLEEP:
 161:src/riscv.cpp ****                 time = (time_t)args[1];
 162:src/riscv.cpp ****                     retVal = TCB::sleep(time);
 163:src/riscv.cpp ****                 break;
 164:src/riscv.cpp ****         }
 165:src/riscv.cpp ****               retValueRISV(retVal);
 532              		.loc 1 165 15
 533              		.loc 1 165 27 is_stmt 0
 534 0200 833784F5 		ld	a5,-168(s0)
 535              	.LVL28:
 536              	.LBB63:
 537              	.LBB64:
 183:src/../h/riscv.hpp **** 
 184:src/../h/riscv.hpp **** inline uint64 Riscv::r_sstatus()
 185:src/../h/riscv.hpp **** {
 186:src/../h/riscv.hpp ****     uint64 volatile sstatus;
 187:src/../h/riscv.hpp ****     __asm__ volatile ("csrr %[sstatus], sstatus" : [sstatus] "=r"(sstatus));
 188:src/../h/riscv.hpp ****     return sstatus;
 189:src/../h/riscv.hpp **** }
 190:src/../h/riscv.hpp **** 
 191:src/../h/riscv.hpp **** inline void Riscv::w_sstatus(uint64 sstatus)
 192:src/../h/riscv.hpp **** {
GAS LISTING /tmp/ccnTfDU9.s 			page 18


 193:src/../h/riscv.hpp ****     __asm__ volatile ("csrw sstatus, %[sstatus]" : : [sstatus] "r"(sstatus));
 194:src/../h/riscv.hpp **** }
 195:src/../h/riscv.hpp **** inline void Riscv::retValueRISV(uint64 retVal)
 196:src/../h/riscv.hpp **** {
 197:src/../h/riscv.hpp ****     __asm__ volatile ("mv a0, %0" : : "r" (retVal));
 538              		.loc 2 197 5 is_stmt 1
 539              		.loc 2 197 52 is_stmt 0
 540              	#APP
 541              	# 197 "src/../h/riscv.hpp" 1
 198              	}
 542              		mv a0, a5
 543              	# 0 "" 2
 544              	.LVL29:
 545              	#NO_APP
 546              	.LBE64:
 547              	.LBE63:
 166:src/riscv.cpp ****                w_sepc(sepc);
 548              		.loc 1 166 16 is_stmt 1
 549              	.LBB65:
 550              	.LBB66:
 125:src/../h/riscv.hpp **** }
 551              		.loc 2 125 5
 125:src/../h/riscv.hpp **** }
 552              		.loc 2 125 65 is_stmt 0
 553              	#APP
 554              	# 125 "src/../h/riscv.hpp" 1
 555              		csrw sepc, s1
 556              	# 0 "" 2
 557              	.LVL30:
 558              	#NO_APP
 559              	.L7:
 560              	.LBE66:
 561              	.LBE65:
 562              	.LBE75:
 563              	.LBE90:
 564              	.LBE104:
 565              	.LBE108:
 167:src/riscv.cpp **** 
 168:src/riscv.cpp **** 
 169:src/riscv.cpp ****     }else{
 170:src/riscv.cpp ****         uint64 sepc = r_sepc();
 171:src/riscv.cpp ****         uint64 stval = r_stval();
 172:src/riscv.cpp ****         uint64  sstatus = r_sstatus();
 173:src/riscv.cpp ****         printString("scause code: ");
 174:src/riscv.cpp ****         printInt(scause);
 175:src/riscv.cpp ****         printString("\n");
 176:src/riscv.cpp **** 
 177:src/riscv.cpp ****         printString("sepc code: ");
 178:src/riscv.cpp ****         printInt(sepc);
 179:src/riscv.cpp ****         printString("\n");
 180:src/riscv.cpp **** 
 181:src/riscv.cpp **** 
 182:src/riscv.cpp ****         printString("stval code: ");
 183:src/riscv.cpp ****         printInt(stval);
 184:src/riscv.cpp ****         printString("\n");
 185:src/riscv.cpp **** 
 186:src/riscv.cpp ****         printString("sstatus code: ");
GAS LISTING /tmp/ccnTfDU9.s 			page 19


 187:src/riscv.cpp ****         printInt(sstatus);
 188:src/riscv.cpp ****         printString("\n");
 189:src/riscv.cpp ****     }
 190:src/riscv.cpp **** 
 191:src/riscv.cpp **** 
 192:src/riscv.cpp **** 
 193:src/riscv.cpp **** 
 194:src/riscv.cpp **** 
 195:src/riscv.cpp **** }...
 566              		.loc 1 195 1
 567 020c 8330810A 		ld	ra,168(sp)
 568              		.cfi_remember_state
 569              		.cfi_restore 1
 570 0210 0334010A 		ld	s0,160(sp)
 571              		.cfi_restore 8
 572              		.cfi_def_cfa 2, 176
 573 0214 83348109 		ld	s1,152(sp)
 574              		.cfi_restore 9
 575 0218 03390109 		ld	s2,144(sp)
 576              		.cfi_restore 18
 577 021c 83398108 		ld	s3,136(sp)
 578              		.cfi_restore 19
 579 0220 033A0108 		ld	s4,128(sp)
 580              		.cfi_restore 20
 581 0224 1301010B 		addi	sp,sp,176
 582              		.cfi_def_cfa_offset 0
 583 0228 67800000 		jr	ra
 584              	.LVL31:
 585              	.L26:
 586              		.cfi_restore_state
 587              	.LBB109:
 588              	.LBB105:
 589              	.LBB91:
 590              	.LBB76:
  92:src/riscv.cpp ****             case THREAD_PREPARE:
 591              		.loc 1 92 13 is_stmt 1
  93:src/riscv.cpp ****                     handler = (thread_t*)args[1];
 592              		.loc 1 93 21
  93:src/riscv.cpp ****                     handler = (thread_t*)args[1];
 593              		.loc 1 93 48 is_stmt 0
 594 022c 033904FB 		ld	s2,-80(s0)
 595              	.LVL32:
  94:src/riscv.cpp ****                     *handler= TCB::initThreadWithNoRun((Body)args[2],(void*)args[3],(uint64*)args[4
 596              		.loc 1 94 21 is_stmt 1
  94:src/riscv.cpp ****                     *handler= TCB::initThreadWithNoRun((Body)args[2],(void*)args[3],(uint64*)args[4
 597              		.loc 1 94 55 is_stmt 0
 598 0230 033684FC 		ld	a2,-56(s0)
 599 0234 833504FC 		ld	a1,-64(s0)
 600 0238 033584FB 		ld	a0,-72(s0)
 601 023c 97000000 		call	_ZN3TCB19initThreadWithNoRunEPFvPvES0_Pm@plt
 601      E7800000 
 602              	.LVL33:
  94:src/riscv.cpp ****                     *handler= TCB::initThreadWithNoRun((Body)args[2],(void*)args[3],(uint64*)args[4
 603              		.loc 1 94 29
 604 0244 2330A900 		sd	a0,0(s2)
  96:src/riscv.cpp ****                     break;
 605              		.loc 1 96 21 is_stmt 1
GAS LISTING /tmp/ccnTfDU9.s 			page 20


 606 0248 6FF09FFB 		j	.L15
 607              	.LVL34:
 608              	.L30:
  97:src/riscv.cpp ****             case THREAD_START:
 609              		.loc 1 97 13
  98:src/riscv.cpp ****                 thHandl=(thread_t)args[1];
 610              		.loc 1 98 17
  98:src/riscv.cpp ****                 thHandl=(thread_t)args[1];
 611              		.loc 1 98 41 is_stmt 0
 612 024c 833704FB 		ld	a5,-80(s0)
  98:src/riscv.cpp ****                 thHandl=(thread_t)args[1];
 613              		.loc 1 98 24
 614 0250 2334F4F6 		sd	a5,-152(s0)
  99:src/riscv.cpp ****                 retVal= thHandl->start();
 615              		.loc 1 99 17 is_stmt 1
  99:src/riscv.cpp ****                 retVal= thHandl->start();
 616              		.loc 1 99 39 is_stmt 0
 617 0254 033584F6 		ld	a0,-152(s0)
 618 0258 97000000 		call	_ZN3TCB5startEv@plt
 618      E7800000 
 619              	.LVL35:
  99:src/riscv.cpp ****                 retVal= thHandl->start();
 620              		.loc 1 99 23
 621 0260 233CA4F4 		sd	a0,-168(s0)
 100:src/riscv.cpp ****                 break;
 622              		.loc 1 100 17 is_stmt 1
 623 0264 6FF0DFF9 		j	.L15
 624              	.L28:
 101:src/riscv.cpp ****             case THREAD_EXIT:
 625              		.loc 1 101 13
 102:src/riscv.cpp ****                 retVal=TCB::exit();
 626              		.loc 1 102 17
 102:src/riscv.cpp ****                 retVal=TCB::exit();
 627              		.loc 1 102 33 is_stmt 0
 628 0268 97000000 		call	_ZN3TCB4exitEv@plt
 628      E7800000 
 629              	.LVL36:
 102:src/riscv.cpp ****                 retVal=TCB::exit();
 630              		.loc 1 102 23
 631 0270 233CA4F4 		sd	a0,-168(s0)
 104:src/riscv.cpp ****                 break;
 632              		.loc 1 104 17 is_stmt 1
 633 0274 6FF0DFF8 		j	.L15
 634              	.L27:
 105:src/riscv.cpp ****             case THREAD_DISPATCH:
 635              		.loc 1 105 13
 106:src/riscv.cpp ****                 TCB::dispatch();
 636              		.loc 1 106 17
 106:src/riscv.cpp ****                 TCB::dispatch();
 637              		.loc 1 106 30 is_stmt 0
 638 0278 97000000 		call	_ZN3TCB8dispatchEv@plt
 638      E7800000 
 639              	.LVL37:
 640 0280 6FF01FF8 		j	.L15
 641              	.L25:
 108:src/riscv.cpp ****             case THREAD_DELETE:
 642              		.loc 1 108 13 is_stmt 1
GAS LISTING /tmp/ccnTfDU9.s 			page 21


 109:src/riscv.cpp ****                 thHandl = (thread_t)args[1];
 643              		.loc 1 109 17
 109:src/riscv.cpp ****                 thHandl = (thread_t)args[1];
 644              		.loc 1 109 43 is_stmt 0
 645 0284 833704FB 		ld	a5,-80(s0)
 109:src/riscv.cpp ****                 thHandl = (thread_t)args[1];
 646              		.loc 1 109 25
 647 0288 2334F4F6 		sd	a5,-152(s0)
 648              	.L34:
 110:src/riscv.cpp ****                 while(!thHandl->status.getFinished()){
 649              		.loc 1 110 17 is_stmt 1
 110:src/riscv.cpp ****                 while(!thHandl->status.getFinished()){
 650              		.loc 1 110 23
 110:src/riscv.cpp ****                 while(!thHandl->status.getFinished()){
 651              		.loc 1 110 24 is_stmt 0
 652 028c 833784F6 		ld	a5,-152(s0)
 653              	.LVL38:
 654              	.LBB67:
 655              	.LBB68:
 656              		.file 3 "src/../h/tcb.hpp"
   1:src/../h/tcb.hpp **** //
   2:src/../h/tcb.hpp **** // Created by os on 7/30/22.
   3:src/../h/tcb.hpp **** //
   4:src/../h/tcb.hpp **** 
   5:src/../h/tcb.hpp **** #ifndef OSPROJECT_TCB_HPP
   6:src/../h/tcb.hpp **** #define OSPROJECT_TCB_HPP
   7:src/../h/tcb.hpp **** 
   8:src/../h/tcb.hpp **** #include "../lib/hw.h"
   9:src/../h/tcb.hpp **** #include "scheduler.hpp"
  10:src/../h/tcb.hpp **** #include "../lib/mem.h"
  11:src/../h/tcb.hpp **** class TCB{
  12:src/../h/tcb.hpp **** 
  13:src/../h/tcb.hpp **** public:
  14:src/../h/tcb.hpp ****     ~TCB(){delete[] stack;}
  15:src/../h/tcb.hpp ****     using Body = void (*)(void*);
  16:src/../h/tcb.hpp ****     static TCB *initThreadWithRun(Body body,void *arg,uint64*stack);
  17:src/../h/tcb.hpp ****     static TCB *initThreadWithNoRun(Body body , void*arg,uint64*stack);
  18:src/../h/tcb.hpp ****     static TCB* running;
  19:src/../h/tcb.hpp ****     static TCB* idle;
  20:src/../h/tcb.hpp ****     static TCB * kernel;
  21:src/../h/tcb.hpp ****     static TCB * outputTh;
  22:src/../h/tcb.hpp **** 
  23:src/../h/tcb.hpp ****     bool isFinished(){
  24:src/../h/tcb.hpp ****         return status.getFinished();
  25:src/../h/tcb.hpp ****     }
  26:src/../h/tcb.hpp ****     uint64 getTimeSlice(){return timeSlice;}
  27:src/../h/tcb.hpp ****     static TCB* getIdle();
  28:src/../h/tcb.hpp ****     static TCB* getKernel();
  29:src/../h/tcb.hpp ****     static TCB* getOutputTh();
  30:src/../h/tcb.hpp ****     int start();
  31:src/../h/tcb.hpp ****     void *operator new(size_t size) { return __mem_alloc(size); }
  32:src/../h/tcb.hpp ****     void operator delete(void *ptr) { __mem_free(ptr); }
  33:src/../h/tcb.hpp **** private:
  34:src/../h/tcb.hpp ****     static int idS;
  35:src/../h/tcb.hpp ****     int myId;
  36:src/../h/tcb.hpp ****     explicit TCB(Body body,void *arg, uint64 *stack):
  37:src/../h/tcb.hpp ****     body(body),
GAS LISTING /tmp/ccnTfDU9.s 			page 22


  38:src/../h/tcb.hpp ****     stack(stack),
  39:src/../h/tcb.hpp ****     arg(arg),
  40:src/../h/tcb.hpp ****     timeSlice(DEFAULT_TIME_SLICE)
  41:src/../h/tcb.hpp ****     {
  42:src/../h/tcb.hpp ****         myId=idS++;
  43:src/../h/tcb.hpp ****         status.setCreated();
  44:src/../h/tcb.hpp ****         context={(uint64) &threadWrapper,
  45:src/../h/tcb.hpp ****                  (uint64) &stack[DEFAULT_STACK_SIZE]};
  46:src/../h/tcb.hpp ****     }
  47:src/../h/tcb.hpp **** 
  48:src/../h/tcb.hpp ****     explicit TCB(){
  49:src/../h/tcb.hpp ****         body= nullptr;
  50:src/../h/tcb.hpp ****         stack= nullptr;
  51:src/../h/tcb.hpp ****         arg= nullptr;
  52:src/../h/tcb.hpp ****         myId=idS++;
  53:src/../h/tcb.hpp ****         timeSlice=DEFAULT_TIME_SLICE;
  54:src/../h/tcb.hpp ****         context = {0, 0};
  55:src/../h/tcb.hpp ****         status.delAll();
  56:src/../h/tcb.hpp ****         status.setRunning();
  57:src/../h/tcb.hpp ****     }
  58:src/../h/tcb.hpp **** 
  59:src/../h/tcb.hpp ****     struct Context
  60:src/../h/tcb.hpp ****     {
  61:src/../h/tcb.hpp ****         uint64 ra;
  62:src/../h/tcb.hpp ****         uint64 sp;
  63:src/../h/tcb.hpp ****     };
  64:src/../h/tcb.hpp ****     struct Status{
  65:src/../h/tcb.hpp ****         bool FINISHED= false;
  66:src/../h/tcb.hpp ****         bool RUNNING = false;
  67:src/../h/tcb.hpp ****         bool READY= false;
  68:src/../h/tcb.hpp ****         bool CREATED= false;
  69:src/../h/tcb.hpp ****         bool WAITING= false;
  70:src/../h/tcb.hpp ****         bool SLEEPING= false;
  71:src/../h/tcb.hpp ****         bool IDLE= false;
  72:src/../h/tcb.hpp ****         bool SYSTEMATIC= false;
  73:src/../h/tcb.hpp ****     public:
  74:src/../h/tcb.hpp ****         void* operator new(size_t size){return __mem_alloc(size);}
  75:src/../h/tcb.hpp ****         void operator delete (void* ptr){ __mem_free(ptr);}
  76:src/../h/tcb.hpp ****         void setFinished(){FINISHED=true;}
  77:src/../h/tcb.hpp ****         void delFinished(){FINISHED= false;}
  78:src/../h/tcb.hpp ****         void setRunning(){RUNNING=true;}
  79:src/../h/tcb.hpp ****         void delRunning(){RUNNING= false;}
  80:src/../h/tcb.hpp ****         void setReady(){READY=true;}
  81:src/../h/tcb.hpp ****         void delReady(){READY= false;}
  82:src/../h/tcb.hpp ****         void setCreated(){CREATED=true;}
  83:src/../h/tcb.hpp ****         void delCreated(){CREATED= false;}
  84:src/../h/tcb.hpp ****         void setWaiting(){WAITING=true;}
  85:src/../h/tcb.hpp ****         void delWaiting(){WAITING= false;}
  86:src/../h/tcb.hpp ****         void setSleeping(){SLEEPING=true;}
  87:src/../h/tcb.hpp ****         void delSleeping(){SLEEPING= false;}
  88:src/../h/tcb.hpp ****         void setIdle(){IDLE=true;}
  89:src/../h/tcb.hpp ****         void delIdle(){IDLE= false;}
  90:src/../h/tcb.hpp ****         bool getFinished(){ return FINISHED;}
 657              		.loc 3 90 29 is_stmt 1
 658              		.loc 3 90 36 is_stmt 0
 659 0290 83C78702 		lbu	a5,40(a5)
 660              	.LVL39:
GAS LISTING /tmp/ccnTfDU9.s 			page 23


 661              	.LBE68:
 662              	.LBE67:
 110:src/riscv.cpp ****                 while(!thHandl->status.getFinished()){
 663              		.loc 1 110 23
 664 0294 63980700 		bnez	a5,.L33
 111:src/riscv.cpp ****                     TCB::dispatch();
 665              		.loc 1 111 21 is_stmt 1
 111:src/riscv.cpp ****                     TCB::dispatch();
 666              		.loc 1 111 34 is_stmt 0
 667 0298 97000000 		call	_ZN3TCB8dispatchEv@plt
 667      E7800000 
 668              	.LVL40:
 669 02a0 6FF0DFFE 		j	.L34
 670              	.L33:
 114:src/riscv.cpp ****                 delete thHandl;
 671              		.loc 1 114 17 is_stmt 1
 114:src/riscv.cpp ****                 delete thHandl;
 672              		.loc 1 114 24 is_stmt 0
 673 02a4 033984F6 		ld	s2,-152(s0)
 114:src/riscv.cpp ****                 delete thHandl;
 674              		.loc 1 114 31
 675 02a8 63000902 		beqz	s2,.L24
 676              	.LVL41:
 677              	.LBB69:
 678              	.LBB70:
  14:src/../h/tcb.hpp ****     using Body = void (*)(void*);
 679              		.loc 3 14 12 is_stmt 1
  14:src/../h/tcb.hpp ****     using Body = void (*)(void*);
 680              		.loc 3 14 21 is_stmt 0
 681 02ac 03350901 		ld	a0,16(s2)
  14:src/../h/tcb.hpp ****     using Body = void (*)(void*);
 682              		.loc 3 14 26
 683 02b0 63060500 		beqz	a0,.L35
  14:src/../h/tcb.hpp ****     using Body = void (*)(void*);
 684              		.loc 3 14 21
 685 02b4 97000000 		call	_ZdaPv@plt
 685      E7800000 
 686              	.LVL42:
 687              	.L35:
 688              	.LBE70:
 689              	.LBE69:
 690              	.LBB71:
 691              	.LBB72:
  32:src/../h/tcb.hpp **** private:
 692              		.loc 3 32 39 is_stmt 1
  32:src/../h/tcb.hpp **** private:
 693              		.loc 3 32 49 is_stmt 0
 694 02bc 13050900 		mv	a0,s2
 695 02c0 97000000 		call	__mem_free@plt
 695      E7800000 
 696              	.LVL43:
 697              	.L24:
 698              	.LBE72:
 699              	.LBE71:
 115:src/riscv.cpp ****             case THREAD_JOIN:
 700              		.loc 1 115 13 is_stmt 1
 116:src/riscv.cpp ****                 thHandl = (thread_t)args[1];
GAS LISTING /tmp/ccnTfDU9.s 			page 24


 701              		.loc 1 116 17
 116:src/riscv.cpp ****                 thHandl = (thread_t)args[1];
 702              		.loc 1 116 43 is_stmt 0
 703 02c8 833704FB 		ld	a5,-80(s0)
 116:src/riscv.cpp ****                 thHandl = (thread_t)args[1];
 704              		.loc 1 116 25
 705 02cc 2334F4F6 		sd	a5,-152(s0)
 706              	.L36:
 117:src/riscv.cpp ****                 while(!thHandl->status.getFinished()){
 707              		.loc 1 117 17 is_stmt 1
 117:src/riscv.cpp ****                 while(!thHandl->status.getFinished()){
 708              		.loc 1 117 23
 117:src/riscv.cpp ****                 while(!thHandl->status.getFinished()){
 709              		.loc 1 117 24 is_stmt 0
 710 02d0 833784F6 		ld	a5,-152(s0)
 711              	.LVL44:
 712              	.LBB73:
 713              	.LBB74:
 714              		.loc 3 90 29 is_stmt 1
 715              		.loc 3 90 36 is_stmt 0
 716 02d4 83C78702 		lbu	a5,40(a5)
 717              	.LVL45:
 718              	.LBE74:
 719              	.LBE73:
 117:src/riscv.cpp ****                 while(!thHandl->status.getFinished()){
 720              		.loc 1 117 23
 721 02d8 E39407F2 		bnez	a5,.L15
 118:src/riscv.cpp ****                     TCB::dispatch();
 722              		.loc 1 118 21 is_stmt 1
 118:src/riscv.cpp ****                     TCB::dispatch();
 723              		.loc 1 118 34 is_stmt 0
 724 02dc 97000000 		call	_ZN3TCB8dispatchEv@plt
 724      E7800000 
 725              	.LVL46:
 726 02e4 6FF0DFFE 		j	.L36
 727              	.L31:
 122:src/riscv.cpp ****             case MEM_FREE:
 728              		.loc 1 122 13 is_stmt 1
 123:src/riscv.cpp ****                     pointerForDealoc = (void*)args[1];
 729              		.loc 1 123 21
 730              	.LVL47:
 124:src/riscv.cpp ****                     retVal=(uint64)__mem_free(pointerForDealoc);
 731              		.loc 1 124 21
 124:src/riscv.cpp ****                     retVal=(uint64)__mem_free(pointerForDealoc);
 732              		.loc 1 124 46 is_stmt 0
 733 02e8 033504FB 		ld	a0,-80(s0)
 734 02ec 97000000 		call	__mem_free@plt
 734      E7800000 
 735              	.LVL48:
 124:src/riscv.cpp ****                     retVal=(uint64)__mem_free(pointerForDealoc);
 736              		.loc 1 124 27
 737 02f4 233CA4F4 		sd	a0,-168(s0)
 125:src/riscv.cpp ****                 break;
 738              		.loc 1 125 17 is_stmt 1
 739 02f8 6FF09FF0 		j	.L15
 740              	.LVL49:
 741              	.L32:
GAS LISTING /tmp/ccnTfDU9.s 			page 25


 126:src/riscv.cpp ****             case MEM_ALLOC:
 742              		.loc 1 126 13
 127:src/riscv.cpp ****                     size = args[1]*MEM_BLOCK_SIZE;
 743              		.loc 1 127 21
 127:src/riscv.cpp ****                     size = args[1]*MEM_BLOCK_SIZE;
 744              		.loc 1 127 34 is_stmt 0
 745 02fc 833704FB 		ld	a5,-80(s0)
 127:src/riscv.cpp ****                     size = args[1]*MEM_BLOCK_SIZE;
 746              		.loc 1 127 35
 747 0300 93976700 		slli	a5,a5,6
 127:src/riscv.cpp ****                     size = args[1]*MEM_BLOCK_SIZE;
 748              		.loc 1 127 26
 749 0304 2338F4F6 		sd	a5,-144(s0)
 128:src/riscv.cpp ****                     retVal = (uint64) __mem_alloc(size);
 750              		.loc 1 128 21 is_stmt 1
 128:src/riscv.cpp ****                     retVal = (uint64) __mem_alloc(size);
 751              		.loc 1 128 50 is_stmt 0
 752 0308 033504F7 		ld	a0,-144(s0)
 753 030c 97000000 		call	__mem_alloc@plt
 753      E7800000 
 754              	.LVL50:
 128:src/riscv.cpp ****                     retVal = (uint64) __mem_alloc(size);
 755              		.loc 1 128 28
 756 0314 233CA4F4 		sd	a0,-168(s0)
 129:src/riscv.cpp ****                 break;
 757              		.loc 1 129 17 is_stmt 1
 758 0318 6FF09FEE 		j	.L15
 759              	.L23:
 130:src/riscv.cpp ****             case SEM_OPEN:
 760              		.loc 1 130 13
 131:src/riscv.cpp ****                 handleSem = (sem_t*)args[3];
 761              		.loc 1 131 17
 131:src/riscv.cpp ****                 handleSem = (sem_t*)args[3];
 762              		.loc 1 131 43 is_stmt 0
 763 031c 833904FC 		ld	s3,-64(s0)
 764              	.LVL51:
 132:src/riscv.cpp ****                 init = (unsigned)args[2];
 765              		.loc 1 132 17 is_stmt 1
 132:src/riscv.cpp ****                 init = (unsigned)args[2];
 766              		.loc 1 132 22 is_stmt 0
 767 0320 032A84FB 		lw	s4,-72(s0)
 768              	.LVL52:
 133:src/riscv.cpp ****                 new _sem(handleSem,init);
 769              		.loc 1 133 17 is_stmt 1
 133:src/riscv.cpp ****                 new _sem(handleSem,init);
 770              		.loc 1 133 40 is_stmt 0
 771 0324 13058002 		li	a0,40
 772 0328 97000000 		call	_ZN4_semnwEm@plt
 772      E7800000 
 773              	.LVL53:
 774              	.LEHE0:
 775 0330 13090500 		mv	s2,a0
 776 0334 13060A00 		mv	a2,s4
 777 0338 93850900 		mv	a1,s3
 778              	.LEHB1:
 779 033c 97000000 		call	_ZN4_semC1EPPS_j@plt
 779      E7800000 
GAS LISTING /tmp/ccnTfDU9.s 			page 26


 780              	.LVL54:
 781              	.LEHE1:
 134:src/riscv.cpp ****                 retVal=1;
 782              		.loc 1 134 17 is_stmt 1
 134:src/riscv.cpp ****                 retVal=1;
 783              		.loc 1 134 23 is_stmt 0
 784 0344 93071000 		li	a5,1
 785 0348 233CF4F4 		sd	a5,-168(s0)
 136:src/riscv.cpp ****                 break;
 786              		.loc 1 136 17 is_stmt 1
 787 034c 6FF05FEB 		j	.L15
 788              	.LVL55:
 789              	.L22:
 137:src/riscv.cpp ****             case SEM_CLOSE:
 790              		.loc 1 137 13
 138:src/riscv.cpp ****                 handleSemSem = (sem_t)args[1];
 791              		.loc 1 138 17
 139:src/riscv.cpp ****                 handleSemSem->close();
 792              		.loc 1 139 17
 139:src/riscv.cpp ****                 handleSemSem->close();
 793              		.loc 1 139 36 is_stmt 0
 794 0350 033504FB 		ld	a0,-80(s0)
 795              	.LEHB2:
 796 0354 97000000 		call	_ZN4_sem5closeEv@plt
 796      E7800000 
 797              	.LVL56:
 140:src/riscv.cpp ****                 retVal=1;
 798              		.loc 1 140 17 is_stmt 1
 140:src/riscv.cpp ****                 retVal=1;
 799              		.loc 1 140 23 is_stmt 0
 800 035c 93071000 		li	a5,1
 801 0360 233CF4F4 		sd	a5,-168(s0)
 141:src/riscv.cpp ****                 break;
 802              		.loc 1 141 17 is_stmt 1
 803 0364 6FF0DFE9 		j	.L15
 804              	.LVL57:
 805              	.L21:
 142:src/riscv.cpp ****             case SEM_WAIT:
 806              		.loc 1 142 13
 143:src/riscv.cpp ****                 id = (sem_t)args[1];
 807              		.loc 1 143 17
 143:src/riscv.cpp ****                 id = (sem_t)args[1];
 808              		.loc 1 143 35 is_stmt 0
 809 0368 833704FB 		ld	a5,-80(s0)
 143:src/riscv.cpp ****                 id = (sem_t)args[1];
 810              		.loc 1 143 20
 811 036c 2330F4F6 		sd	a5,-160(s0)
 144:src/riscv.cpp ****                 retVal=id->wait();
 812              		.loc 1 144 17 is_stmt 1
 144:src/riscv.cpp ****                 retVal=id->wait();
 813              		.loc 1 144 32 is_stmt 0
 814 0370 033504F6 		ld	a0,-160(s0)
 815 0374 97000000 		call	_ZN4_sem4waitEv@plt
 815      E7800000 
 816              	.LVL58:
 144:src/riscv.cpp ****                 retVal=id->wait();
 817              		.loc 1 144 23
GAS LISTING /tmp/ccnTfDU9.s 			page 27


 818 037c 233CA4F4 		sd	a0,-168(s0)
 146:src/riscv.cpp ****                 break;
 819              		.loc 1 146 17 is_stmt 1
 820 0380 6FF01FE8 		j	.L15
 821              	.L20:
 147:src/riscv.cpp ****             case SEM_SIGNAL:
 822              		.loc 1 147 13
 148:src/riscv.cpp ****                 id = (sem_t)args[1];
 823              		.loc 1 148 17
 148:src/riscv.cpp ****                 id = (sem_t)args[1];
 824              		.loc 1 148 35 is_stmt 0
 825 0384 833704FB 		ld	a5,-80(s0)
 148:src/riscv.cpp ****                 id = (sem_t)args[1];
 826              		.loc 1 148 20
 827 0388 2330F4F6 		sd	a5,-160(s0)
 149:src/riscv.cpp ****                 retVal=id->signal();
 828              		.loc 1 149 17 is_stmt 1
 149:src/riscv.cpp ****                 retVal=id->signal();
 829              		.loc 1 149 34 is_stmt 0
 830 038c 033504F6 		ld	a0,-160(s0)
 831 0390 97000000 		call	_ZN4_sem6signalEv@plt
 831      E7800000 
 832              	.LVL59:
 149:src/riscv.cpp ****                 retVal=id->signal();
 833              		.loc 1 149 23
 834 0398 233CA4F4 		sd	a0,-168(s0)
 150:src/riscv.cpp ****                 break;
 835              		.loc 1 150 17 is_stmt 1
 836 039c 6FF05FE6 		j	.L15
 837              	.L16:
 151:src/riscv.cpp ****             case PUTC:
 838              		.loc 1 151 13
 152:src/riscv.cpp ****                  c = (char)args[1];
 839              		.loc 1 152 18
 840              	.LVL60:
 153:src/riscv.cpp ****                     bufferOut->sys_put(c);
 841              		.loc 1 153 21
 153:src/riscv.cpp ****                     bufferOut->sys_put(c);
 842              		.loc 1 153 39 is_stmt 0
 843 03a0 834504FB 		lbu	a1,-80(s0)
 844 03a4 17050000 		ld	a0,.LANCHOR0+16
 844      03350500 
 845 03ac 97000000 		call	_ZN7_Buffer7sys_putEc@plt
 845      E7800000 
 846              	.LVL61:
 847 03b4 6FF0DFE4 		j	.L15
 848              	.LVL62:
 849              	.L18:
 155:src/riscv.cpp ****             case GETC:
 850              		.loc 1 155 13 is_stmt 1
 156:src/riscv.cpp ****                retchar = bufferIn->sys_get();
 851              		.loc 1 156 16
 156:src/riscv.cpp ****                retchar = bufferIn->sys_get();
 852              		.loc 1 156 43 is_stmt 0
 853 03b8 17050000 		ld	a0,.LANCHOR0+8
 853      03350500 
 854 03c0 97000000 		call	_ZN7_Buffer7sys_getEv@plt
GAS LISTING /tmp/ccnTfDU9.s 			page 28


 854      E7800000 
 855              	.LVL63:
 157:src/riscv.cpp ****                 retVal=(uint64)retchar;
 856              		.loc 1 157 17 is_stmt 1
 157:src/riscv.cpp ****                 retVal=(uint64)retchar;
 857              		.loc 1 157 23 is_stmt 0
 858 03c8 233CA4F4 		sd	a0,-168(s0)
 159:src/riscv.cpp ****                 break;
 859              		.loc 1 159 17 is_stmt 1
 860 03cc 6FF05FE3 		j	.L15
 861              	.LVL64:
 862              	.L19:
 160:src/riscv.cpp ****             case TIME_SLEEP:
 863              		.loc 1 160 13
 161:src/riscv.cpp ****                 time = (time_t)args[1];
 864              		.loc 1 161 17
 162:src/riscv.cpp ****                     retVal = TCB::sleep(time);
 865              		.loc 1 162 21
 162:src/riscv.cpp ****                     retVal = TCB::sleep(time);
 866              		.loc 1 162 40 is_stmt 0
 867 03d0 033504FB 		ld	a0,-80(s0)
 868 03d4 97000000 		call	_ZN3TCB5sleepEm@plt
 868      E7800000 
 869              	.LVL65:
 162:src/riscv.cpp ****                     retVal = TCB::sleep(time);
 870              		.loc 1 162 28
 871 03dc 233CA4F4 		sd	a0,-168(s0)
 163:src/riscv.cpp ****                 break;
 872              		.loc 1 163 17 is_stmt 1
 873 03e0 6FF01FE2 		j	.L15
 874              	.LVL66:
 875              	.L14:
 876              	.LBE76:
 877              	.LBB77:
 170:src/riscv.cpp ****         uint64 sepc = r_sepc();
 878              		.loc 1 170 9
 879              	.LBB78:
 880              	.LBB79:
 118:src/../h/riscv.hpp ****     __asm__ volatile ("csrr %[sepc], sepc" : [sepc] "=r"(sepc));
 881              		.loc 2 118 5
 119:src/../h/riscv.hpp ****     return sepc;
 882              		.loc 2 119 5
 119:src/../h/riscv.hpp ****     return sepc;
 883              		.loc 2 119 64 is_stmt 0
 884              	#APP
 885              	# 119 "src/../h/riscv.hpp" 1
 886              		csrr a5, sepc
 887              	# 0 "" 2
 888              	#NO_APP
 889 03e8 2330F4FA 		sd	a5,-96(s0)
 120:src/../h/riscv.hpp **** }
 890              		.loc 2 120 5 is_stmt 1
 120:src/../h/riscv.hpp **** }
 891              		.loc 2 120 12 is_stmt 0
 892 03ec 033A04FA 		ld	s4,-96(s0)
 893              	.LVL67:
 894              	.LBE79:
GAS LISTING /tmp/ccnTfDU9.s 			page 29


 895              	.LBE78:
 171:src/riscv.cpp ****         uint64 stval = r_stval();
 896              		.loc 1 171 9 is_stmt 1
 897              	.LBB80:
 898              	.LBB81:
 142:src/../h/riscv.hpp ****     __asm__ volatile ("csrr %[stval], stval" : [stval] "=r"(stval));
 899              		.loc 2 142 5
 143:src/../h/riscv.hpp ****     return stval;
 900              		.loc 2 143 5
 143:src/../h/riscv.hpp ****     return stval;
 901              		.loc 2 143 68 is_stmt 0
 902              	#APP
 903              	# 143 "src/../h/riscv.hpp" 1
 904              		csrr a5, stval
 905              	# 0 "" 2
 906              	#NO_APP
 907 03f4 233CF4F8 		sd	a5,-104(s0)
 144:src/../h/riscv.hpp **** }
 908              		.loc 2 144 5 is_stmt 1
 144:src/../h/riscv.hpp **** }
 909              		.loc 2 144 12 is_stmt 0
 910 03f8 833984F9 		ld	s3,-104(s0)
 911              	.LVL68:
 912              	.LBE81:
 913              	.LBE80:
 172:src/riscv.cpp ****         uint64  sstatus = r_sstatus();
 914              		.loc 1 172 9 is_stmt 1
 915              	.LBB82:
 916              	.LBB83:
 186:src/../h/riscv.hpp ****     __asm__ volatile ("csrr %[sstatus], sstatus" : [sstatus] "=r"(sstatus));
 917              		.loc 2 186 5
 187:src/../h/riscv.hpp ****     return sstatus;
 918              		.loc 2 187 5
 187:src/../h/riscv.hpp ****     return sstatus;
 919              		.loc 2 187 76 is_stmt 0
 920              	#APP
 921              	# 187 "src/../h/riscv.hpp" 1
 922              		csrr a5, sstatus
 923              	# 0 "" 2
 924              	#NO_APP
 925 0400 2338F4F8 		sd	a5,-112(s0)
 188:src/../h/riscv.hpp **** }
 926              		.loc 2 188 5 is_stmt 1
 188:src/../h/riscv.hpp **** }
 927              		.loc 2 188 12 is_stmt 0
 928 0404 033904F9 		ld	s2,-112(s0)
 929              	.LVL69:
 930              	.LBE83:
 931              	.LBE82:
 173:src/riscv.cpp ****         printString("scause code: ");
 932              		.loc 1 173 9 is_stmt 1
 173:src/riscv.cpp ****         printString("scause code: ");
 933              		.loc 1 173 20 is_stmt 0
 934 0408 17050000 		lla	a0,.LC0
 934      13050500 
 935 0410 97000000 		call	_Z11printStringPKc@plt
 935      E7800000 
GAS LISTING /tmp/ccnTfDU9.s 			page 30


 936              	.LVL70:
 174:src/riscv.cpp ****         printInt(scause);
 937              		.loc 1 174 9 is_stmt 1
 174:src/riscv.cpp ****         printInt(scause);
 938              		.loc 1 174 17 is_stmt 0
 939 0418 13060000 		li	a2,0
 940 041c 9305A000 		li	a1,10
 941 0420 1B850400 		sext.w	a0,s1
 942 0424 97000000 		call	_Z8printIntiii@plt
 942      E7800000 
 943              	.LVL71:
 175:src/riscv.cpp ****         printString("\n");
 944              		.loc 1 175 9 is_stmt 1
 175:src/riscv.cpp ****         printString("\n");
 945              		.loc 1 175 20 is_stmt 0
 946 042c 17050000 		lla	a0,.LC1
 946      13050500 
 947 0434 97000000 		call	_Z11printStringPKc@plt
 947      E7800000 
 948              	.LVL72:
 177:src/riscv.cpp ****         printString("sepc code: ");
 949              		.loc 1 177 9 is_stmt 1
 177:src/riscv.cpp ****         printString("sepc code: ");
 950              		.loc 1 177 20 is_stmt 0
 951 043c 17050000 		lla	a0,.LC2
 951      13050500 
 952 0444 97000000 		call	_Z11printStringPKc@plt
 952      E7800000 
 953              	.LVL73:
 178:src/riscv.cpp ****         printInt(sepc);
 954              		.loc 1 178 9 is_stmt 1
 178:src/riscv.cpp ****         printInt(sepc);
 955              		.loc 1 178 17 is_stmt 0
 956 044c 13060000 		li	a2,0
 957 0450 9305A000 		li	a1,10
 958 0454 1B050A00 		sext.w	a0,s4
 959 0458 97000000 		call	_Z8printIntiii@plt
 959      E7800000 
 960              	.LVL74:
 179:src/riscv.cpp ****         printString("\n");
 961              		.loc 1 179 9 is_stmt 1
 179:src/riscv.cpp ****         printString("\n");
 962              		.loc 1 179 20 is_stmt 0
 963 0460 17050000 		lla	a0,.LC1
 963      13050500 
 964 0468 97000000 		call	_Z11printStringPKc@plt
 964      E7800000 
 965              	.LVL75:
 182:src/riscv.cpp ****         printString("stval code: ");
 966              		.loc 1 182 9 is_stmt 1
 182:src/riscv.cpp ****         printString("stval code: ");
 967              		.loc 1 182 20 is_stmt 0
 968 0470 17050000 		lla	a0,.LC3
 968      13050500 
 969 0478 97000000 		call	_Z11printStringPKc@plt
 969      E7800000 
 970              	.LVL76:
GAS LISTING /tmp/ccnTfDU9.s 			page 31


 183:src/riscv.cpp ****         printInt(stval);
 971              		.loc 1 183 9 is_stmt 1
 183:src/riscv.cpp ****         printInt(stval);
 972              		.loc 1 183 17 is_stmt 0
 973 0480 13060000 		li	a2,0
 974 0484 9305A000 		li	a1,10
 975 0488 1B850900 		sext.w	a0,s3
 976 048c 97000000 		call	_Z8printIntiii@plt
 976      E7800000 
 977              	.LVL77:
 184:src/riscv.cpp ****         printString("\n");
 978              		.loc 1 184 9 is_stmt 1
 184:src/riscv.cpp ****         printString("\n");
 979              		.loc 1 184 20 is_stmt 0
 980 0494 17050000 		lla	a0,.LC1
 980      13050500 
 981 049c 97000000 		call	_Z11printStringPKc@plt
 981      E7800000 
 982              	.LVL78:
 186:src/riscv.cpp ****         printString("sstatus code: ");
 983              		.loc 1 186 9 is_stmt 1
 186:src/riscv.cpp ****         printString("sstatus code: ");
 984              		.loc 1 186 20 is_stmt 0
 985 04a4 17050000 		lla	a0,.LC4
 985      13050500 
 986 04ac 97000000 		call	_Z11printStringPKc@plt
 986      E7800000 
 987              	.LVL79:
 187:src/riscv.cpp ****         printInt(sstatus);
 988              		.loc 1 187 9 is_stmt 1
 187:src/riscv.cpp ****         printInt(sstatus);
 989              		.loc 1 187 17 is_stmt 0
 990 04b4 13060000 		li	a2,0
 991 04b8 9305A000 		li	a1,10
 992 04bc 1B050900 		sext.w	a0,s2
 993 04c0 97000000 		call	_Z8printIntiii@plt
 993      E7800000 
 994              	.LVL80:
 188:src/riscv.cpp ****         printString("\n");
 995              		.loc 1 188 9 is_stmt 1
 188:src/riscv.cpp ****         printString("\n");
 996              		.loc 1 188 20 is_stmt 0
 997 04c8 17050000 		lla	a0,.LC1
 997      13050500 
 998 04d0 97000000 		call	_Z11printStringPKc@plt
 998      E7800000 
 999              	.LVL81:
 1000              	.LEHE2:
 1001              	.LBE77:
 1002              	.LBE91:
 1003              	.LBE105:
 1004              	.LBE109:
 1005              		.loc 1 195 1
 1006 04d8 6FF05FD3 		j	.L7
 1007              	.LVL82:
 1008              	.L38:
 1009 04dc 93040500 		mv	s1,a0
GAS LISTING /tmp/ccnTfDU9.s 			page 32


 1010              	.LVL83:
 1011              	.LBB110:
 1012              	.LBB106:
 1013              	.LBB92:
 1014              	.LBB84:
 133:src/riscv.cpp ****                 new _sem(handleSem,init);
 1015              		.loc 1 133 40
 1016 04e0 13050900 		mv	a0,s2
 1017 04e4 97000000 		call	_ZN4_semdlEPv@plt
 1017      E7800000 
 1018              	.LVL84:
 1019 04ec 13850400 		mv	a0,s1
 1020              	.LEHB3:
 1021 04f0 97000000 		call	_Unwind_Resume@plt
 1021      E7800000 
 1022              	.LVL85:
 1023              	.LEHE3:
 1024              	.LBE84:
 1025              	.LBE92:
 1026              	.LBE106:
 1027              	.LBE110:
 1028              		.cfi_endproc
 1029              	.LFE106:
 1030              		.globl	__gxx_personality_v0
 1031              		.section	.gcc_except_table,"a",@progbits
 1032              	.LLSDA106:
 1033 0000 FF       		.byte	0xff
 1034 0001 FF       		.byte	0xff
 1035 0002 03       		.byte	0x3
 1036 0003 34       		.byte	0x34
 1037 0004 00000000 		.4byte	.LEHB0-.LFB106
 1038 0008 00000000 		.4byte	.LEHE0-.LEHB0
 1039 000c 00000000 		.4byte	0
 1040 0010 00       		.byte	0
 1041 0011 00000000 		.4byte	.LEHB1-.LFB106
 1042 0015 00000000 		.4byte	.LEHE1-.LEHB1
 1043 0019 00000000 		.4byte	.L38-.LFB106
 1044 001d 00       		.byte	0
 1045 001e 00000000 		.4byte	.LEHB2-.LFB106
 1046 0022 00000000 		.4byte	.LEHE2-.LEHB2
 1047 0026 00000000 		.4byte	0
 1048 002a 00       		.byte	0
 1049 002b 00000000 		.4byte	.LEHB3-.LFB106
 1050 002f 00000000 		.4byte	.LEHE3-.LEHB3
 1051 0033 00000000 		.4byte	0
 1052 0037 00       		.byte	0
 1053              		.text
 1055              		.globl	_ZN5Riscv8timelistE
 1056              		.globl	_ZN5Riscv9bufferOutE
 1057              		.globl	_ZN5Riscv8bufferInE
 1058              		.bss
 1059              		.align	3
 1060              		.set	.LANCHOR0,. + 0
 1063              	_ZN5Riscv8timelistE:
 1064 0000 00000000 		.zero	8
 1064      00000000 
 1067              	_ZN5Riscv8bufferInE:
GAS LISTING /tmp/ccnTfDU9.s 			page 33


 1068 0008 00000000 		.zero	8
 1068      00000000 
 1071              	_ZN5Riscv9bufferOutE:
 1072 0010 00000000 		.zero	8
 1072      00000000 
 1073              		.text
 1074              	.Letext0:
 1075              		.file 4 "src/../h/../lib/hw.h"
 1076              		.file 5 "src/../h/syscall_c.hpp"
 1077              		.file 6 "src/../h/_sem.hpp"
 1078              		.file 7 "src/../h/list.hpp"
 1079              		.file 8 "src/../h/MyWaitList.hpp"
 1080              		.file 9 "src/../h/Buffer.hpp"
 1081              		.file 10 "src/../h/TimeList.hpp"
 1082              		.file 11 "src/../h/globals.hpp"
 1083              		.file 12 "src/../h/../lib/mem.h"
 1084              		.file 13 "src/../test/printing.hpp"
 7104              		.align	3
 7107              	DW.ref.__gxx_personality_v0:
 7108 0000 00000000 		.dword	__gxx_personality_v0
 7108      00000000 
 7109              		.ident	"GCC: (Ubuntu 9.4.0-1ubuntu1~20.04) 9.4.0"
 7110              		.section	.note.GNU-stack,"",@progbits
GAS LISTING /tmp/ccnTfDU9.s 			page 34

