GAS LISTING /tmp/ccqHzMHN.s 			page 1


   1              		.file	"syscall_c.cpp"
   2              		.option pic
   3              		.option norelax
   4              		.text
   5              	.Ltext0:
   6              		.align	2
   7              		.globl	_Z13thread_createPP3TCBPFvPvES2_
   9              	_Z13thread_createPP3TCBPFvPvES2_:
  10              	.LFB94:
  11              		.file 1 "src/syscall_c.cpp"
   1:src/syscall_c.cpp **** //
   2:src/syscall_c.cpp **** // Created by os on 7/20/22.
   3:src/syscall_c.cpp **** //
   4:src/syscall_c.cpp **** 
   5:src/syscall_c.cpp **** #include "../h/syscall_c.hpp"
   6:src/syscall_c.cpp **** #include "../h/globals.hpp"
   7:src/syscall_c.cpp **** #include "../lib/mem.h"
   8:src/syscall_c.cpp **** #include "../h/print.hpp"
   9:src/syscall_c.cpp **** //********THREAD***********8
  10:src/syscall_c.cpp **** int thread_create(   thread_t* handle,
  11:src/syscall_c.cpp ****                      void(*start_routine)(void*),
  12:src/syscall_c.cpp ****                      void* arg)
  13:src/syscall_c.cpp **** {
  12              		.loc 1 13 1
  13              		.cfi_startproc
  14              	.LVL0:
  14:src/syscall_c.cpp ****     if(!handle) return -11;
  15              		.loc 1 14 5
  16 0000 63040508 		beqz	a0,.L3
  13:src/syscall_c.cpp ****     if(!handle) return -11;
  17              		.loc 1 13 1 is_stmt 0
  18 0004 130101FC 		addi	sp,sp,-64
  19              		.cfi_def_cfa_offset 64
  20 0008 233C1102 		sd	ra,56(sp)
  21 000c 23388102 		sd	s0,48(sp)
  22 0010 23349102 		sd	s1,40(sp)
  23 0014 23302103 		sd	s2,32(sp)
  24 0018 233C3101 		sd	s3,24(sp)
  25              		.cfi_offset 1, -8
  26              		.cfi_offset 8, -16
  27              		.cfi_offset 9, -24
  28              		.cfi_offset 18, -32
  29              		.cfi_offset 19, -40
  30 001c 13040104 		addi	s0,sp,64
  31              		.cfi_def_cfa 8, 0
  32 0020 93040500 		mv	s1,a0
  33 0024 93890500 		mv	s3,a1
  34 0028 13090600 		mv	s2,a2
  15:src/syscall_c.cpp ****     void* stack =   __mem_alloc(sizeof(uint64)*DEFAULT_STACK_SIZE);
  35              		.loc 1 15 5 is_stmt 1
  36              		.loc 1 15 32 is_stmt 0
  37 002c 37850000 		li	a0,32768
  38              	.LVL1:
  39 0030 97000000 		call	__mem_alloc@plt
  39      E7800000 
  40              	.LVL2:
  16:src/syscall_c.cpp ****     if(!stack)return -12;
GAS LISTING /tmp/ccqHzMHN.s 			page 2


  41              		.loc 1 16 5 is_stmt 1
  42 0038 630C0504 		beqz	a0,.L4
  17:src/syscall_c.cpp **** 
  18:src/syscall_c.cpp ****     __asm__ volatile ("mv a1, %0" : : "r" (handle));
  43              		.loc 1 18 5
  44              		.loc 1 18 52 is_stmt 0
  45              	#APP
  46              	# 18 "src/syscall_c.cpp" 1
  19              	    __asm__ volatile ("mv a2, %0" : : "r" (start_routine));
  47              		mv a1, s1
  48              	# 0 "" 2
  49              		.loc 1 19 5 is_stmt 1
  50              		.loc 1 19 59 is_stmt 0
  51              	# 19 "src/syscall_c.cpp" 1
  20              	    __asm__ volatile ("mv a3, %0" : : "r" (arg));
  52              		mv a2, s3
  53              	# 0 "" 2
  54              		.loc 1 20 5 is_stmt 1
  55              		.loc 1 20 49 is_stmt 0
  56              	# 20 "src/syscall_c.cpp" 1
  21              	    __asm__ volatile ("mv a4, %0" : : "r" (stack));
  57              		mv a3, s2
  58              	# 0 "" 2
  59              		.loc 1 21 5 is_stmt 1
  60              		.loc 1 21 51 is_stmt 0
  61              	# 21 "src/syscall_c.cpp" 1
  22              	    __asm__ volatile ("mv a0, %0" : : "r" (THREAD_CREATE));
  62              		mv a4, a0
  63              	# 0 "" 2
  64              		.loc 1 22 5 is_stmt 1
  65              		.loc 1 22 59 is_stmt 0
  66              	#NO_APP
  67 004c 93071001 		li	a5,17
  68              	#APP
  69              	# 22 "src/syscall_c.cpp" 1
  23              	
  24:src/syscall_c.cpp ****     __asm__ volatile ("ecall");
  70              		mv a0, a5
  71              	# 0 "" 2
  72              		.loc 1 24 5 is_stmt 1
  73              		.loc 1 24 31 is_stmt 0
  74              	# 24 "src/syscall_c.cpp" 1
  25              	    uint64 volatile retVal;
  75              		ecall
  76              	# 0 "" 2
  77              		.loc 1 25 5 is_stmt 1
  26:src/syscall_c.cpp ****     __asm__ volatile ("mv %0, a0" : "=r" (retVal));
  78              		.loc 1 26 5
  79              		.loc 1 26 51 is_stmt 0
  80              	# 26 "src/syscall_c.cpp" 1
  27              	    if(retVal ==0){
  81              		mv a5, a0
  82              	# 0 "" 2
  83              	#NO_APP
  84 005c 2334F4FC 		sd	a5,-56(s0)
  85              		.loc 1 27 5 is_stmt 1
  86              		.loc 1 27 15 is_stmt 0
GAS LISTING /tmp/ccqHzMHN.s 			page 3


  87 0060 833784FC 		ld	a5,-56(s0)
  88              		.loc 1 27 5
  89 0064 639A0702 		bnez	a5,.L5
  28:src/syscall_c.cpp ****         return 0;
  90              		.loc 1 28 16
  91 0068 13050000 		li	a0,0
  92              	.LVL3:
  93              	.L2:
  29:src/syscall_c.cpp ****     }else return -13;
  30:src/syscall_c.cpp **** }
  94              		.loc 1 30 1
  95 006c 83308103 		ld	ra,56(sp)
  96              		.cfi_restore 1
  97 0070 03340103 		ld	s0,48(sp)
  98              		.cfi_restore 8
  99              		.cfi_def_cfa 2, 64
 100 0074 83348102 		ld	s1,40(sp)
 101              		.cfi_restore 9
 102              	.LVL4:
 103 0078 03390102 		ld	s2,32(sp)
 104              		.cfi_restore 18
 105              	.LVL5:
 106 007c 83398101 		ld	s3,24(sp)
 107              		.cfi_restore 19
 108              	.LVL6:
 109 0080 13010104 		addi	sp,sp,64
 110              		.cfi_def_cfa_offset 0
 111 0084 67800000 		jr	ra
 112              	.LVL7:
 113              	.L3:
  14:src/syscall_c.cpp ****     void* stack =   __mem_alloc(sizeof(uint64)*DEFAULT_STACK_SIZE);
 114              		.loc 1 14 25
 115 0088 130550FF 		li	a0,-11
 116              	.LVL8:
 117              		.loc 1 30 1
 118 008c 67800000 		ret
 119              	.LVL9:
 120              	.L4:
 121              		.cfi_def_cfa_register 8
 122              		.cfi_offset 1, -8
 123              		.cfi_offset 8, -16
 124              		.cfi_offset 9, -24
 125              		.cfi_offset 18, -32
 126              		.cfi_offset 19, -40
  16:src/syscall_c.cpp **** 
 127              		.loc 1 16 23
 128 0090 130540FF 		li	a0,-12
 129              	.LVL10:
 130 0094 6FF09FFD 		j	.L2
 131              	.LVL11:
 132              	.L5:
  29:src/syscall_c.cpp ****     }else return -13;
 133              		.loc 1 29 19
 134 0098 130530FF 		li	a0,-13
 135              	.LVL12:
 136 009c 6FF01FFD 		j	.L2
 137              		.cfi_endproc
GAS LISTING /tmp/ccqHzMHN.s 			page 4


 138              	.LFE94:
 140              		.align	2
 141              		.globl	_Z11thread_exitv
 143              	_Z11thread_exitv:
 144              	.LFB95:
  31:src/syscall_c.cpp **** 
  32:src/syscall_c.cpp **** int thread_exit(){
 145              		.loc 1 32 18 is_stmt 1
 146              		.cfi_startproc
 147 00a0 130101FE 		addi	sp,sp,-32
 148              		.cfi_def_cfa_offset 32
 149 00a4 233C8100 		sd	s0,24(sp)
 150              		.cfi_offset 8, -8
 151 00a8 13040102 		addi	s0,sp,32
 152              		.cfi_def_cfa 8, 0
  33:src/syscall_c.cpp **** 
  34:src/syscall_c.cpp ****     __asm__ volatile ("mv a0, %0" : : "r" (THREAD_EXIT));
 153              		.loc 1 34 5
 154              		.loc 1 34 57 is_stmt 0
 155 00ac 93072001 		li	a5,18
 156              	#APP
 157              	# 34 "src/syscall_c.cpp" 1
  35              	    __asm__ volatile ("ecall");
 158              		mv a0, a5
 159              	# 0 "" 2
 160              		.loc 1 35 5 is_stmt 1
 161              		.loc 1 35 31 is_stmt 0
 162              	# 35 "src/syscall_c.cpp" 1
  36              	    uint64 volatile retVal;
 163              		ecall
 164              	# 0 "" 2
 165              		.loc 1 36 5 is_stmt 1
  37:src/syscall_c.cpp ****     __asm__ volatile ("mv %0, a0" : "=r" (retVal));
 166              		.loc 1 37 5
 167              		.loc 1 37 51 is_stmt 0
 168              	# 37 "src/syscall_c.cpp" 1
  38              	    if(retVal==0){return 0;}
 169              		mv a5, a0
 170              	# 0 "" 2
 171              	#NO_APP
 172 00bc 2334F4FE 		sd	a5,-24(s0)
 173              		.loc 1 38 5 is_stmt 1
 174              		.loc 1 38 14 is_stmt 0
 175 00c0 833784FE 		ld	a5,-24(s0)
 176              		.loc 1 38 5
 177 00c4 639A0700 		bnez	a5,.L12
 178              		.loc 1 38 26
 179 00c8 13050000 		li	a0,0
 180              	.L11:
  39:src/syscall_c.cpp ****     else return -21;
  40:src/syscall_c.cpp **** }
 181              		.loc 1 40 1
 182 00cc 03348101 		ld	s0,24(sp)
 183              		.cfi_remember_state
 184              		.cfi_restore 8
 185              		.cfi_def_cfa 2, 32
 186 00d0 13010102 		addi	sp,sp,32
GAS LISTING /tmp/ccqHzMHN.s 			page 5


 187              		.cfi_def_cfa_offset 0
 188 00d4 67800000 		jr	ra
 189              	.L12:
 190              		.cfi_restore_state
  39:src/syscall_c.cpp ****     else return -21;
 191              		.loc 1 39 18
 192 00d8 1305B0FE 		li	a0,-21
 193 00dc 6FF01FFF 		j	.L11
 194              		.cfi_endproc
 195              	.LFE95:
 197              		.align	2
 198              		.globl	_Z15thread_dispatchv
 200              	_Z15thread_dispatchv:
 201              	.LFB96:
  41:src/syscall_c.cpp **** 
  42:src/syscall_c.cpp **** void thread_dispatch(){
 202              		.loc 1 42 23 is_stmt 1
 203              		.cfi_startproc
 204 00e0 130101FF 		addi	sp,sp,-16
 205              		.cfi_def_cfa_offset 16
 206 00e4 23348100 		sd	s0,8(sp)
 207              		.cfi_offset 8, -8
 208 00e8 13040101 		addi	s0,sp,16
 209              		.cfi_def_cfa 8, 0
  43:src/syscall_c.cpp **** 
  44:src/syscall_c.cpp ****     __asm__ volatile ("mv a0, %0 "::"r"(THREAD_DISPATCH));
 210              		.loc 1 44 5
 211              		.loc 1 44 58 is_stmt 0
 212 00ec 93073001 		li	a5,19
 213              	#APP
 214              	# 44 "src/syscall_c.cpp" 1
  45              	    __asm__ volatile ("ecall");
 215              		mv a0, a5 
 216              	# 0 "" 2
 217              		.loc 1 45 5 is_stmt 1
 218              		.loc 1 45 31 is_stmt 0
 219              	# 45 "src/syscall_c.cpp" 1
  46              	}
 220              		ecall
 221              	# 0 "" 2
 222              		.loc 1 46 1
 223              	#NO_APP
 224 00f8 03348100 		ld	s0,8(sp)
 225              		.cfi_restore 8
 226              		.cfi_def_cfa 2, 16
 227 00fc 13010101 		addi	sp,sp,16
 228              		.cfi_def_cfa_offset 0
 229 0100 67800000 		jr	ra
 230              		.cfi_endproc
 231              	.LFE96:
 233              		.align	2
 234              		.globl	_Z12thread_startP3TCB
 236              	_Z12thread_startP3TCB:
 237              	.LFB97:
  47:src/syscall_c.cpp **** int thread_start(thread_t handler){
 238              		.loc 1 47 35 is_stmt 1
 239              		.cfi_startproc
GAS LISTING /tmp/ccqHzMHN.s 			page 6


 240              	.LVL13:
 241 0104 130101FF 		addi	sp,sp,-16
 242              		.cfi_def_cfa_offset 16
 243 0108 23348100 		sd	s0,8(sp)
 244              		.cfi_offset 8, -8
 245 010c 13040101 		addi	s0,sp,16
 246              		.cfi_def_cfa 8, 0
  48:src/syscall_c.cpp ****     __asm__ volatile ("mv a1, %0"::"r"(handler));
 247              		.loc 1 48 5
 248              		.loc 1 48 49 is_stmt 0
 249              	#APP
 250              	# 48 "src/syscall_c.cpp" 1
  49              	    __asm__ volatile ("mv a0, %0"::"r"(THREAD_START));
 251              		mv a1, a0
 252              	# 0 "" 2
 253              		.loc 1 49 5 is_stmt 1
 254              		.loc 1 49 54 is_stmt 0
 255              	#NO_APP
 256 0114 93070001 		li	a5,16
 257              	#APP
 258              	# 49 "src/syscall_c.cpp" 1
  50              	    __asm__ volatile ("ecall");
 259              		mv a0, a5
 260              	# 0 "" 2
 261              		.loc 1 50 5 is_stmt 1
 262              		.loc 1 50 31 is_stmt 0
 263              	# 50 "src/syscall_c.cpp" 1
  51              	    uint64 retVal;
 264              		ecall
 265              	# 0 "" 2
 266              		.loc 1 51 5 is_stmt 1
  52:src/syscall_c.cpp ****     __asm__ volatile ("mv %0, a0" : "=r"(retVal));
 267              		.loc 1 52 5
 268              		.loc 1 52 50 is_stmt 0
 269              	# 52 "src/syscall_c.cpp" 1
  53              	  if(retVal==0)return 0;
 270              		mv a5, a0
 271              	# 0 "" 2
 272              	.LVL14:
 273              		.loc 1 53 3 is_stmt 1
 274              	#NO_APP
 275 0124 639A0700 		bnez	a5,.L18
 276              		.loc 1 53 23 is_stmt 0
 277 0128 13050000 		li	a0,0
 278              	.LVL15:
 279              	.L17:
  54:src/syscall_c.cpp ****   else return -10;
  55:src/syscall_c.cpp **** }
 280              		.loc 1 55 1
 281 012c 03348100 		ld	s0,8(sp)
 282              		.cfi_remember_state
 283              		.cfi_restore 8
 284              		.cfi_def_cfa 2, 16
 285 0130 13010101 		addi	sp,sp,16
 286              		.cfi_def_cfa_offset 0
 287 0134 67800000 		jr	ra
 288              	.LVL16:
GAS LISTING /tmp/ccqHzMHN.s 			page 7


 289              	.L18:
 290              		.cfi_restore_state
  54:src/syscall_c.cpp ****   else return -10;
 291              		.loc 1 54 16
 292 0138 130560FF 		li	a0,-10
 293              	.LVL17:
 294 013c 6FF01FFF 		j	.L17
 295              		.cfi_endproc
 296              	.LFE97:
 298              		.align	2
 299              		.globl	_Z14thread_preparePP3TCBPFvPvES2_
 301              	_Z14thread_preparePP3TCBPFvPvES2_:
 302              	.LFB98:
  56:src/syscall_c.cpp **** int thread_prepare(   thread_t* handle,
  57:src/syscall_c.cpp ****                        void(*start_routine)(void*),
  58:src/syscall_c.cpp ****                        void* arg)
  59:src/syscall_c.cpp **** {
 303              		.loc 1 59 1 is_stmt 1
 304              		.cfi_startproc
 305              	.LVL18:
  60:src/syscall_c.cpp ****     if(!handle) return -114;
 306              		.loc 1 60 5
 307 0140 63040508 		beqz	a0,.L22
  59:src/syscall_c.cpp ****     if(!handle) return -114;
 308              		.loc 1 59 1 is_stmt 0
 309 0144 130101FC 		addi	sp,sp,-64
 310              		.cfi_def_cfa_offset 64
 311 0148 233C1102 		sd	ra,56(sp)
 312 014c 23388102 		sd	s0,48(sp)
 313 0150 23349102 		sd	s1,40(sp)
 314 0154 23302103 		sd	s2,32(sp)
 315 0158 233C3101 		sd	s3,24(sp)
 316              		.cfi_offset 1, -8
 317              		.cfi_offset 8, -16
 318              		.cfi_offset 9, -24
 319              		.cfi_offset 18, -32
 320              		.cfi_offset 19, -40
 321 015c 13040104 		addi	s0,sp,64
 322              		.cfi_def_cfa 8, 0
 323 0160 93040500 		mv	s1,a0
 324 0164 13890500 		mv	s2,a1
 325 0168 93090600 		mv	s3,a2
  61:src/syscall_c.cpp ****     void* stack =   __mem_alloc(sizeof(uint64)*DEFAULT_STACK_SIZE);
 326              		.loc 1 61 5 is_stmt 1
 327              		.loc 1 61 32 is_stmt 0
 328 016c 37850000 		li	a0,32768
 329              	.LVL19:
 330 0170 97000000 		call	__mem_alloc@plt
 330      E7800000 
 331              	.LVL20:
  62:src/syscall_c.cpp ****     if(!stack)return -112;
 332              		.loc 1 62 5 is_stmt 1
 333 0178 630C0504 		beqz	a0,.L23
  63:src/syscall_c.cpp **** 
  64:src/syscall_c.cpp ****     __asm__ volatile ("mv a4, %0" : : "r" (stack));
 334              		.loc 1 64 5
 335              		.loc 1 64 51 is_stmt 0
GAS LISTING /tmp/ccqHzMHN.s 			page 8


 336              	#APP
 337              	# 64 "src/syscall_c.cpp" 1
  65              	    __asm__ volatile ("mv a3, %0" : : "r" (arg));
 338              		mv a4, a0
 339              	# 0 "" 2
 340              		.loc 1 65 5 is_stmt 1
 341              		.loc 1 65 49 is_stmt 0
 342              	# 65 "src/syscall_c.cpp" 1
  66              	    __asm__ volatile ("mv a2, %0" : : "r" (start_routine));
 343              		mv a3, s3
 344              	# 0 "" 2
 345              		.loc 1 66 5 is_stmt 1
 346              		.loc 1 66 59 is_stmt 0
 347              	# 66 "src/syscall_c.cpp" 1
  67              	    __asm__ volatile ("mv a1, %0" : : "r" (handle));
 348              		mv a2, s2
 349              	# 0 "" 2
 350              		.loc 1 67 5 is_stmt 1
 351              		.loc 1 67 52 is_stmt 0
 352              	# 67 "src/syscall_c.cpp" 1
  68              	    __asm__ volatile ("mv a0, %0" : : "r" (THREAD_PREPARE));
 353              		mv a1, s1
 354              	# 0 "" 2
 355              		.loc 1 68 5 is_stmt 1
 356              		.loc 1 68 60 is_stmt 0
 357              	#NO_APP
 358 018c 93074001 		li	a5,20
 359              	#APP
 360              	# 68 "src/syscall_c.cpp" 1
  69              	
  70:src/syscall_c.cpp ****     __asm__ volatile ("ecall");
 361              		mv a0, a5
 362              	# 0 "" 2
 363              		.loc 1 70 5 is_stmt 1
 364              		.loc 1 70 31 is_stmt 0
 365              	# 70 "src/syscall_c.cpp" 1
  71              	    uint64 volatile retVal;
 366              		ecall
 367              	# 0 "" 2
 368              		.loc 1 71 5 is_stmt 1
  72:src/syscall_c.cpp ****     __asm__ volatile ("mv %0, a0" : "=r" (retVal));
 369              		.loc 1 72 5
 370              		.loc 1 72 51 is_stmt 0
 371              	# 72 "src/syscall_c.cpp" 1
  73              	    if(retVal ==0){
 372              		mv a5, a0
 373              	# 0 "" 2
 374              	#NO_APP
 375 019c 2334F4FC 		sd	a5,-56(s0)
 376              		.loc 1 73 5 is_stmt 1
 377              		.loc 1 73 15 is_stmt 0
 378 01a0 833784FC 		ld	a5,-56(s0)
 379              		.loc 1 73 5
 380 01a4 639A0702 		bnez	a5,.L24
  74:src/syscall_c.cpp ****         return 0;
 381              		.loc 1 74 16
 382 01a8 13050000 		li	a0,0
GAS LISTING /tmp/ccqHzMHN.s 			page 9


 383              	.LVL21:
 384              	.L21:
  75:src/syscall_c.cpp ****     }else return -114;
  76:src/syscall_c.cpp **** }
 385              		.loc 1 76 1
 386 01ac 83308103 		ld	ra,56(sp)
 387              		.cfi_restore 1
 388 01b0 03340103 		ld	s0,48(sp)
 389              		.cfi_restore 8
 390              		.cfi_def_cfa 2, 64
 391 01b4 83348102 		ld	s1,40(sp)
 392              		.cfi_restore 9
 393              	.LVL22:
 394 01b8 03390102 		ld	s2,32(sp)
 395              		.cfi_restore 18
 396              	.LVL23:
 397 01bc 83398101 		ld	s3,24(sp)
 398              		.cfi_restore 19
 399              	.LVL24:
 400 01c0 13010104 		addi	sp,sp,64
 401              		.cfi_def_cfa_offset 0
 402 01c4 67800000 		jr	ra
 403              	.LVL25:
 404              	.L22:
  60:src/syscall_c.cpp ****     void* stack =   __mem_alloc(sizeof(uint64)*DEFAULT_STACK_SIZE);
 405              		.loc 1 60 25
 406 01c8 1305E0F8 		li	a0,-114
 407              	.LVL26:
 408              		.loc 1 76 1
 409 01cc 67800000 		ret
 410              	.LVL27:
 411              	.L23:
 412              		.cfi_def_cfa_register 8
 413              		.cfi_offset 1, -8
 414              		.cfi_offset 8, -16
 415              		.cfi_offset 9, -24
 416              		.cfi_offset 18, -32
 417              		.cfi_offset 19, -40
  62:src/syscall_c.cpp **** 
 418              		.loc 1 62 23
 419 01d0 130500F9 		li	a0,-112
 420              	.LVL28:
 421 01d4 6FF09FFD 		j	.L21
 422              	.LVL29:
 423              	.L24:
  75:src/syscall_c.cpp ****     }else return -114;
 424              		.loc 1 75 19
 425 01d8 1305E0F8 		li	a0,-114
 426              	.LVL30:
 427 01dc 6FF01FFD 		j	.L21
 428              		.cfi_endproc
 429              	.LFE98:
 431              		.align	2
 432              		.globl	_Z13thread_deleteP3TCB
 434              	_Z13thread_deleteP3TCB:
 435              	.LFB99:
  77:src/syscall_c.cpp **** void thread_delete(thread_t handel){
GAS LISTING /tmp/ccqHzMHN.s 			page 10


 436              		.loc 1 77 36 is_stmt 1
 437              		.cfi_startproc
 438              	.LVL31:
 439 01e0 130101FF 		addi	sp,sp,-16
 440              		.cfi_def_cfa_offset 16
 441 01e4 23348100 		sd	s0,8(sp)
 442              		.cfi_offset 8, -8
 443 01e8 13040101 		addi	s0,sp,16
 444              		.cfi_def_cfa 8, 0
  78:src/syscall_c.cpp ****     __asm__ volatile ("mv a1, %0"::"r"(handel));
 445              		.loc 1 78 5
 446              		.loc 1 78 48 is_stmt 0
 447              	#APP
 448              	# 78 "src/syscall_c.cpp" 1
  79              	    __asm__ volatile ("mv a0, %0"::"r"(THREAD_DELETE));
 449              		mv a1, a0
 450              	# 0 "" 2
 451              		.loc 1 79 5 is_stmt 1
 452              		.loc 1 79 55 is_stmt 0
 453              	#NO_APP
 454 01f0 93075001 		li	a5,21
 455              	#APP
 456              	# 79 "src/syscall_c.cpp" 1
  80              	    __asm__ volatile ("ecall");
 457              		mv a0, a5
 458              	# 0 "" 2
 459              		.loc 1 80 5 is_stmt 1
 460              		.loc 1 80 31 is_stmt 0
 461              	# 80 "src/syscall_c.cpp" 1
  81              	}
 462              		ecall
 463              	# 0 "" 2
 464              		.loc 1 81 1
 465              	#NO_APP
 466 01fc 03348100 		ld	s0,8(sp)
 467              		.cfi_restore 8
 468              		.cfi_def_cfa 2, 16
 469 0200 13010101 		addi	sp,sp,16
 470              		.cfi_def_cfa_offset 0
 471 0204 67800000 		jr	ra
 472              		.cfi_endproc
 473              	.LFE99:
 475              		.align	2
 476              		.globl	_Z11thread_joinm
 478              	_Z11thread_joinm:
 479              	.LFB100:
  82:src/syscall_c.cpp **** void thread_join(time_t handle){
 480              		.loc 1 82 32 is_stmt 1
 481              		.cfi_startproc
 482              	.LVL32:
 483 0208 130101FF 		addi	sp,sp,-16
 484              		.cfi_def_cfa_offset 16
 485 020c 23348100 		sd	s0,8(sp)
 486              		.cfi_offset 8, -8
 487 0210 13040101 		addi	s0,sp,16
 488              		.cfi_def_cfa 8, 0
  83:src/syscall_c.cpp ****     __asm__ volatile ("mv a1, %0"::"r"(handle));
GAS LISTING /tmp/ccqHzMHN.s 			page 11


 489              		.loc 1 83 5
 490              		.loc 1 83 48 is_stmt 0
 491              	#APP
 492              	# 83 "src/syscall_c.cpp" 1
  84              	    __asm__ volatile ("mv a0, %0"::"r"(THREAD_JOIN));
 493              		mv a1, a0
 494              	# 0 "" 2
 495              		.loc 1 84 5 is_stmt 1
 496              		.loc 1 84 53 is_stmt 0
 497              	#NO_APP
 498 0218 93076001 		li	a5,22
 499              	#APP
 500              	# 84 "src/syscall_c.cpp" 1
  85              	    __asm__ volatile ("ecall");
 501              		mv a0, a5
 502              	# 0 "" 2
 503              		.loc 1 85 5 is_stmt 1
 504              		.loc 1 85 31 is_stmt 0
 505              	# 85 "src/syscall_c.cpp" 1
  86              	}
 506              		ecall
 507              	# 0 "" 2
 508              		.loc 1 86 1
 509              	#NO_APP
 510 0224 03348100 		ld	s0,8(sp)
 511              		.cfi_restore 8
 512              		.cfi_def_cfa 2, 16
 513 0228 13010101 		addi	sp,sp,16
 514              		.cfi_def_cfa_offset 0
 515 022c 67800000 		jr	ra
 516              		.cfi_endproc
 517              	.LFE100:
 519              		.align	2
 520              		.globl	_Z12thread_getIDP3TCB
 522              	_Z12thread_getIDP3TCB:
 523              	.LFB101:
  87:src/syscall_c.cpp **** int thread_getID(thread_t handel){
 524              		.loc 1 87 34 is_stmt 1
 525              		.cfi_startproc
 526              	.LVL33:
 527 0230 130101FE 		addi	sp,sp,-32
 528              		.cfi_def_cfa_offset 32
 529 0234 233C8100 		sd	s0,24(sp)
 530              		.cfi_offset 8, -8
 531 0238 13040102 		addi	s0,sp,32
 532              		.cfi_def_cfa 8, 0
  88:src/syscall_c.cpp ****     __asm__ volatile ("mv a1, %0"::"r"(handel));
 533              		.loc 1 88 5
 534              		.loc 1 88 48 is_stmt 0
 535              	#APP
 536              	# 88 "src/syscall_c.cpp" 1
  89              	    __asm__ volatile ("mv a0, %0"::"r"(THREAD_GETID));
 537              		mv a1, a0
 538              	# 0 "" 2
 539              		.loc 1 89 5 is_stmt 1
 540              		.loc 1 89 54 is_stmt 0
 541              	#NO_APP
GAS LISTING /tmp/ccqHzMHN.s 			page 12


 542 0240 93077001 		li	a5,23
 543              	#APP
 544              	# 89 "src/syscall_c.cpp" 1
  90              	    __asm__ volatile ("ecall");
 545              		mv a0, a5
 546              	# 0 "" 2
 547              		.loc 1 90 5 is_stmt 1
 548              		.loc 1 90 31 is_stmt 0
 549              	# 90 "src/syscall_c.cpp" 1
  91              	    uint64 volatile retVal;
 550              		ecall
 551              	# 0 "" 2
 552              		.loc 1 91 5 is_stmt 1
  92:src/syscall_c.cpp ****     __asm__ volatile ("mv %0, a0" : "=r" (retVal));
 553              		.loc 1 92 5
 554              		.loc 1 92 51 is_stmt 0
 555              	# 92 "src/syscall_c.cpp" 1
  93              	    return retVal;
 556              		mv a5, a0
 557              	# 0 "" 2
 558              	#NO_APP
 559 0250 2334F4FE 		sd	a5,-24(s0)
 560              		.loc 1 93 5 is_stmt 1
 561              		.loc 1 93 12 is_stmt 0
 562 0254 033584FE 		ld	a0,-24(s0)
 563              	.LVL34:
  94:src/syscall_c.cpp **** }
 564              		.loc 1 94 1
 565 0258 1B050500 		sext.w	a0,a0
 566 025c 03348101 		ld	s0,24(sp)
 567              		.cfi_restore 8
 568              		.cfi_def_cfa 2, 32
 569 0260 13010102 		addi	sp,sp,32
 570              		.cfi_def_cfa_offset 0
 571 0264 67800000 		jr	ra
 572              		.cfi_endproc
 573              	.LFE101:
 575              		.align	2
 576              		.globl	_Z9mem_allocm
 578              	_Z9mem_allocm:
 579              	.LFB102:
  95:src/syscall_c.cpp **** 
  96:src/syscall_c.cpp **** //*******MEMORY**********
  97:src/syscall_c.cpp **** 
  98:src/syscall_c.cpp **** void *mem_alloc(size_t size)
  99:src/syscall_c.cpp **** {
 580              		.loc 1 99 1 is_stmt 1
 581              		.cfi_startproc
 582              	.LVL35:
 583 0268 130101FF 		addi	sp,sp,-16
 584              		.cfi_def_cfa_offset 16
 585 026c 23348100 		sd	s0,8(sp)
 586              		.cfi_offset 8, -8
 587 0270 13040101 		addi	s0,sp,16
 588              		.cfi_def_cfa 8, 0
 100:src/syscall_c.cpp ****     size_t BlocckSize;
 589              		.loc 1 100 5
GAS LISTING /tmp/ccqHzMHN.s 			page 13


 101:src/syscall_c.cpp ****     if(size % MEM_BLOCK_SIZE==0){
 590              		.loc 1 101 5
 591              		.loc 1 101 13 is_stmt 0
 592 0274 9377F503 		andi	a5,a0,63
 593              		.loc 1 101 5
 594 0278 63940702 		bnez	a5,.L36
 102:src/syscall_c.cpp ****         BlocckSize=size/MEM_BLOCK_SIZE;
 595              		.loc 1 102 9 is_stmt 1
 596              		.loc 1 102 19 is_stmt 0
 597 027c 13556500 		srli	a0,a0,6
 598              	.LVL36:
 599              	.L37:
 103:src/syscall_c.cpp ****     }else{
 104:src/syscall_c.cpp ****         BlocckSize= (size/MEM_BLOCK_SIZE)+1;
 105:src/syscall_c.cpp ****     }
 106:src/syscall_c.cpp ****     __asm__ volatile ("mv a1, %0" : : "r"(BlocckSize));
 600              		.loc 1 106 5 is_stmt 1
 601              		.loc 1 106 55 is_stmt 0
 602              	#APP
 603              	# 106 "src/syscall_c.cpp" 1
 107              	    __asm__ volatile ("mv a0, %0 "::"r"(MEM_ALLOC));
 604              		mv a1, a0
 605              	# 0 "" 2
 606              		.loc 1 107 5 is_stmt 1
 607              		.loc 1 107 52 is_stmt 0
 608              	#NO_APP
 609 0284 93071000 		li	a5,1
 610              	#APP
 611              	# 107 "src/syscall_c.cpp" 1
 108              	    __asm__ volatile ("ecall");
 612              		mv a0, a5 
 613              	# 0 "" 2
 614              		.loc 1 108 5 is_stmt 1
 615              		.loc 1 108 31 is_stmt 0
 616              	# 108 "src/syscall_c.cpp" 1
 109              	    uint64 retVal=0;
 617              		ecall
 618              	# 0 "" 2
 619              		.loc 1 109 5 is_stmt 1
 620              	.LVL37:
 110:src/syscall_c.cpp ****         __asm__ volatile ("mv %0, a0" : "=r"(retVal));
 621              		.loc 1 110 9
 622              		.loc 1 110 54 is_stmt 0
 623              	# 110 "src/syscall_c.cpp" 1
 111              	        return (void*)retVal;
 624              		mv a0, a0
 625              	# 0 "" 2
 626              	.LVL38:
 627              		.loc 1 111 9 is_stmt 1
 112:src/syscall_c.cpp **** }
 628              		.loc 1 112 1 is_stmt 0
 629              	#NO_APP
 630 0294 03348100 		ld	s0,8(sp)
 631              		.cfi_remember_state
 632              		.cfi_restore 8
 633              		.cfi_def_cfa 2, 16
 634 0298 13010101 		addi	sp,sp,16
GAS LISTING /tmp/ccqHzMHN.s 			page 14


 635              		.cfi_def_cfa_offset 0
 636 029c 67800000 		jr	ra
 637              	.LVL39:
 638              	.L36:
 639              		.cfi_restore_state
 104:src/syscall_c.cpp ****     }
 640              		.loc 1 104 9 is_stmt 1
 104:src/syscall_c.cpp ****     }
 641              		.loc 1 104 26 is_stmt 0
 642 02a0 13556500 		srli	a0,a0,6
 643              	.LVL40:
 104:src/syscall_c.cpp ****     }
 644              		.loc 1 104 19
 645 02a4 13051500 		addi	a0,a0,1
 646              	.LVL41:
 647 02a8 6FF09FFD 		j	.L37
 648              		.cfi_endproc
 649              	.LFE102:
 651              		.align	2
 652              		.globl	_Z8mem_freePv
 654              	_Z8mem_freePv:
 655              	.LFB103:
 113:src/syscall_c.cpp **** 
 114:src/syscall_c.cpp **** int mem_free(void*pointer)
 115:src/syscall_c.cpp **** {
 656              		.loc 1 115 1 is_stmt 1
 657              		.cfi_startproc
 658              	.LVL42:
 116:src/syscall_c.cpp ****     if(pointer== nullptr)return 0;
 659              		.loc 1 116 5
 660 02ac 63020504 		beqz	a0,.L41
 115:src/syscall_c.cpp ****     if(pointer== nullptr)return 0;
 661              		.loc 1 115 1 is_stmt 0
 662 02b0 130101FE 		addi	sp,sp,-32
 663              		.cfi_def_cfa_offset 32
 664 02b4 233C8100 		sd	s0,24(sp)
 665              		.cfi_offset 8, -8
 666 02b8 13040102 		addi	s0,sp,32
 667              		.cfi_def_cfa 8, 0
 117:src/syscall_c.cpp ****     __asm__ volatile ("mv a1, %0" : : "r"(pointer));
 668              		.loc 1 117 5 is_stmt 1
 669              		.loc 1 117 52 is_stmt 0
 670              	#APP
 671              	# 117 "src/syscall_c.cpp" 1
 118              	    __asm__ volatile ("mv a0, %0 "::"r"(MEM_FREE));
 672              		mv a1, a0
 673              	# 0 "" 2
 674              		.loc 1 118 5 is_stmt 1
 675              		.loc 1 118 51 is_stmt 0
 676              	#NO_APP
 677 02c0 93072000 		li	a5,2
 678              	#APP
 679              	# 118 "src/syscall_c.cpp" 1
 119              	    __asm__ volatile ("ecall");
 680              		mv a0, a5 
 681              	# 0 "" 2
 682              		.loc 1 119 5 is_stmt 1
GAS LISTING /tmp/ccqHzMHN.s 			page 15


 683              		.loc 1 119 31 is_stmt 0
 684              	# 119 "src/syscall_c.cpp" 1
 120              	    uint64 volatile retVal=0;
 685              		ecall
 686              	# 0 "" 2
 687              		.loc 1 120 5 is_stmt 1
 688              		.loc 1 120 21 is_stmt 0
 689              	#NO_APP
 690 02cc 233404FE 		sd	zero,-24(s0)
 121:src/syscall_c.cpp ****     __asm__ volatile ("mv %0, a0 " : "=r" (retVal));
 691              		.loc 1 121 5 is_stmt 1
 692              		.loc 1 121 52 is_stmt 0
 693              	#APP
 694              	# 121 "src/syscall_c.cpp" 1
 122              	    if(retVal==0)return 0;
 695              		mv a5, a0 
 696              	# 0 "" 2
 697              	#NO_APP
 698 02d4 2334F4FE 		sd	a5,-24(s0)
 699              		.loc 1 122 5 is_stmt 1
 700              		.loc 1 122 14 is_stmt 0
 701 02d8 833784FE 		ld	a5,-24(s0)
 702              		.loc 1 122 5
 703 02dc 639E0700 		bnez	a5,.L42
 704              		.loc 1 122 25
 705 02e0 13050000 		li	a0,0
 706              	.LVL43:
 707              	.L40:
 123:src/syscall_c.cpp ****     else return -1;
 124:src/syscall_c.cpp **** }
 708              		.loc 1 124 1
 709 02e4 03348101 		ld	s0,24(sp)
 710              		.cfi_restore 8
 711              		.cfi_def_cfa 2, 32
 712 02e8 13010102 		addi	sp,sp,32
 713              		.cfi_def_cfa_offset 0
 714 02ec 67800000 		jr	ra
 715              	.LVL44:
 716              	.L41:
 116:src/syscall_c.cpp ****     __asm__ volatile ("mv a1, %0" : : "r"(pointer));
 717              		.loc 1 116 33
 718 02f0 13050000 		li	a0,0
 719              	.LVL45:
 720              		.loc 1 124 1
 721 02f4 67800000 		ret
 722              	.LVL46:
 723              	.L42:
 724              		.cfi_def_cfa_register 8
 725              		.cfi_offset 8, -8
 123:src/syscall_c.cpp ****     else return -1;
 726              		.loc 1 123 18
 727 02f8 1305F0FF 		li	a0,-1
 728              	.LVL47:
 729 02fc 6FF09FFE 		j	.L40
 730              		.cfi_endproc
 731              	.LFE103:
 733              		.align	2
GAS LISTING /tmp/ccqHzMHN.s 			page 16


 734              		.globl	_Z8sem_openPP4_semj
 736              	_Z8sem_openPP4_semj:
 737              	.LFB104:
 125:src/syscall_c.cpp **** //*******SEMAPHORE*********
 126:src/syscall_c.cpp **** int sem_open(  sem_t* handle,
 127:src/syscall_c.cpp ****                unsigned init){
 738              		.loc 1 127 30 is_stmt 1
 739              		.cfi_startproc
 740              	.LVL48:
 741 0300 130101FF 		addi	sp,sp,-16
 742              		.cfi_def_cfa_offset 16
 743 0304 23348100 		sd	s0,8(sp)
 744              		.cfi_offset 8, -8
 745 0308 13040101 		addi	s0,sp,16
 746              		.cfi_def_cfa 8, 0
 128:src/syscall_c.cpp ****     __asm__ volatile("mv a3, %0"::"r"(handle));
 747              		.loc 1 128 5
 748              		.loc 1 128 47 is_stmt 0
 749              	#APP
 750              	# 128 "src/syscall_c.cpp" 1
 129              	    __asm__ volatile("mv a2, %0"::"r"(init));
 751              		mv a3, a0
 752              	# 0 "" 2
 753              		.loc 1 129 5 is_stmt 1
 754              		.loc 1 129 45 is_stmt 0
 755              	# 129 "src/syscall_c.cpp" 1
 130              	    __asm__ volatile("mv a0, %0"::"r"(SEM_OPEN));
 756              		mv a2, a1
 757              	# 0 "" 2
 758              		.loc 1 130 5 is_stmt 1
 759              		.loc 1 130 49 is_stmt 0
 760              	#NO_APP
 761 0314 93071002 		li	a5,33
 762              	#APP
 763              	# 130 "src/syscall_c.cpp" 1
 131              	    __asm__ volatile("ecall");
 764              		mv a0, a5
 765              	# 0 "" 2
 766              		.loc 1 131 5 is_stmt 1
 767              		.loc 1 131 30 is_stmt 0
 768              	# 131 "src/syscall_c.cpp" 1
 132              	    uint64 retVal;
 769              		ecall
 770              	# 0 "" 2
 771              		.loc 1 132 5 is_stmt 1
 133:src/syscall_c.cpp ****     __asm__ volatile ("mv %0, a0":"=r"(retVal));
 772              		.loc 1 133 5
 773              		.loc 1 133 48 is_stmt 0
 774              	# 133 "src/syscall_c.cpp" 1
 134              	    if(retVal==0)return 0;
 775              		mv a5, a0
 776              	# 0 "" 2
 777              	.LVL49:
 778              		.loc 1 134 5 is_stmt 1
 779              	#NO_APP
 780 0324 639A0700 		bnez	a5,.L49
 781              		.loc 1 134 25 is_stmt 0
GAS LISTING /tmp/ccqHzMHN.s 			page 17


 782 0328 13050000 		li	a0,0
 783              	.LVL50:
 784              	.L48:
 135:src/syscall_c.cpp ****     else return -21;
 136:src/syscall_c.cpp **** }
 785              		.loc 1 136 1
 786 032c 03348100 		ld	s0,8(sp)
 787              		.cfi_remember_state
 788              		.cfi_restore 8
 789              		.cfi_def_cfa 2, 16
 790 0330 13010101 		addi	sp,sp,16
 791              		.cfi_def_cfa_offset 0
 792 0334 67800000 		jr	ra
 793              	.LVL51:
 794              	.L49:
 795              		.cfi_restore_state
 135:src/syscall_c.cpp ****     else return -21;
 796              		.loc 1 135 18
 797 0338 1305B0FE 		li	a0,-21
 798              	.LVL52:
 799 033c 6FF01FFF 		j	.L48
 800              		.cfi_endproc
 801              	.LFE104:
 803              		.align	2
 804              		.globl	_Z9sem_closeP4_sem
 806              	_Z9sem_closeP4_sem:
 807              	.LFB105:
 137:src/syscall_c.cpp **** int sem_close(sem_t handler){
 808              		.loc 1 137 29 is_stmt 1
 809              		.cfi_startproc
 810              	.LVL53:
 811 0340 130101FF 		addi	sp,sp,-16
 812              		.cfi_def_cfa_offset 16
 813 0344 23348100 		sd	s0,8(sp)
 814              		.cfi_offset 8, -8
 815 0348 13040101 		addi	s0,sp,16
 816              		.cfi_def_cfa 8, 0
 138:src/syscall_c.cpp ****     __asm__ volatile("mv a1, %0"::"r"(handler));
 817              		.loc 1 138 5
 818              		.loc 1 138 48 is_stmt 0
 819              	#APP
 820              	# 138 "src/syscall_c.cpp" 1
 139              	    __asm__ volatile("mv a0, %0"::"r"(SEM_CLOSE));
 821              		mv a1, a0
 822              	# 0 "" 2
 823              		.loc 1 139 5 is_stmt 1
 824              		.loc 1 139 50 is_stmt 0
 825              	#NO_APP
 826 0350 93072002 		li	a5,34
 827              	#APP
 828              	# 139 "src/syscall_c.cpp" 1
 140              	    __asm__ volatile("ecall");
 829              		mv a0, a5
 830              	# 0 "" 2
 831              		.loc 1 140 5 is_stmt 1
 832              		.loc 1 140 30 is_stmt 0
 833              	# 140 "src/syscall_c.cpp" 1
GAS LISTING /tmp/ccqHzMHN.s 			page 18


 141              	    uint64 retVal;
 834              		ecall
 835              	# 0 "" 2
 836              		.loc 1 141 5 is_stmt 1
 142:src/syscall_c.cpp ****     __asm__ volatile ("mv %0, a0":"=r"(retVal));
 837              		.loc 1 142 5
 838              		.loc 1 142 48 is_stmt 0
 839              	# 142 "src/syscall_c.cpp" 1
 143              	    if(retVal==0)return 0;
 840              		mv a5, a0
 841              	# 0 "" 2
 842              	.LVL54:
 843              		.loc 1 143 5 is_stmt 1
 844              	#NO_APP
 845 0360 639A0700 		bnez	a5,.L53
 846              		.loc 1 143 25 is_stmt 0
 847 0364 13050000 		li	a0,0
 848              	.LVL55:
 849              	.L52:
 144:src/syscall_c.cpp ****     else return -22;
 145:src/syscall_c.cpp **** }
 850              		.loc 1 145 1
 851 0368 03348100 		ld	s0,8(sp)
 852              		.cfi_remember_state
 853              		.cfi_restore 8
 854              		.cfi_def_cfa 2, 16
 855 036c 13010101 		addi	sp,sp,16
 856              		.cfi_def_cfa_offset 0
 857 0370 67800000 		jr	ra
 858              	.LVL56:
 859              	.L53:
 860              		.cfi_restore_state
 144:src/syscall_c.cpp ****     else return -22;
 861              		.loc 1 144 18
 862 0374 1305A0FE 		li	a0,-22
 863              	.LVL57:
 864 0378 6FF01FFF 		j	.L52
 865              		.cfi_endproc
 866              	.LFE105:
 868              		.align	2
 869              		.globl	_Z8sem_waitP4_sem
 871              	_Z8sem_waitP4_sem:
 872              	.LFB106:
 146:src/syscall_c.cpp **** 
 147:src/syscall_c.cpp **** int sem_wait(sem_t id){
 873              		.loc 1 147 23 is_stmt 1
 874              		.cfi_startproc
 875              	.LVL58:
 876 037c 130101FF 		addi	sp,sp,-16
 877              		.cfi_def_cfa_offset 16
 878 0380 23348100 		sd	s0,8(sp)
 879              		.cfi_offset 8, -8
 880 0384 13040101 		addi	s0,sp,16
 881              		.cfi_def_cfa 8, 0
 148:src/syscall_c.cpp ****     __asm__ volatile("mv a1, %0"::"r"(id));
 882              		.loc 1 148 5
 883              		.loc 1 148 43 is_stmt 0
GAS LISTING /tmp/ccqHzMHN.s 			page 19


 884              	#APP
 885              	# 148 "src/syscall_c.cpp" 1
 149              	    __asm__ volatile("mv a0, %0"::"r"(SEM_WAIT));
 886              		mv a1, a0
 887              	# 0 "" 2
 888              		.loc 1 149 5 is_stmt 1
 889              		.loc 1 149 49 is_stmt 0
 890              	#NO_APP
 891 038c 93073002 		li	a5,35
 892              	#APP
 893              	# 149 "src/syscall_c.cpp" 1
 150              	    __asm__ volatile("ecall");
 894              		mv a0, a5
 895              	# 0 "" 2
 896              		.loc 1 150 5 is_stmt 1
 897              		.loc 1 150 30 is_stmt 0
 898              	# 150 "src/syscall_c.cpp" 1
 151              	    uint64 retVal;
 899              		ecall
 900              	# 0 "" 2
 901              		.loc 1 151 5 is_stmt 1
 152:src/syscall_c.cpp ****     __asm__ volatile ("mv %0, a0":"=r"(retVal));
 902              		.loc 1 152 5
 903              		.loc 1 152 48 is_stmt 0
 904              	# 152 "src/syscall_c.cpp" 1
 153              	    if(retVal==0)return 0;
 905              		mv a5, a0
 906              	# 0 "" 2
 907              	.LVL59:
 908              		.loc 1 153 5 is_stmt 1
 909              	#NO_APP
 910 039c 639A0700 		bnez	a5,.L57
 911              		.loc 1 153 25 is_stmt 0
 912 03a0 13050000 		li	a0,0
 913              	.LVL60:
 914              	.L56:
 154:src/syscall_c.cpp ****     else return -22;
 155:src/syscall_c.cpp **** }
 915              		.loc 1 155 1
 916 03a4 03348100 		ld	s0,8(sp)
 917              		.cfi_remember_state
 918              		.cfi_restore 8
 919              		.cfi_def_cfa 2, 16
 920 03a8 13010101 		addi	sp,sp,16
 921              		.cfi_def_cfa_offset 0
 922 03ac 67800000 		jr	ra
 923              	.LVL61:
 924              	.L57:
 925              		.cfi_restore_state
 154:src/syscall_c.cpp ****     else return -22;
 926              		.loc 1 154 18
 927 03b0 1305A0FE 		li	a0,-22
 928              	.LVL62:
 929 03b4 6FF01FFF 		j	.L56
 930              		.cfi_endproc
 931              	.LFE106:
 933              		.align	2
GAS LISTING /tmp/ccqHzMHN.s 			page 20


 934              		.globl	_Z10sem_signalP4_sem
 936              	_Z10sem_signalP4_sem:
 937              	.LFB107:
 156:src/syscall_c.cpp **** int sem_signal(sem_t id){
 938              		.loc 1 156 25 is_stmt 1
 939              		.cfi_startproc
 940              	.LVL63:
 941 03b8 130101FF 		addi	sp,sp,-16
 942              		.cfi_def_cfa_offset 16
 943 03bc 23348100 		sd	s0,8(sp)
 944              		.cfi_offset 8, -8
 945 03c0 13040101 		addi	s0,sp,16
 946              		.cfi_def_cfa 8, 0
 157:src/syscall_c.cpp ****     __asm__ volatile("mv a1, %0"::"r"(id));
 947              		.loc 1 157 5
 948              		.loc 1 157 43 is_stmt 0
 949              	#APP
 950              	# 157 "src/syscall_c.cpp" 1
 158              	    __asm__ volatile("mv a0, %0"::"r"(SEM_SIGNAL));
 951              		mv a1, a0
 952              	# 0 "" 2
 953              		.loc 1 158 5 is_stmt 1
 954              		.loc 1 158 51 is_stmt 0
 955              	#NO_APP
 956 03c8 93074002 		li	a5,36
 957              	#APP
 958              	# 158 "src/syscall_c.cpp" 1
 159              	    __asm__ volatile("ecall");
 959              		mv a0, a5
 960              	# 0 "" 2
 961              		.loc 1 159 5 is_stmt 1
 962              		.loc 1 159 30 is_stmt 0
 963              	# 159 "src/syscall_c.cpp" 1
 160              	
 161:src/syscall_c.cpp ****     uint64 retVal;
 964              		ecall
 965              	# 0 "" 2
 966              		.loc 1 161 5 is_stmt 1
 162:src/syscall_c.cpp ****     __asm__ volatile ("mv %0, a0":"=r"(retVal));
 967              		.loc 1 162 5
 968              		.loc 1 162 48 is_stmt 0
 969              	# 162 "src/syscall_c.cpp" 1
 163              	    if(retVal==0)return 0;
 970              		mv a5, a0
 971              	# 0 "" 2
 972              	.LVL64:
 973              		.loc 1 163 5 is_stmt 1
 974              	#NO_APP
 975 03d8 639A0700 		bnez	a5,.L61
 976              		.loc 1 163 25 is_stmt 0
 977 03dc 13050000 		li	a0,0
 978              	.LVL65:
 979              	.L60:
 164:src/syscall_c.cpp ****     else return -22;
 165:src/syscall_c.cpp **** }
 980              		.loc 1 165 1
 981 03e0 03348100 		ld	s0,8(sp)
GAS LISTING /tmp/ccqHzMHN.s 			page 21


 982              		.cfi_remember_state
 983              		.cfi_restore 8
 984              		.cfi_def_cfa 2, 16
 985 03e4 13010101 		addi	sp,sp,16
 986              		.cfi_def_cfa_offset 0
 987 03e8 67800000 		jr	ra
 988              	.LVL66:
 989              	.L61:
 990              		.cfi_restore_state
 164:src/syscall_c.cpp ****     else return -22;
 991              		.loc 1 164 18
 992 03ec 1305A0FE 		li	a0,-22
 993              	.LVL67:
 994 03f0 6FF01FFF 		j	.L60
 995              		.cfi_endproc
 996              	.LFE107:
 998              		.align	2
 999              		.globl	_Z4getcv
 1001              	_Z4getcv:
 1002              	.LFB108:
 166:src/syscall_c.cpp **** 
 167:src/syscall_c.cpp **** char getc(){
 1003              		.loc 1 167 12 is_stmt 1
 1004              		.cfi_startproc
 1005 03f4 130101FF 		addi	sp,sp,-16
 1006              		.cfi_def_cfa_offset 16
 1007 03f8 23348100 		sd	s0,8(sp)
 1008              		.cfi_offset 8, -8
 1009 03fc 13040101 		addi	s0,sp,16
 1010              		.cfi_def_cfa 8, 0
 168:src/syscall_c.cpp ****     __asm__ volatile("mv a0, %0"::"r"(GETC));
 1011              		.loc 1 168 5
 1012              		.loc 1 168 45 is_stmt 0
 1013 0400 93071004 		li	a5,65
 1014              	#APP
 1015              	# 168 "src/syscall_c.cpp" 1
 169              	    __asm__ volatile("ecall");
 1016              		mv a0, a5
 1017              	# 0 "" 2
 1018              		.loc 1 169 5 is_stmt 1
 1019              		.loc 1 169 30 is_stmt 0
 1020              	# 169 "src/syscall_c.cpp" 1
 170              	    uint64  retVal;
 1021              		ecall
 1022              	# 0 "" 2
 1023              		.loc 1 170 5 is_stmt 1
 171:src/syscall_c.cpp ****     __asm__ volatile ("mv %0, a0":"=r"(retVal));
 1024              		.loc 1 171 5
 1025              		.loc 1 171 48 is_stmt 0
 1026              	# 171 "src/syscall_c.cpp" 1
 172              	   char ret= (char)retVal;
 1027              		mv a0, a0
 1028              	# 0 "" 2
 1029              	.LVL68:
 1030              		.loc 1 172 4 is_stmt 1
 173:src/syscall_c.cpp ****     return  ret;
 1031              		.loc 1 173 5
GAS LISTING /tmp/ccqHzMHN.s 			page 22


 174:src/syscall_c.cpp **** 
 175:src/syscall_c.cpp **** }
 1032              		.loc 1 175 1 is_stmt 0
 1033              	#NO_APP
 1034 0410 1375F50F 		andi	a0,a0,0xff
 1035              	.LVL69:
 1036 0414 03348100 		ld	s0,8(sp)
 1037              		.cfi_restore 8
 1038              		.cfi_def_cfa 2, 16
 1039 0418 13010101 		addi	sp,sp,16
 1040              		.cfi_def_cfa_offset 0
 1041 041c 67800000 		jr	ra
 1042              		.cfi_endproc
 1043              	.LFE108:
 1045              		.align	2
 1046              		.globl	_Z4putcc
 1048              	_Z4putcc:
 1049              	.LFB109:
 176:src/syscall_c.cpp **** void putc(char cha){
 1050              		.loc 1 176 20 is_stmt 1
 1051              		.cfi_startproc
 1052              	.LVL70:
 1053 0420 130101FF 		addi	sp,sp,-16
 1054              		.cfi_def_cfa_offset 16
 1055 0424 23348100 		sd	s0,8(sp)
 1056              		.cfi_offset 8, -8
 1057 0428 13040101 		addi	s0,sp,16
 1058              		.cfi_def_cfa 8, 0
 177:src/syscall_c.cpp ****     __asm__ volatile("mv a1, %0"::"r"(cha));
 1059              		.loc 1 177 5
 1060              		.loc 1 177 44 is_stmt 0
 1061              	#APP
 1062              	# 177 "src/syscall_c.cpp" 1
 178              	    __asm__ volatile("mv a0, %0"::"r"(PUTC));
 1063              		mv a1, a0
 1064              	# 0 "" 2
 1065              		.loc 1 178 5 is_stmt 1
 1066              		.loc 1 178 45 is_stmt 0
 1067              	#NO_APP
 1068 0430 93072004 		li	a5,66
 1069              	#APP
 1070              	# 178 "src/syscall_c.cpp" 1
 179              	    __asm__ volatile("ecall");
 1071              		mv a0, a5
 1072              	# 0 "" 2
 1073              		.loc 1 179 5 is_stmt 1
 1074              		.loc 1 179 30 is_stmt 0
 1075              	# 179 "src/syscall_c.cpp" 1
 180              	
 181:src/syscall_c.cpp **** }
 1076              		ecall
 1077              	# 0 "" 2
 1078              		.loc 1 181 1
 1079              	#NO_APP
 1080 043c 03348100 		ld	s0,8(sp)
 1081              		.cfi_restore 8
 1082              		.cfi_def_cfa 2, 16
GAS LISTING /tmp/ccqHzMHN.s 			page 23


 1083 0440 13010101 		addi	sp,sp,16
 1084              		.cfi_def_cfa_offset 0
 1085 0444 67800000 		jr	ra
 1086              		.cfi_endproc
 1087              	.LFE109:
 1089              		.align	2
 1090              		.globl	_Z10time_sleepm
 1092              	_Z10time_sleepm:
 1093              	.LFB110:
 182:src/syscall_c.cpp **** 
 183:src/syscall_c.cpp **** int time_sleep(time_t time){
 1094              		.loc 1 183 28 is_stmt 1
 1095              		.cfi_startproc
 1096              	.LVL71:
 1097 0448 130101FF 		addi	sp,sp,-16
 1098              		.cfi_def_cfa_offset 16
 1099 044c 23348100 		sd	s0,8(sp)
 1100              		.cfi_offset 8, -8
 1101 0450 13040101 		addi	s0,sp,16
 1102              		.cfi_def_cfa 8, 0
 184:src/syscall_c.cpp ****     if(time==0)return 0;
 1103              		.loc 1 184 5
 1104 0454 63060502 		beqz	a0,.L69
 185:src/syscall_c.cpp ****     __asm__ volatile("mv a1, %0"::"r"(time));
 1105              		.loc 1 185 5
 1106              		.loc 1 185 45 is_stmt 0
 1107              	#APP
 1108              	# 185 "src/syscall_c.cpp" 1
 186              	    __asm__ volatile("mv a0, %0"::"r"(TIME_SLEEP));
 1109              		mv a1, a0
 1110              	# 0 "" 2
 1111              		.loc 1 186 5 is_stmt 1
 1112              		.loc 1 186 51 is_stmt 0
 1113              	#NO_APP
 1114 045c 93071003 		li	a5,49
 1115              	#APP
 1116              	# 186 "src/syscall_c.cpp" 1
 187              	    __asm__ volatile("ecall");
 1117              		mv a0, a5
 1118              	# 0 "" 2
 1119              		.loc 1 187 5 is_stmt 1
 1120              		.loc 1 187 30 is_stmt 0
 1121              	# 187 "src/syscall_c.cpp" 1
 188              	    uint64  retVal;
 1122              		ecall
 1123              	# 0 "" 2
 1124              		.loc 1 188 5 is_stmt 1
 189:src/syscall_c.cpp ****     __asm__ volatile ("mv %0, a0":"=r"(retVal));
 1125              		.loc 1 189 5
 1126              		.loc 1 189 48 is_stmt 0
 1127              	# 189 "src/syscall_c.cpp" 1
 190              	    if(retVal==0)return 0;
 1128              		mv a5, a0
 1129              	# 0 "" 2
 1130              	.LVL72:
 1131              		.loc 1 190 5 is_stmt 1
 1132              	#NO_APP
GAS LISTING /tmp/ccqHzMHN.s 			page 24


 1133 046c 639E0700 		bnez	a5,.L70
 1134              		.loc 1 190 25 is_stmt 0
 1135 0470 13050000 		li	a0,0
 1136              	.LVL73:
 1137              	.L68:
 191:src/syscall_c.cpp ****     else return -15;
 192:src/syscall_c.cpp **** }
 1138              		.loc 1 192 1
 1139 0474 03348100 		ld	s0,8(sp)
 1140              		.cfi_remember_state
 1141              		.cfi_restore 8
 1142              		.cfi_def_cfa 2, 16
 1143 0478 13010101 		addi	sp,sp,16
 1144              		.cfi_def_cfa_offset 0
 1145 047c 67800000 		jr	ra
 1146              	.LVL74:
 1147              	.L69:
 1148              		.cfi_restore_state
 184:src/syscall_c.cpp ****     __asm__ volatile("mv a1, %0"::"r"(time));
 1149              		.loc 1 184 23
 1150 0480 13050000 		li	a0,0
 1151              	.LVL75:
 1152 0484 6FF01FFF 		j	.L68
 1153              	.LVL76:
 1154              	.L70:
 191:src/syscall_c.cpp ****     else return -15;
 1155              		.loc 1 191 18
 1156 0488 130510FF 		li	a0,-15
 1157              	.LVL77:
 1158 048c 6FF09FFE 		j	.L68
 1159              		.cfi_endproc
 1160              	.LFE110:
 1162              	.Letext0:
 1163              		.file 2 "src/../h/../lib/hw.h"
 1164              		.file 3 "src/../h/syscall_c.hpp"
 1165              		.file 4 "src/../h/tcb.hpp"
 1166              		.file 5 "src/../h/_sem.hpp"
 1167              		.file 6 "src/../h/MyWaitList.hpp"
 1168              		.file 7 "src/../h/globals.hpp"
 1169              		.file 8 "src/../h/../lib/mem.h"
GAS LISTING /tmp/ccqHzMHN.s 			page 25


DEFINED SYMBOLS
                            *ABS*:0000000000000000 syscall_c.cpp
     /tmp/ccqHzMHN.s:9      .text:0000000000000000 _Z13thread_createPP3TCBPFvPvES2_
     /tmp/ccqHzMHN.s:13     .text:0000000000000000 .L0 
     /tmp/ccqHzMHN.s:15     .text:0000000000000000 .L0 
     /tmp/ccqHzMHN.s:16     .text:0000000000000000 .L0 
     /tmp/ccqHzMHN.s:18     .text:0000000000000004 .L0 
     /tmp/ccqHzMHN.s:19     .text:0000000000000008 .L0 
     /tmp/ccqHzMHN.s:25     .text:000000000000001c .L0 
     /tmp/ccqHzMHN.s:26     .text:000000000000001c .L0 
     /tmp/ccqHzMHN.s:27     .text:000000000000001c .L0 
     /tmp/ccqHzMHN.s:28     .text:000000000000001c .L0 
     /tmp/ccqHzMHN.s:29     .text:000000000000001c .L0 
     /tmp/ccqHzMHN.s:31     .text:0000000000000020 .L0 
     /tmp/ccqHzMHN.s:36     .text:000000000000002c .L0 
     /tmp/ccqHzMHN.s:37     .text:000000000000002c .L0 
     /tmp/ccqHzMHN.s:42     .text:0000000000000038 .L0 
     /tmp/ccqHzMHN.s:44     .text:000000000000003c .L0 
   src/syscall_c.cpp:18     .text:000000000000003c .L0 
     /tmp/ccqHzMHN.s:50     .text:0000000000000040 .L0 
   src/syscall_c.cpp:19     .text:0000000000000040 .L0 
     /tmp/ccqHzMHN.s:55     .text:0000000000000044 .L0 
   src/syscall_c.cpp:20     .text:0000000000000044 .L0 
     /tmp/ccqHzMHN.s:60     .text:0000000000000048 .L0 
   src/syscall_c.cpp:21     .text:0000000000000048 .L0 
     /tmp/ccqHzMHN.s:65     .text:000000000000004c .L0 
     /tmp/ccqHzMHN.s:67     .text:000000000000004c .L0 
     /tmp/ccqHzMHN.s:73     .text:0000000000000054 .L0 
   src/syscall_c.cpp:24     .text:0000000000000054 .L0 
     /tmp/ccqHzMHN.s:78     .text:0000000000000058 .L0 
     /tmp/ccqHzMHN.s:79     .text:0000000000000058 .L0 
   src/syscall_c.cpp:26     .text:0000000000000058 .L0 
     /tmp/ccqHzMHN.s:86     .text:0000000000000060 .L0 
     /tmp/ccqHzMHN.s:87     .text:0000000000000060 .L0 
     /tmp/ccqHzMHN.s:89     .text:0000000000000064 .L0 
     /tmp/ccqHzMHN.s:91     .text:0000000000000068 .L0 
     /tmp/ccqHzMHN.s:95     .text:000000000000006c .L0 
     /tmp/ccqHzMHN.s:96     .text:0000000000000070 .L0 
     /tmp/ccqHzMHN.s:98     .text:0000000000000074 .L0 
     /tmp/ccqHzMHN.s:99     .text:0000000000000074 .L0 
     /tmp/ccqHzMHN.s:101    .text:0000000000000078 .L0 
     /tmp/ccqHzMHN.s:104    .text:000000000000007c .L0 
     /tmp/ccqHzMHN.s:107    .text:0000000000000080 .L0 
     /tmp/ccqHzMHN.s:110    .text:0000000000000084 .L0 
     /tmp/ccqHzMHN.s:115    .text:0000000000000088 .L0 
     /tmp/ccqHzMHN.s:118    .text:000000000000008c .L0 
     /tmp/ccqHzMHN.s:121    .text:0000000000000090 .L0 
     /tmp/ccqHzMHN.s:122    .text:0000000000000090 .L0 
     /tmp/ccqHzMHN.s:123    .text:0000000000000090 .L0 
     /tmp/ccqHzMHN.s:124    .text:0000000000000090 .L0 
     /tmp/ccqHzMHN.s:125    .text:0000000000000090 .L0 
     /tmp/ccqHzMHN.s:126    .text:0000000000000090 .L0 
     /tmp/ccqHzMHN.s:128    .text:0000000000000090 .L0 
     /tmp/ccqHzMHN.s:134    .text:0000000000000098 .L0 
     /tmp/ccqHzMHN.s:137    .text:00000000000000a0 .L0 
     /tmp/ccqHzMHN.s:143    .text:00000000000000a0 _Z11thread_exitv
     /tmp/ccqHzMHN.s:146    .text:00000000000000a0 .L0 
GAS LISTING /tmp/ccqHzMHN.s 			page 26


     /tmp/ccqHzMHN.s:147    .text:00000000000000a0 .L0 
     /tmp/ccqHzMHN.s:148    .text:00000000000000a4 .L0 
     /tmp/ccqHzMHN.s:150    .text:00000000000000a8 .L0 
     /tmp/ccqHzMHN.s:152    .text:00000000000000ac .L0 
     /tmp/ccqHzMHN.s:154    .text:00000000000000ac .L0 
     /tmp/ccqHzMHN.s:155    .text:00000000000000ac .L0 
     /tmp/ccqHzMHN.s:161    .text:00000000000000b4 .L0 
   src/syscall_c.cpp:35     .text:00000000000000b4 .L0 
     /tmp/ccqHzMHN.s:166    .text:00000000000000b8 .L0 
     /tmp/ccqHzMHN.s:167    .text:00000000000000b8 .L0 
   src/syscall_c.cpp:37     .text:00000000000000b8 .L0 
     /tmp/ccqHzMHN.s:174    .text:00000000000000c0 .L0 
     /tmp/ccqHzMHN.s:175    .text:00000000000000c0 .L0 
     /tmp/ccqHzMHN.s:177    .text:00000000000000c4 .L0 
     /tmp/ccqHzMHN.s:179    .text:00000000000000c8 .L0 
     /tmp/ccqHzMHN.s:182    .text:00000000000000cc .L0 
     /tmp/ccqHzMHN.s:183    .text:00000000000000d0 .L0 
     /tmp/ccqHzMHN.s:184    .text:00000000000000d0 .L0 
     /tmp/ccqHzMHN.s:185    .text:00000000000000d0 .L0 
     /tmp/ccqHzMHN.s:187    .text:00000000000000d4 .L0 
     /tmp/ccqHzMHN.s:190    .text:00000000000000d8 .L0 
     /tmp/ccqHzMHN.s:192    .text:00000000000000d8 .L0 
     /tmp/ccqHzMHN.s:194    .text:00000000000000e0 .L0 
     /tmp/ccqHzMHN.s:200    .text:00000000000000e0 _Z15thread_dispatchv
     /tmp/ccqHzMHN.s:203    .text:00000000000000e0 .L0 
     /tmp/ccqHzMHN.s:204    .text:00000000000000e0 .L0 
     /tmp/ccqHzMHN.s:205    .text:00000000000000e4 .L0 
     /tmp/ccqHzMHN.s:207    .text:00000000000000e8 .L0 
     /tmp/ccqHzMHN.s:209    .text:00000000000000ec .L0 
     /tmp/ccqHzMHN.s:211    .text:00000000000000ec .L0 
     /tmp/ccqHzMHN.s:212    .text:00000000000000ec .L0 
     /tmp/ccqHzMHN.s:218    .text:00000000000000f4 .L0 
   src/syscall_c.cpp:45     .text:00000000000000f4 .L0 
     /tmp/ccqHzMHN.s:224    .text:00000000000000f8 .L0 
     /tmp/ccqHzMHN.s:225    .text:00000000000000fc .L0 
     /tmp/ccqHzMHN.s:226    .text:00000000000000fc .L0 
     /tmp/ccqHzMHN.s:228    .text:0000000000000100 .L0 
     /tmp/ccqHzMHN.s:230    .text:0000000000000104 .L0 
     /tmp/ccqHzMHN.s:236    .text:0000000000000104 _Z12thread_startP3TCB
     /tmp/ccqHzMHN.s:239    .text:0000000000000104 .L0 
     /tmp/ccqHzMHN.s:241    .text:0000000000000104 .L0 
     /tmp/ccqHzMHN.s:242    .text:0000000000000108 .L0 
     /tmp/ccqHzMHN.s:244    .text:000000000000010c .L0 
     /tmp/ccqHzMHN.s:246    .text:0000000000000110 .L0 
     /tmp/ccqHzMHN.s:248    .text:0000000000000110 .L0 
   src/syscall_c.cpp:48     .text:0000000000000110 .L0 
     /tmp/ccqHzMHN.s:254    .text:0000000000000114 .L0 
     /tmp/ccqHzMHN.s:256    .text:0000000000000114 .L0 
     /tmp/ccqHzMHN.s:262    .text:000000000000011c .L0 
   src/syscall_c.cpp:50     .text:000000000000011c .L0 
     /tmp/ccqHzMHN.s:267    .text:0000000000000120 .L0 
     /tmp/ccqHzMHN.s:268    .text:0000000000000120 .L0 
   src/syscall_c.cpp:52     .text:0000000000000120 .L0 
     /tmp/ccqHzMHN.s:275    .text:0000000000000124 .L0 
     /tmp/ccqHzMHN.s:277    .text:0000000000000128 .L0 
     /tmp/ccqHzMHN.s:281    .text:000000000000012c .L0 
     /tmp/ccqHzMHN.s:282    .text:0000000000000130 .L0 
GAS LISTING /tmp/ccqHzMHN.s 			page 27


     /tmp/ccqHzMHN.s:283    .text:0000000000000130 .L0 
     /tmp/ccqHzMHN.s:284    .text:0000000000000130 .L0 
     /tmp/ccqHzMHN.s:286    .text:0000000000000134 .L0 
     /tmp/ccqHzMHN.s:290    .text:0000000000000138 .L0 
     /tmp/ccqHzMHN.s:292    .text:0000000000000138 .L0 
     /tmp/ccqHzMHN.s:295    .text:0000000000000140 .L0 
     /tmp/ccqHzMHN.s:301    .text:0000000000000140 _Z14thread_preparePP3TCBPFvPvES2_
     /tmp/ccqHzMHN.s:304    .text:0000000000000140 .L0 
     /tmp/ccqHzMHN.s:306    .text:0000000000000140 .L0 
     /tmp/ccqHzMHN.s:307    .text:0000000000000140 .L0 
     /tmp/ccqHzMHN.s:309    .text:0000000000000144 .L0 
     /tmp/ccqHzMHN.s:310    .text:0000000000000148 .L0 
     /tmp/ccqHzMHN.s:316    .text:000000000000015c .L0 
     /tmp/ccqHzMHN.s:317    .text:000000000000015c .L0 
     /tmp/ccqHzMHN.s:318    .text:000000000000015c .L0 
     /tmp/ccqHzMHN.s:319    .text:000000000000015c .L0 
     /tmp/ccqHzMHN.s:320    .text:000000000000015c .L0 
     /tmp/ccqHzMHN.s:322    .text:0000000000000160 .L0 
     /tmp/ccqHzMHN.s:327    .text:000000000000016c .L0 
     /tmp/ccqHzMHN.s:328    .text:000000000000016c .L0 
     /tmp/ccqHzMHN.s:333    .text:0000000000000178 .L0 
     /tmp/ccqHzMHN.s:335    .text:000000000000017c .L0 
   src/syscall_c.cpp:64     .text:000000000000017c .L0 
     /tmp/ccqHzMHN.s:341    .text:0000000000000180 .L0 
   src/syscall_c.cpp:65     .text:0000000000000180 .L0 
     /tmp/ccqHzMHN.s:346    .text:0000000000000184 .L0 
   src/syscall_c.cpp:66     .text:0000000000000184 .L0 
     /tmp/ccqHzMHN.s:351    .text:0000000000000188 .L0 
   src/syscall_c.cpp:67     .text:0000000000000188 .L0 
     /tmp/ccqHzMHN.s:356    .text:000000000000018c .L0 
     /tmp/ccqHzMHN.s:358    .text:000000000000018c .L0 
     /tmp/ccqHzMHN.s:364    .text:0000000000000194 .L0 
   src/syscall_c.cpp:70     .text:0000000000000194 .L0 
     /tmp/ccqHzMHN.s:369    .text:0000000000000198 .L0 
     /tmp/ccqHzMHN.s:370    .text:0000000000000198 .L0 
   src/syscall_c.cpp:72     .text:0000000000000198 .L0 
     /tmp/ccqHzMHN.s:377    .text:00000000000001a0 .L0 
     /tmp/ccqHzMHN.s:378    .text:00000000000001a0 .L0 
     /tmp/ccqHzMHN.s:380    .text:00000000000001a4 .L0 
     /tmp/ccqHzMHN.s:382    .text:00000000000001a8 .L0 
     /tmp/ccqHzMHN.s:386    .text:00000000000001ac .L0 
     /tmp/ccqHzMHN.s:387    .text:00000000000001b0 .L0 
     /tmp/ccqHzMHN.s:389    .text:00000000000001b4 .L0 
     /tmp/ccqHzMHN.s:390    .text:00000000000001b4 .L0 
     /tmp/ccqHzMHN.s:392    .text:00000000000001b8 .L0 
     /tmp/ccqHzMHN.s:395    .text:00000000000001bc .L0 
     /tmp/ccqHzMHN.s:398    .text:00000000000001c0 .L0 
     /tmp/ccqHzMHN.s:401    .text:00000000000001c4 .L0 
     /tmp/ccqHzMHN.s:406    .text:00000000000001c8 .L0 
     /tmp/ccqHzMHN.s:409    .text:00000000000001cc .L0 
     /tmp/ccqHzMHN.s:412    .text:00000000000001d0 .L0 
     /tmp/ccqHzMHN.s:413    .text:00000000000001d0 .L0 
     /tmp/ccqHzMHN.s:414    .text:00000000000001d0 .L0 
     /tmp/ccqHzMHN.s:415    .text:00000000000001d0 .L0 
     /tmp/ccqHzMHN.s:416    .text:00000000000001d0 .L0 
     /tmp/ccqHzMHN.s:417    .text:00000000000001d0 .L0 
     /tmp/ccqHzMHN.s:419    .text:00000000000001d0 .L0 
GAS LISTING /tmp/ccqHzMHN.s 			page 28


     /tmp/ccqHzMHN.s:425    .text:00000000000001d8 .L0 
     /tmp/ccqHzMHN.s:428    .text:00000000000001e0 .L0 
     /tmp/ccqHzMHN.s:434    .text:00000000000001e0 _Z13thread_deleteP3TCB
     /tmp/ccqHzMHN.s:437    .text:00000000000001e0 .L0 
     /tmp/ccqHzMHN.s:439    .text:00000000000001e0 .L0 
     /tmp/ccqHzMHN.s:440    .text:00000000000001e4 .L0 
     /tmp/ccqHzMHN.s:442    .text:00000000000001e8 .L0 
     /tmp/ccqHzMHN.s:444    .text:00000000000001ec .L0 
     /tmp/ccqHzMHN.s:446    .text:00000000000001ec .L0 
   src/syscall_c.cpp:78     .text:00000000000001ec .L0 
     /tmp/ccqHzMHN.s:452    .text:00000000000001f0 .L0 
     /tmp/ccqHzMHN.s:454    .text:00000000000001f0 .L0 
     /tmp/ccqHzMHN.s:460    .text:00000000000001f8 .L0 
   src/syscall_c.cpp:80     .text:00000000000001f8 .L0 
     /tmp/ccqHzMHN.s:466    .text:00000000000001fc .L0 
     /tmp/ccqHzMHN.s:467    .text:0000000000000200 .L0 
     /tmp/ccqHzMHN.s:468    .text:0000000000000200 .L0 
     /tmp/ccqHzMHN.s:470    .text:0000000000000204 .L0 
     /tmp/ccqHzMHN.s:472    .text:0000000000000208 .L0 
     /tmp/ccqHzMHN.s:478    .text:0000000000000208 _Z11thread_joinm
     /tmp/ccqHzMHN.s:481    .text:0000000000000208 .L0 
     /tmp/ccqHzMHN.s:483    .text:0000000000000208 .L0 
     /tmp/ccqHzMHN.s:484    .text:000000000000020c .L0 
     /tmp/ccqHzMHN.s:486    .text:0000000000000210 .L0 
     /tmp/ccqHzMHN.s:488    .text:0000000000000214 .L0 
     /tmp/ccqHzMHN.s:490    .text:0000000000000214 .L0 
   src/syscall_c.cpp:83     .text:0000000000000214 .L0 
     /tmp/ccqHzMHN.s:496    .text:0000000000000218 .L0 
     /tmp/ccqHzMHN.s:498    .text:0000000000000218 .L0 
     /tmp/ccqHzMHN.s:504    .text:0000000000000220 .L0 
   src/syscall_c.cpp:85     .text:0000000000000220 .L0 
     /tmp/ccqHzMHN.s:510    .text:0000000000000224 .L0 
     /tmp/ccqHzMHN.s:511    .text:0000000000000228 .L0 
     /tmp/ccqHzMHN.s:512    .text:0000000000000228 .L0 
     /tmp/ccqHzMHN.s:514    .text:000000000000022c .L0 
     /tmp/ccqHzMHN.s:516    .text:0000000000000230 .L0 
     /tmp/ccqHzMHN.s:522    .text:0000000000000230 _Z12thread_getIDP3TCB
     /tmp/ccqHzMHN.s:525    .text:0000000000000230 .L0 
     /tmp/ccqHzMHN.s:527    .text:0000000000000230 .L0 
     /tmp/ccqHzMHN.s:528    .text:0000000000000234 .L0 
     /tmp/ccqHzMHN.s:530    .text:0000000000000238 .L0 
     /tmp/ccqHzMHN.s:532    .text:000000000000023c .L0 
     /tmp/ccqHzMHN.s:534    .text:000000000000023c .L0 
   src/syscall_c.cpp:88     .text:000000000000023c .L0 
     /tmp/ccqHzMHN.s:540    .text:0000000000000240 .L0 
     /tmp/ccqHzMHN.s:542    .text:0000000000000240 .L0 
     /tmp/ccqHzMHN.s:548    .text:0000000000000248 .L0 
   src/syscall_c.cpp:90     .text:0000000000000248 .L0 
     /tmp/ccqHzMHN.s:553    .text:000000000000024c .L0 
     /tmp/ccqHzMHN.s:554    .text:000000000000024c .L0 
   src/syscall_c.cpp:92     .text:000000000000024c .L0 
     /tmp/ccqHzMHN.s:561    .text:0000000000000254 .L0 
     /tmp/ccqHzMHN.s:562    .text:0000000000000254 .L0 
     /tmp/ccqHzMHN.s:565    .text:0000000000000258 .L0 
     /tmp/ccqHzMHN.s:567    .text:0000000000000260 .L0 
     /tmp/ccqHzMHN.s:568    .text:0000000000000260 .L0 
     /tmp/ccqHzMHN.s:570    .text:0000000000000264 .L0 
GAS LISTING /tmp/ccqHzMHN.s 			page 29


     /tmp/ccqHzMHN.s:572    .text:0000000000000268 .L0 
     /tmp/ccqHzMHN.s:578    .text:0000000000000268 _Z9mem_allocm
     /tmp/ccqHzMHN.s:581    .text:0000000000000268 .L0 
     /tmp/ccqHzMHN.s:583    .text:0000000000000268 .L0 
     /tmp/ccqHzMHN.s:584    .text:000000000000026c .L0 
     /tmp/ccqHzMHN.s:586    .text:0000000000000270 .L0 
     /tmp/ccqHzMHN.s:588    .text:0000000000000274 .L0 
     /tmp/ccqHzMHN.s:590    .text:0000000000000274 .L0 
     /tmp/ccqHzMHN.s:591    .text:0000000000000274 .L0 
     /tmp/ccqHzMHN.s:592    .text:0000000000000274 .L0 
     /tmp/ccqHzMHN.s:594    .text:0000000000000278 .L0 
     /tmp/ccqHzMHN.s:596    .text:000000000000027c .L0 
     /tmp/ccqHzMHN.s:597    .text:000000000000027c .L0 
     /tmp/ccqHzMHN.s:601    .text:0000000000000280 .L0 
   src/syscall_c.cpp:106    .text:0000000000000280 .L0 
     /tmp/ccqHzMHN.s:607    .text:0000000000000284 .L0 
     /tmp/ccqHzMHN.s:609    .text:0000000000000284 .L0 
     /tmp/ccqHzMHN.s:615    .text:000000000000028c .L0 
   src/syscall_c.cpp:108    .text:000000000000028c .L0 
     /tmp/ccqHzMHN.s:621    .text:0000000000000290 .L0 
     /tmp/ccqHzMHN.s:622    .text:0000000000000290 .L0 
   src/syscall_c.cpp:110    .text:0000000000000290 .L0 
     /tmp/ccqHzMHN.s:628    .text:0000000000000294 .L0 
     /tmp/ccqHzMHN.s:630    .text:0000000000000294 .L0 
     /tmp/ccqHzMHN.s:631    .text:0000000000000298 .L0 
     /tmp/ccqHzMHN.s:632    .text:0000000000000298 .L0 
     /tmp/ccqHzMHN.s:633    .text:0000000000000298 .L0 
     /tmp/ccqHzMHN.s:635    .text:000000000000029c .L0 
     /tmp/ccqHzMHN.s:639    .text:00000000000002a0 .L0 
     /tmp/ccqHzMHN.s:641    .text:00000000000002a0 .L0 
     /tmp/ccqHzMHN.s:642    .text:00000000000002a0 .L0 
     /tmp/ccqHzMHN.s:645    .text:00000000000002a4 .L0 
     /tmp/ccqHzMHN.s:648    .text:00000000000002ac .L0 
     /tmp/ccqHzMHN.s:654    .text:00000000000002ac _Z8mem_freePv
     /tmp/ccqHzMHN.s:657    .text:00000000000002ac .L0 
     /tmp/ccqHzMHN.s:659    .text:00000000000002ac .L0 
     /tmp/ccqHzMHN.s:660    .text:00000000000002ac .L0 
     /tmp/ccqHzMHN.s:662    .text:00000000000002b0 .L0 
     /tmp/ccqHzMHN.s:663    .text:00000000000002b4 .L0 
     /tmp/ccqHzMHN.s:665    .text:00000000000002b8 .L0 
     /tmp/ccqHzMHN.s:667    .text:00000000000002bc .L0 
     /tmp/ccqHzMHN.s:669    .text:00000000000002bc .L0 
   src/syscall_c.cpp:117    .text:00000000000002bc .L0 
     /tmp/ccqHzMHN.s:675    .text:00000000000002c0 .L0 
     /tmp/ccqHzMHN.s:677    .text:00000000000002c0 .L0 
     /tmp/ccqHzMHN.s:683    .text:00000000000002c8 .L0 
   src/syscall_c.cpp:119    .text:00000000000002c8 .L0 
     /tmp/ccqHzMHN.s:688    .text:00000000000002cc .L0 
     /tmp/ccqHzMHN.s:690    .text:00000000000002cc .L0 
     /tmp/ccqHzMHN.s:692    .text:00000000000002d0 .L0 
   src/syscall_c.cpp:121    .text:00000000000002d0 .L0 
     /tmp/ccqHzMHN.s:700    .text:00000000000002d8 .L0 
     /tmp/ccqHzMHN.s:701    .text:00000000000002d8 .L0 
     /tmp/ccqHzMHN.s:703    .text:00000000000002dc .L0 
     /tmp/ccqHzMHN.s:705    .text:00000000000002e0 .L0 
     /tmp/ccqHzMHN.s:709    .text:00000000000002e4 .L0 
     /tmp/ccqHzMHN.s:710    .text:00000000000002e8 .L0 
GAS LISTING /tmp/ccqHzMHN.s 			page 30


     /tmp/ccqHzMHN.s:711    .text:00000000000002e8 .L0 
     /tmp/ccqHzMHN.s:713    .text:00000000000002ec .L0 
     /tmp/ccqHzMHN.s:718    .text:00000000000002f0 .L0 
     /tmp/ccqHzMHN.s:721    .text:00000000000002f4 .L0 
     /tmp/ccqHzMHN.s:724    .text:00000000000002f8 .L0 
     /tmp/ccqHzMHN.s:725    .text:00000000000002f8 .L0 
     /tmp/ccqHzMHN.s:727    .text:00000000000002f8 .L0 
     /tmp/ccqHzMHN.s:730    .text:0000000000000300 .L0 
     /tmp/ccqHzMHN.s:736    .text:0000000000000300 _Z8sem_openPP4_semj
     /tmp/ccqHzMHN.s:739    .text:0000000000000300 .L0 
     /tmp/ccqHzMHN.s:741    .text:0000000000000300 .L0 
     /tmp/ccqHzMHN.s:742    .text:0000000000000304 .L0 
     /tmp/ccqHzMHN.s:744    .text:0000000000000308 .L0 
     /tmp/ccqHzMHN.s:746    .text:000000000000030c .L0 
     /tmp/ccqHzMHN.s:748    .text:000000000000030c .L0 
   src/syscall_c.cpp:128    .text:000000000000030c .L0 
     /tmp/ccqHzMHN.s:754    .text:0000000000000310 .L0 
   src/syscall_c.cpp:129    .text:0000000000000310 .L0 
     /tmp/ccqHzMHN.s:759    .text:0000000000000314 .L0 
     /tmp/ccqHzMHN.s:761    .text:0000000000000314 .L0 
     /tmp/ccqHzMHN.s:767    .text:000000000000031c .L0 
   src/syscall_c.cpp:131    .text:000000000000031c .L0 
     /tmp/ccqHzMHN.s:772    .text:0000000000000320 .L0 
     /tmp/ccqHzMHN.s:773    .text:0000000000000320 .L0 
   src/syscall_c.cpp:133    .text:0000000000000320 .L0 
     /tmp/ccqHzMHN.s:780    .text:0000000000000324 .L0 
     /tmp/ccqHzMHN.s:782    .text:0000000000000328 .L0 
     /tmp/ccqHzMHN.s:786    .text:000000000000032c .L0 
     /tmp/ccqHzMHN.s:787    .text:0000000000000330 .L0 
     /tmp/ccqHzMHN.s:788    .text:0000000000000330 .L0 
     /tmp/ccqHzMHN.s:789    .text:0000000000000330 .L0 
     /tmp/ccqHzMHN.s:791    .text:0000000000000334 .L0 
     /tmp/ccqHzMHN.s:795    .text:0000000000000338 .L0 
     /tmp/ccqHzMHN.s:797    .text:0000000000000338 .L0 
     /tmp/ccqHzMHN.s:800    .text:0000000000000340 .L0 
     /tmp/ccqHzMHN.s:806    .text:0000000000000340 _Z9sem_closeP4_sem
     /tmp/ccqHzMHN.s:809    .text:0000000000000340 .L0 
     /tmp/ccqHzMHN.s:811    .text:0000000000000340 .L0 
     /tmp/ccqHzMHN.s:812    .text:0000000000000344 .L0 
     /tmp/ccqHzMHN.s:814    .text:0000000000000348 .L0 
     /tmp/ccqHzMHN.s:816    .text:000000000000034c .L0 
     /tmp/ccqHzMHN.s:818    .text:000000000000034c .L0 
   src/syscall_c.cpp:138    .text:000000000000034c .L0 
     /tmp/ccqHzMHN.s:824    .text:0000000000000350 .L0 
     /tmp/ccqHzMHN.s:826    .text:0000000000000350 .L0 
     /tmp/ccqHzMHN.s:832    .text:0000000000000358 .L0 
   src/syscall_c.cpp:140    .text:0000000000000358 .L0 
     /tmp/ccqHzMHN.s:837    .text:000000000000035c .L0 
     /tmp/ccqHzMHN.s:838    .text:000000000000035c .L0 
   src/syscall_c.cpp:142    .text:000000000000035c .L0 
     /tmp/ccqHzMHN.s:845    .text:0000000000000360 .L0 
     /tmp/ccqHzMHN.s:847    .text:0000000000000364 .L0 
     /tmp/ccqHzMHN.s:851    .text:0000000000000368 .L0 
     /tmp/ccqHzMHN.s:852    .text:000000000000036c .L0 
     /tmp/ccqHzMHN.s:853    .text:000000000000036c .L0 
     /tmp/ccqHzMHN.s:854    .text:000000000000036c .L0 
     /tmp/ccqHzMHN.s:856    .text:0000000000000370 .L0 
GAS LISTING /tmp/ccqHzMHN.s 			page 31


     /tmp/ccqHzMHN.s:860    .text:0000000000000374 .L0 
     /tmp/ccqHzMHN.s:862    .text:0000000000000374 .L0 
     /tmp/ccqHzMHN.s:865    .text:000000000000037c .L0 
     /tmp/ccqHzMHN.s:871    .text:000000000000037c _Z8sem_waitP4_sem
     /tmp/ccqHzMHN.s:874    .text:000000000000037c .L0 
     /tmp/ccqHzMHN.s:876    .text:000000000000037c .L0 
     /tmp/ccqHzMHN.s:877    .text:0000000000000380 .L0 
     /tmp/ccqHzMHN.s:879    .text:0000000000000384 .L0 
     /tmp/ccqHzMHN.s:881    .text:0000000000000388 .L0 
     /tmp/ccqHzMHN.s:883    .text:0000000000000388 .L0 
   src/syscall_c.cpp:148    .text:0000000000000388 .L0 
     /tmp/ccqHzMHN.s:889    .text:000000000000038c .L0 
     /tmp/ccqHzMHN.s:891    .text:000000000000038c .L0 
     /tmp/ccqHzMHN.s:897    .text:0000000000000394 .L0 
   src/syscall_c.cpp:150    .text:0000000000000394 .L0 
     /tmp/ccqHzMHN.s:902    .text:0000000000000398 .L0 
     /tmp/ccqHzMHN.s:903    .text:0000000000000398 .L0 
   src/syscall_c.cpp:152    .text:0000000000000398 .L0 
     /tmp/ccqHzMHN.s:910    .text:000000000000039c .L0 
     /tmp/ccqHzMHN.s:912    .text:00000000000003a0 .L0 
     /tmp/ccqHzMHN.s:916    .text:00000000000003a4 .L0 
     /tmp/ccqHzMHN.s:917    .text:00000000000003a8 .L0 
     /tmp/ccqHzMHN.s:918    .text:00000000000003a8 .L0 
     /tmp/ccqHzMHN.s:919    .text:00000000000003a8 .L0 
     /tmp/ccqHzMHN.s:921    .text:00000000000003ac .L0 
     /tmp/ccqHzMHN.s:925    .text:00000000000003b0 .L0 
     /tmp/ccqHzMHN.s:927    .text:00000000000003b0 .L0 
     /tmp/ccqHzMHN.s:930    .text:00000000000003b8 .L0 
     /tmp/ccqHzMHN.s:936    .text:00000000000003b8 _Z10sem_signalP4_sem
     /tmp/ccqHzMHN.s:939    .text:00000000000003b8 .L0 
     /tmp/ccqHzMHN.s:941    .text:00000000000003b8 .L0 
     /tmp/ccqHzMHN.s:942    .text:00000000000003bc .L0 
     /tmp/ccqHzMHN.s:944    .text:00000000000003c0 .L0 
     /tmp/ccqHzMHN.s:946    .text:00000000000003c4 .L0 
     /tmp/ccqHzMHN.s:948    .text:00000000000003c4 .L0 
   src/syscall_c.cpp:157    .text:00000000000003c4 .L0 
     /tmp/ccqHzMHN.s:954    .text:00000000000003c8 .L0 
     /tmp/ccqHzMHN.s:956    .text:00000000000003c8 .L0 
     /tmp/ccqHzMHN.s:962    .text:00000000000003d0 .L0 
   src/syscall_c.cpp:159    .text:00000000000003d0 .L0 
     /tmp/ccqHzMHN.s:967    .text:00000000000003d4 .L0 
     /tmp/ccqHzMHN.s:968    .text:00000000000003d4 .L0 
   src/syscall_c.cpp:162    .text:00000000000003d4 .L0 
     /tmp/ccqHzMHN.s:975    .text:00000000000003d8 .L0 
     /tmp/ccqHzMHN.s:977    .text:00000000000003dc .L0 
     /tmp/ccqHzMHN.s:981    .text:00000000000003e0 .L0 
     /tmp/ccqHzMHN.s:982    .text:00000000000003e4 .L0 
     /tmp/ccqHzMHN.s:983    .text:00000000000003e4 .L0 
     /tmp/ccqHzMHN.s:984    .text:00000000000003e4 .L0 
     /tmp/ccqHzMHN.s:986    .text:00000000000003e8 .L0 
     /tmp/ccqHzMHN.s:990    .text:00000000000003ec .L0 
     /tmp/ccqHzMHN.s:992    .text:00000000000003ec .L0 
     /tmp/ccqHzMHN.s:995    .text:00000000000003f4 .L0 
     /tmp/ccqHzMHN.s:1001   .text:00000000000003f4 _Z4getcv
     /tmp/ccqHzMHN.s:1004   .text:00000000000003f4 .L0 
     /tmp/ccqHzMHN.s:1005   .text:00000000000003f4 .L0 
     /tmp/ccqHzMHN.s:1006   .text:00000000000003f8 .L0 
GAS LISTING /tmp/ccqHzMHN.s 			page 32


     /tmp/ccqHzMHN.s:1008   .text:00000000000003fc .L0 
     /tmp/ccqHzMHN.s:1010   .text:0000000000000400 .L0 
     /tmp/ccqHzMHN.s:1012   .text:0000000000000400 .L0 
     /tmp/ccqHzMHN.s:1013   .text:0000000000000400 .L0 
     /tmp/ccqHzMHN.s:1019   .text:0000000000000408 .L0 
   src/syscall_c.cpp:169    .text:0000000000000408 .L0 
     /tmp/ccqHzMHN.s:1024   .text:000000000000040c .L0 
     /tmp/ccqHzMHN.s:1025   .text:000000000000040c .L0 
   src/syscall_c.cpp:171    .text:000000000000040c .L0 
     /tmp/ccqHzMHN.s:1031   .text:0000000000000410 .L0 
     /tmp/ccqHzMHN.s:1032   .text:0000000000000410 .L0 
     /tmp/ccqHzMHN.s:1034   .text:0000000000000410 .L0 
     /tmp/ccqHzMHN.s:1037   .text:0000000000000418 .L0 
     /tmp/ccqHzMHN.s:1038   .text:0000000000000418 .L0 
     /tmp/ccqHzMHN.s:1040   .text:000000000000041c .L0 
     /tmp/ccqHzMHN.s:1042   .text:0000000000000420 .L0 
     /tmp/ccqHzMHN.s:1048   .text:0000000000000420 _Z4putcc
     /tmp/ccqHzMHN.s:1051   .text:0000000000000420 .L0 
     /tmp/ccqHzMHN.s:1053   .text:0000000000000420 .L0 
     /tmp/ccqHzMHN.s:1054   .text:0000000000000424 .L0 
     /tmp/ccqHzMHN.s:1056   .text:0000000000000428 .L0 
     /tmp/ccqHzMHN.s:1058   .text:000000000000042c .L0 
     /tmp/ccqHzMHN.s:1060   .text:000000000000042c .L0 
   src/syscall_c.cpp:177    .text:000000000000042c .L0 
     /tmp/ccqHzMHN.s:1066   .text:0000000000000430 .L0 
     /tmp/ccqHzMHN.s:1068   .text:0000000000000430 .L0 
     /tmp/ccqHzMHN.s:1074   .text:0000000000000438 .L0 
   src/syscall_c.cpp:179    .text:0000000000000438 .L0 
     /tmp/ccqHzMHN.s:1080   .text:000000000000043c .L0 
     /tmp/ccqHzMHN.s:1081   .text:0000000000000440 .L0 
     /tmp/ccqHzMHN.s:1082   .text:0000000000000440 .L0 
     /tmp/ccqHzMHN.s:1084   .text:0000000000000444 .L0 
     /tmp/ccqHzMHN.s:1086   .text:0000000000000448 .L0 
     /tmp/ccqHzMHN.s:1092   .text:0000000000000448 _Z10time_sleepm
     /tmp/ccqHzMHN.s:1095   .text:0000000000000448 .L0 
     /tmp/ccqHzMHN.s:1097   .text:0000000000000448 .L0 
     /tmp/ccqHzMHN.s:1098   .text:000000000000044c .L0 
     /tmp/ccqHzMHN.s:1100   .text:0000000000000450 .L0 
     /tmp/ccqHzMHN.s:1102   .text:0000000000000454 .L0 
     /tmp/ccqHzMHN.s:1104   .text:0000000000000454 .L0 
     /tmp/ccqHzMHN.s:1106   .text:0000000000000458 .L0 
   src/syscall_c.cpp:185    .text:0000000000000458 .L0 
     /tmp/ccqHzMHN.s:1112   .text:000000000000045c .L0 
     /tmp/ccqHzMHN.s:1114   .text:000000000000045c .L0 
     /tmp/ccqHzMHN.s:1120   .text:0000000000000464 .L0 
   src/syscall_c.cpp:187    .text:0000000000000464 .L0 
     /tmp/ccqHzMHN.s:1125   .text:0000000000000468 .L0 
     /tmp/ccqHzMHN.s:1126   .text:0000000000000468 .L0 
   src/syscall_c.cpp:189    .text:0000000000000468 .L0 
     /tmp/ccqHzMHN.s:1133   .text:000000000000046c .L0 
     /tmp/ccqHzMHN.s:1135   .text:0000000000000470 .L0 
     /tmp/ccqHzMHN.s:1139   .text:0000000000000474 .L0 
     /tmp/ccqHzMHN.s:1140   .text:0000000000000478 .L0 
     /tmp/ccqHzMHN.s:1141   .text:0000000000000478 .L0 
     /tmp/ccqHzMHN.s:1142   .text:0000000000000478 .L0 
     /tmp/ccqHzMHN.s:1144   .text:000000000000047c .L0 
     /tmp/ccqHzMHN.s:1148   .text:0000000000000480 .L0 
GAS LISTING /tmp/ccqHzMHN.s 			page 33


     /tmp/ccqHzMHN.s:1150   .text:0000000000000480 .L0 
     /tmp/ccqHzMHN.s:1156   .text:0000000000000488 .L0 
     /tmp/ccqHzMHN.s:1159   .text:0000000000000490 .L0 
     /tmp/ccqHzMHN.s:1170   .text:0000000000000490 .L0 
     /tmp/ccqHzMHN.s:113    .text:0000000000000088 .L3
     /tmp/ccqHzMHN.s:120    .text:0000000000000090 .L4
     /tmp/ccqHzMHN.s:132    .text:0000000000000098 .L5
     /tmp/ccqHzMHN.s:93     .text:000000000000006c .L2
     /tmp/ccqHzMHN.s:189    .text:00000000000000d8 .L12
     /tmp/ccqHzMHN.s:180    .text:00000000000000cc .L11
     /tmp/ccqHzMHN.s:289    .text:0000000000000138 .L18
     /tmp/ccqHzMHN.s:279    .text:000000000000012c .L17
     /tmp/ccqHzMHN.s:404    .text:00000000000001c8 .L22
     /tmp/ccqHzMHN.s:411    .text:00000000000001d0 .L23
     /tmp/ccqHzMHN.s:423    .text:00000000000001d8 .L24
     /tmp/ccqHzMHN.s:384    .text:00000000000001ac .L21
     /tmp/ccqHzMHN.s:638    .text:00000000000002a0 .L36
     /tmp/ccqHzMHN.s:599    .text:0000000000000280 .L37
     /tmp/ccqHzMHN.s:716    .text:00000000000002f0 .L41
     /tmp/ccqHzMHN.s:723    .text:00000000000002f8 .L42
     /tmp/ccqHzMHN.s:707    .text:00000000000002e4 .L40
     /tmp/ccqHzMHN.s:794    .text:0000000000000338 .L49
     /tmp/ccqHzMHN.s:784    .text:000000000000032c .L48
     /tmp/ccqHzMHN.s:859    .text:0000000000000374 .L53
     /tmp/ccqHzMHN.s:849    .text:0000000000000368 .L52
     /tmp/ccqHzMHN.s:924    .text:00000000000003b0 .L57
     /tmp/ccqHzMHN.s:914    .text:00000000000003a4 .L56
     /tmp/ccqHzMHN.s:989    .text:00000000000003ec .L61
     /tmp/ccqHzMHN.s:979    .text:00000000000003e0 .L60
     /tmp/ccqHzMHN.s:1147   .text:0000000000000480 .L69
     /tmp/ccqHzMHN.s:1154   .text:0000000000000488 .L70
     /tmp/ccqHzMHN.s:1137   .text:0000000000000474 .L68
     /tmp/ccqHzMHN.s:3021   .debug_abbrev:0000000000000000 .Ldebug_abbrev0
     /tmp/ccqHzMHN.s:4867   .debug_str:0000000000000a1f .LASF218
     /tmp/ccqHzMHN.s:4709   .debug_str:00000000000005db .LASF219
     /tmp/ccqHzMHN.s:4701   .debug_str:000000000000059b .LASF220
     /tmp/ccqHzMHN.s:5      .text:0000000000000000 .Ltext0
     /tmp/ccqHzMHN.s:1162   .text:0000000000000490 .Letext0
     /tmp/ccqHzMHN.s:4507   .debug_line:0000000000000000 .Ldebug_line0
     /tmp/ccqHzMHN.s:4651   .debug_str:00000000000003c5 .LASF0
     /tmp/ccqHzMHN.s:4681   .debug_str:00000000000004e6 .LASF1
     /tmp/ccqHzMHN.s:4795   .debug_str:0000000000000828 .LASF2
     /tmp/ccqHzMHN.s:4805   .debug_str:0000000000000879 .LASF4
     /tmp/ccqHzMHN.s:4661   .debug_str:0000000000000447 .LASF3
     /tmp/ccqHzMHN.s:4523   .debug_str:0000000000000078 .LASF5
     /tmp/ccqHzMHN.s:4765   .debug_str:0000000000000769 .LASF6
     /tmp/ccqHzMHN.s:4757   .debug_str:0000000000000734 .LASF7
     /tmp/ccqHzMHN.s:4673   .debug_str:00000000000004a3 .LASF8
     /tmp/ccqHzMHN.s:4627   .debug_str:0000000000000343 .LASF9
     /tmp/ccqHzMHN.s:4635   .debug_str:000000000000036c .LASF10
     /tmp/ccqHzMHN.s:4563   .debug_str:00000000000001ae .LASF11
     /tmp/ccqHzMHN.s:4621   .debug_str:0000000000000313 .LASF12
     /tmp/ccqHzMHN.s:4579   .debug_str:0000000000000214 .LASF13
     /tmp/ccqHzMHN.s:4561   .debug_str:000000000000019e .LASF14
     /tmp/ccqHzMHN.s:4843   .debug_str:00000000000009a0 .LASF15
     /tmp/ccqHzMHN.s:4609   .debug_str:00000000000002cb .LASF16
     /tmp/ccqHzMHN.s:4827   .debug_str:0000000000000912 .LASF17
GAS LISTING /tmp/ccqHzMHN.s 			page 34


     /tmp/ccqHzMHN.s:4907   .debug_str:0000000000000c29 .LASF18
     /tmp/ccqHzMHN.s:4851   .debug_str:00000000000009d2 .LASF19
     /tmp/ccqHzMHN.s:4945   .debug_str:0000000000000d41 .LASF20
     /tmp/ccqHzMHN.s:4549   .debug_str:0000000000000144 .LASF21
     /tmp/ccqHzMHN.s:4817   .debug_str:00000000000008d8 .LASF22
     /tmp/ccqHzMHN.s:4855   .debug_str:00000000000009e5 .LASF23
     /tmp/ccqHzMHN.s:4767   .debug_str:0000000000000770 .LASF24
     /tmp/ccqHzMHN.s:4611   .debug_str:00000000000002e1 .LASF25
     /tmp/ccqHzMHN.s:4571   .debug_str:00000000000001eb .LASF26
     /tmp/ccqHzMHN.s:4633   .debug_str:0000000000000367 .LASF27
     /tmp/ccqHzMHN.s:4725   .debug_str:000000000000064f .LASF28
     /tmp/ccqHzMHN.s:4955   .debug_str:0000000000000d8f .LASF29
     /tmp/ccqHzMHN.s:4821   .debug_str:00000000000008ec .LASF31
     /tmp/ccqHzMHN.s:4515   .debug_str:000000000000002d .LASF77
     /tmp/ccqHzMHN.s:4927   .debug_str:0000000000000cc7 .LASF79
     /tmp/ccqHzMHN.s:4543   .debug_str:000000000000011f .LASF30
     /tmp/ccqHzMHN.s:4745   .debug_str:00000000000006df .LASF32
     /tmp/ccqHzMHN.s:4799   .debug_str:0000000000000856 .LASF33
     /tmp/ccqHzMHN.s:4883   .debug_str:0000000000000b6f .LASF34
     /tmp/ccqHzMHN.s:4511   .debug_str:000000000000001d .LASF35
     /tmp/ccqHzMHN.s:4835   .debug_str:0000000000000965 .LASF36
     /tmp/ccqHzMHN.s:4875   .debug_str:0000000000000b16 .LASF37
     /tmp/ccqHzMHN.s:4695   .debug_str:0000000000000551 .LASF38
     /tmp/ccqHzMHN.s:4775   .debug_str:000000000000079f .LASF39
     /tmp/ccqHzMHN.s:4719   .debug_str:0000000000000618 .LASF40
     /tmp/ccqHzMHN.s:4631   .debug_str:000000000000035e .LASF41
     /tmp/ccqHzMHN.s:4889   .debug_str:0000000000000ba1 .LASF42
     /tmp/ccqHzMHN.s:4923   .debug_str:0000000000000cb5 .LASF43
     /tmp/ccqHzMHN.s:4555   .debug_str:000000000000016a .LASF44
     /tmp/ccqHzMHN.s:4839   .debug_str:0000000000000987 .LASF45
     /tmp/ccqHzMHN.s:4879   .debug_str:0000000000000b3b .LASF46
     /tmp/ccqHzMHN.s:4741   .debug_str:00000000000006b3 .LASF47
     /tmp/ccqHzMHN.s:4675   .debug_str:00000000000004b6 .LASF48
     /tmp/ccqHzMHN.s:4913   .debug_str:0000000000000c5b .LASF49
     /tmp/ccqHzMHN.s:4541   .debug_str:0000000000000102 .LASF50
     /tmp/ccqHzMHN.s:4865   .debug_str:0000000000000a13 .LASF51
     /tmp/ccqHzMHN.s:4739   .debug_str:0000000000000695 .LASF52
     /tmp/ccqHzMHN.s:4819   .debug_str:00000000000008e0 .LASF53
     /tmp/ccqHzMHN.s:4873   .debug_str:0000000000000af8 .LASF54
     /tmp/ccqHzMHN.s:4647   .debug_str:00000000000003b4 .LASF55
     /tmp/ccqHzMHN.s:4623   .debug_str:0000000000000322 .LASF56
     /tmp/ccqHzMHN.s:4707   .debug_str:00000000000005d3 .LASF57
     /tmp/ccqHzMHN.s:4909   .debug_str:0000000000000c32 .LASF58
     /tmp/ccqHzMHN.s:4733   .debug_str:0000000000000678 .LASF59
     /tmp/ccqHzMHN.s:4663   .debug_str:0000000000000459 .LASF61
     /tmp/ccqHzMHN.s:4629   .debug_str:0000000000000353 .LASF60
     /tmp/ccqHzMHN.s:4939   .debug_str:0000000000000cfd .LASF62
     /tmp/ccqHzMHN.s:4789   .debug_str:00000000000007f6 .LASF63
     /tmp/ccqHzMHN.s:4833   .debug_str:000000000000094b .LASF64
     /tmp/ccqHzMHN.s:4587   .debug_str:000000000000024b .LASF65
     /tmp/ccqHzMHN.s:4653   .debug_str:00000000000003d2 .LASF66
     /tmp/ccqHzMHN.s:4869   .debug_str:0000000000000ae3 .LASF67
     /tmp/ccqHzMHN.s:4917   .debug_str:0000000000000c7a .LASF68
     /tmp/ccqHzMHN.s:4547   .debug_str:0000000000000138 .LASF69
     /tmp/ccqHzMHN.s:4525   .debug_str:000000000000007f .LASF70
     /tmp/ccqHzMHN.s:4891   .debug_str:0000000000000bbb .LASF71
     /tmp/ccqHzMHN.s:4899   .debug_str:0000000000000bec .LASF72
GAS LISTING /tmp/ccqHzMHN.s 			page 35


     /tmp/ccqHzMHN.s:4747   .debug_str:00000000000006fd .LASF73
     /tmp/ccqHzMHN.s:4569   .debug_str:00000000000001cb .LASF74
     /tmp/ccqHzMHN.s:4533   .debug_str:00000000000000c9 .LASF75
     /tmp/ccqHzMHN.s:4797   .debug_str:0000000000000836 .LASF76
     /tmp/ccqHzMHN.s:4925   .debug_str:0000000000000cc0 .LASF78
     /tmp/ccqHzMHN.s:4785   .debug_str:00000000000007d9 .LASF80
     /tmp/ccqHzMHN.s:4807   .debug_str:0000000000000880 .LASF81
     /tmp/ccqHzMHN.s:4519   .debug_str:0000000000000065 .LASF82
     /tmp/ccqHzMHN.s:4951   .debug_str:0000000000000d54 .LASF83
     /tmp/ccqHzMHN.s:4659   .debug_str:0000000000000420 .LASF84
     /tmp/ccqHzMHN.s:4787   .debug_str:00000000000007f1 .LASF221
     /tmp/ccqHzMHN.s:4717   .debug_str:0000000000000604 .LASF85
     /tmp/ccqHzMHN.s:4953   .debug_str:0000000000000d66 .LASF86
     /tmp/ccqHzMHN.s:4625   .debug_str:000000000000033b .LASF97
     /tmp/ccqHzMHN.s:4853   .debug_str:00000000000009da .LASF87
     /tmp/ccqHzMHN.s:4849   .debug_str:00000000000009bc .LASF89
     /tmp/ccqHzMHN.s:4685   .debug_str:00000000000004ff .LASF88
     /tmp/ccqHzMHN.s:4773   .debug_str:0000000000000787 .LASF90
     /tmp/ccqHzMHN.s:4947   .debug_str:0000000000000d48 .LASF91
     /tmp/ccqHzMHN.s:4911   .debug_str:0000000000000c4b .LASF92
     /tmp/ccqHzMHN.s:4893   .debug_str:0000000000000bc3 .LASF93
     /tmp/ccqHzMHN.s:4605   .debug_str:00000000000002b5 .LASF94
     /tmp/ccqHzMHN.s:4751   .debug_str:0000000000000717 .LASF95
     /tmp/ccqHzMHN.s:4699   .debug_str:000000000000058e .LASF96
     /tmp/ccqHzMHN.s:4929   .debug_str:0000000000000cdb .LASF100
     /tmp/ccqHzMHN.s:4941   .debug_str:0000000000000d1a .LASF98
     /tmp/ccqHzMHN.s:4573   .debug_str:00000000000001f4 .LASF99
     /tmp/ccqHzMHN.s:4513   .debug_str:0000000000000028 .LASF101
     /tmp/ccqHzMHN.s:4949   .debug_str:0000000000000d4e .LASF102
     /tmp/ccqHzMHN.s:4885   .debug_str:0000000000000b8d .LASF103
     /tmp/ccqHzMHN.s:4903   .debug_str:0000000000000c0e .LASF104
     /tmp/ccqHzMHN.s:4871   .debug_str:0000000000000aee .LASF105
     /tmp/ccqHzMHN.s:4583   .debug_str:000000000000022f .LASF106
     /tmp/ccqHzMHN.s:4517   .debug_str:000000000000003d .LASF107
     /tmp/ccqHzMHN.s:4813   .debug_str:00000000000008b5 .LASF108
     /tmp/ccqHzMHN.s:4595   .debug_str:0000000000000282 .LASF109
     /tmp/ccqHzMHN.s:4671   .debug_str:0000000000000490 .LASF111
     /tmp/ccqHzMHN.s:4551   .debug_str:000000000000014d .LASF110
     /tmp/ccqHzMHN.s:4687   .debug_str:000000000000050c .LASF112
     /tmp/ccqHzMHN.s:4683   .debug_str:00000000000004f9 .LASF113
     /tmp/ccqHzMHN.s:4863   .debug_str:0000000000000a03 .LASF114
     /tmp/ccqHzMHN.s:4823   .debug_str:00000000000008ff .LASF115
     /tmp/ccqHzMHN.s:4669   .debug_str:0000000000000481 .LASF117
     /tmp/ccqHzMHN.s:4597   .debug_str:000000000000028b .LASF116
     /tmp/ccqHzMHN.s:4553   .debug_str:000000000000015b .LASF118
     /tmp/ccqHzMHN.s:4693   .debug_str:000000000000054a .LASF119
     /tmp/ccqHzMHN.s:4615   .debug_str:00000000000002ef .LASF120
     /tmp/ccqHzMHN.s:4557   .debug_str:0000000000000187 .LASF121
     /tmp/ccqHzMHN.s:4943   .debug_str:0000000000000d30 .LASF122
     /tmp/ccqHzMHN.s:4935   .debug_str:0000000000000cec .LASF123
     /tmp/ccqHzMHN.s:4837   .debug_str:0000000000000982 .LASF124
     /tmp/ccqHzMHN.s:4859   .debug_str:00000000000009f0 .LASF125
     /tmp/ccqHzMHN.s:4613   .debug_str:00000000000002e9 .LASF126
     /tmp/ccqHzMHN.s:4531   .debug_str:00000000000000c3 .LASF127
     /tmp/ccqHzMHN.s:4537   .debug_str:00000000000000de .LASF128
     /tmp/ccqHzMHN.s:4729   .debug_str:000000000000065f .LASF129
     /tmp/ccqHzMHN.s:4847   .debug_str:00000000000009b5 .LASF130
GAS LISTING /tmp/ccqHzMHN.s 			page 36


     /tmp/ccqHzMHN.s:4831   .debug_str:0000000000000939 .LASF131
     /tmp/ccqHzMHN.s:4809   .debug_str:0000000000000885 .LASF132
     /tmp/ccqHzMHN.s:4607   .debug_str:00000000000002c5 .LASF133
     /tmp/ccqHzMHN.s:4705   .debug_str:00000000000005c6 .LASF134
     /tmp/ccqHzMHN.s:4959   .debug_str:0000000000000dae .LASF135
     /tmp/ccqHzMHN.s:4617   .debug_str:0000000000000300 .LASF136
     /tmp/ccqHzMHN.s:4715   .debug_str:00000000000005fd .LASF137
     /tmp/ccqHzMHN.s:4815   .debug_str:00000000000008c6 .LASF138
     /tmp/ccqHzMHN.s:4779   .debug_str:00000000000007b6 .LASF139
     /tmp/ccqHzMHN.s:4589   .debug_str:0000000000000256 .LASF140
     /tmp/ccqHzMHN.s:4919   .debug_str:0000000000000c97 .LASF142
     /tmp/ccqHzMHN.s:4565   .debug_str:00000000000001bd .LASF141
     /tmp/ccqHzMHN.s:4697   .debug_str:000000000000056e .LASF143
     /tmp/ccqHzMHN.s:4691   .debug_str:000000000000052e .LASF144
     /tmp/ccqHzMHN.s:4509   .debug_str:0000000000000000 .LASF222
     /tmp/ccqHzMHN.s:4619   .debug_str:000000000000030e .LASF145
     /tmp/ccqHzMHN.s:4735   .debug_str:0000000000000684 .LASF146
     /tmp/ccqHzMHN.s:4679   .debug_str:00000000000004e1 .LASF147
     /tmp/ccqHzMHN.s:4793   .debug_str:0000000000000814 .LASF148
     /tmp/ccqHzMHN.s:4783   .debug_str:00000000000007c4 .LASF149
     /tmp/ccqHzMHN.s:4601   .debug_str:000000000000029e .LASF150
     /tmp/ccqHzMHN.s:4527   .debug_str:000000000000009d .LASF151
     /tmp/ccqHzMHN.s:4915   .debug_str:0000000000000c66 .LASF152
     /tmp/ccqHzMHN.s:4877   .debug_str:0000000000000b21 .LASF223
     /tmp/ccqHzMHN.s:4749   .debug_str:000000000000070b .LASF153
     /tmp/ccqHzMHN.s:4811   .debug_str:0000000000000896 .LASF154
     /tmp/ccqHzMHN.s:4857   .debug_str:00000000000009eb .LASF155
     /tmp/ccqHzMHN.s:4961   .debug_str:0000000000000dbb .LASF156
     /tmp/ccqHzMHN.s:4637   .debug_str:000000000000037a .LASF157
     /tmp/ccqHzMHN.s:4639   .debug_str:0000000000000383 .LASF158
     /tmp/ccqHzMHN.s:4825   .debug_str:0000000000000904 .LASF159
     /tmp/ccqHzMHN.s:4529   .debug_str:00000000000000b7 .LASF160
     /tmp/ccqHzMHN.s:4591   .debug_str:0000000000000261 .LASF161
     /tmp/ccqHzMHN.s:4657   .debug_str:0000000000000411 .LASF162
     /tmp/ccqHzMHN.s:4585   .debug_str:000000000000023d .LASF163
     /tmp/ccqHzMHN.s:4801   .debug_str:0000000000000862 .LASF164
     /tmp/ccqHzMHN.s:4545   .debug_str:000000000000012b .LASF165
     /tmp/ccqHzMHN.s:4567   .debug_str:00000000000001c2 .LASF166
     /tmp/ccqHzMHN.s:4575   .debug_str:0000000000000200 .LASF167
     /tmp/ccqHzMHN.s:4731   .debug_str:000000000000066f .LASF168
     /tmp/ccqHzMHN.s:4803   .debug_str:000000000000086e .LASF169
     /tmp/ccqHzMHN.s:4937   .debug_str:0000000000000cf2 .LASF170
     /tmp/ccqHzMHN.s:4667   .debug_str:000000000000047c .LASF171
     /tmp/ccqHzMHN.s:4727   .debug_str:000000000000065a .LASF172
     /tmp/ccqHzMHN.s:4861   .debug_str:00000000000009fa .LASF173
     /tmp/ccqHzMHN.s:4711   .debug_str:00000000000005ed .LASF174
     /tmp/ccqHzMHN.s:4713   .debug_str:00000000000005f5 .LASF175
     /tmp/ccqHzMHN.s:4755   .debug_str:000000000000072b .LASF176
     /tmp/ccqHzMHN.s:4581   .debug_str:0000000000000224 .LASF181
     /tmp/ccqHzMHN.s:4763   .debug_str:0000000000000759 .LASF183
     /tmp/ccqHzMHN.s:1093   .text:0000000000000448 .LFB110
     /tmp/ccqHzMHN.s:1160   .text:0000000000000490 .LFE110
     /tmp/ccqHzMHN.s:4761   .debug_str:0000000000000754 .LASF180
     /tmp/ccqHzMHN.s:4017   .debug_loc:0000000000000000 .LLST19
     /tmp/ccqHzMHN.s:4535   .debug_str:00000000000000d7 .LASF177
     /tmp/ccqHzMHN.s:4053   .debug_loc:000000000000008b .LLST20
     /tmp/ccqHzMHN.s:4665   .debug_str:0000000000000477 .LASF178
GAS LISTING /tmp/ccqHzMHN.s 			page 37


     /tmp/ccqHzMHN.s:4845   .debug_str:00000000000009ac .LASF179
     /tmp/ccqHzMHN.s:1049   .text:0000000000000420 .LFB109
     /tmp/ccqHzMHN.s:1087   .text:0000000000000448 .LFE109
     /tmp/ccqHzMHN.s:4931   .debug_str:0000000000000ce0 .LASF182
     /tmp/ccqHzMHN.s:4901   .debug_str:0000000000000c05 .LASF184
     /tmp/ccqHzMHN.s:1002   .text:00000000000003f4 .LFB108
     /tmp/ccqHzMHN.s:1043   .text:0000000000000420 .LFE108
     /tmp/ccqHzMHN.s:4064   .debug_loc:00000000000000c1 .LLST18
     /tmp/ccqHzMHN.s:4645   .debug_str:00000000000003a9 .LASF185
     /tmp/ccqHzMHN.s:4791   .debug_str:00000000000007ff .LASF186
     /tmp/ccqHzMHN.s:937    .text:00000000000003b8 .LFB107
     /tmp/ccqHzMHN.s:996    .text:00000000000003f4 .LFE107
     /tmp/ccqHzMHN.s:4071   .debug_loc:00000000000000e4 .LLST17
     /tmp/ccqHzMHN.s:4689   .debug_str:0000000000000525 .LASF187
     /tmp/ccqHzMHN.s:4957   .debug_str:0000000000000d9c .LASF188
     /tmp/ccqHzMHN.s:872    .text:000000000000037c .LFB106
     /tmp/ccqHzMHN.s:931    .text:00000000000003b8 .LFE106
     /tmp/ccqHzMHN.s:4096   .debug_loc:0000000000000146 .LLST16
     /tmp/ccqHzMHN.s:4771   .debug_str:000000000000077d .LASF189
     /tmp/ccqHzMHN.s:4539   .debug_str:00000000000000ef .LASF190
     /tmp/ccqHzMHN.s:807    .text:0000000000000340 .LFB105
     /tmp/ccqHzMHN.s:866    .text:000000000000037c .LFE105
     /tmp/ccqHzMHN.s:4723   .debug_str:0000000000000647 .LASF191
     /tmp/ccqHzMHN.s:4121   .debug_loc:00000000000001a8 .LLST15
     /tmp/ccqHzMHN.s:4781   .debug_str:00000000000007bb .LASF192
     /tmp/ccqHzMHN.s:4905   .debug_str:0000000000000c15 .LASF193
     /tmp/ccqHzMHN.s:737    .text:0000000000000300 .LFB104
     /tmp/ccqHzMHN.s:801    .text:0000000000000340 .LFE104
     /tmp/ccqHzMHN.s:4933   .debug_str:0000000000000ce5 .LASF194
     /tmp/ccqHzMHN.s:4146   .debug_loc:000000000000020a .LLST14
     /tmp/ccqHzMHN.s:4769   .debug_str:0000000000000778 .LASF195
     /tmp/ccqHzMHN.s:4649   .debug_str:00000000000003bc .LASF196
     /tmp/ccqHzMHN.s:4777   .debug_str:00000000000007a8 .LASF197
     /tmp/ccqHzMHN.s:655    .text:00000000000002ac .LFB103
     /tmp/ccqHzMHN.s:731    .text:0000000000000300 .LFE103
     /tmp/ccqHzMHN.s:4753   .debug_str:0000000000000723 .LASF198
     /tmp/ccqHzMHN.s:4171   .debug_loc:000000000000026c .LLST13
     /tmp/ccqHzMHN.s:4577   .debug_str:000000000000020a .LASF199
     /tmp/ccqHzMHN.s:4643   .debug_str:000000000000039b .LASF200
     /tmp/ccqHzMHN.s:579    .text:0000000000000268 .LFB102
     /tmp/ccqHzMHN.s:649    .text:00000000000002ac .LFE102
     /tmp/ccqHzMHN.s:4207   .debug_loc:00000000000002f7 .LLST10
     /tmp/ccqHzMHN.s:4641   .debug_str:0000000000000390 .LASF201
     /tmp/ccqHzMHN.s:4232   .debug_loc:0000000000000359 .LLST11
     /tmp/ccqHzMHN.s:4243   .debug_loc:000000000000038f .LLST12
     /tmp/ccqHzMHN.s:4895   .debug_str:0000000000000bc9 .LASF202
     /tmp/ccqHzMHN.s:4921   .debug_str:0000000000000c9f .LASF203
     /tmp/ccqHzMHN.s:523    .text:0000000000000230 .LFB101
     /tmp/ccqHzMHN.s:573    .text:0000000000000268 .LFE101
     /tmp/ccqHzMHN.s:4521   .debug_str:0000000000000071 .LASF204
     /tmp/ccqHzMHN.s:4255   .debug_loc:00000000000003c6 .LLST9
     /tmp/ccqHzMHN.s:4737   .debug_str:0000000000000689 .LASF205
     /tmp/ccqHzMHN.s:4593   .debug_str:0000000000000271 .LASF206
     /tmp/ccqHzMHN.s:479    .text:0000000000000208 .LFB100
     /tmp/ccqHzMHN.s:517    .text:0000000000000230 .LFE100
     /tmp/ccqHzMHN.s:4599   .debug_str:0000000000000290 .LASF207
     /tmp/ccqHzMHN.s:4881   .debug_str:0000000000000b58 .LASF208
GAS LISTING /tmp/ccqHzMHN.s 			page 38


     /tmp/ccqHzMHN.s:435    .text:00000000000001e0 .LFB99
     /tmp/ccqHzMHN.s:473    .text:0000000000000208 .LFE99
     /tmp/ccqHzMHN.s:4603   .debug_str:00000000000002a6 .LASF209
     /tmp/ccqHzMHN.s:4655   .debug_str:00000000000003ef .LASF210
     /tmp/ccqHzMHN.s:302    .text:0000000000000140 .LFB98
     /tmp/ccqHzMHN.s:429    .text:00000000000001e0 .LFE98
     /tmp/ccqHzMHN.s:4269   .debug_loc:00000000000003ff .LLST5
     /tmp/ccqHzMHN.s:4677   .debug_str:00000000000004d3 .LASF211
     /tmp/ccqHzMHN.s:4302   .debug_loc:0000000000000487 .LLST6
     /tmp/ccqHzMHN.s:4328   .debug_loc:00000000000004f9 .LLST7
     /tmp/ccqHzMHN.s:4354   .debug_loc:000000000000056b .LLST8
     /tmp/ccqHzMHN.s:331    .text:0000000000000178 .LVL20
     /tmp/ccqHzMHN.s:4759   .debug_str:0000000000000747 .LASF212
     /tmp/ccqHzMHN.s:4897   .debug_str:0000000000000bd6 .LASF213
     /tmp/ccqHzMHN.s:237    .text:0000000000000104 .LFB97
     /tmp/ccqHzMHN.s:296    .text:0000000000000140 .LFE97
     /tmp/ccqHzMHN.s:4369   .debug_loc:00000000000005b4 .LLST4
     /tmp/ccqHzMHN.s:4559   .debug_str:000000000000018e .LASF224
     /tmp/ccqHzMHN.s:4721   .debug_str:0000000000000632 .LASF225
     /tmp/ccqHzMHN.s:201    .text:00000000000000e0 .LFB96
     /tmp/ccqHzMHN.s:231    .text:0000000000000104 .LFE96
     /tmp/ccqHzMHN.s:4703   .debug_str:00000000000005ba .LASF214
     /tmp/ccqHzMHN.s:4829   .debug_str:0000000000000928 .LASF215
     /tmp/ccqHzMHN.s:144    .text:00000000000000a0 .LFB95
     /tmp/ccqHzMHN.s:195    .text:00000000000000e0 .LFE95
     /tmp/ccqHzMHN.s:4841   .debug_str:0000000000000992 .LASF216
     /tmp/ccqHzMHN.s:4743   .debug_str:00000000000006be .LASF217
     /tmp/ccqHzMHN.s:10     .text:0000000000000000 .LFB94
     /tmp/ccqHzMHN.s:138    .text:00000000000000a0 .LFE94
     /tmp/ccqHzMHN.s:4394   .debug_loc:0000000000000616 .LLST0
     /tmp/ccqHzMHN.s:4427   .debug_loc:000000000000069e .LLST1
     /tmp/ccqHzMHN.s:4453   .debug_loc:0000000000000710 .LLST2
     /tmp/ccqHzMHN.s:4479   .debug_loc:0000000000000782 .LLST3
     /tmp/ccqHzMHN.s:40     .text:0000000000000038 .LVL2
     /tmp/ccqHzMHN.s:4887   .debug_str:0000000000000b95 .LASF226
     /tmp/ccqHzMHN.s:1096   .text:0000000000000448 .LVL71
     /tmp/ccqHzMHN.s:1136   .text:0000000000000474 .LVL73
     /tmp/ccqHzMHN.s:1146   .text:0000000000000480 .LVL74
     /tmp/ccqHzMHN.s:1151   .text:0000000000000484 .LVL75
     /tmp/ccqHzMHN.s:1153   .text:0000000000000488 .LVL76
     /tmp/ccqHzMHN.s:1157   .text:000000000000048c .LVL77
     /tmp/ccqHzMHN.s:1130   .text:000000000000046c .LVL72
     /tmp/ccqHzMHN.s:1029   .text:0000000000000410 .LVL68
     /tmp/ccqHzMHN.s:1035   .text:0000000000000414 .LVL69
     /tmp/ccqHzMHN.s:940    .text:00000000000003b8 .LVL63
     /tmp/ccqHzMHN.s:978    .text:00000000000003e0 .LVL65
     /tmp/ccqHzMHN.s:988    .text:00000000000003ec .LVL66
     /tmp/ccqHzMHN.s:993    .text:00000000000003f0 .LVL67
     /tmp/ccqHzMHN.s:875    .text:000000000000037c .LVL58
     /tmp/ccqHzMHN.s:913    .text:00000000000003a4 .LVL60
     /tmp/ccqHzMHN.s:923    .text:00000000000003b0 .LVL61
     /tmp/ccqHzMHN.s:928    .text:00000000000003b4 .LVL62
     /tmp/ccqHzMHN.s:810    .text:0000000000000340 .LVL53
     /tmp/ccqHzMHN.s:848    .text:0000000000000368 .LVL55
     /tmp/ccqHzMHN.s:858    .text:0000000000000374 .LVL56
     /tmp/ccqHzMHN.s:863    .text:0000000000000378 .LVL57
     /tmp/ccqHzMHN.s:740    .text:0000000000000300 .LVL48
GAS LISTING /tmp/ccqHzMHN.s 			page 39


     /tmp/ccqHzMHN.s:783    .text:000000000000032c .LVL50
     /tmp/ccqHzMHN.s:793    .text:0000000000000338 .LVL51
     /tmp/ccqHzMHN.s:798    .text:000000000000033c .LVL52
     /tmp/ccqHzMHN.s:658    .text:00000000000002ac .LVL42
     /tmp/ccqHzMHN.s:706    .text:00000000000002e4 .LVL43
     /tmp/ccqHzMHN.s:715    .text:00000000000002f0 .LVL44
     /tmp/ccqHzMHN.s:719    .text:00000000000002f4 .LVL45
     /tmp/ccqHzMHN.s:722    .text:00000000000002f8 .LVL46
     /tmp/ccqHzMHN.s:728    .text:00000000000002fc .LVL47
     /tmp/ccqHzMHN.s:582    .text:0000000000000268 .LVL35
     /tmp/ccqHzMHN.s:598    .text:0000000000000280 .LVL36
     /tmp/ccqHzMHN.s:637    .text:00000000000002a0 .LVL39
     /tmp/ccqHzMHN.s:643    .text:00000000000002a4 .LVL40
     /tmp/ccqHzMHN.s:626    .text:0000000000000294 .LVL38
     /tmp/ccqHzMHN.s:646    .text:00000000000002a8 .LVL41
     /tmp/ccqHzMHN.s:620    .text:0000000000000290 .LVL37
     /tmp/ccqHzMHN.s:526    .text:0000000000000230 .LVL33
     /tmp/ccqHzMHN.s:563    .text:0000000000000258 .LVL34
     /tmp/ccqHzMHN.s:305    .text:0000000000000140 .LVL18
     /tmp/ccqHzMHN.s:329    .text:0000000000000170 .LVL19
     /tmp/ccqHzMHN.s:393    .text:00000000000001b8 .LVL22
     /tmp/ccqHzMHN.s:403    .text:00000000000001c8 .LVL25
     /tmp/ccqHzMHN.s:407    .text:00000000000001cc .LVL26
     /tmp/ccqHzMHN.s:410    .text:00000000000001d0 .LVL27
     /tmp/ccqHzMHN.s:396    .text:00000000000001bc .LVL23
     /tmp/ccqHzMHN.s:399    .text:00000000000001c0 .LVL24
     /tmp/ccqHzMHN.s:383    .text:00000000000001ac .LVL21
     /tmp/ccqHzMHN.s:420    .text:00000000000001d4 .LVL28
     /tmp/ccqHzMHN.s:422    .text:00000000000001d8 .LVL29
     /tmp/ccqHzMHN.s:426    .text:00000000000001dc .LVL30
     /tmp/ccqHzMHN.s:240    .text:0000000000000104 .LVL13
     /tmp/ccqHzMHN.s:278    .text:000000000000012c .LVL15
     /tmp/ccqHzMHN.s:288    .text:0000000000000138 .LVL16
     /tmp/ccqHzMHN.s:293    .text:000000000000013c .LVL17
     /tmp/ccqHzMHN.s:14     .text:0000000000000000 .LVL0
     /tmp/ccqHzMHN.s:38     .text:0000000000000030 .LVL1
     /tmp/ccqHzMHN.s:102    .text:0000000000000078 .LVL4
     /tmp/ccqHzMHN.s:112    .text:0000000000000088 .LVL7
     /tmp/ccqHzMHN.s:116    .text:000000000000008c .LVL8
     /tmp/ccqHzMHN.s:119    .text:0000000000000090 .LVL9
     /tmp/ccqHzMHN.s:108    .text:0000000000000080 .LVL6
     /tmp/ccqHzMHN.s:105    .text:000000000000007c .LVL5
     /tmp/ccqHzMHN.s:92     .text:000000000000006c .LVL3
     /tmp/ccqHzMHN.s:129    .text:0000000000000094 .LVL10
     /tmp/ccqHzMHN.s:131    .text:0000000000000098 .LVL11
     /tmp/ccqHzMHN.s:135    .text:000000000000009c .LVL12
     /tmp/ccqHzMHN.s:1171   .debug_info:0000000000000000 .Ldebug_info0

UNDEFINED SYMBOLS
__mem_alloc
