GAS LISTING /tmp/ccBCYdr8.s 			page 1


   1              		.file	"syscall_c.cpp"
   2              		.option pic
   3              		.option norelax
   4              		.text
   5              	.Ltext0:
   6              		.align	2
   7              		.globl	_Z13thread_createPP3TCBPFvPvES2_
   9              	_Z13thread_createPP3TCBPFvPvES2_:
  10              	.LFB87:
  11              		.file 1 "src/syscall_c.cpp"
   1:src/syscall_c.cpp **** //
   2:src/syscall_c.cpp **** // Created by os on 7/20/22.
   3:src/syscall_c.cpp **** //
   4:src/syscall_c.cpp **** 
   5:src/syscall_c.cpp **** #include "../h/syscall_c.hpp"
   6:src/syscall_c.cpp **** #include "../h/globals.hpp"
   7:src/syscall_c.cpp **** #include "../lib/mem.h"
   8:src/syscall_c.cpp **** #include "../h/print.hpp"
   9:src/syscall_c.cpp **** //********THREAD***********8
  10:src/syscall_c.cpp **** int thread_create(   thread_t* handle,
  11:src/syscall_c.cpp ****                      void(*start_routine)(void*),
  12:src/syscall_c.cpp ****                      void* arg)
  13:src/syscall_c.cpp **** {
  12              		.loc 1 13 1
  13              		.cfi_startproc
  14              	.LVL0:
  14:src/syscall_c.cpp ****     if(!handle) return -11;
  15              		.loc 1 14 5
  16 0000 63040508 		beqz	a0,.L3
  13:src/syscall_c.cpp ****     if(!handle) return -11;
  17              		.loc 1 13 1 is_stmt 0
  18 0004 130101FC 		addi	sp,sp,-64
  19              		.cfi_def_cfa_offset 64
  20 0008 233C1102 		sd	ra,56(sp)
  21 000c 23388102 		sd	s0,48(sp)
  22 0010 23349102 		sd	s1,40(sp)
  23 0014 23302103 		sd	s2,32(sp)
  24 0018 233C3101 		sd	s3,24(sp)
  25              		.cfi_offset 1, -8
  26              		.cfi_offset 8, -16
  27              		.cfi_offset 9, -24
  28              		.cfi_offset 18, -32
  29              		.cfi_offset 19, -40
  30 001c 13040104 		addi	s0,sp,64
  31              		.cfi_def_cfa 8, 0
  32 0020 93040500 		mv	s1,a0
  33 0024 93890500 		mv	s3,a1
  34 0028 13090600 		mv	s2,a2
  15:src/syscall_c.cpp ****     void* stack =   __mem_alloc(sizeof(uint64)*DEFAULT_STACK_SIZE);
  35              		.loc 1 15 5 is_stmt 1
  36              		.loc 1 15 32 is_stmt 0
  37 002c 37850000 		li	a0,32768
  38              	.LVL1:
  39 0030 97000000 		call	__mem_alloc@plt
  39      E7800000 
  40              	.LVL2:
  16:src/syscall_c.cpp ****     if(!stack)return -12;
GAS LISTING /tmp/ccBCYdr8.s 			page 2


  41              		.loc 1 16 5 is_stmt 1
  42 0038 630C0504 		beqz	a0,.L4
  17:src/syscall_c.cpp **** 
  18:src/syscall_c.cpp ****     __asm__ volatile ("mv a1, %0" : : "r" (handle));
  43              		.loc 1 18 5
  44              		.loc 1 18 52 is_stmt 0
  45              	#APP
  46              	# 18 "src/syscall_c.cpp" 1
  19              	    __asm__ volatile ("mv a2, %0" : : "r" (start_routine));
  47              		mv a1, s1
  48              	# 0 "" 2
  49              		.loc 1 19 5 is_stmt 1
  50              		.loc 1 19 59 is_stmt 0
  51              	# 19 "src/syscall_c.cpp" 1
  20              	    __asm__ volatile ("mv a3, %0" : : "r" (arg));
  52              		mv a2, s3
  53              	# 0 "" 2
  54              		.loc 1 20 5 is_stmt 1
  55              		.loc 1 20 49 is_stmt 0
  56              	# 20 "src/syscall_c.cpp" 1
  21              	    __asm__ volatile ("mv a4, %0" : : "r" (stack));
  57              		mv a3, s2
  58              	# 0 "" 2
  59              		.loc 1 21 5 is_stmt 1
  60              		.loc 1 21 51 is_stmt 0
  61              	# 21 "src/syscall_c.cpp" 1
  22              	    __asm__ volatile ("mv a0, %0" : : "r" (THREAD_CREATE));
  62              		mv a4, a0
  63              	# 0 "" 2
  64              		.loc 1 22 5 is_stmt 1
  65              		.loc 1 22 59 is_stmt 0
  66              	#NO_APP
  67 004c 93071001 		li	a5,17
  68              	#APP
  69              	# 22 "src/syscall_c.cpp" 1
  23              	
  24:src/syscall_c.cpp ****     __asm__ volatile ("ecall");
  70              		mv a0, a5
  71              	# 0 "" 2
  72              		.loc 1 24 5 is_stmt 1
  73              		.loc 1 24 31 is_stmt 0
  74              	# 24 "src/syscall_c.cpp" 1
  25              	    uint64 volatile retVal;
  75              		ecall
  76              	# 0 "" 2
  77              		.loc 1 25 5 is_stmt 1
  26:src/syscall_c.cpp ****     __asm__ volatile ("mv %0, a0" : "=r" (retVal));
  78              		.loc 1 26 5
  79              		.loc 1 26 51 is_stmt 0
  80              	# 26 "src/syscall_c.cpp" 1
  27              	    if(retVal ==0){
  81              		mv a5, a0
  82              	# 0 "" 2
  83              	#NO_APP
  84 005c 2334F4FC 		sd	a5,-56(s0)
  85              		.loc 1 27 5 is_stmt 1
  86              		.loc 1 27 15 is_stmt 0
GAS LISTING /tmp/ccBCYdr8.s 			page 3


  87 0060 833784FC 		ld	a5,-56(s0)
  88              		.loc 1 27 5
  89 0064 639A0702 		bnez	a5,.L5
  28:src/syscall_c.cpp ****         return 0;
  90              		.loc 1 28 16
  91 0068 13050000 		li	a0,0
  92              	.LVL3:
  93              	.L2:
  29:src/syscall_c.cpp ****     }else return -13;
  30:src/syscall_c.cpp **** }
  94              		.loc 1 30 1
  95 006c 83308103 		ld	ra,56(sp)
  96              		.cfi_restore 1
  97 0070 03340103 		ld	s0,48(sp)
  98              		.cfi_restore 8
  99              		.cfi_def_cfa 2, 64
 100 0074 83348102 		ld	s1,40(sp)
 101              		.cfi_restore 9
 102              	.LVL4:
 103 0078 03390102 		ld	s2,32(sp)
 104              		.cfi_restore 18
 105              	.LVL5:
 106 007c 83398101 		ld	s3,24(sp)
 107              		.cfi_restore 19
 108              	.LVL6:
 109 0080 13010104 		addi	sp,sp,64
 110              		.cfi_def_cfa_offset 0
 111 0084 67800000 		jr	ra
 112              	.LVL7:
 113              	.L3:
  14:src/syscall_c.cpp ****     void* stack =   __mem_alloc(sizeof(uint64)*DEFAULT_STACK_SIZE);
 114              		.loc 1 14 25
 115 0088 130550FF 		li	a0,-11
 116              	.LVL8:
 117              		.loc 1 30 1
 118 008c 67800000 		ret
 119              	.LVL9:
 120              	.L4:
 121              		.cfi_def_cfa_register 8
 122              		.cfi_offset 1, -8
 123              		.cfi_offset 8, -16
 124              		.cfi_offset 9, -24
 125              		.cfi_offset 18, -32
 126              		.cfi_offset 19, -40
  16:src/syscall_c.cpp **** 
 127              		.loc 1 16 23
 128 0090 130540FF 		li	a0,-12
 129              	.LVL10:
 130 0094 6FF09FFD 		j	.L2
 131              	.LVL11:
 132              	.L5:
  29:src/syscall_c.cpp ****     }else return -13;
 133              		.loc 1 29 19
 134 0098 130530FF 		li	a0,-13
 135              	.LVL12:
 136 009c 6FF01FFD 		j	.L2
 137              		.cfi_endproc
GAS LISTING /tmp/ccBCYdr8.s 			page 4


 138              	.LFE87:
 140              		.align	2
 141              		.globl	_Z11thread_exitv
 143              	_Z11thread_exitv:
 144              	.LFB88:
  31:src/syscall_c.cpp **** 
  32:src/syscall_c.cpp **** int thread_exit(){
 145              		.loc 1 32 18 is_stmt 1
 146              		.cfi_startproc
 147 00a0 130101FE 		addi	sp,sp,-32
 148              		.cfi_def_cfa_offset 32
 149 00a4 233C8100 		sd	s0,24(sp)
 150              		.cfi_offset 8, -8
 151 00a8 13040102 		addi	s0,sp,32
 152              		.cfi_def_cfa 8, 0
  33:src/syscall_c.cpp **** 
  34:src/syscall_c.cpp ****     __asm__ volatile ("mv a0, %0" : : "r" (THREAD_EXIT));
 153              		.loc 1 34 5
 154              		.loc 1 34 57 is_stmt 0
 155 00ac 93072001 		li	a5,18
 156              	#APP
 157              	# 34 "src/syscall_c.cpp" 1
  35              	    __asm__ volatile ("ecall");
 158              		mv a0, a5
 159              	# 0 "" 2
 160              		.loc 1 35 5 is_stmt 1
 161              		.loc 1 35 31 is_stmt 0
 162              	# 35 "src/syscall_c.cpp" 1
  36              	    uint64 volatile retVal;
 163              		ecall
 164              	# 0 "" 2
 165              		.loc 1 36 5 is_stmt 1
  37:src/syscall_c.cpp ****     __asm__ volatile ("mv %0, a0" : "=r" (retVal));
 166              		.loc 1 37 5
 167              		.loc 1 37 51 is_stmt 0
 168              	# 37 "src/syscall_c.cpp" 1
  38              	    if(retVal==0){return 0;}
 169              		mv a5, a0
 170              	# 0 "" 2
 171              	#NO_APP
 172 00bc 2334F4FE 		sd	a5,-24(s0)
 173              		.loc 1 38 5 is_stmt 1
 174              		.loc 1 38 14 is_stmt 0
 175 00c0 833784FE 		ld	a5,-24(s0)
 176              		.loc 1 38 5
 177 00c4 639A0700 		bnez	a5,.L12
 178              		.loc 1 38 26
 179 00c8 13050000 		li	a0,0
 180              	.L11:
  39:src/syscall_c.cpp ****     else return -21;
  40:src/syscall_c.cpp **** }
 181              		.loc 1 40 1
 182 00cc 03348101 		ld	s0,24(sp)
 183              		.cfi_remember_state
 184              		.cfi_restore 8
 185              		.cfi_def_cfa 2, 32
 186 00d0 13010102 		addi	sp,sp,32
GAS LISTING /tmp/ccBCYdr8.s 			page 5


 187              		.cfi_def_cfa_offset 0
 188 00d4 67800000 		jr	ra
 189              	.L12:
 190              		.cfi_restore_state
  39:src/syscall_c.cpp ****     else return -21;
 191              		.loc 1 39 18
 192 00d8 1305B0FE 		li	a0,-21
 193 00dc 6FF01FFF 		j	.L11
 194              		.cfi_endproc
 195              	.LFE88:
 197              		.align	2
 198              		.globl	_Z15thread_dispatchv
 200              	_Z15thread_dispatchv:
 201              	.LFB89:
  41:src/syscall_c.cpp **** 
  42:src/syscall_c.cpp **** void thread_dispatch(){
 202              		.loc 1 42 23 is_stmt 1
 203              		.cfi_startproc
 204 00e0 130101FF 		addi	sp,sp,-16
 205              		.cfi_def_cfa_offset 16
 206 00e4 23348100 		sd	s0,8(sp)
 207              		.cfi_offset 8, -8
 208 00e8 13040101 		addi	s0,sp,16
 209              		.cfi_def_cfa 8, 0
  43:src/syscall_c.cpp **** 
  44:src/syscall_c.cpp ****     __asm__ volatile ("mv a0, %0 "::"r"(THREAD_DISPATCH));
 210              		.loc 1 44 5
 211              		.loc 1 44 58 is_stmt 0
 212 00ec 93073001 		li	a5,19
 213              	#APP
 214              	# 44 "src/syscall_c.cpp" 1
  45              	    __asm__ volatile ("ecall");
 215              		mv a0, a5 
 216              	# 0 "" 2
 217              		.loc 1 45 5 is_stmt 1
 218              		.loc 1 45 31 is_stmt 0
 219              	# 45 "src/syscall_c.cpp" 1
  46              	}
 220              		ecall
 221              	# 0 "" 2
 222              		.loc 1 46 1
 223              	#NO_APP
 224 00f8 03348100 		ld	s0,8(sp)
 225              		.cfi_restore 8
 226              		.cfi_def_cfa 2, 16
 227 00fc 13010101 		addi	sp,sp,16
 228              		.cfi_def_cfa_offset 0
 229 0100 67800000 		jr	ra
 230              		.cfi_endproc
 231              	.LFE89:
 233              		.align	2
 234              		.globl	_Z12thread_startP3TCB
 236              	_Z12thread_startP3TCB:
 237              	.LFB90:
  47:src/syscall_c.cpp **** int thread_start(thread_t handler){
 238              		.loc 1 47 35 is_stmt 1
 239              		.cfi_startproc
GAS LISTING /tmp/ccBCYdr8.s 			page 6


 240              	.LVL13:
 241 0104 130101FF 		addi	sp,sp,-16
 242              		.cfi_def_cfa_offset 16
 243 0108 23348100 		sd	s0,8(sp)
 244              		.cfi_offset 8, -8
 245 010c 13040101 		addi	s0,sp,16
 246              		.cfi_def_cfa 8, 0
  48:src/syscall_c.cpp ****     __asm__ volatile ("mv a1, %0"::"r"(handler));
 247              		.loc 1 48 5
 248              		.loc 1 48 49 is_stmt 0
 249              	#APP
 250              	# 48 "src/syscall_c.cpp" 1
  49              	    __asm__ volatile ("mv a0, %0"::"r"(THREAD_START));
 251              		mv a1, a0
 252              	# 0 "" 2
 253              		.loc 1 49 5 is_stmt 1
 254              		.loc 1 49 54 is_stmt 0
 255              	#NO_APP
 256 0114 93070001 		li	a5,16
 257              	#APP
 258              	# 49 "src/syscall_c.cpp" 1
  50              	    __asm__ volatile ("ecall");
 259              		mv a0, a5
 260              	# 0 "" 2
 261              		.loc 1 50 5 is_stmt 1
 262              		.loc 1 50 31 is_stmt 0
 263              	# 50 "src/syscall_c.cpp" 1
  51              	    uint64 retVal;
 264              		ecall
 265              	# 0 "" 2
 266              		.loc 1 51 5 is_stmt 1
  52:src/syscall_c.cpp ****     __asm__ volatile ("mv %0, a0" : "=r"(retVal));
 267              		.loc 1 52 5
 268              		.loc 1 52 50 is_stmt 0
 269              	# 52 "src/syscall_c.cpp" 1
  53              	  if(retVal==0)return 0;
 270              		mv a5, a0
 271              	# 0 "" 2
 272              	.LVL14:
 273              		.loc 1 53 3 is_stmt 1
 274              	#NO_APP
 275 0124 639A0700 		bnez	a5,.L18
 276              		.loc 1 53 23 is_stmt 0
 277 0128 13050000 		li	a0,0
 278              	.LVL15:
 279              	.L17:
  54:src/syscall_c.cpp ****   else return -10;
  55:src/syscall_c.cpp **** }
 280              		.loc 1 55 1
 281 012c 03348100 		ld	s0,8(sp)
 282              		.cfi_remember_state
 283              		.cfi_restore 8
 284              		.cfi_def_cfa 2, 16
 285 0130 13010101 		addi	sp,sp,16
 286              		.cfi_def_cfa_offset 0
 287 0134 67800000 		jr	ra
 288              	.LVL16:
GAS LISTING /tmp/ccBCYdr8.s 			page 7


 289              	.L18:
 290              		.cfi_restore_state
  54:src/syscall_c.cpp ****   else return -10;
 291              		.loc 1 54 16
 292 0138 130560FF 		li	a0,-10
 293              	.LVL17:
 294 013c 6FF01FFF 		j	.L17
 295              		.cfi_endproc
 296              	.LFE90:
 298              		.align	2
 299              		.globl	_Z14thread_preparePP3TCBPFvPvES2_
 301              	_Z14thread_preparePP3TCBPFvPvES2_:
 302              	.LFB91:
  56:src/syscall_c.cpp **** int thread_prepare(   thread_t* handle,
  57:src/syscall_c.cpp ****                        void(*start_routine)(void*),
  58:src/syscall_c.cpp ****                        void* arg)
  59:src/syscall_c.cpp **** {
 303              		.loc 1 59 1 is_stmt 1
 304              		.cfi_startproc
 305              	.LVL18:
  60:src/syscall_c.cpp ****     if(!handle) return -114;
 306              		.loc 1 60 5
 307 0140 63040508 		beqz	a0,.L22
  59:src/syscall_c.cpp ****     if(!handle) return -114;
 308              		.loc 1 59 1 is_stmt 0
 309 0144 130101FC 		addi	sp,sp,-64
 310              		.cfi_def_cfa_offset 64
 311 0148 233C1102 		sd	ra,56(sp)
 312 014c 23388102 		sd	s0,48(sp)
 313 0150 23349102 		sd	s1,40(sp)
 314 0154 23302103 		sd	s2,32(sp)
 315 0158 233C3101 		sd	s3,24(sp)
 316              		.cfi_offset 1, -8
 317              		.cfi_offset 8, -16
 318              		.cfi_offset 9, -24
 319              		.cfi_offset 18, -32
 320              		.cfi_offset 19, -40
 321 015c 13040104 		addi	s0,sp,64
 322              		.cfi_def_cfa 8, 0
 323 0160 93040500 		mv	s1,a0
 324 0164 13890500 		mv	s2,a1
 325 0168 93090600 		mv	s3,a2
  61:src/syscall_c.cpp ****     void* stack =   __mem_alloc(sizeof(uint64)*DEFAULT_STACK_SIZE);
 326              		.loc 1 61 5 is_stmt 1
 327              		.loc 1 61 32 is_stmt 0
 328 016c 37850000 		li	a0,32768
 329              	.LVL19:
 330 0170 97000000 		call	__mem_alloc@plt
 330      E7800000 
 331              	.LVL20:
  62:src/syscall_c.cpp ****     if(!stack)return -112;
 332              		.loc 1 62 5 is_stmt 1
 333 0178 630C0504 		beqz	a0,.L23
  63:src/syscall_c.cpp **** 
  64:src/syscall_c.cpp ****     __asm__ volatile ("mv a4, %0" : : "r" (stack));
 334              		.loc 1 64 5
 335              		.loc 1 64 51 is_stmt 0
GAS LISTING /tmp/ccBCYdr8.s 			page 8


 336              	#APP
 337              	# 64 "src/syscall_c.cpp" 1
  65              	    __asm__ volatile ("mv a3, %0" : : "r" (arg));
 338              		mv a4, a0
 339              	# 0 "" 2
 340              		.loc 1 65 5 is_stmt 1
 341              		.loc 1 65 49 is_stmt 0
 342              	# 65 "src/syscall_c.cpp" 1
  66              	    __asm__ volatile ("mv a2, %0" : : "r" (start_routine));
 343              		mv a3, s3
 344              	# 0 "" 2
 345              		.loc 1 66 5 is_stmt 1
 346              		.loc 1 66 59 is_stmt 0
 347              	# 66 "src/syscall_c.cpp" 1
  67              	    __asm__ volatile ("mv a1, %0" : : "r" (handle));
 348              		mv a2, s2
 349              	# 0 "" 2
 350              		.loc 1 67 5 is_stmt 1
 351              		.loc 1 67 52 is_stmt 0
 352              	# 67 "src/syscall_c.cpp" 1
  68              	    __asm__ volatile ("mv a0, %0" : : "r" (THREAD_PREPARE));
 353              		mv a1, s1
 354              	# 0 "" 2
 355              		.loc 1 68 5 is_stmt 1
 356              		.loc 1 68 60 is_stmt 0
 357              	#NO_APP
 358 018c 93074001 		li	a5,20
 359              	#APP
 360              	# 68 "src/syscall_c.cpp" 1
  69              	
  70:src/syscall_c.cpp ****     __asm__ volatile ("ecall");
 361              		mv a0, a5
 362              	# 0 "" 2
 363              		.loc 1 70 5 is_stmt 1
 364              		.loc 1 70 31 is_stmt 0
 365              	# 70 "src/syscall_c.cpp" 1
  71              	    uint64 volatile retVal;
 366              		ecall
 367              	# 0 "" 2
 368              		.loc 1 71 5 is_stmt 1
  72:src/syscall_c.cpp ****     __asm__ volatile ("mv %0, a0" : "=r" (retVal));
 369              		.loc 1 72 5
 370              		.loc 1 72 51 is_stmt 0
 371              	# 72 "src/syscall_c.cpp" 1
  73              	    if(retVal ==0){
 372              		mv a5, a0
 373              	# 0 "" 2
 374              	#NO_APP
 375 019c 2334F4FC 		sd	a5,-56(s0)
 376              		.loc 1 73 5 is_stmt 1
 377              		.loc 1 73 15 is_stmt 0
 378 01a0 833784FC 		ld	a5,-56(s0)
 379              		.loc 1 73 5
 380 01a4 639A0702 		bnez	a5,.L24
  74:src/syscall_c.cpp ****         return 0;
 381              		.loc 1 74 16
 382 01a8 13050000 		li	a0,0
GAS LISTING /tmp/ccBCYdr8.s 			page 9


 383              	.LVL21:
 384              	.L21:
  75:src/syscall_c.cpp ****     }else return -114;
  76:src/syscall_c.cpp **** }
 385              		.loc 1 76 1
 386 01ac 83308103 		ld	ra,56(sp)
 387              		.cfi_restore 1
 388 01b0 03340103 		ld	s0,48(sp)
 389              		.cfi_restore 8
 390              		.cfi_def_cfa 2, 64
 391 01b4 83348102 		ld	s1,40(sp)
 392              		.cfi_restore 9
 393              	.LVL22:
 394 01b8 03390102 		ld	s2,32(sp)
 395              		.cfi_restore 18
 396              	.LVL23:
 397 01bc 83398101 		ld	s3,24(sp)
 398              		.cfi_restore 19
 399              	.LVL24:
 400 01c0 13010104 		addi	sp,sp,64
 401              		.cfi_def_cfa_offset 0
 402 01c4 67800000 		jr	ra
 403              	.LVL25:
 404              	.L22:
  60:src/syscall_c.cpp ****     void* stack =   __mem_alloc(sizeof(uint64)*DEFAULT_STACK_SIZE);
 405              		.loc 1 60 25
 406 01c8 1305E0F8 		li	a0,-114
 407              	.LVL26:
 408              		.loc 1 76 1
 409 01cc 67800000 		ret
 410              	.LVL27:
 411              	.L23:
 412              		.cfi_def_cfa_register 8
 413              		.cfi_offset 1, -8
 414              		.cfi_offset 8, -16
 415              		.cfi_offset 9, -24
 416              		.cfi_offset 18, -32
 417              		.cfi_offset 19, -40
  62:src/syscall_c.cpp **** 
 418              		.loc 1 62 23
 419 01d0 130500F9 		li	a0,-112
 420              	.LVL28:
 421 01d4 6FF09FFD 		j	.L21
 422              	.LVL29:
 423              	.L24:
  75:src/syscall_c.cpp ****     }else return -114;
 424              		.loc 1 75 19
 425 01d8 1305E0F8 		li	a0,-114
 426              	.LVL30:
 427 01dc 6FF01FFD 		j	.L21
 428              		.cfi_endproc
 429              	.LFE91:
 431              		.align	2
 432              		.globl	_Z13thread_deleteP3TCB
 434              	_Z13thread_deleteP3TCB:
 435              	.LFB92:
  77:src/syscall_c.cpp **** void thread_delete(thread_t handel){
GAS LISTING /tmp/ccBCYdr8.s 			page 10


 436              		.loc 1 77 36 is_stmt 1
 437              		.cfi_startproc
 438              	.LVL31:
 439 01e0 130101FF 		addi	sp,sp,-16
 440              		.cfi_def_cfa_offset 16
 441 01e4 23348100 		sd	s0,8(sp)
 442              		.cfi_offset 8, -8
 443 01e8 13040101 		addi	s0,sp,16
 444              		.cfi_def_cfa 8, 0
  78:src/syscall_c.cpp ****     __asm__ volatile ("mv a1, %0"::"r"(handel));
 445              		.loc 1 78 5
 446              		.loc 1 78 48 is_stmt 0
 447              	#APP
 448              	# 78 "src/syscall_c.cpp" 1
  79              	    __asm__ volatile ("mv a0, %0"::"r"(THREAD_DELETE));
 449              		mv a1, a0
 450              	# 0 "" 2
 451              		.loc 1 79 5 is_stmt 1
 452              		.loc 1 79 55 is_stmt 0
 453              	#NO_APP
 454 01f0 93075001 		li	a5,21
 455              	#APP
 456              	# 79 "src/syscall_c.cpp" 1
  80              	    __asm__ volatile ("ecall");
 457              		mv a0, a5
 458              	# 0 "" 2
 459              		.loc 1 80 5 is_stmt 1
 460              		.loc 1 80 31 is_stmt 0
 461              	# 80 "src/syscall_c.cpp" 1
  81              	}
 462              		ecall
 463              	# 0 "" 2
 464              		.loc 1 81 1
 465              	#NO_APP
 466 01fc 03348100 		ld	s0,8(sp)
 467              		.cfi_restore 8
 468              		.cfi_def_cfa 2, 16
 469 0200 13010101 		addi	sp,sp,16
 470              		.cfi_def_cfa_offset 0
 471 0204 67800000 		jr	ra
 472              		.cfi_endproc
 473              	.LFE92:
 475              		.align	2
 476              		.globl	_Z9mem_allocm
 478              	_Z9mem_allocm:
 479              	.LFB93:
  82:src/syscall_c.cpp **** //*******MEMORY**********
  83:src/syscall_c.cpp **** 
  84:src/syscall_c.cpp **** void *mem_alloc(size_t size)
  85:src/syscall_c.cpp **** {
 480              		.loc 1 85 1 is_stmt 1
 481              		.cfi_startproc
 482              	.LVL32:
 483 0208 130101FF 		addi	sp,sp,-16
 484              		.cfi_def_cfa_offset 16
 485 020c 23348100 		sd	s0,8(sp)
 486              		.cfi_offset 8, -8
GAS LISTING /tmp/ccBCYdr8.s 			page 11


 487 0210 13040101 		addi	s0,sp,16
 488              		.cfi_def_cfa 8, 0
  86:src/syscall_c.cpp ****     size_t BlocckSize;
 489              		.loc 1 86 5
  87:src/syscall_c.cpp ****     if(size % MEM_BLOCK_SIZE==0){
 490              		.loc 1 87 5
 491              		.loc 1 87 13 is_stmt 0
 492 0214 9377F503 		andi	a5,a0,63
 493              		.loc 1 87 5
 494 0218 63940702 		bnez	a5,.L32
  88:src/syscall_c.cpp ****         BlocckSize=size/MEM_BLOCK_SIZE;
 495              		.loc 1 88 9 is_stmt 1
 496              		.loc 1 88 19 is_stmt 0
 497 021c 13556500 		srli	a0,a0,6
 498              	.LVL33:
 499              	.L33:
  89:src/syscall_c.cpp ****     }else{
  90:src/syscall_c.cpp ****         BlocckSize= (size/MEM_BLOCK_SIZE)+1;
  91:src/syscall_c.cpp ****     }
  92:src/syscall_c.cpp ****     __asm__ volatile ("mv a1, %0" : : "r"(BlocckSize));
 500              		.loc 1 92 5 is_stmt 1
 501              		.loc 1 92 55 is_stmt 0
 502              	#APP
 503              	# 92 "src/syscall_c.cpp" 1
  93              	    __asm__ volatile ("mv a0, %0 "::"r"(MEM_ALLOC));
 504              		mv a1, a0
 505              	# 0 "" 2
 506              		.loc 1 93 5 is_stmt 1
 507              		.loc 1 93 52 is_stmt 0
 508              	#NO_APP
 509 0224 93071000 		li	a5,1
 510              	#APP
 511              	# 93 "src/syscall_c.cpp" 1
  94              	    __asm__ volatile ("ecall");
 512              		mv a0, a5 
 513              	# 0 "" 2
 514              		.loc 1 94 5 is_stmt 1
 515              		.loc 1 94 31 is_stmt 0
 516              	# 94 "src/syscall_c.cpp" 1
  95              	    uint64 retVal=0;
 517              		ecall
 518              	# 0 "" 2
 519              		.loc 1 95 5 is_stmt 1
 520              	.LVL34:
  96:src/syscall_c.cpp ****         __asm__ volatile ("mv %0, a0" : "=r"(retVal));
 521              		.loc 1 96 9
 522              		.loc 1 96 54 is_stmt 0
 523              	# 96 "src/syscall_c.cpp" 1
  97              	        return (void*)retVal;
 524              		mv a0, a0
 525              	# 0 "" 2
 526              	.LVL35:
 527              		.loc 1 97 9 is_stmt 1
  98:src/syscall_c.cpp **** }
 528              		.loc 1 98 1 is_stmt 0
 529              	#NO_APP
 530 0234 03348100 		ld	s0,8(sp)
GAS LISTING /tmp/ccBCYdr8.s 			page 12


 531              		.cfi_remember_state
 532              		.cfi_restore 8
 533              		.cfi_def_cfa 2, 16
 534 0238 13010101 		addi	sp,sp,16
 535              		.cfi_def_cfa_offset 0
 536 023c 67800000 		jr	ra
 537              	.LVL36:
 538              	.L32:
 539              		.cfi_restore_state
  90:src/syscall_c.cpp ****     }
 540              		.loc 1 90 9 is_stmt 1
  90:src/syscall_c.cpp ****     }
 541              		.loc 1 90 26 is_stmt 0
 542 0240 13556500 		srli	a0,a0,6
 543              	.LVL37:
  90:src/syscall_c.cpp ****     }
 544              		.loc 1 90 19
 545 0244 13051500 		addi	a0,a0,1
 546              	.LVL38:
 547 0248 6FF09FFD 		j	.L33
 548              		.cfi_endproc
 549              	.LFE93:
 551              		.align	2
 552              		.globl	_Z8mem_freePv
 554              	_Z8mem_freePv:
 555              	.LFB94:
  99:src/syscall_c.cpp **** 
 100:src/syscall_c.cpp **** int mem_free(void*pointer)
 101:src/syscall_c.cpp **** {
 556              		.loc 1 101 1 is_stmt 1
 557              		.cfi_startproc
 558              	.LVL39:
 102:src/syscall_c.cpp ****     if(pointer== nullptr)return 0;
 559              		.loc 1 102 5
 560 024c 63020504 		beqz	a0,.L37
 101:src/syscall_c.cpp ****     if(pointer== nullptr)return 0;
 561              		.loc 1 101 1 is_stmt 0
 562 0250 130101FE 		addi	sp,sp,-32
 563              		.cfi_def_cfa_offset 32
 564 0254 233C8100 		sd	s0,24(sp)
 565              		.cfi_offset 8, -8
 566 0258 13040102 		addi	s0,sp,32
 567              		.cfi_def_cfa 8, 0
 103:src/syscall_c.cpp ****     __asm__ volatile ("mv a1, %0" : : "r"(pointer));
 568              		.loc 1 103 5 is_stmt 1
 569              		.loc 1 103 52 is_stmt 0
 570              	#APP
 571              	# 103 "src/syscall_c.cpp" 1
 104              	    __asm__ volatile ("mv a0, %0 "::"r"(MEM_FREE));
 572              		mv a1, a0
 573              	# 0 "" 2
 574              		.loc 1 104 5 is_stmt 1
 575              		.loc 1 104 51 is_stmt 0
 576              	#NO_APP
 577 0260 93072000 		li	a5,2
 578              	#APP
 579              	# 104 "src/syscall_c.cpp" 1
GAS LISTING /tmp/ccBCYdr8.s 			page 13


 105              	    __asm__ volatile ("ecall");
 580              		mv a0, a5 
 581              	# 0 "" 2
 582              		.loc 1 105 5 is_stmt 1
 583              		.loc 1 105 31 is_stmt 0
 584              	# 105 "src/syscall_c.cpp" 1
 106              	    uint64 volatile retVal=0;
 585              		ecall
 586              	# 0 "" 2
 587              		.loc 1 106 5 is_stmt 1
 588              		.loc 1 106 21 is_stmt 0
 589              	#NO_APP
 590 026c 233404FE 		sd	zero,-24(s0)
 107:src/syscall_c.cpp ****     __asm__ volatile ("mv %0, a0 " : "=r" (retVal));
 591              		.loc 1 107 5 is_stmt 1
 592              		.loc 1 107 52 is_stmt 0
 593              	#APP
 594              	# 107 "src/syscall_c.cpp" 1
 108              	    if(retVal==0)return 0;
 595              		mv a5, a0 
 596              	# 0 "" 2
 597              	#NO_APP
 598 0274 2334F4FE 		sd	a5,-24(s0)
 599              		.loc 1 108 5 is_stmt 1
 600              		.loc 1 108 14 is_stmt 0
 601 0278 833784FE 		ld	a5,-24(s0)
 602              		.loc 1 108 5
 603 027c 639E0700 		bnez	a5,.L38
 604              		.loc 1 108 25
 605 0280 13050000 		li	a0,0
 606              	.LVL40:
 607              	.L36:
 109:src/syscall_c.cpp ****     else return -1;
 110:src/syscall_c.cpp **** }
 608              		.loc 1 110 1
 609 0284 03348101 		ld	s0,24(sp)
 610              		.cfi_restore 8
 611              		.cfi_def_cfa 2, 32
 612 0288 13010102 		addi	sp,sp,32
 613              		.cfi_def_cfa_offset 0
 614 028c 67800000 		jr	ra
 615              	.LVL41:
 616              	.L37:
 102:src/syscall_c.cpp ****     __asm__ volatile ("mv a1, %0" : : "r"(pointer));
 617              		.loc 1 102 33
 618 0290 13050000 		li	a0,0
 619              	.LVL42:
 620              		.loc 1 110 1
 621 0294 67800000 		ret
 622              	.LVL43:
 623              	.L38:
 624              		.cfi_def_cfa_register 8
 625              		.cfi_offset 8, -8
 109:src/syscall_c.cpp ****     else return -1;
 626              		.loc 1 109 18
 627 0298 1305F0FF 		li	a0,-1
 628              	.LVL44:
GAS LISTING /tmp/ccBCYdr8.s 			page 14


 629 029c 6FF09FFE 		j	.L36
 630              		.cfi_endproc
 631              	.LFE94:
 633              		.align	2
 634              		.globl	_Z8sem_openPP4_semj
 636              	_Z8sem_openPP4_semj:
 637              	.LFB95:
 111:src/syscall_c.cpp **** //*******SEMAPHORE*********
 112:src/syscall_c.cpp **** int sem_open(  sem_t* handle,
 113:src/syscall_c.cpp ****                unsigned init){
 638              		.loc 1 113 30 is_stmt 1
 639              		.cfi_startproc
 640              	.LVL45:
 641 02a0 130101FF 		addi	sp,sp,-16
 642              		.cfi_def_cfa_offset 16
 643 02a4 23348100 		sd	s0,8(sp)
 644              		.cfi_offset 8, -8
 645 02a8 13040101 		addi	s0,sp,16
 646              		.cfi_def_cfa 8, 0
 114:src/syscall_c.cpp ****     __asm__ volatile("mv a3, %0"::"r"(handle));
 647              		.loc 1 114 5
 648              		.loc 1 114 47 is_stmt 0
 649              	#APP
 650              	# 114 "src/syscall_c.cpp" 1
 115              	    __asm__ volatile("mv a2, %0"::"r"(init));
 651              		mv a3, a0
 652              	# 0 "" 2
 653              		.loc 1 115 5 is_stmt 1
 654              		.loc 1 115 45 is_stmt 0
 655              	# 115 "src/syscall_c.cpp" 1
 116              	    __asm__ volatile("mv a0, %0"::"r"(SEM_OPEN));
 656              		mv a2, a1
 657              	# 0 "" 2
 658              		.loc 1 116 5 is_stmt 1
 659              		.loc 1 116 49 is_stmt 0
 660              	#NO_APP
 661 02b4 93071002 		li	a5,33
 662              	#APP
 663              	# 116 "src/syscall_c.cpp" 1
 117              	    __asm__ volatile("ecall");
 664              		mv a0, a5
 665              	# 0 "" 2
 666              		.loc 1 117 5 is_stmt 1
 667              		.loc 1 117 30 is_stmt 0
 668              	# 117 "src/syscall_c.cpp" 1
 118              	    uint64 retVal;
 669              		ecall
 670              	# 0 "" 2
 671              		.loc 1 118 5 is_stmt 1
 119:src/syscall_c.cpp ****     __asm__ volatile ("mv %0, a0":"=r"(retVal));
 672              		.loc 1 119 5
 673              		.loc 1 119 48 is_stmt 0
 674              	# 119 "src/syscall_c.cpp" 1
 120              	    if(retVal==0)return 0;
 675              		mv a5, a0
 676              	# 0 "" 2
 677              	.LVL46:
GAS LISTING /tmp/ccBCYdr8.s 			page 15


 678              		.loc 1 120 5 is_stmt 1
 679              	#NO_APP
 680 02c4 639A0700 		bnez	a5,.L45
 681              		.loc 1 120 25 is_stmt 0
 682 02c8 13050000 		li	a0,0
 683              	.LVL47:
 684              	.L44:
 121:src/syscall_c.cpp ****     else return -21;
 122:src/syscall_c.cpp **** }
 685              		.loc 1 122 1
 686 02cc 03348100 		ld	s0,8(sp)
 687              		.cfi_remember_state
 688              		.cfi_restore 8
 689              		.cfi_def_cfa 2, 16
 690 02d0 13010101 		addi	sp,sp,16
 691              		.cfi_def_cfa_offset 0
 692 02d4 67800000 		jr	ra
 693              	.LVL48:
 694              	.L45:
 695              		.cfi_restore_state
 121:src/syscall_c.cpp ****     else return -21;
 696              		.loc 1 121 18
 697 02d8 1305B0FE 		li	a0,-21
 698              	.LVL49:
 699 02dc 6FF01FFF 		j	.L44
 700              		.cfi_endproc
 701              	.LFE95:
 703              		.align	2
 704              		.globl	_Z9sem_closeP4_sem
 706              	_Z9sem_closeP4_sem:
 707              	.LFB96:
 123:src/syscall_c.cpp **** int sem_close(sem_t handler){
 708              		.loc 1 123 29 is_stmt 1
 709              		.cfi_startproc
 710              	.LVL50:
 711 02e0 130101FF 		addi	sp,sp,-16
 712              		.cfi_def_cfa_offset 16
 713 02e4 23348100 		sd	s0,8(sp)
 714              		.cfi_offset 8, -8
 715 02e8 13040101 		addi	s0,sp,16
 716              		.cfi_def_cfa 8, 0
 124:src/syscall_c.cpp ****     __asm__ volatile("mv a1, %0"::"r"(handler));
 717              		.loc 1 124 5
 718              		.loc 1 124 48 is_stmt 0
 719              	#APP
 720              	# 124 "src/syscall_c.cpp" 1
 125              	    __asm__ volatile("mv a0, %0"::"r"(SEM_CLOSE));
 721              		mv a1, a0
 722              	# 0 "" 2
 723              		.loc 1 125 5 is_stmt 1
 724              		.loc 1 125 50 is_stmt 0
 725              	#NO_APP
 726 02f0 93072002 		li	a5,34
 727              	#APP
 728              	# 125 "src/syscall_c.cpp" 1
 126              	    __asm__ volatile("ecall");
 729              		mv a0, a5
GAS LISTING /tmp/ccBCYdr8.s 			page 16


 730              	# 0 "" 2
 731              		.loc 1 126 5 is_stmt 1
 732              		.loc 1 126 30 is_stmt 0
 733              	# 126 "src/syscall_c.cpp" 1
 127              	    uint64 retVal;
 734              		ecall
 735              	# 0 "" 2
 736              		.loc 1 127 5 is_stmt 1
 128:src/syscall_c.cpp ****     __asm__ volatile ("mv %0, a0":"=r"(retVal));
 737              		.loc 1 128 5
 738              		.loc 1 128 48 is_stmt 0
 739              	# 128 "src/syscall_c.cpp" 1
 129              	    if(retVal==0)return 0;
 740              		mv a5, a0
 741              	# 0 "" 2
 742              	.LVL51:
 743              		.loc 1 129 5 is_stmt 1
 744              	#NO_APP
 745 0300 639A0700 		bnez	a5,.L49
 746              		.loc 1 129 25 is_stmt 0
 747 0304 13050000 		li	a0,0
 748              	.LVL52:
 749              	.L48:
 130:src/syscall_c.cpp ****     else return -22;
 131:src/syscall_c.cpp **** }
 750              		.loc 1 131 1
 751 0308 03348100 		ld	s0,8(sp)
 752              		.cfi_remember_state
 753              		.cfi_restore 8
 754              		.cfi_def_cfa 2, 16
 755 030c 13010101 		addi	sp,sp,16
 756              		.cfi_def_cfa_offset 0
 757 0310 67800000 		jr	ra
 758              	.LVL53:
 759              	.L49:
 760              		.cfi_restore_state
 130:src/syscall_c.cpp ****     else return -22;
 761              		.loc 1 130 18
 762 0314 1305A0FE 		li	a0,-22
 763              	.LVL54:
 764 0318 6FF01FFF 		j	.L48
 765              		.cfi_endproc
 766              	.LFE96:
 768              		.align	2
 769              		.globl	_Z8sem_waitP4_sem
 771              	_Z8sem_waitP4_sem:
 772              	.LFB97:
 132:src/syscall_c.cpp **** 
 133:src/syscall_c.cpp **** int sem_wait(sem_t id){
 773              		.loc 1 133 23 is_stmt 1
 774              		.cfi_startproc
 775              	.LVL55:
 776 031c 130101FF 		addi	sp,sp,-16
 777              		.cfi_def_cfa_offset 16
 778 0320 23348100 		sd	s0,8(sp)
 779              		.cfi_offset 8, -8
 780 0324 13040101 		addi	s0,sp,16
GAS LISTING /tmp/ccBCYdr8.s 			page 17


 781              		.cfi_def_cfa 8, 0
 134:src/syscall_c.cpp ****     __asm__ volatile("mv a1, %0"::"r"(id));
 782              		.loc 1 134 5
 783              		.loc 1 134 43 is_stmt 0
 784              	#APP
 785              	# 134 "src/syscall_c.cpp" 1
 135              	    __asm__ volatile("mv a0, %0"::"r"(SEM_WAIT));
 786              		mv a1, a0
 787              	# 0 "" 2
 788              		.loc 1 135 5 is_stmt 1
 789              		.loc 1 135 49 is_stmt 0
 790              	#NO_APP
 791 032c 93073002 		li	a5,35
 792              	#APP
 793              	# 135 "src/syscall_c.cpp" 1
 136              	    __asm__ volatile("ecall");
 794              		mv a0, a5
 795              	# 0 "" 2
 796              		.loc 1 136 5 is_stmt 1
 797              		.loc 1 136 30 is_stmt 0
 798              	# 136 "src/syscall_c.cpp" 1
 137              	    uint64 retVal;
 799              		ecall
 800              	# 0 "" 2
 801              		.loc 1 137 5 is_stmt 1
 138:src/syscall_c.cpp ****     __asm__ volatile ("mv %0, a0":"=r"(retVal));
 802              		.loc 1 138 5
 803              		.loc 1 138 48 is_stmt 0
 804              	# 138 "src/syscall_c.cpp" 1
 139              	    if(retVal==0)return 0;
 805              		mv a5, a0
 806              	# 0 "" 2
 807              	.LVL56:
 808              		.loc 1 139 5 is_stmt 1
 809              	#NO_APP
 810 033c 639A0700 		bnez	a5,.L53
 811              		.loc 1 139 25 is_stmt 0
 812 0340 13050000 		li	a0,0
 813              	.LVL57:
 814              	.L52:
 140:src/syscall_c.cpp ****     else return -22;
 141:src/syscall_c.cpp **** }
 815              		.loc 1 141 1
 816 0344 03348100 		ld	s0,8(sp)
 817              		.cfi_remember_state
 818              		.cfi_restore 8
 819              		.cfi_def_cfa 2, 16
 820 0348 13010101 		addi	sp,sp,16
 821              		.cfi_def_cfa_offset 0
 822 034c 67800000 		jr	ra
 823              	.LVL58:
 824              	.L53:
 825              		.cfi_restore_state
 140:src/syscall_c.cpp ****     else return -22;
 826              		.loc 1 140 18
 827 0350 1305A0FE 		li	a0,-22
 828              	.LVL59:
GAS LISTING /tmp/ccBCYdr8.s 			page 18


 829 0354 6FF01FFF 		j	.L52
 830              		.cfi_endproc
 831              	.LFE97:
 833              		.align	2
 834              		.globl	_Z10sem_signalP4_sem
 836              	_Z10sem_signalP4_sem:
 837              	.LFB98:
 142:src/syscall_c.cpp **** int sem_signal(sem_t id){
 838              		.loc 1 142 25 is_stmt 1
 839              		.cfi_startproc
 840              	.LVL60:
 841 0358 130101FF 		addi	sp,sp,-16
 842              		.cfi_def_cfa_offset 16
 843 035c 23348100 		sd	s0,8(sp)
 844              		.cfi_offset 8, -8
 845 0360 13040101 		addi	s0,sp,16
 846              		.cfi_def_cfa 8, 0
 143:src/syscall_c.cpp ****     __asm__ volatile("mv a1, %0"::"r"(id));
 847              		.loc 1 143 5
 848              		.loc 1 143 43 is_stmt 0
 849              	#APP
 850              	# 143 "src/syscall_c.cpp" 1
 144              	    __asm__ volatile("mv a0, %0"::"r"(SEM_SIGNAL));
 851              		mv a1, a0
 852              	# 0 "" 2
 853              		.loc 1 144 5 is_stmt 1
 854              		.loc 1 144 51 is_stmt 0
 855              	#NO_APP
 856 0368 93074002 		li	a5,36
 857              	#APP
 858              	# 144 "src/syscall_c.cpp" 1
 145              	    __asm__ volatile("ecall");
 859              		mv a0, a5
 860              	# 0 "" 2
 861              		.loc 1 145 5 is_stmt 1
 862              		.loc 1 145 30 is_stmt 0
 863              	# 145 "src/syscall_c.cpp" 1
 146              	
 147:src/syscall_c.cpp ****     uint64 retVal;
 864              		ecall
 865              	# 0 "" 2
 866              		.loc 1 147 5 is_stmt 1
 148:src/syscall_c.cpp ****     __asm__ volatile ("mv %0, a0":"=r"(retVal));
 867              		.loc 1 148 5
 868              		.loc 1 148 48 is_stmt 0
 869              	# 148 "src/syscall_c.cpp" 1
 149              	    if(retVal==0)return 0;
 870              		mv a5, a0
 871              	# 0 "" 2
 872              	.LVL61:
 873              		.loc 1 149 5 is_stmt 1
 874              	#NO_APP
 875 0378 639A0700 		bnez	a5,.L57
 876              		.loc 1 149 25 is_stmt 0
 877 037c 13050000 		li	a0,0
 878              	.LVL62:
 879              	.L56:
GAS LISTING /tmp/ccBCYdr8.s 			page 19


 150:src/syscall_c.cpp ****     else return -22;
 151:src/syscall_c.cpp **** }
 880              		.loc 1 151 1
 881 0380 03348100 		ld	s0,8(sp)
 882              		.cfi_remember_state
 883              		.cfi_restore 8
 884              		.cfi_def_cfa 2, 16
 885 0384 13010101 		addi	sp,sp,16
 886              		.cfi_def_cfa_offset 0
 887 0388 67800000 		jr	ra
 888              	.LVL63:
 889              	.L57:
 890              		.cfi_restore_state
 150:src/syscall_c.cpp ****     else return -22;
 891              		.loc 1 150 18
 892 038c 1305A0FE 		li	a0,-22
 893              	.LVL64:
 894 0390 6FF01FFF 		j	.L56
 895              		.cfi_endproc
 896              	.LFE98:
 898              		.align	2
 899              		.globl	_Z4getcv
 901              	_Z4getcv:
 902              	.LFB99:
 152:src/syscall_c.cpp **** 
 153:src/syscall_c.cpp **** char getc(){
 903              		.loc 1 153 12 is_stmt 1
 904              		.cfi_startproc
 905 0394 130101FF 		addi	sp,sp,-16
 906              		.cfi_def_cfa_offset 16
 907 0398 23348100 		sd	s0,8(sp)
 908              		.cfi_offset 8, -8
 909 039c 13040101 		addi	s0,sp,16
 910              		.cfi_def_cfa 8, 0
 154:src/syscall_c.cpp ****     __asm__ volatile("mv a0, %0"::"r"(GETC));
 911              		.loc 1 154 5
 912              		.loc 1 154 45 is_stmt 0
 913 03a0 93071004 		li	a5,65
 914              	#APP
 915              	# 154 "src/syscall_c.cpp" 1
 155              	    __asm__ volatile("ecall");
 916              		mv a0, a5
 917              	# 0 "" 2
 918              		.loc 1 155 5 is_stmt 1
 919              		.loc 1 155 30 is_stmt 0
 920              	# 155 "src/syscall_c.cpp" 1
 156              	    uint64  retVal;
 921              		ecall
 922              	# 0 "" 2
 923              		.loc 1 156 5 is_stmt 1
 157:src/syscall_c.cpp ****     __asm__ volatile ("mv %0, a0":"=r"(retVal));
 924              		.loc 1 157 5
 925              		.loc 1 157 48 is_stmt 0
 926              	# 157 "src/syscall_c.cpp" 1
 158              	   char ret= (char)retVal;
 927              		mv a0, a0
 928              	# 0 "" 2
GAS LISTING /tmp/ccBCYdr8.s 			page 20


 929              	.LVL65:
 930              		.loc 1 158 4 is_stmt 1
 159:src/syscall_c.cpp ****     return  ret;
 931              		.loc 1 159 5
 160:src/syscall_c.cpp **** 
 161:src/syscall_c.cpp **** }
 932              		.loc 1 161 1 is_stmt 0
 933              	#NO_APP
 934 03b0 1375F50F 		andi	a0,a0,0xff
 935              	.LVL66:
 936 03b4 03348100 		ld	s0,8(sp)
 937              		.cfi_restore 8
 938              		.cfi_def_cfa 2, 16
 939 03b8 13010101 		addi	sp,sp,16
 940              		.cfi_def_cfa_offset 0
 941 03bc 67800000 		jr	ra
 942              		.cfi_endproc
 943              	.LFE99:
 945              		.align	2
 946              		.globl	_Z4putcc
 948              	_Z4putcc:
 949              	.LFB100:
 162:src/syscall_c.cpp **** void putc(char cha){
 950              		.loc 1 162 20 is_stmt 1
 951              		.cfi_startproc
 952              	.LVL67:
 953 03c0 130101FF 		addi	sp,sp,-16
 954              		.cfi_def_cfa_offset 16
 955 03c4 23348100 		sd	s0,8(sp)
 956              		.cfi_offset 8, -8
 957 03c8 13040101 		addi	s0,sp,16
 958              		.cfi_def_cfa 8, 0
 163:src/syscall_c.cpp ****     __asm__ volatile("mv a1, %0"::"r"(cha));
 959              		.loc 1 163 5
 960              		.loc 1 163 44 is_stmt 0
 961              	#APP
 962              	# 163 "src/syscall_c.cpp" 1
 164              	    __asm__ volatile("mv a0, %0"::"r"(PUTC));
 963              		mv a1, a0
 964              	# 0 "" 2
 965              		.loc 1 164 5 is_stmt 1
 966              		.loc 1 164 45 is_stmt 0
 967              	#NO_APP
 968 03d0 93072004 		li	a5,66
 969              	#APP
 970              	# 164 "src/syscall_c.cpp" 1
 165              	    __asm__ volatile("ecall");
 971              		mv a0, a5
 972              	# 0 "" 2
 973              		.loc 1 165 5 is_stmt 1
 974              		.loc 1 165 30 is_stmt 0
 975              	# 165 "src/syscall_c.cpp" 1
 166              	
 167:src/syscall_c.cpp **** }
 976              		ecall
 977              	# 0 "" 2
 978              		.loc 1 167 1
GAS LISTING /tmp/ccBCYdr8.s 			page 21


 979              	#NO_APP
 980 03dc 03348100 		ld	s0,8(sp)
 981              		.cfi_restore 8
 982              		.cfi_def_cfa 2, 16
 983 03e0 13010101 		addi	sp,sp,16
 984              		.cfi_def_cfa_offset 0
 985 03e4 67800000 		jr	ra
 986              		.cfi_endproc
 987              	.LFE100:
 989              		.align	2
 990              		.globl	_Z10time_sleepm
 992              	_Z10time_sleepm:
 993              	.LFB101:
 168:src/syscall_c.cpp **** 
 169:src/syscall_c.cpp **** int time_sleep(time_t time){
 994              		.loc 1 169 28 is_stmt 1
 995              		.cfi_startproc
 996              	.LVL68:
 997 03e8 130101FF 		addi	sp,sp,-16
 998              		.cfi_def_cfa_offset 16
 999 03ec 23348100 		sd	s0,8(sp)
 1000              		.cfi_offset 8, -8
 1001 03f0 13040101 		addi	s0,sp,16
 1002              		.cfi_def_cfa 8, 0
 170:src/syscall_c.cpp ****     if(time==0)return 0;
 1003              		.loc 1 170 5
 1004 03f4 63060502 		beqz	a0,.L65
 171:src/syscall_c.cpp ****     __asm__ volatile("mv a1, %0"::"r"(time));
 1005              		.loc 1 171 5
 1006              		.loc 1 171 45 is_stmt 0
 1007              	#APP
 1008              	# 171 "src/syscall_c.cpp" 1
 172              	    __asm__ volatile("mv a0, %0"::"r"(TIME_SLEEP));
 1009              		mv a1, a0
 1010              	# 0 "" 2
 1011              		.loc 1 172 5 is_stmt 1
 1012              		.loc 1 172 51 is_stmt 0
 1013              	#NO_APP
 1014 03fc 93071003 		li	a5,49
 1015              	#APP
 1016              	# 172 "src/syscall_c.cpp" 1
 173              	    __asm__ volatile("ecall");
 1017              		mv a0, a5
 1018              	# 0 "" 2
 1019              		.loc 1 173 5 is_stmt 1
 1020              		.loc 1 173 30 is_stmt 0
 1021              	# 173 "src/syscall_c.cpp" 1
 174              	    uint64  retVal;
 1022              		ecall
 1023              	# 0 "" 2
 1024              		.loc 1 174 5 is_stmt 1
 175:src/syscall_c.cpp ****     __asm__ volatile ("mv %0, a0":"=r"(retVal));
 1025              		.loc 1 175 5
 1026              		.loc 1 175 48 is_stmt 0
 1027              	# 175 "src/syscall_c.cpp" 1
 176              	    if(retVal==0)return 0;
 1028              		mv a5, a0
GAS LISTING /tmp/ccBCYdr8.s 			page 22


 1029              	# 0 "" 2
 1030              	.LVL69:
 1031              		.loc 1 176 5 is_stmt 1
 1032              	#NO_APP
 1033 040c 639E0700 		bnez	a5,.L66
 1034              		.loc 1 176 25 is_stmt 0
 1035 0410 13050000 		li	a0,0
 1036              	.LVL70:
 1037              	.L64:
 177:src/syscall_c.cpp ****     else return -15;
 178:src/syscall_c.cpp **** }
 1038              		.loc 1 178 1
 1039 0414 03348100 		ld	s0,8(sp)
 1040              		.cfi_remember_state
 1041              		.cfi_restore 8
 1042              		.cfi_def_cfa 2, 16
 1043 0418 13010101 		addi	sp,sp,16
 1044              		.cfi_def_cfa_offset 0
 1045 041c 67800000 		jr	ra
 1046              	.LVL71:
 1047              	.L65:
 1048              		.cfi_restore_state
 170:src/syscall_c.cpp ****     __asm__ volatile("mv a1, %0"::"r"(time));
 1049              		.loc 1 170 23
 1050 0420 13050000 		li	a0,0
 1051              	.LVL72:
 1052 0424 6FF01FFF 		j	.L64
 1053              	.LVL73:
 1054              	.L66:
 177:src/syscall_c.cpp ****     else return -15;
 1055              		.loc 1 177 18
 1056 0428 130510FF 		li	a0,-15
 1057              	.LVL74:
 1058 042c 6FF09FFE 		j	.L64
 1059              		.cfi_endproc
 1060              	.LFE101:
 1062              		.align	2
 1063              		.globl	_Z11thread_joinm
 1065              	_Z11thread_joinm:
 1066              	.LFB102:
 179:src/syscall_c.cpp **** void thread_join(time_t handle){
 1067              		.loc 1 179 32 is_stmt 1
 1068              		.cfi_startproc
 1069              	.LVL75:
 1070 0430 130101FF 		addi	sp,sp,-16
 1071              		.cfi_def_cfa_offset 16
 1072 0434 23348100 		sd	s0,8(sp)
 1073              		.cfi_offset 8, -8
 1074 0438 13040101 		addi	s0,sp,16
 1075              		.cfi_def_cfa 8, 0
 180:src/syscall_c.cpp ****     __asm__ volatile ("mv a1, %0"::"r"(handle));
 1076              		.loc 1 180 5
 1077              		.loc 1 180 48 is_stmt 0
 1078              	#APP
 1079              	# 180 "src/syscall_c.cpp" 1
 181              	    __asm__ volatile ("mv a0, %0"::"r"(THREAD_JOIN));
 1080              		mv a1, a0
GAS LISTING /tmp/ccBCYdr8.s 			page 23


 1081              	# 0 "" 2
 1082              		.loc 1 181 5 is_stmt 1
 1083              		.loc 1 181 53 is_stmt 0
 1084              	#NO_APP
 1085 0440 93076001 		li	a5,22
 1086              	#APP
 1087              	# 181 "src/syscall_c.cpp" 1
 182              	    __asm__ volatile ("ecall");
 1088              		mv a0, a5
 1089              	# 0 "" 2
 1090              		.loc 1 182 5 is_stmt 1
 1091              		.loc 1 182 31 is_stmt 0
 1092              	# 182 "src/syscall_c.cpp" 1
 183              	}...
 1093              		ecall
 1094              	# 0 "" 2
 1095              		.loc 1 183 1
 1096              	#NO_APP
 1097 044c 03348100 		ld	s0,8(sp)
 1098              		.cfi_restore 8
 1099              		.cfi_def_cfa 2, 16
 1100 0450 13010101 		addi	sp,sp,16
 1101              		.cfi_def_cfa_offset 0
 1102 0454 67800000 		jr	ra
 1103              		.cfi_endproc
 1104              	.LFE102:
 1106              	.Letext0:
 1107              		.file 2 "src/../h/../lib/hw.h"
 1108              		.file 3 "src/../h/syscall_c.hpp"
 1109              		.file 4 "src/../h/tcb.hpp"
 1110              		.file 5 "src/../h/_sem.hpp"
 1111              		.file 6 "src/../h/list.hpp"
 1112              		.file 7 "src/../h/MyWaitList.hpp"
 1113              		.file 8 "src/../h/globals.hpp"
 1114              		.file 9 "src/../h/../lib/mem.h"
GAS LISTING /tmp/ccBCYdr8.s 			page 24

