GAS LISTING /tmp/ccS1nm3Y.s 			page 1


   1              		.file	"tcb.cpp"
   2              		.option pic
   3              		.option norelax
   4              		.text
   5              	.Ltext0:
   6              		.align	2
   7              		.globl	_ZN3TCB13threadWrapperEv
   9              	_ZN3TCB13threadWrapperEv:
  10              	.LFB95:
  11              		.file 1 "src/tcb.cpp"
   1:src/tcb.cpp   **** //
   2:src/tcb.cpp   **** // Created by os on 7/30/22.
   3:src/tcb.cpp   **** //
   4:src/tcb.cpp   **** 
   5:src/tcb.cpp   **** #include "../h/tcb.hpp"
   6:src/tcb.cpp   **** #include "../h/riscv.hpp"
   7:src/tcb.cpp   **** #include "../h/scheduler.hpp"
   8:src/tcb.cpp   **** #include "../h/syscall_c.hpp"
   9:src/tcb.cpp   **** #include "../h/globals.hpp"
  10:src/tcb.cpp   **** #include "../lib/mem.h"
  11:src/tcb.cpp   **** #include "../h/print.hpp"
  12:src/tcb.cpp   **** #include "../h/TimeList.hpp"
  13:src/tcb.cpp   **** uint64 TCB::timeSliceCounter=0;
  14:src/tcb.cpp   **** TCB *TCB::running= nullptr;
  15:src/tcb.cpp   **** TCB *TCB::idle = nullptr;
  16:src/tcb.cpp   **** TCB *TCB::kernel= nullptr;
  17:src/tcb.cpp   **** TCB *TCB::outputTh= nullptr;
  18:src/tcb.cpp   **** TCB *TCB::initThreadWithRun(Body body,void*arg,uint64*stack) {
  19:src/tcb.cpp   ****     TCB*tcb= new TCB(body,arg,stack);
  20:src/tcb.cpp   ****     tcb->status.delAll();
  21:src/tcb.cpp   ****     tcb->status.setReady();
  22:src/tcb.cpp   ****     Scheduler::put(tcb);
  23:src/tcb.cpp   ****     return tcb;
  24:src/tcb.cpp   **** }
  25:src/tcb.cpp   **** TCB* TCB::initThreadWithNoRun(Body body, void *arg, uint64 *stack) {
  26:src/tcb.cpp   ****     return new TCB(body,arg,stack);
  27:src/tcb.cpp   **** }
  28:src/tcb.cpp   **** TCB* TCB::getKernel() {
  29:src/tcb.cpp   ****     if(kernel)return kernel;
  30:src/tcb.cpp   ****    kernel=new TCB();
  31:src/tcb.cpp   ****    kernel->id=1;
  32:src/tcb.cpp   ****     kernel->status.setSystematic();
  33:src/tcb.cpp   ****     running=kernel;
  34:src/tcb.cpp   ****     return kernel;
  35:src/tcb.cpp   **** }
  36:src/tcb.cpp   **** void TCB::dispatch(){
  37:src/tcb.cpp   **** 
  38:src/tcb.cpp   ****     TCB* old= running;
  39:src/tcb.cpp   ****     if(old->status.getRunning()) {
  40:src/tcb.cpp   ****         old->status.delAll();
  41:src/tcb.cpp   ****         old->status.setReady();
  42:src/tcb.cpp   ****         Scheduler::put(old);
  43:src/tcb.cpp   ****     }
  44:src/tcb.cpp   ****     running = Scheduler::get();
  45:src/tcb.cpp   ****     if(running){
  46:src/tcb.cpp   ****         running->status.delAll();
  47:src/tcb.cpp   ****         running->status.setRunning();
GAS LISTING /tmp/ccS1nm3Y.s 			page 2


  48:src/tcb.cpp   ****     }else{
  49:src/tcb.cpp   ****         running=idle;
  50:src/tcb.cpp   ****     }
  51:src/tcb.cpp   ****     Riscv::Rest_Priv();
  52:src/tcb.cpp   ****     TCB::contextSwitch(&old->context, &running->context);
  53:src/tcb.cpp   **** }
  54:src/tcb.cpp   **** 
  55:src/tcb.cpp   **** void TCB::threadWrapper() {
  12              		.loc 1 55 27
  13              		.cfi_startproc
  14 0000 130101FF 		addi	sp,sp,-16
  15              		.cfi_def_cfa_offset 16
  16 0004 23341100 		sd	ra,8(sp)
  17 0008 23308100 		sd	s0,0(sp)
  18              		.cfi_offset 1, -8
  19              		.cfi_offset 8, -16
  20 000c 13040101 		addi	s0,sp,16
  21              		.cfi_def_cfa 8, 0
  56:src/tcb.cpp   ****     Riscv::popSppSpie();
  22              		.loc 1 56 5
  23              		.loc 1 56 22 is_stmt 0
  24 0010 97000000 		call	_ZN5Riscv10popSppSpieEv@plt
  24      E7800000 
  25              	.LVL0:
  57:src/tcb.cpp   ****     running->body(running->arg);
  26              		.loc 1 57 5 is_stmt 1
  27              		.loc 1 57 14 is_stmt 0
  28 0018 97070000 		ld	a5,.LANCHOR0
  28      83B70700 
  29 0020 03B78700 		ld	a4,8(a5)
  30              		.loc 1 57 18
  31 0024 03B50703 		ld	a0,48(a5)
  32 0028 E7000700 		jalr	a4
  33              	.LVL1:
  58:src/tcb.cpp   ****     thread_exit();
  34              		.loc 1 58 5 is_stmt 1
  35              		.loc 1 58 16 is_stmt 0
  36 002c 97000000 		call	_Z11thread_exitv@plt
  36      E7800000 
  37              	.LVL2:
  59:src/tcb.cpp   **** }
  38              		.loc 1 59 1
  39 0034 83308100 		ld	ra,8(sp)
  40              		.cfi_restore 1
  41 0038 03340100 		ld	s0,0(sp)
  42              		.cfi_restore 8
  43              		.cfi_def_cfa 2, 16
  44 003c 13010101 		addi	sp,sp,16
  45              		.cfi_def_cfa_offset 0
  46 0040 67800000 		jr	ra
  47              		.cfi_endproc
  48              	.LFE95:
  50              		.align	2
  51              		.globl	_ZN3TCB11idleWrapperEPv
  53              	_ZN3TCB11idleWrapperEPv:
  54              	.LFB98:
  60:src/tcb.cpp   **** 
GAS LISTING /tmp/ccS1nm3Y.s 			page 3


  61:src/tcb.cpp   **** int TCB::start() {
  62:src/tcb.cpp   **** 
  63:src/tcb.cpp   ****     if(!status.getCreated()) return -1;
  64:src/tcb.cpp   ****     status.delAll();
  65:src/tcb.cpp   ****     status.setReady();
  66:src/tcb.cpp   ****     Scheduler::put(this);
  67:src/tcb.cpp   ****     return 0;
  68:src/tcb.cpp   **** }
  69:src/tcb.cpp   **** TCB* TCB::getIdle() {
  70:src/tcb.cpp   **** 
  71:src/tcb.cpp   ****     if(!idle) {
  72:src/tcb.cpp   **** 
  73:src/tcb.cpp   ****         idle = initThreadWithNoRun(idleWrapper, nullptr, (uint64 *) __mem_alloc(sizeof(uint64) * DE
  74:src/tcb.cpp   ****         idle->status.delAll();
  75:src/tcb.cpp   ****         idle->status.setIdle();
  76:src/tcb.cpp   ****         idle->status.setSystematic();
  77:src/tcb.cpp   ****         idle->id=1;
  78:src/tcb.cpp   ****     }
  79:src/tcb.cpp   ****     return idle;
  80:src/tcb.cpp   **** }
  81:src/tcb.cpp   **** 
  82:src/tcb.cpp   **** void TCB::idleWrapper(void*) {
  55              		.loc 1 82 30 is_stmt 1
  56              		.cfi_startproc
  57 0044 130101FF 		addi	sp,sp,-16
  58              		.cfi_def_cfa_offset 16
  59 0048 23341100 		sd	ra,8(sp)
  60 004c 23308100 		sd	s0,0(sp)
  61              		.cfi_offset 1, -8
  62              		.cfi_offset 8, -16
  63 0050 13040101 		addi	s0,sp,16
  64              		.cfi_def_cfa 8, 0
  65              	.L4:
  83:src/tcb.cpp   **** 
  84:src/tcb.cpp   ****     while(true){
  66              		.loc 1 84 5 discriminator 1
  85:src/tcb.cpp   **** 
  86:src/tcb.cpp   ****         thread_dispatch();
  67              		.loc 1 86 9 discriminator 1
  68              		.loc 1 86 24 is_stmt 0 discriminator 1
  69 0054 97000000 		call	_Z15thread_dispatchv@plt
  69      E7800000 
  70              	.LVL3:
  84:src/tcb.cpp   **** 
  71              		.loc 1 84 5 is_stmt 1 discriminator 1
  72 005c 6FF09FFF 		j	.L4
  73              		.cfi_endproc
  74              	.LFE98:
  76              		.align	2
  77              		.globl	_ZN3TCB15outputThWrapperEPv
  79              	_ZN3TCB15outputThWrapperEPv:
  80              	.LFB104:
  87:src/tcb.cpp   **** 
  88:src/tcb.cpp   ****     }
  89:src/tcb.cpp   **** 
  90:src/tcb.cpp   **** }
  91:src/tcb.cpp   **** int TCB::exit() {
GAS LISTING /tmp/ccS1nm3Y.s 			page 4


  92:src/tcb.cpp   ****     if(!running->status.getRunning())return -1;
  93:src/tcb.cpp   ****     running->status.delAll();
  94:src/tcb.cpp   ****     running->status.setFinished();
  95:src/tcb.cpp   ****     dispatch();
  96:src/tcb.cpp   ****     return 0;
  97:src/tcb.cpp   **** }
  98:src/tcb.cpp   **** 
  99:src/tcb.cpp   **** int TCB::wait() {
 100:src/tcb.cpp   ****     if(!running->status.getRunning())return -1;
 101:src/tcb.cpp   ****     running->status.delAll();
 102:src/tcb.cpp   ****     running->status.setWaiting();
 103:src/tcb.cpp   ****     dispatch();
 104:src/tcb.cpp   ****     return 0;
 105:src/tcb.cpp   **** }
 106:src/tcb.cpp   **** int TCB::releaseWaiting() {
 107:src/tcb.cpp   ****     if(!status.getWaiting())return -1;
 108:src/tcb.cpp   ****     status.delAll();
 109:src/tcb.cpp   ****     status.setReady();
 110:src/tcb.cpp   ****     Scheduler::put(this);
 111:src/tcb.cpp   ****     return 0;
 112:src/tcb.cpp   **** }
 113:src/tcb.cpp   **** 
 114:src/tcb.cpp   **** int TCB::sleep(time_t tm) {
 115:src/tcb.cpp   ****     if(!running->status.getRunning())return -1;
 116:src/tcb.cpp   **** 
 117:src/tcb.cpp   ****     running->status.delAll();
 118:src/tcb.cpp   ****     running->status.setSleeping();
 119:src/tcb.cpp   ****     Riscv::timelist->add(running,tm);
 120:src/tcb.cpp   ****     dispatch();
 121:src/tcb.cpp   **** 
 122:src/tcb.cpp   ****     return 0;
 123:src/tcb.cpp   **** }
 124:src/tcb.cpp   **** TCB * TCB::getOutputTh() {
 125:src/tcb.cpp   ****     if(outputTh)return outputTh;
 126:src/tcb.cpp   ****     outputTh= initThreadWithRun(outputThWrapper, nullptr, (uint64*)__mem_alloc(sizeof(uint64) * DEF
 127:src/tcb.cpp   ****     outputTh->status.setSystematic();
 128:src/tcb.cpp   ****     outputTh->id=1;
 129:src/tcb.cpp   ****     return outputTh;
 130:src/tcb.cpp   **** }
 131:src/tcb.cpp   **** void TCB::outputThWrapper(void *) {
  81              		.loc 1 131 35
  82              		.cfi_startproc
  83              	.L10:
 132:src/tcb.cpp   ****     while(true){
  84              		.loc 1 132 5
  85              	.LBB98:
 133:src/tcb.cpp   ****         while (*((char*)CONSOLE_STATUS) & CONSOLE_TX_STATUS_BIT){
  86              		.loc 1 133 9
  87              		.loc 1 133 43
  88              		.loc 1 133 16 is_stmt 0
  89 0060 97070000 		la	a5,CONSOLE_STATUS
  89      83B70700 
  90 0068 83B70700 		ld	a5,0(a5)
  91 006c 83C70700 		lbu	a5,0(a5)
  92              		.loc 1 133 43
  93 0070 93F70702 		andi	a5,a5,32
  94 0074 E38607FE 		beqz	a5,.L10
GAS LISTING /tmp/ccS1nm3Y.s 			page 5


  95              	.LBE98:
 131:src/tcb.cpp   ****     while(true){
  96              		.loc 1 131 35
  97 0078 130101FF 		addi	sp,sp,-16
  98              		.cfi_def_cfa_offset 16
  99 007c 23341100 		sd	ra,8(sp)
 100 0080 23308100 		sd	s0,0(sp)
 101              		.cfi_offset 1, -8
 102              		.cfi_offset 8, -16
 103 0084 13040101 		addi	s0,sp,16
 104              		.cfi_def_cfa 8, 0
 105              	.L11:
 106              	.LBB100:
 107              	.LBB99:
 134:src/tcb.cpp   ****             char inpChar = Riscv::bufferOut->get();
 108              		.loc 1 134 13 is_stmt 1
 109              		.loc 1 134 49 is_stmt 0
 110 0088 97070000 		la	a5,_ZN5Riscv9bufferOutE
 110      83B70700 
 111 0090 03B50700 		ld	a0,0(a5)
 112 0094 97000000 		call	_ZN7_Buffer3getEv@plt
 112      E7800000 
 113              	.LVL4:
 135:src/tcb.cpp   ****             *((char*)CONSOLE_TX_DATA)=inpChar;
 114              		.loc 1 135 13 is_stmt 1
 115 009c 97070000 		la	a5,CONSOLE_TX_DATA
 115      83B70700 
 116 00a4 83B70700 		ld	a5,0(a5)
 117              		.loc 1 135 38 is_stmt 0
 118 00a8 2380A700 		sb	a0,0(a5)
 119              	.L7:
 120              	.LBE99:
 121              	.LBE100:
 132:src/tcb.cpp   ****         while (*((char*)CONSOLE_STATUS) & CONSOLE_TX_STATUS_BIT){
 122              		.loc 1 132 5 is_stmt 1
 123              	.LBB101:
 133:src/tcb.cpp   ****             char inpChar = Riscv::bufferOut->get();
 124              		.loc 1 133 9
 133:src/tcb.cpp   ****             char inpChar = Riscv::bufferOut->get();
 125              		.loc 1 133 43
 133:src/tcb.cpp   ****             char inpChar = Riscv::bufferOut->get();
 126              		.loc 1 133 16 is_stmt 0
 127 00ac 97070000 		la	a5,CONSOLE_STATUS
 127      83B70700 
 128 00b4 83B70700 		ld	a5,0(a5)
 129 00b8 83C70700 		lbu	a5,0(a5)
 133:src/tcb.cpp   ****             char inpChar = Riscv::bufferOut->get();
 130              		.loc 1 133 43
 131 00bc 93F70702 		andi	a5,a5,32
 132 00c0 E38607FE 		beqz	a5,.L7
 133 00c4 6FF05FFC 		j	.L11
 134              	.LBE101:
 135              		.cfi_endproc
 136              	.LFE104:
 138              		.align	2
 139              		.globl	_ZN3TCB17initThreadWithRunEPFvPvES0_Pm
 141              	_ZN3TCB17initThreadWithRunEPFvPvES0_Pm:
GAS LISTING /tmp/ccS1nm3Y.s 			page 6


 142              	.LFB91:
  18:src/tcb.cpp   ****     TCB*tcb= new TCB(body,arg,stack);
 143              		.loc 1 18 62 is_stmt 1
 144              		.cfi_startproc
 145              	.LVL5:
 146 00c8 130101FD 		addi	sp,sp,-48
 147              		.cfi_def_cfa_offset 48
 148 00cc 23341102 		sd	ra,40(sp)
 149 00d0 23308102 		sd	s0,32(sp)
 150 00d4 233C9100 		sd	s1,24(sp)
 151 00d8 23382101 		sd	s2,16(sp)
 152 00dc 23343101 		sd	s3,8(sp)
 153 00e0 23304101 		sd	s4,0(sp)
 154              		.cfi_offset 1, -8
 155              		.cfi_offset 8, -16
 156              		.cfi_offset 9, -24
 157              		.cfi_offset 18, -32
 158              		.cfi_offset 19, -40
 159              		.cfi_offset 20, -48
 160 00e4 13040103 		addi	s0,sp,48
 161              		.cfi_def_cfa 8, 0
 162 00e8 130A0500 		mv	s4,a0
 163 00ec 93890500 		mv	s3,a1
 164 00f0 13090600 		mv	s2,a2
  19:src/tcb.cpp   ****     tcb->status.delAll();
 165              		.loc 1 19 5
 166              	.LVL6:
 167              	.LBB102:
 168              	.LBB103:
 169              		.file 2 "src/../h/tcb.hpp"
   1:src/../h/tcb.hpp **** //
   2:src/../h/tcb.hpp **** // Created by os on 7/30/22.
   3:src/../h/tcb.hpp **** //
   4:src/../h/tcb.hpp **** 
   5:src/../h/tcb.hpp **** #ifndef OSPROJECT_TCB_HPP
   6:src/../h/tcb.hpp **** #define OSPROJECT_TCB_HPP
   7:src/../h/tcb.hpp **** 
   8:src/../h/tcb.hpp **** #include "../lib/hw.h"
   9:src/../h/tcb.hpp **** #include "scheduler.hpp"
  10:src/../h/tcb.hpp **** #include "../lib/mem.h"
  11:src/../h/tcb.hpp **** class TCB{
  12:src/../h/tcb.hpp **** 
  13:src/../h/tcb.hpp **** public:
  14:src/../h/tcb.hpp ****     ~TCB(){delete[] stack;}
  15:src/../h/tcb.hpp ****     using Body = void (*)(void*);
  16:src/../h/tcb.hpp ****     static TCB *initThreadWithRun(Body body,void *arg,uint64*stack);
  17:src/../h/tcb.hpp ****     static TCB *initThreadWithNoRun(Body body , void*arg,uint64*stack);
  18:src/../h/tcb.hpp ****     static TCB* running;
  19:src/../h/tcb.hpp ****     static TCB* idle;
  20:src/../h/tcb.hpp ****     static TCB * kernel;
  21:src/../h/tcb.hpp ****     static TCB * outputTh;
  22:src/../h/tcb.hpp ****     int id=0;
  23:src/../h/tcb.hpp ****     bool isFinished(){
  24:src/../h/tcb.hpp ****         return status.getFinished();
  25:src/../h/tcb.hpp ****     }
  26:src/../h/tcb.hpp ****     uint64 getTimeSlice(){return timeSlice;}
  27:src/../h/tcb.hpp ****     static TCB* getIdle();
GAS LISTING /tmp/ccS1nm3Y.s 			page 7


  28:src/../h/tcb.hpp ****     static TCB* getKernel();
  29:src/../h/tcb.hpp ****     static TCB* getOutputTh();
  30:src/../h/tcb.hpp ****     int start();
  31:src/../h/tcb.hpp ****     void *operator new(size_t size) { return __mem_alloc(size); }
 170              		.loc 2 31 39
 171              		.loc 2 31 57 is_stmt 0
 172 00f4 13050004 		li	a0,64
 173              	.LVL7:
 174 00f8 97000000 		call	__mem_alloc@plt
 174      E7800000 
 175              	.LVL8:
 176 0100 93040500 		mv	s1,a0
 177              	.LVL9:
 178              	.LBE103:
 179              	.LBE102:
 180              	.LBB104:
 181              	.LBB105:
  32:src/../h/tcb.hpp ****     void operator delete(void *ptr) { __mem_free(ptr); }
  33:src/../h/tcb.hpp **** private:
  34:src/../h/tcb.hpp ****     explicit TCB(Body body,void *arg, uint64 *stack):
  35:src/../h/tcb.hpp ****     body(body),
  36:src/../h/tcb.hpp ****     stack(stack),
  37:src/../h/tcb.hpp ****     arg(arg),
  38:src/../h/tcb.hpp ****     timeSlice(DEFAULT_TIME_SLICE)
 182              		.loc 2 38 33
 183 0104 23200500 		sw	zero,0(a0)
 184 0108 23344501 		sd	s4,8(a0)
 185 010c 23382501 		sd	s2,16(a0)
 186              	.LVL10:
 187              	.LBB106:
 188              	.LBB107:
  39:src/../h/tcb.hpp ****     {
  40:src/../h/tcb.hpp **** 
  41:src/../h/tcb.hpp ****         status.setCreated();
  42:src/../h/tcb.hpp ****         context={(uint64) &threadWrapper,
  43:src/../h/tcb.hpp ****                  (uint64) &stack[DEFAULT_STACK_SIZE]};
  44:src/../h/tcb.hpp ****     }
  45:src/../h/tcb.hpp **** 
  46:src/../h/tcb.hpp ****     explicit TCB(){
  47:src/../h/tcb.hpp ****         body= nullptr;
  48:src/../h/tcb.hpp ****         stack= nullptr;
  49:src/../h/tcb.hpp ****         arg= nullptr;
  50:src/../h/tcb.hpp ****         timeSlice=DEFAULT_TIME_SLICE;
  51:src/../h/tcb.hpp ****         context = {0, 0};
  52:src/../h/tcb.hpp ****         status.delAll();
  53:src/../h/tcb.hpp ****         status.setRunning();
  54:src/../h/tcb.hpp ****     }
  55:src/../h/tcb.hpp **** 
  56:src/../h/tcb.hpp ****     struct Context
  57:src/../h/tcb.hpp ****     {
  58:src/../h/tcb.hpp ****         uint64 ra;
  59:src/../h/tcb.hpp ****         uint64 sp;
  60:src/../h/tcb.hpp ****     };
  61:src/../h/tcb.hpp ****     struct Status{
 189              		.loc 2 61 12
 190 0110 23040502 		sb	zero,40(a0)
 191 0114 A3040502 		sb	zero,41(a0)
GAS LISTING /tmp/ccS1nm3Y.s 			page 8


 192 0118 23060502 		sb	zero,44(a0)
 193 011c A3060502 		sb	zero,45(a0)
 194 0120 23070502 		sb	zero,46(a0)
 195 0124 A3070502 		sb	zero,47(a0)
 196              	.LVL11:
 197              	.LBE107:
 198              	.LBE106:
  38:src/../h/tcb.hpp ****     {
 199              		.loc 2 38 33
 200 0128 23383503 		sd	s3,48(a0)
 201 012c 93072000 		li	a5,2
 202 0130 233CF502 		sd	a5,56(a0)
  41:src/../h/tcb.hpp ****         context={(uint64) &threadWrapper,
 203              		.loc 2 41 9 is_stmt 1
 204              	.LVL12:
 205              	.LBE105:
 206              	.LBE104:
  62:src/../h/tcb.hpp ****         bool FINISHED= false;
  63:src/../h/tcb.hpp ****         bool RUNNING = false;
  64:src/../h/tcb.hpp ****         bool READY= false;
  65:src/../h/tcb.hpp ****         bool CREATED= false;
  66:src/../h/tcb.hpp ****         bool WAITING= false;
  67:src/../h/tcb.hpp ****         bool SLEEPING= false;
  68:src/../h/tcb.hpp ****         bool IDLE= false;
  69:src/../h/tcb.hpp ****         bool SYSTEMATIC= false;
  70:src/../h/tcb.hpp ****     public:
  71:src/../h/tcb.hpp ****         void* operator new(size_t size){return __mem_alloc(size);}
  72:src/../h/tcb.hpp ****         void operator delete (void* ptr){ __mem_free(ptr);}
  73:src/../h/tcb.hpp ****         void setFinished(){FINISHED=true;}
  74:src/../h/tcb.hpp ****         void delFinished(){FINISHED= false;}
  75:src/../h/tcb.hpp ****         void setRunning(){RUNNING=true;}
  76:src/../h/tcb.hpp ****         void delRunning(){RUNNING= false;}
  77:src/../h/tcb.hpp ****         void setReady(){READY=true;}
  78:src/../h/tcb.hpp ****         void delReady(){READY= false;}
  79:src/../h/tcb.hpp ****         void setCreated(){CREATED=true;}
 207              		.loc 2 79 27
 208              	.LBB109:
 209              	.LBB108:
  42:src/../h/tcb.hpp ****                  (uint64) &stack[DEFAULT_STACK_SIZE]};
 210              		.loc 2 42 9
  43:src/../h/tcb.hpp ****     }
 211              		.loc 2 43 27 is_stmt 0
 212 0134 37860000 		li	a2,32768
 213 0138 3309C900 		add	s2,s2,a2
 214              	.LVL13:
  42:src/../h/tcb.hpp ****                  (uint64) &stack[DEFAULT_STACK_SIZE]};
 215              		.loc 2 42 16
 216 013c 97070000 		lla	a5,_ZN3TCB13threadWrapperEv
 216      93870700 
 217 0144 233CF500 		sd	a5,24(a0)
 218 0148 23302503 		sd	s2,32(a0)
 219              	.LVL14:
 220              	.LBE108:
 221              	.LBE109:
  20:src/tcb.cpp   ****     tcb->status.setReady();
 222              		.loc 1 20 5 is_stmt 1
 223              	.LBB110:
GAS LISTING /tmp/ccS1nm3Y.s 			page 9


 224              	.LBB111:
  80:src/../h/tcb.hpp ****         void delCreated(){CREATED= false;}
  81:src/../h/tcb.hpp ****         void setWaiting(){WAITING=true;}
  82:src/../h/tcb.hpp ****         void delWaiting(){WAITING= false;}
  83:src/../h/tcb.hpp ****         void setSleeping(){SLEEPING=true;}
  84:src/../h/tcb.hpp ****         void delSleeping(){SLEEPING= false;}
  85:src/../h/tcb.hpp ****         void setIdle(){IDLE=true;}
  86:src/../h/tcb.hpp ****         void delIdle(){IDLE= false;}
  87:src/../h/tcb.hpp ****         bool getFinished(){ return FINISHED;}
  88:src/../h/tcb.hpp ****         bool getRunning(){ return RUNNING;}
  89:src/../h/tcb.hpp ****         bool getReady(){return  READY;}
  90:src/../h/tcb.hpp ****         bool getCreated(){return CREATED;}
  91:src/../h/tcb.hpp ****         bool getWaiting(){return WAITING;}
  92:src/../h/tcb.hpp ****         bool getSleeping(){return SLEEPING;}
  93:src/../h/tcb.hpp ****         bool getIdle(){return IDLE;}
  94:src/../h/tcb.hpp ****         void setSystematic(){ SYSTEMATIC= true;}
  95:src/../h/tcb.hpp ****         bool getSystematic(){return  SYSTEMATIC;}
  96:src/../h/tcb.hpp ****         void delAll(){
  97:src/../h/tcb.hpp ****              FINISHED= false;
 225              		.loc 2 97 14
  98:src/../h/tcb.hpp ****              RUNNING = false;
 226              		.loc 2 98 14
  99:src/../h/tcb.hpp ****              READY= false;
 227              		.loc 2 99 14
 100:src/../h/tcb.hpp ****              CREATED= false;
 228              		.loc 2 100 14
 229              		.loc 2 100 21 is_stmt 0
 230 014c A3050502 		sb	zero,43(a0)
 101:src/../h/tcb.hpp ****              WAITING= false;
 231              		.loc 2 101 14 is_stmt 1
 102:src/../h/tcb.hpp ****              SLEEPING= false;
 232              		.loc 2 102 14
 233              	.LVL15:
 234              	.LBE111:
 235              	.LBE110:
  21:src/tcb.cpp   ****     Scheduler::put(tcb);
 236              		.loc 1 21 5
 237              	.LBB112:
 238              	.LBB113:
  77:src/../h/tcb.hpp ****         void delReady(){READY= false;}
 239              		.loc 2 77 25
  77:src/../h/tcb.hpp ****         void delReady(){READY= false;}
 240              		.loc 2 77 30 is_stmt 0
 241 0150 93071000 		li	a5,1
 242 0154 2305F502 		sb	a5,42(a0)
 243              	.LVL16:
 244              	.LBE113:
 245              	.LBE112:
  22:src/tcb.cpp   ****     return tcb;
 246              		.loc 1 22 5 is_stmt 1
  22:src/tcb.cpp   ****     return tcb;
 247              		.loc 1 22 19 is_stmt 0
 248 0158 97000000 		call	_ZN9Scheduler3putEP3TCB@plt
 248      E7800000 
 249              	.LVL17:
  23:src/tcb.cpp   **** }
 250              		.loc 1 23 5 is_stmt 1
GAS LISTING /tmp/ccS1nm3Y.s 			page 10


  24:src/tcb.cpp   **** TCB* TCB::initThreadWithNoRun(Body body, void *arg, uint64 *stack) {
 251              		.loc 1 24 1 is_stmt 0
 252 0160 13850400 		mv	a0,s1
 253 0164 83308102 		ld	ra,40(sp)
 254              		.cfi_restore 1
 255 0168 03340102 		ld	s0,32(sp)
 256              		.cfi_restore 8
 257              		.cfi_def_cfa 2, 48
 258 016c 83348101 		ld	s1,24(sp)
 259              		.cfi_restore 9
 260              	.LVL18:
 261 0170 03390101 		ld	s2,16(sp)
 262              		.cfi_restore 18
 263              	.LVL19:
 264 0174 83398100 		ld	s3,8(sp)
 265              		.cfi_restore 19
 266              	.LVL20:
 267 0178 033A0100 		ld	s4,0(sp)
 268              		.cfi_restore 20
 269              	.LVL21:
 270 017c 13010103 		addi	sp,sp,48
 271              		.cfi_def_cfa_offset 0
 272 0180 67800000 		jr	ra
 273              		.cfi_endproc
 274              	.LFE91:
 276              		.align	2
 277              		.globl	_ZN3TCB19initThreadWithNoRunEPFvPvES0_Pm
 279              	_ZN3TCB19initThreadWithNoRunEPFvPvES0_Pm:
 280              	.LFB92:
  25:src/tcb.cpp   ****     return new TCB(body,arg,stack);
 281              		.loc 1 25 68 is_stmt 1
 282              		.cfi_startproc
 283              	.LVL22:
 284 0184 130101FD 		addi	sp,sp,-48
 285              		.cfi_def_cfa_offset 48
 286 0188 23341102 		sd	ra,40(sp)
 287 018c 23308102 		sd	s0,32(sp)
 288 0190 233C9100 		sd	s1,24(sp)
 289 0194 23382101 		sd	s2,16(sp)
 290 0198 23343101 		sd	s3,8(sp)
 291              		.cfi_offset 1, -8
 292              		.cfi_offset 8, -16
 293              		.cfi_offset 9, -24
 294              		.cfi_offset 18, -32
 295              		.cfi_offset 19, -40
 296 019c 13040103 		addi	s0,sp,48
 297              		.cfi_def_cfa 8, 0
 298 01a0 93090500 		mv	s3,a0
 299 01a4 13890500 		mv	s2,a1
 300 01a8 93040600 		mv	s1,a2
  26:src/tcb.cpp   **** }
 301              		.loc 1 26 5
 302              	.LVL23:
 303              	.LBB114:
 304              	.LBB115:
  31:src/../h/tcb.hpp ****     void operator delete(void *ptr) { __mem_free(ptr); }
 305              		.loc 2 31 39
GAS LISTING /tmp/ccS1nm3Y.s 			page 11


  31:src/../h/tcb.hpp ****     void operator delete(void *ptr) { __mem_free(ptr); }
 306              		.loc 2 31 57 is_stmt 0
 307 01ac 13050004 		li	a0,64
 308              	.LVL24:
 309 01b0 97000000 		call	__mem_alloc@plt
 309      E7800000 
 310              	.LVL25:
 311              	.LBE115:
 312              	.LBE114:
 313              	.LBB116:
 314              	.LBB117:
  38:src/../h/tcb.hpp ****     {
 315              		.loc 2 38 33
 316 01b8 23200500 		sw	zero,0(a0)
 317 01bc 23343501 		sd	s3,8(a0)
 318 01c0 23389500 		sd	s1,16(a0)
 319              	.LVL26:
 320              	.LBB118:
 321              	.LBB119:
  61:src/../h/tcb.hpp ****         bool FINISHED= false;
 322              		.loc 2 61 12
 323 01c4 23040502 		sb	zero,40(a0)
 324 01c8 A3040502 		sb	zero,41(a0)
 325 01cc 23050502 		sb	zero,42(a0)
 326 01d0 23060502 		sb	zero,44(a0)
 327 01d4 A3060502 		sb	zero,45(a0)
 328 01d8 23070502 		sb	zero,46(a0)
 329 01dc A3070502 		sb	zero,47(a0)
 330              	.LVL27:
 331              	.LBE119:
 332              	.LBE118:
  38:src/../h/tcb.hpp ****     {
 333              		.loc 2 38 33
 334 01e0 23382503 		sd	s2,48(a0)
 335 01e4 13072000 		li	a4,2
 336 01e8 233CE502 		sd	a4,56(a0)
  41:src/../h/tcb.hpp ****         context={(uint64) &threadWrapper,
 337              		.loc 2 41 9 is_stmt 1
 338              	.LVL28:
 339              	.LBB120:
 340              	.LBB121:
  79:src/../h/tcb.hpp ****         void delCreated(){CREATED= false;}
 341              		.loc 2 79 27
  79:src/../h/tcb.hpp ****         void delCreated(){CREATED= false;}
 342              		.loc 2 79 34 is_stmt 0
 343 01ec 13071000 		li	a4,1
 344 01f0 A305E502 		sb	a4,43(a0)
 345              	.LVL29:
 346              	.LBE121:
 347              	.LBE120:
  42:src/../h/tcb.hpp ****                  (uint64) &stack[DEFAULT_STACK_SIZE]};
 348              		.loc 2 42 9 is_stmt 1
  43:src/../h/tcb.hpp ****     }
 349              		.loc 2 43 27 is_stmt 0
 350 01f4 37860000 		li	a2,32768
 351 01f8 B384C400 		add	s1,s1,a2
 352              	.LVL30:
GAS LISTING /tmp/ccS1nm3Y.s 			page 12


  42:src/../h/tcb.hpp ****                  (uint64) &stack[DEFAULT_STACK_SIZE]};
 353              		.loc 2 42 16
 354 01fc 17070000 		lla	a4,_ZN3TCB13threadWrapperEv
 354      13070700 
 355 0204 233CE500 		sd	a4,24(a0)
 356 0208 23309502 		sd	s1,32(a0)
 357              	.LVL31:
 358              	.LBE117:
 359              	.LBE116:
  27:src/tcb.cpp   **** TCB* TCB::getKernel() {
 360              		.loc 1 27 1
 361 020c 83308102 		ld	ra,40(sp)
 362              		.cfi_restore 1
 363 0210 03340102 		ld	s0,32(sp)
 364              		.cfi_restore 8
 365              		.cfi_def_cfa 2, 48
 366 0214 83348101 		ld	s1,24(sp)
 367              		.cfi_restore 9
 368 0218 03390101 		ld	s2,16(sp)
 369              		.cfi_restore 18
 370              	.LVL32:
 371 021c 83398100 		ld	s3,8(sp)
 372              		.cfi_restore 19
 373              	.LVL33:
 374 0220 13010103 		addi	sp,sp,48
 375              		.cfi_def_cfa_offset 0
 376 0224 67800000 		jr	ra
 377              		.cfi_endproc
 378              	.LFE92:
 380              		.align	2
 381              		.globl	_ZN3TCB9getKernelEv
 383              	_ZN3TCB9getKernelEv:
 384              	.LFB93:
  28:src/tcb.cpp   ****     if(kernel)return kernel;
 385              		.loc 1 28 23 is_stmt 1
 386              		.cfi_startproc
  29:src/tcb.cpp   ****    kernel=new TCB();
 387              		.loc 1 29 5
  29:src/tcb.cpp   ****    kernel=new TCB();
 388              		.loc 1 29 14 is_stmt 0
 389 0228 17050000 		ld	a0,.LANCHOR0+8
 389      03350500 
  29:src/tcb.cpp   ****    kernel=new TCB();
 390              		.loc 1 29 5
 391 0230 63040500 		beqz	a0,.L22
  35:src/tcb.cpp   **** void TCB::dispatch(){
 392              		.loc 1 35 1
 393 0234 67800000 		ret
 394              	.L22:
  28:src/tcb.cpp   ****     if(kernel)return kernel;
 395              		.loc 1 28 23
 396 0238 130101FF 		addi	sp,sp,-16
 397              		.cfi_def_cfa_offset 16
 398 023c 23341100 		sd	ra,8(sp)
 399 0240 23308100 		sd	s0,0(sp)
 400              		.cfi_offset 1, -8
 401              		.cfi_offset 8, -16
GAS LISTING /tmp/ccS1nm3Y.s 			page 13


 402 0244 13040101 		addi	s0,sp,16
 403              		.cfi_def_cfa 8, 0
  30:src/tcb.cpp   ****    kernel->id=1;
 404              		.loc 1 30 4 is_stmt 1
 405              	.LVL34:
 406              	.LBB122:
 407              	.LBB123:
  31:src/../h/tcb.hpp ****     void operator delete(void *ptr) { __mem_free(ptr); }
 408              		.loc 2 31 39
  31:src/../h/tcb.hpp ****     void operator delete(void *ptr) { __mem_free(ptr); }
 409              		.loc 2 31 57 is_stmt 0
 410 0248 13050004 		li	a0,64
 411 024c 97000000 		call	__mem_alloc@plt
 411      E7800000 
 412              	.LVL35:
 413              	.LBE123:
 414              	.LBE122:
 415              	.LBB124:
 416              	.LBB125:
 417              	.LBB126:
 418              	.LBB127:
  61:src/../h/tcb.hpp ****         bool FINISHED= false;
 419              		.loc 2 61 12
 420 0254 23040502 		sb	zero,40(a0)
 421 0258 23050502 		sb	zero,42(a0)
 422 025c A3050502 		sb	zero,43(a0)
 423 0260 23060502 		sb	zero,44(a0)
 424 0264 A3060502 		sb	zero,45(a0)
 425 0268 23070502 		sb	zero,46(a0)
 426 026c A3070502 		sb	zero,47(a0)
 427              	.LVL36:
 428              	.LBE127:
 429              	.LBE126:
  47:src/../h/tcb.hpp ****         stack= nullptr;
 430              		.loc 2 47 9 is_stmt 1
  47:src/../h/tcb.hpp ****         stack= nullptr;
 431              		.loc 2 47 13 is_stmt 0
 432 0270 23340500 		sd	zero,8(a0)
  48:src/../h/tcb.hpp ****         arg= nullptr;
 433              		.loc 2 48 9 is_stmt 1
  48:src/../h/tcb.hpp ****         arg= nullptr;
 434              		.loc 2 48 14 is_stmt 0
 435 0274 23380500 		sd	zero,16(a0)
  49:src/../h/tcb.hpp ****         timeSlice=DEFAULT_TIME_SLICE;
 436              		.loc 2 49 9 is_stmt 1
  49:src/../h/tcb.hpp ****         timeSlice=DEFAULT_TIME_SLICE;
 437              		.loc 2 49 12 is_stmt 0
 438 0278 23380502 		sd	zero,48(a0)
  50:src/../h/tcb.hpp ****         context = {0, 0};
 439              		.loc 2 50 9 is_stmt 1
  50:src/../h/tcb.hpp ****         context = {0, 0};
 440              		.loc 2 50 18 is_stmt 0
 441 027c 93072000 		li	a5,2
 442 0280 233CF502 		sd	a5,56(a0)
  51:src/../h/tcb.hpp ****         status.delAll();
 443              		.loc 2 51 9 is_stmt 1
  51:src/../h/tcb.hpp ****         status.delAll();
GAS LISTING /tmp/ccS1nm3Y.s 			page 14


 444              		.loc 2 51 17 is_stmt 0
 445 0284 233C0500 		sd	zero,24(a0)
 446 0288 23300502 		sd	zero,32(a0)
  52:src/../h/tcb.hpp ****         status.setRunning();
 447              		.loc 2 52 9 is_stmt 1
 448              	.LVL37:
 449              	.LBE125:
 450              	.LBE124:
  97:src/../h/tcb.hpp ****              RUNNING = false;
 451              		.loc 2 97 14
  98:src/../h/tcb.hpp ****              READY= false;
 452              		.loc 2 98 14
  99:src/../h/tcb.hpp ****              CREATED= false;
 453              		.loc 2 99 14
 100:src/../h/tcb.hpp ****              WAITING= false;
 454              		.loc 2 100 14
 101:src/../h/tcb.hpp ****              SLEEPING= false;
 455              		.loc 2 101 14
 456              		.loc 2 102 14
 457              	.LBB131:
 458              	.LBB130:
  53:src/../h/tcb.hpp ****     }
 459              		.loc 2 53 9
 460              	.LBB128:
 461              	.LBB129:
  75:src/../h/tcb.hpp ****         void delRunning(){RUNNING= false;}
 462              		.loc 2 75 27
  75:src/../h/tcb.hpp ****         void delRunning(){RUNNING= false;}
 463              		.loc 2 75 34 is_stmt 0
 464 028c 93071000 		li	a5,1
 465 0290 A304F502 		sb	a5,41(a0)
 466              	.LVL38:
 467              	.LBE129:
 468              	.LBE128:
 469              	.LBE130:
 470              	.LBE131:
  30:src/tcb.cpp   ****    kernel->id=1;
 471              		.loc 1 30 10
 472 0294 97070000 		lla	a5,.LANCHOR0
 472      93870700 
 473 029c 23B4A700 		sd	a0,8(a5)
  31:src/tcb.cpp   ****     kernel->status.setSystematic();
 474              		.loc 1 31 4 is_stmt 1
  31:src/tcb.cpp   ****     kernel->status.setSystematic();
 475              		.loc 1 31 14 is_stmt 0
 476 02a0 13071000 		li	a4,1
 477 02a4 2320E500 		sw	a4,0(a0)
  32:src/tcb.cpp   ****     running=kernel;
 478              		.loc 1 32 5 is_stmt 1
  32:src/tcb.cpp   ****     running=kernel;
 479              		.loc 1 32 13 is_stmt 0
 480 02a8 03B58700 		ld	a0,8(a5)
 481              	.LVL39:
 482              	.LBB132:
 483              	.LBB133:
  94:src/../h/tcb.hpp ****         bool getSystematic(){return  SYSTEMATIC;}
 484              		.loc 2 94 31 is_stmt 1
GAS LISTING /tmp/ccS1nm3Y.s 			page 15


  94:src/../h/tcb.hpp ****         bool getSystematic(){return  SYSTEMATIC;}
 485              		.loc 2 94 41 is_stmt 0
 486 02ac A307E502 		sb	a4,47(a0)
 487              	.LVL40:
 488              	.LBE133:
 489              	.LBE132:
  33:src/tcb.cpp   ****     return kernel;
 490              		.loc 1 33 5 is_stmt 1
  33:src/tcb.cpp   ****     return kernel;
 491              		.loc 1 33 12 is_stmt 0
 492 02b0 23B0A700 		sd	a0,0(a5)
  34:src/tcb.cpp   **** }
 493              		.loc 1 34 5 is_stmt 1
  35:src/tcb.cpp   **** void TCB::dispatch(){
 494              		.loc 1 35 1 is_stmt 0
 495 02b4 83308100 		ld	ra,8(sp)
 496              		.cfi_restore 1
 497 02b8 03340100 		ld	s0,0(sp)
 498              		.cfi_restore 8
 499              		.cfi_def_cfa 2, 16
 500 02bc 13010101 		addi	sp,sp,16
 501              		.cfi_def_cfa_offset 0
 502 02c0 67800000 		jr	ra
 503              		.cfi_endproc
 504              	.LFE93:
 506              		.align	2
 507              		.globl	_ZN3TCB8dispatchEv
 509              	_ZN3TCB8dispatchEv:
 510              	.LFB94:
  36:src/tcb.cpp   **** 
 511              		.loc 1 36 21 is_stmt 1
 512              		.cfi_startproc
 513 02c4 130101FE 		addi	sp,sp,-32
 514              		.cfi_def_cfa_offset 32
 515 02c8 233C1100 		sd	ra,24(sp)
 516 02cc 23388100 		sd	s0,16(sp)
 517 02d0 23349100 		sd	s1,8(sp)
 518              		.cfi_offset 1, -8
 519              		.cfi_offset 8, -16
 520              		.cfi_offset 9, -24
 521 02d4 13040102 		addi	s0,sp,32
 522              		.cfi_def_cfa 8, 0
  38:src/tcb.cpp   ****     if(old->status.getRunning()) {
 523              		.loc 1 38 5
  38:src/tcb.cpp   ****     if(old->status.getRunning()) {
 524              		.loc 1 38 10 is_stmt 0
 525 02d8 97040000 		ld	s1,.LANCHOR0
 525      83B40400 
 526              	.LVL41:
  39:src/tcb.cpp   ****         old->status.delAll();
 527              		.loc 1 39 5 is_stmt 1
 528              	.LBB134:
 529              	.LBB135:
  88:src/../h/tcb.hpp ****         bool getReady(){return  READY;}
 530              		.loc 2 88 28
  88:src/../h/tcb.hpp ****         bool getReady(){return  READY;}
 531              		.loc 2 88 35 is_stmt 0
GAS LISTING /tmp/ccS1nm3Y.s 			page 16


 532 02e0 83C79402 		lbu	a5,41(s1)
 533              	.LVL42:
 534              	.LBE135:
 535              	.LBE134:
  39:src/tcb.cpp   ****         old->status.delAll();
 536              		.loc 1 39 5
 537 02e4 63940706 		bnez	a5,.L28
 538              	.L24:
  44:src/tcb.cpp   ****     if(running){
 539              		.loc 1 44 5 is_stmt 1
  44:src/tcb.cpp   ****     if(running){
 540              		.loc 1 44 29 is_stmt 0
 541 02e8 97000000 		call	_ZN9Scheduler3getEv@plt
 541      E7800000 
 542              	.LVL43:
  44:src/tcb.cpp   ****     if(running){
 543              		.loc 1 44 13
 544 02f0 97070000 		sd	a0,.LANCHOR0,a5
 544      23B0A700 
  45:src/tcb.cpp   ****         running->status.delAll();
 545              		.loc 1 45 5 is_stmt 1
 546 02f8 63000508 		beqz	a0,.L25
  46:src/tcb.cpp   ****         running->status.setRunning();
 547              		.loc 1 46 9
 548              	.LVL44:
 549              	.LBB136:
 550              	.LBB137:
  97:src/../h/tcb.hpp ****              RUNNING = false;
 551              		.loc 2 97 14
  97:src/../h/tcb.hpp ****              RUNNING = false;
 552              		.loc 2 97 22 is_stmt 0
 553 02fc 23040502 		sb	zero,40(a0)
  98:src/../h/tcb.hpp ****              READY= false;
 554              		.loc 2 98 14 is_stmt 1
  99:src/../h/tcb.hpp ****              CREATED= false;
 555              		.loc 2 99 14
  99:src/../h/tcb.hpp ****              CREATED= false;
 556              		.loc 2 99 19 is_stmt 0
 557 0300 23050502 		sb	zero,42(a0)
 100:src/../h/tcb.hpp ****              WAITING= false;
 558              		.loc 2 100 14 is_stmt 1
 100:src/../h/tcb.hpp ****              WAITING= false;
 559              		.loc 2 100 21 is_stmt 0
 560 0304 A3050502 		sb	zero,43(a0)
 101:src/../h/tcb.hpp ****              SLEEPING= false;
 561              		.loc 2 101 14 is_stmt 1
 101:src/../h/tcb.hpp ****              SLEEPING= false;
 562              		.loc 2 101 21 is_stmt 0
 563 0308 23060502 		sb	zero,44(a0)
 564              		.loc 2 102 14 is_stmt 1
 565              		.loc 2 102 22 is_stmt 0
 566 030c A3060502 		sb	zero,45(a0)
 567              	.LVL45:
 568              	.LBE137:
 569              	.LBE136:
  47:src/tcb.cpp   ****     }else{
 570              		.loc 1 47 9 is_stmt 1
GAS LISTING /tmp/ccS1nm3Y.s 			page 17


 571              	.LBB138:
 572              	.LBB139:
  75:src/../h/tcb.hpp ****         void delRunning(){RUNNING= false;}
 573              		.loc 2 75 27
  75:src/../h/tcb.hpp ****         void delRunning(){RUNNING= false;}
 574              		.loc 2 75 34 is_stmt 0
 575 0310 93071000 		li	a5,1
 576 0314 A304F502 		sb	a5,41(a0)
 577              	.LVL46:
 578              	.L26:
 579              	.LBE139:
 580              	.LBE138:
  51:src/tcb.cpp   ****     TCB::contextSwitch(&old->context, &running->context);
 581              		.loc 1 51 5 is_stmt 1
  51:src/tcb.cpp   ****     TCB::contextSwitch(&old->context, &running->context);
 582              		.loc 1 51 21 is_stmt 0
 583 0318 97000000 		call	_ZN5Riscv9Rest_PrivEv@plt
 583      E7800000 
 584              	.LVL47:
  52:src/tcb.cpp   **** }
 585              		.loc 1 52 5 is_stmt 1
  52:src/tcb.cpp   **** }
 586              		.loc 1 52 23 is_stmt 0
 587 0320 97050000 		ld	a1,.LANCHOR0
 587      83B50500 
 588 0328 93858501 		addi	a1,a1,24
 589 032c 13858401 		addi	a0,s1,24
 590 0330 97000000 		call	_ZN3TCB13contextSwitchEPNS_7ContextES1_@plt
 590      E7800000 
 591              	.LVL48:
  53:src/tcb.cpp   **** 
 592              		.loc 1 53 1
 593 0338 83308101 		ld	ra,24(sp)
 594              		.cfi_remember_state
 595              		.cfi_restore 1
 596 033c 03340101 		ld	s0,16(sp)
 597              		.cfi_restore 8
 598              		.cfi_def_cfa 2, 32
 599 0340 83348100 		ld	s1,8(sp)
 600              		.cfi_restore 9
 601              	.LVL49:
 602 0344 13010102 		addi	sp,sp,32
 603              		.cfi_def_cfa_offset 0
 604 0348 67800000 		jr	ra
 605              	.LVL50:
 606              	.L28:
 607              		.cfi_restore_state
  40:src/tcb.cpp   ****         old->status.setReady();
 608              		.loc 1 40 9 is_stmt 1
 609              	.LBB140:
 610              	.LBB141:
  97:src/../h/tcb.hpp ****              RUNNING = false;
 611              		.loc 2 97 14
  97:src/../h/tcb.hpp ****              RUNNING = false;
 612              		.loc 2 97 22 is_stmt 0
 613 034c 23840402 		sb	zero,40(s1)
  98:src/../h/tcb.hpp ****              READY= false;
GAS LISTING /tmp/ccS1nm3Y.s 			page 18


 614              		.loc 2 98 14 is_stmt 1
  98:src/../h/tcb.hpp ****              READY= false;
 615              		.loc 2 98 22 is_stmt 0
 616 0350 A3840402 		sb	zero,41(s1)
  99:src/../h/tcb.hpp ****              CREATED= false;
 617              		.loc 2 99 14 is_stmt 1
 100:src/../h/tcb.hpp ****              WAITING= false;
 618              		.loc 2 100 14
 100:src/../h/tcb.hpp ****              WAITING= false;
 619              		.loc 2 100 21 is_stmt 0
 620 0354 A3850402 		sb	zero,43(s1)
 101:src/../h/tcb.hpp ****              SLEEPING= false;
 621              		.loc 2 101 14 is_stmt 1
 101:src/../h/tcb.hpp ****              SLEEPING= false;
 622              		.loc 2 101 21 is_stmt 0
 623 0358 23860402 		sb	zero,44(s1)
 624              		.loc 2 102 14 is_stmt 1
 625              		.loc 2 102 22 is_stmt 0
 626 035c A3860402 		sb	zero,45(s1)
 627              	.LVL51:
 628              	.LBE141:
 629              	.LBE140:
  41:src/tcb.cpp   ****         Scheduler::put(old);
 630              		.loc 1 41 9 is_stmt 1
 631              	.LBB142:
 632              	.LBB143:
  77:src/../h/tcb.hpp ****         void delReady(){READY= false;}
 633              		.loc 2 77 25
  77:src/../h/tcb.hpp ****         void delReady(){READY= false;}
 634              		.loc 2 77 30 is_stmt 0
 635 0360 93071000 		li	a5,1
 636 0364 2385F402 		sb	a5,42(s1)
 637              	.LVL52:
 638              	.LBE143:
 639              	.LBE142:
  42:src/tcb.cpp   ****     }
 640              		.loc 1 42 9 is_stmt 1
  42:src/tcb.cpp   ****     }
 641              		.loc 1 42 23 is_stmt 0
 642 0368 13850400 		mv	a0,s1
 643 036c 97000000 		call	_ZN9Scheduler3putEP3TCB@plt
 643      E7800000 
 644              	.LVL53:
 645 0374 6FF05FF7 		j	.L24
 646              	.L25:
  49:src/tcb.cpp   ****     }
 647              		.loc 1 49 9 is_stmt 1
  49:src/tcb.cpp   ****     }
 648              		.loc 1 49 16 is_stmt 0
 649 0378 97070000 		lla	a5,.LANCHOR0
 649      93870700 
 650 0380 03B70701 		ld	a4,16(a5)
 651 0384 23B0E700 		sd	a4,0(a5)
 652 0388 6FF01FF9 		j	.L26
 653              		.cfi_endproc
 654              	.LFE94:
 656              		.align	2
GAS LISTING /tmp/ccS1nm3Y.s 			page 19


 657              		.globl	_ZN3TCB5startEv
 659              	_ZN3TCB5startEv:
 660              	.LFB96:
  61:src/tcb.cpp   **** 
 661              		.loc 1 61 18 is_stmt 1
 662              		.cfi_startproc
 663              	.LVL54:
  63:src/tcb.cpp   ****     status.delAll();
 664              		.loc 1 63 5
 665              	.LBB144:
 666              	.LBB145:
  90:src/../h/tcb.hpp ****         bool getWaiting(){return WAITING;}
 667              		.loc 2 90 27
  90:src/../h/tcb.hpp ****         bool getWaiting(){return WAITING;}
 668              		.loc 2 90 34 is_stmt 0
 669 038c 8347B502 		lbu	a5,43(a0)
 670              	.LVL55:
 671              	.LBE145:
 672              	.LBE144:
  63:src/tcb.cpp   ****     status.delAll();
 673              		.loc 1 63 5
 674 0390 63860704 		beqz	a5,.L31
  61:src/tcb.cpp   **** 
 675              		.loc 1 61 18
 676 0394 130101FF 		addi	sp,sp,-16
 677              		.cfi_def_cfa_offset 16
 678 0398 23341100 		sd	ra,8(sp)
 679 039c 23308100 		sd	s0,0(sp)
 680              		.cfi_offset 1, -8
 681              		.cfi_offset 8, -16
 682 03a0 13040101 		addi	s0,sp,16
 683              		.cfi_def_cfa 8, 0
  64:src/tcb.cpp   ****     status.setReady();
 684              		.loc 1 64 5 is_stmt 1
 685              	.LVL56:
 686              	.LBB146:
 687              	.LBB147:
  97:src/../h/tcb.hpp ****              RUNNING = false;
 688              		.loc 2 97 14
  97:src/../h/tcb.hpp ****              RUNNING = false;
 689              		.loc 2 97 22 is_stmt 0
 690 03a4 23040502 		sb	zero,40(a0)
  98:src/../h/tcb.hpp ****              READY= false;
 691              		.loc 2 98 14 is_stmt 1
  98:src/../h/tcb.hpp ****              READY= false;
 692              		.loc 2 98 22 is_stmt 0
 693 03a8 A3040502 		sb	zero,41(a0)
  99:src/../h/tcb.hpp ****              CREATED= false;
 694              		.loc 2 99 14 is_stmt 1
 100:src/../h/tcb.hpp ****              WAITING= false;
 695              		.loc 2 100 14
 100:src/../h/tcb.hpp ****              WAITING= false;
 696              		.loc 2 100 21 is_stmt 0
 697 03ac A3050502 		sb	zero,43(a0)
 101:src/../h/tcb.hpp ****              SLEEPING= false;
 698              		.loc 2 101 14 is_stmt 1
 101:src/../h/tcb.hpp ****              SLEEPING= false;
GAS LISTING /tmp/ccS1nm3Y.s 			page 20


 699              		.loc 2 101 21 is_stmt 0
 700 03b0 23060502 		sb	zero,44(a0)
 701              		.loc 2 102 14 is_stmt 1
 702              		.loc 2 102 22 is_stmt 0
 703 03b4 A3060502 		sb	zero,45(a0)
 704              	.LVL57:
 705              	.LBE147:
 706              	.LBE146:
  65:src/tcb.cpp   ****     Scheduler::put(this);
 707              		.loc 1 65 5 is_stmt 1
 708              	.LBB148:
 709              	.LBB149:
  77:src/../h/tcb.hpp ****         void delReady(){READY= false;}
 710              		.loc 2 77 25
  77:src/../h/tcb.hpp ****         void delReady(){READY= false;}
 711              		.loc 2 77 30 is_stmt 0
 712 03b8 93071000 		li	a5,1
 713 03bc 2305F502 		sb	a5,42(a0)
 714              	.LVL58:
 715              	.LBE149:
 716              	.LBE148:
  66:src/tcb.cpp   ****     return 0;
 717              		.loc 1 66 5 is_stmt 1
  66:src/tcb.cpp   ****     return 0;
 718              		.loc 1 66 19 is_stmt 0
 719 03c0 97000000 		call	_ZN9Scheduler3putEP3TCB@plt
 719      E7800000 
 720              	.LVL59:
  67:src/tcb.cpp   **** }
 721              		.loc 1 67 5 is_stmt 1
  67:src/tcb.cpp   **** }
 722              		.loc 1 67 12 is_stmt 0
 723 03c8 13050000 		li	a0,0
  68:src/tcb.cpp   **** TCB* TCB::getIdle() {
 724              		.loc 1 68 1
 725 03cc 83308100 		ld	ra,8(sp)
 726              		.cfi_restore 1
 727 03d0 03340100 		ld	s0,0(sp)
 728              		.cfi_restore 8
 729              		.cfi_def_cfa 2, 16
 730 03d4 13010101 		addi	sp,sp,16
 731              		.cfi_def_cfa_offset 0
 732 03d8 67800000 		jr	ra
 733              	.LVL60:
 734              	.L31:
  63:src/tcb.cpp   ****     status.delAll();
 735              		.loc 1 63 38
 736 03dc 1305F0FF 		li	a0,-1
 737              	.LVL61:
  68:src/tcb.cpp   **** TCB* TCB::getIdle() {
 738              		.loc 1 68 1
 739 03e0 67800000 		ret
 740              		.cfi_endproc
 741              	.LFE96:
 743              		.align	2
 744              		.globl	_ZN3TCB7getIdleEv
 746              	_ZN3TCB7getIdleEv:
GAS LISTING /tmp/ccS1nm3Y.s 			page 21


 747              	.LFB97:
  69:src/tcb.cpp   **** 
 748              		.loc 1 69 21 is_stmt 1
 749              		.cfi_startproc
  71:src/tcb.cpp   **** 
 750              		.loc 1 71 5
  71:src/tcb.cpp   **** 
 751              		.loc 1 71 8 is_stmt 0
 752 03e4 97070000 		ld	a5,.LANCHOR0+16
 752      83B70700 
  71:src/tcb.cpp   **** 
 753              		.loc 1 71 5
 754 03ec 63880700 		beqz	a5,.L42
  79:src/tcb.cpp   **** }
 755              		.loc 1 79 5 is_stmt 1
  80:src/tcb.cpp   **** 
 756              		.loc 1 80 1 is_stmt 0
 757 03f0 17050000 		ld	a0,.LANCHOR0+16
 757      03350500 
 758 03f8 67800000 		ret
 759              	.L42:
  69:src/tcb.cpp   **** 
 760              		.loc 1 69 21
 761 03fc 130101FF 		addi	sp,sp,-16
 762              		.cfi_def_cfa_offset 16
 763 0400 23341100 		sd	ra,8(sp)
 764 0404 23308100 		sd	s0,0(sp)
 765              		.cfi_offset 1, -8
 766              		.cfi_offset 8, -16
 767 0408 13040101 		addi	s0,sp,16
 768              		.cfi_def_cfa 8, 0
  73:src/tcb.cpp   ****         idle->status.delAll();
 769              		.loc 1 73 9 is_stmt 1
  73:src/tcb.cpp   ****         idle->status.delAll();
 770              		.loc 1 73 80 is_stmt 0
 771 040c 37850000 		li	a0,32768
 772 0410 97000000 		call	__mem_alloc@plt
 772      E7800000 
 773              	.LVL62:
 774 0418 13060500 		mv	a2,a0
  73:src/tcb.cpp   ****         idle->status.delAll();
 775              		.loc 1 73 35
 776 041c 93050000 		li	a1,0
 777 0420 17050000 		lla	a0,_ZN3TCB11idleWrapperEPv
 777      13050500 
 778 0428 97000000 		call	_ZN3TCB19initThreadWithNoRunEPFvPvES0_Pm
 778      E7800000 
 779              	.LVL63:
  73:src/tcb.cpp   ****         idle->status.delAll();
 780              		.loc 1 73 14
 781 0430 97070000 		sd	a0,.LANCHOR0+16,a5
 781      23B0A700 
  74:src/tcb.cpp   ****         idle->status.setIdle();
 782              		.loc 1 74 9 is_stmt 1
 783              	.LVL64:
 784              	.LBB150:
 785              	.LBB151:
GAS LISTING /tmp/ccS1nm3Y.s 			page 22


  97:src/../h/tcb.hpp ****              RUNNING = false;
 786              		.loc 2 97 14
  97:src/../h/tcb.hpp ****              RUNNING = false;
 787              		.loc 2 97 22 is_stmt 0
 788 0438 23040502 		sb	zero,40(a0)
  98:src/../h/tcb.hpp ****              READY= false;
 789              		.loc 2 98 14 is_stmt 1
  98:src/../h/tcb.hpp ****              READY= false;
 790              		.loc 2 98 22 is_stmt 0
 791 043c A3040502 		sb	zero,41(a0)
  99:src/../h/tcb.hpp ****              CREATED= false;
 792              		.loc 2 99 14 is_stmt 1
  99:src/../h/tcb.hpp ****              CREATED= false;
 793              		.loc 2 99 19 is_stmt 0
 794 0440 23050502 		sb	zero,42(a0)
 100:src/../h/tcb.hpp ****              WAITING= false;
 795              		.loc 2 100 14 is_stmt 1
 100:src/../h/tcb.hpp ****              WAITING= false;
 796              		.loc 2 100 21 is_stmt 0
 797 0444 A3050502 		sb	zero,43(a0)
 101:src/../h/tcb.hpp ****              SLEEPING= false;
 798              		.loc 2 101 14 is_stmt 1
 101:src/../h/tcb.hpp ****              SLEEPING= false;
 799              		.loc 2 101 21 is_stmt 0
 800 0448 23060502 		sb	zero,44(a0)
 801              		.loc 2 102 14 is_stmt 1
 802              		.loc 2 102 22 is_stmt 0
 803 044c A3060502 		sb	zero,45(a0)
 804              	.LVL65:
 805              	.LBE151:
 806              	.LBE150:
  75:src/tcb.cpp   ****         idle->status.setSystematic();
 807              		.loc 1 75 9 is_stmt 1
 808              	.LBB152:
 809              	.LBB153:
  85:src/../h/tcb.hpp ****         void delIdle(){IDLE= false;}
 810              		.loc 2 85 24
  85:src/../h/tcb.hpp ****         void delIdle(){IDLE= false;}
 811              		.loc 2 85 28 is_stmt 0
 812 0450 93071000 		li	a5,1
 813 0454 2307F502 		sb	a5,46(a0)
 814              	.LVL66:
 815              	.LBE153:
 816              	.LBE152:
  76:src/tcb.cpp   ****         idle->id=1;
 817              		.loc 1 76 9 is_stmt 1
 818              	.LBB154:
 819              	.LBB155:
  94:src/../h/tcb.hpp ****         bool getSystematic(){return  SYSTEMATIC;}
 820              		.loc 2 94 31
  94:src/../h/tcb.hpp ****         bool getSystematic(){return  SYSTEMATIC;}
 821              		.loc 2 94 41 is_stmt 0
 822 0458 A307F502 		sb	a5,47(a0)
 823              	.LVL67:
 824              	.LBE155:
 825              	.LBE154:
  77:src/tcb.cpp   ****     }
GAS LISTING /tmp/ccS1nm3Y.s 			page 23


 826              		.loc 1 77 9 is_stmt 1
  77:src/tcb.cpp   ****     }
 827              		.loc 1 77 17 is_stmt 0
 828 045c 93071000 		li	a5,1
 829 0460 2320F500 		sw	a5,0(a0)
  79:src/tcb.cpp   **** }
 830              		.loc 1 79 5 is_stmt 1
  80:src/tcb.cpp   **** 
 831              		.loc 1 80 1 is_stmt 0
 832 0464 17050000 		ld	a0,.LANCHOR0+16
 832      03350500 
 833 046c 83308100 		ld	ra,8(sp)
 834              		.cfi_restore 1
 835 0470 03340100 		ld	s0,0(sp)
 836              		.cfi_restore 8
 837              		.cfi_def_cfa 2, 16
 838 0474 13010101 		addi	sp,sp,16
 839              		.cfi_def_cfa_offset 0
 840 0478 67800000 		jr	ra
 841              		.cfi_endproc
 842              	.LFE97:
 844              		.align	2
 845              		.globl	_ZN3TCB4exitEv
 847              	_ZN3TCB4exitEv:
 848              	.LFB99:
  91:src/tcb.cpp   ****     if(!running->status.getRunning())return -1;
 849              		.loc 1 91 17 is_stmt 1
 850              		.cfi_startproc
  92:src/tcb.cpp   ****     running->status.delAll();
 851              		.loc 1 92 5
  92:src/tcb.cpp   ****     running->status.delAll();
 852              		.loc 1 92 18 is_stmt 0
 853 047c 97070000 		ld	a5,.LANCHOR0
 853      83B70700 
 854              	.LVL68:
 855              	.LBB156:
 856              	.LBB157:
  88:src/../h/tcb.hpp ****         bool getReady(){return  READY;}
 857              		.loc 2 88 28 is_stmt 1
  88:src/../h/tcb.hpp ****         bool getReady(){return  READY;}
 858              		.loc 2 88 35 is_stmt 0
 859 0484 03C79702 		lbu	a4,41(a5)
 860              	.LVL69:
 861              	.LBE157:
 862              	.LBE156:
  92:src/tcb.cpp   ****     running->status.delAll();
 863              		.loc 1 92 5
 864 0488 63060704 		beqz	a4,.L45
  91:src/tcb.cpp   ****     if(!running->status.getRunning())return -1;
 865              		.loc 1 91 17
 866 048c 130101FF 		addi	sp,sp,-16
 867              		.cfi_def_cfa_offset 16
 868 0490 23341100 		sd	ra,8(sp)
 869 0494 23308100 		sd	s0,0(sp)
 870              		.cfi_offset 1, -8
 871              		.cfi_offset 8, -16
 872 0498 13040101 		addi	s0,sp,16
GAS LISTING /tmp/ccS1nm3Y.s 			page 24


 873              		.cfi_def_cfa 8, 0
  93:src/tcb.cpp   ****     running->status.setFinished();
 874              		.loc 1 93 5 is_stmt 1
 875              	.LVL70:
 876              	.LBB158:
 877              	.LBB159:
  97:src/../h/tcb.hpp ****              RUNNING = false;
 878              		.loc 2 97 14
  98:src/../h/tcb.hpp ****              READY= false;
 879              		.loc 2 98 14
  98:src/../h/tcb.hpp ****              READY= false;
 880              		.loc 2 98 22 is_stmt 0
 881 049c A3840702 		sb	zero,41(a5)
  99:src/../h/tcb.hpp ****              CREATED= false;
 882              		.loc 2 99 14 is_stmt 1
  99:src/../h/tcb.hpp ****              CREATED= false;
 883              		.loc 2 99 19 is_stmt 0
 884 04a0 23850702 		sb	zero,42(a5)
 100:src/../h/tcb.hpp ****              WAITING= false;
 885              		.loc 2 100 14 is_stmt 1
 100:src/../h/tcb.hpp ****              WAITING= false;
 886              		.loc 2 100 21 is_stmt 0
 887 04a4 A3850702 		sb	zero,43(a5)
 101:src/../h/tcb.hpp ****              SLEEPING= false;
 888              		.loc 2 101 14 is_stmt 1
 101:src/../h/tcb.hpp ****              SLEEPING= false;
 889              		.loc 2 101 21 is_stmt 0
 890 04a8 23860702 		sb	zero,44(a5)
 891              		.loc 2 102 14 is_stmt 1
 892              		.loc 2 102 22 is_stmt 0
 893 04ac A3860702 		sb	zero,45(a5)
 894              	.LVL71:
 895              	.LBE159:
 896              	.LBE158:
  94:src/tcb.cpp   ****     dispatch();
 897              		.loc 1 94 5 is_stmt 1
 898              	.LBB160:
 899              	.LBB161:
  73:src/../h/tcb.hpp ****         void delFinished(){FINISHED= false;}
 900              		.loc 2 73 28
  73:src/../h/tcb.hpp ****         void delFinished(){FINISHED= false;}
 901              		.loc 2 73 36 is_stmt 0
 902 04b0 13071000 		li	a4,1
 903 04b4 2384E702 		sb	a4,40(a5)
 904              	.LVL72:
 905              	.LBE161:
 906              	.LBE160:
  95:src/tcb.cpp   ****     return 0;
 907              		.loc 1 95 5 is_stmt 1
  95:src/tcb.cpp   ****     return 0;
 908              		.loc 1 95 13 is_stmt 0
 909 04b8 97000000 		call	_ZN3TCB8dispatchEv
 909      E7800000 
 910              	.LVL73:
  96:src/tcb.cpp   **** }
 911              		.loc 1 96 5 is_stmt 1
  96:src/tcb.cpp   **** }
GAS LISTING /tmp/ccS1nm3Y.s 			page 25


 912              		.loc 1 96 12 is_stmt 0
 913 04c0 13050000 		li	a0,0
  97:src/tcb.cpp   **** 
 914              		.loc 1 97 1
 915 04c4 83308100 		ld	ra,8(sp)
 916              		.cfi_restore 1
 917 04c8 03340100 		ld	s0,0(sp)
 918              		.cfi_restore 8
 919              		.cfi_def_cfa 2, 16
 920 04cc 13010101 		addi	sp,sp,16
 921              		.cfi_def_cfa_offset 0
 922 04d0 67800000 		jr	ra
 923              	.L45:
  92:src/tcb.cpp   ****     running->status.delAll();
 924              		.loc 1 92 46
 925 04d4 1305F0FF 		li	a0,-1
  97:src/tcb.cpp   **** 
 926              		.loc 1 97 1
 927 04d8 67800000 		ret
 928              		.cfi_endproc
 929              	.LFE99:
 931              		.align	2
 932              		.globl	_ZN3TCB4waitEv
 934              	_ZN3TCB4waitEv:
 935              	.LFB100:
  99:src/tcb.cpp   ****     if(!running->status.getRunning())return -1;
 936              		.loc 1 99 17 is_stmt 1
 937              		.cfi_startproc
 100:src/tcb.cpp   ****     running->status.delAll();
 938              		.loc 1 100 5
 100:src/tcb.cpp   ****     running->status.delAll();
 939              		.loc 1 100 18 is_stmt 0
 940 04dc 97070000 		ld	a5,.LANCHOR0
 940      83B70700 
 941              	.LVL74:
 942              	.LBB162:
 943              	.LBB163:
  88:src/../h/tcb.hpp ****         bool getReady(){return  READY;}
 944              		.loc 2 88 28 is_stmt 1
  88:src/../h/tcb.hpp ****         bool getReady(){return  READY;}
 945              		.loc 2 88 35 is_stmt 0
 946 04e4 03C79702 		lbu	a4,41(a5)
 947              	.LVL75:
 948              	.LBE163:
 949              	.LBE162:
 100:src/tcb.cpp   ****     running->status.delAll();
 950              		.loc 1 100 5
 951 04e8 63060704 		beqz	a4,.L52
  99:src/tcb.cpp   ****     if(!running->status.getRunning())return -1;
 952              		.loc 1 99 17
 953 04ec 130101FF 		addi	sp,sp,-16
 954              		.cfi_def_cfa_offset 16
 955 04f0 23341100 		sd	ra,8(sp)
 956 04f4 23308100 		sd	s0,0(sp)
 957              		.cfi_offset 1, -8
 958              		.cfi_offset 8, -16
 959 04f8 13040101 		addi	s0,sp,16
GAS LISTING /tmp/ccS1nm3Y.s 			page 26


 960              		.cfi_def_cfa 8, 0
 101:src/tcb.cpp   ****     running->status.setWaiting();
 961              		.loc 1 101 5 is_stmt 1
 962              	.LVL76:
 963              	.LBB164:
 964              	.LBB165:
  97:src/../h/tcb.hpp ****              RUNNING = false;
 965              		.loc 2 97 14
  97:src/../h/tcb.hpp ****              RUNNING = false;
 966              		.loc 2 97 22 is_stmt 0
 967 04fc 23840702 		sb	zero,40(a5)
  98:src/../h/tcb.hpp ****              READY= false;
 968              		.loc 2 98 14 is_stmt 1
  98:src/../h/tcb.hpp ****              READY= false;
 969              		.loc 2 98 22 is_stmt 0
 970 0500 A3840702 		sb	zero,41(a5)
  99:src/../h/tcb.hpp ****              CREATED= false;
 971              		.loc 2 99 14 is_stmt 1
  99:src/../h/tcb.hpp ****              CREATED= false;
 972              		.loc 2 99 19 is_stmt 0
 973 0504 23850702 		sb	zero,42(a5)
 100:src/../h/tcb.hpp ****              WAITING= false;
 974              		.loc 2 100 14 is_stmt 1
 100:src/../h/tcb.hpp ****              WAITING= false;
 975              		.loc 2 100 21 is_stmt 0
 976 0508 A3850702 		sb	zero,43(a5)
 101:src/../h/tcb.hpp ****              SLEEPING= false;
 977              		.loc 2 101 14 is_stmt 1
 978              		.loc 2 102 14
 979              		.loc 2 102 22 is_stmt 0
 980 050c A3860702 		sb	zero,45(a5)
 981              	.LVL77:
 982              	.LBE165:
 983              	.LBE164:
 102:src/tcb.cpp   ****     dispatch();
 984              		.loc 1 102 5 is_stmt 1
 985              	.LBB166:
 986              	.LBB167:
  81:src/../h/tcb.hpp ****         void delWaiting(){WAITING= false;}
 987              		.loc 2 81 27
  81:src/../h/tcb.hpp ****         void delWaiting(){WAITING= false;}
 988              		.loc 2 81 34 is_stmt 0
 989 0510 13071000 		li	a4,1
 990 0514 2386E702 		sb	a4,44(a5)
 991              	.LVL78:
 992              	.LBE167:
 993              	.LBE166:
 103:src/tcb.cpp   ****     return 0;
 994              		.loc 1 103 5 is_stmt 1
 103:src/tcb.cpp   ****     return 0;
 995              		.loc 1 103 13 is_stmt 0
 996 0518 97000000 		call	_ZN3TCB8dispatchEv
 996      E7800000 
 997              	.LVL79:
 104:src/tcb.cpp   **** }
 998              		.loc 1 104 5 is_stmt 1
 104:src/tcb.cpp   **** }
GAS LISTING /tmp/ccS1nm3Y.s 			page 27


 999              		.loc 1 104 12 is_stmt 0
 1000 0520 13050000 		li	a0,0
 105:src/tcb.cpp   **** int TCB::releaseWaiting() {
 1001              		.loc 1 105 1
 1002 0524 83308100 		ld	ra,8(sp)
 1003              		.cfi_restore 1
 1004 0528 03340100 		ld	s0,0(sp)
 1005              		.cfi_restore 8
 1006              		.cfi_def_cfa 2, 16
 1007 052c 13010101 		addi	sp,sp,16
 1008              		.cfi_def_cfa_offset 0
 1009 0530 67800000 		jr	ra
 1010              	.L52:
 100:src/tcb.cpp   ****     running->status.delAll();
 1011              		.loc 1 100 46
 1012 0534 1305F0FF 		li	a0,-1
 105:src/tcb.cpp   **** int TCB::releaseWaiting() {
 1013              		.loc 1 105 1
 1014 0538 67800000 		ret
 1015              		.cfi_endproc
 1016              	.LFE100:
 1018              		.align	2
 1019              		.globl	_ZN3TCB14releaseWaitingEv
 1021              	_ZN3TCB14releaseWaitingEv:
 1022              	.LFB101:
 106:src/tcb.cpp   ****     if(!status.getWaiting())return -1;
 1023              		.loc 1 106 27 is_stmt 1
 1024              		.cfi_startproc
 1025              	.LVL80:
 107:src/tcb.cpp   ****     status.delAll();
 1026              		.loc 1 107 5
 1027              	.LBB168:
 1028              	.LBB169:
  91:src/../h/tcb.hpp ****         bool getSleeping(){return SLEEPING;}
 1029              		.loc 2 91 27
  91:src/../h/tcb.hpp ****         bool getSleeping(){return SLEEPING;}
 1030              		.loc 2 91 34 is_stmt 0
 1031 053c 8347C502 		lbu	a5,44(a0)
 1032              	.LVL81:
 1033              	.LBE169:
 1034              	.LBE168:
 107:src/tcb.cpp   ****     status.delAll();
 1035              		.loc 1 107 5
 1036 0540 63860704 		beqz	a5,.L59
 106:src/tcb.cpp   ****     if(!status.getWaiting())return -1;
 1037              		.loc 1 106 27
 1038 0544 130101FF 		addi	sp,sp,-16
 1039              		.cfi_def_cfa_offset 16
 1040 0548 23341100 		sd	ra,8(sp)
 1041 054c 23308100 		sd	s0,0(sp)
 1042              		.cfi_offset 1, -8
 1043              		.cfi_offset 8, -16
 1044 0550 13040101 		addi	s0,sp,16
 1045              		.cfi_def_cfa 8, 0
 108:src/tcb.cpp   ****     status.setReady();
 1046              		.loc 1 108 5 is_stmt 1
 1047              	.LVL82:
GAS LISTING /tmp/ccS1nm3Y.s 			page 28


 1048              	.LBB170:
 1049              	.LBB171:
  97:src/../h/tcb.hpp ****              RUNNING = false;
 1050              		.loc 2 97 14
  97:src/../h/tcb.hpp ****              RUNNING = false;
 1051              		.loc 2 97 22 is_stmt 0
 1052 0554 23040502 		sb	zero,40(a0)
  98:src/../h/tcb.hpp ****              READY= false;
 1053              		.loc 2 98 14 is_stmt 1
  98:src/../h/tcb.hpp ****              READY= false;
 1054              		.loc 2 98 22 is_stmt 0
 1055 0558 A3040502 		sb	zero,41(a0)
  99:src/../h/tcb.hpp ****              CREATED= false;
 1056              		.loc 2 99 14 is_stmt 1
 100:src/../h/tcb.hpp ****              WAITING= false;
 1057              		.loc 2 100 14
 100:src/../h/tcb.hpp ****              WAITING= false;
 1058              		.loc 2 100 21 is_stmt 0
 1059 055c A3050502 		sb	zero,43(a0)
 101:src/../h/tcb.hpp ****              SLEEPING= false;
 1060              		.loc 2 101 14 is_stmt 1
 101:src/../h/tcb.hpp ****              SLEEPING= false;
 1061              		.loc 2 101 21 is_stmt 0
 1062 0560 23060502 		sb	zero,44(a0)
 1063              		.loc 2 102 14 is_stmt 1
 1064              		.loc 2 102 22 is_stmt 0
 1065 0564 A3060502 		sb	zero,45(a0)
 1066              	.LVL83:
 1067              	.LBE171:
 1068              	.LBE170:
 109:src/tcb.cpp   ****     Scheduler::put(this);
 1069              		.loc 1 109 5 is_stmt 1
 1070              	.LBB172:
 1071              	.LBB173:
  77:src/../h/tcb.hpp ****         void delReady(){READY= false;}
 1072              		.loc 2 77 25
  77:src/../h/tcb.hpp ****         void delReady(){READY= false;}
 1073              		.loc 2 77 30 is_stmt 0
 1074 0568 93071000 		li	a5,1
 1075 056c 2305F502 		sb	a5,42(a0)
 1076              	.LVL84:
 1077              	.LBE173:
 1078              	.LBE172:
 110:src/tcb.cpp   ****     return 0;
 1079              		.loc 1 110 5 is_stmt 1
 110:src/tcb.cpp   ****     return 0;
 1080              		.loc 1 110 19 is_stmt 0
 1081 0570 97000000 		call	_ZN9Scheduler3putEP3TCB@plt
 1081      E7800000 
 1082              	.LVL85:
 111:src/tcb.cpp   **** }
 1083              		.loc 1 111 5 is_stmt 1
 111:src/tcb.cpp   **** }
 1084              		.loc 1 111 12 is_stmt 0
 1085 0578 13050000 		li	a0,0
 112:src/tcb.cpp   **** 
 1086              		.loc 1 112 1
GAS LISTING /tmp/ccS1nm3Y.s 			page 29


 1087 057c 83308100 		ld	ra,8(sp)
 1088              		.cfi_restore 1
 1089 0580 03340100 		ld	s0,0(sp)
 1090              		.cfi_restore 8
 1091              		.cfi_def_cfa 2, 16
 1092 0584 13010101 		addi	sp,sp,16
 1093              		.cfi_def_cfa_offset 0
 1094 0588 67800000 		jr	ra
 1095              	.LVL86:
 1096              	.L59:
 107:src/tcb.cpp   ****     status.delAll();
 1097              		.loc 1 107 37
 1098 058c 1305F0FF 		li	a0,-1
 1099              	.LVL87:
 112:src/tcb.cpp   **** 
 1100              		.loc 1 112 1
 1101 0590 67800000 		ret
 1102              		.cfi_endproc
 1103              	.LFE101:
 1105              		.align	2
 1106              		.globl	_ZN3TCB5sleepEm
 1108              	_ZN3TCB5sleepEm:
 1109              	.LFB102:
 114:src/tcb.cpp   ****     if(!running->status.getRunning())return -1;
 1110              		.loc 1 114 27 is_stmt 1
 1111              		.cfi_startproc
 1112              	.LVL88:
 115:src/tcb.cpp   **** 
 1113              		.loc 1 115 5
 115:src/tcb.cpp   **** 
 1114              		.loc 1 115 18 is_stmt 0
 1115 0594 97050000 		ld	a1,.LANCHOR0
 1115      83B50500 
 1116              	.LVL89:
 1117              	.LBB174:
 1118              	.LBB175:
  88:src/../h/tcb.hpp ****         bool getReady(){return  READY;}
 1119              		.loc 2 88 28 is_stmt 1
  88:src/../h/tcb.hpp ****         bool getReady(){return  READY;}
 1120              		.loc 2 88 35 is_stmt 0
 1121 059c 83C79502 		lbu	a5,41(a1)
 1122              	.LVL90:
 1123              	.LBE175:
 1124              	.LBE174:
 115:src/tcb.cpp   **** 
 1125              		.loc 1 115 5
 1126 05a0 63820706 		beqz	a5,.L66
 114:src/tcb.cpp   ****     if(!running->status.getRunning())return -1;
 1127              		.loc 1 114 27
 1128 05a4 130101FF 		addi	sp,sp,-16
 1129              		.cfi_def_cfa_offset 16
 1130 05a8 23341100 		sd	ra,8(sp)
 1131 05ac 23308100 		sd	s0,0(sp)
 1132              		.cfi_offset 1, -8
 1133              		.cfi_offset 8, -16
 1134 05b0 13040101 		addi	s0,sp,16
 1135              		.cfi_def_cfa 8, 0
GAS LISTING /tmp/ccS1nm3Y.s 			page 30


 1136 05b4 13060500 		mv	a2,a0
 117:src/tcb.cpp   ****     running->status.setSleeping();
 1137              		.loc 1 117 5 is_stmt 1
 1138              	.LVL91:
 1139              	.LBB176:
 1140              	.LBB177:
  97:src/../h/tcb.hpp ****              RUNNING = false;
 1141              		.loc 2 97 14
  97:src/../h/tcb.hpp ****              RUNNING = false;
 1142              		.loc 2 97 22 is_stmt 0
 1143 05b8 23840502 		sb	zero,40(a1)
  98:src/../h/tcb.hpp ****              READY= false;
 1144              		.loc 2 98 14 is_stmt 1
  98:src/../h/tcb.hpp ****              READY= false;
 1145              		.loc 2 98 22 is_stmt 0
 1146 05bc A3840502 		sb	zero,41(a1)
  99:src/../h/tcb.hpp ****              CREATED= false;
 1147              		.loc 2 99 14 is_stmt 1
  99:src/../h/tcb.hpp ****              CREATED= false;
 1148              		.loc 2 99 19 is_stmt 0
 1149 05c0 23850502 		sb	zero,42(a1)
 100:src/../h/tcb.hpp ****              WAITING= false;
 1150              		.loc 2 100 14 is_stmt 1
 100:src/../h/tcb.hpp ****              WAITING= false;
 1151              		.loc 2 100 21 is_stmt 0
 1152 05c4 A3850502 		sb	zero,43(a1)
 101:src/../h/tcb.hpp ****              SLEEPING= false;
 1153              		.loc 2 101 14 is_stmt 1
 101:src/../h/tcb.hpp ****              SLEEPING= false;
 1154              		.loc 2 101 21 is_stmt 0
 1155 05c8 23860502 		sb	zero,44(a1)
 1156              		.loc 2 102 14 is_stmt 1
 1157              	.LVL92:
 1158              	.LBE177:
 1159              	.LBE176:
 118:src/tcb.cpp   ****     Riscv::timelist->add(running,tm);
 1160              		.loc 1 118 5
 1161              	.LBB178:
 1162              	.LBB179:
  83:src/../h/tcb.hpp ****         void delSleeping(){SLEEPING= false;}
 1163              		.loc 2 83 28
  83:src/../h/tcb.hpp ****         void delSleeping(){SLEEPING= false;}
 1164              		.loc 2 83 36 is_stmt 0
 1165 05cc 93071000 		li	a5,1
 1166 05d0 A386F502 		sb	a5,45(a1)
 1167              	.LVL93:
 1168              	.LBE179:
 1169              	.LBE178:
 119:src/tcb.cpp   ****     dispatch();
 1170              		.loc 1 119 5 is_stmt 1
 119:src/tcb.cpp   ****     dispatch();
 1171              		.loc 1 119 25 is_stmt 0
 1172 05d4 97070000 		la	a5,_ZN5Riscv8timelistE
 1172      83B70700 
 1173 05dc 03B50700 		ld	a0,0(a5)
 1174              	.LVL94:
 1175 05e0 97000000 		call	_ZN8TimeList3addEP3TCBm@plt
GAS LISTING /tmp/ccS1nm3Y.s 			page 31


 1175      E7800000 
 1176              	.LVL95:
 120:src/tcb.cpp   **** 
 1177              		.loc 1 120 5 is_stmt 1
 120:src/tcb.cpp   **** 
 1178              		.loc 1 120 13 is_stmt 0
 1179 05e8 97000000 		call	_ZN3TCB8dispatchEv
 1179      E7800000 
 1180              	.LVL96:
 122:src/tcb.cpp   **** }
 1181              		.loc 1 122 5 is_stmt 1
 122:src/tcb.cpp   **** }
 1182              		.loc 1 122 12 is_stmt 0
 1183 05f0 13050000 		li	a0,0
 123:src/tcb.cpp   **** TCB * TCB::getOutputTh() {
 1184              		.loc 1 123 1
 1185 05f4 83308100 		ld	ra,8(sp)
 1186              		.cfi_restore 1
 1187 05f8 03340100 		ld	s0,0(sp)
 1188              		.cfi_restore 8
 1189              		.cfi_def_cfa 2, 16
 1190 05fc 13010101 		addi	sp,sp,16
 1191              		.cfi_def_cfa_offset 0
 1192 0600 67800000 		jr	ra
 1193              	.LVL97:
 1194              	.L66:
 115:src/tcb.cpp   **** 
 1195              		.loc 1 115 46
 1196 0604 1305F0FF 		li	a0,-1
 1197              	.LVL98:
 123:src/tcb.cpp   **** TCB * TCB::getOutputTh() {
 1198              		.loc 1 123 1
 1199 0608 67800000 		ret
 1200              		.cfi_endproc
 1201              	.LFE102:
 1203              		.align	2
 1204              		.globl	_ZN3TCB11getOutputThEv
 1206              	_ZN3TCB11getOutputThEv:
 1207              	.LFB103:
 124:src/tcb.cpp   ****     if(outputTh)return outputTh;
 1208              		.loc 1 124 26 is_stmt 1
 1209              		.cfi_startproc
 125:src/tcb.cpp   ****     outputTh= initThreadWithRun(outputThWrapper, nullptr, (uint64*)__mem_alloc(sizeof(uint64) * DEF
 1210              		.loc 1 125 5
 125:src/tcb.cpp   ****     outputTh= initThreadWithRun(outputThWrapper, nullptr, (uint64*)__mem_alloc(sizeof(uint64) * DEF
 1211              		.loc 1 125 16 is_stmt 0
 1212 060c 17050000 		ld	a0,.LANCHOR0+24
 1212      03350500 
 125:src/tcb.cpp   ****     outputTh= initThreadWithRun(outputThWrapper, nullptr, (uint64*)__mem_alloc(sizeof(uint64) * DEF
 1213              		.loc 1 125 5
 1214 0614 63040500 		beqz	a0,.L77
 130:src/tcb.cpp   **** void TCB::outputThWrapper(void *) {
 1215              		.loc 1 130 1
 1216 0618 67800000 		ret
 1217              	.L77:
 124:src/tcb.cpp   ****     if(outputTh)return outputTh;
 1218              		.loc 1 124 26
GAS LISTING /tmp/ccS1nm3Y.s 			page 32


 1219 061c 130101FF 		addi	sp,sp,-16
 1220              		.cfi_def_cfa_offset 16
 1221 0620 23341100 		sd	ra,8(sp)
 1222 0624 23308100 		sd	s0,0(sp)
 1223              		.cfi_offset 1, -8
 1224              		.cfi_offset 8, -16
 1225 0628 13040101 		addi	s0,sp,16
 1226              		.cfi_def_cfa 8, 0
 126:src/tcb.cpp   ****     outputTh->status.setSystematic();
 1227              		.loc 1 126 5 is_stmt 1
 126:src/tcb.cpp   ****     outputTh->status.setSystematic();
 1228              		.loc 1 126 79 is_stmt 0
 1229 062c 37850000 		li	a0,32768
 1230 0630 97000000 		call	__mem_alloc@plt
 1230      E7800000 
 1231              	.LVL99:
 1232 0638 13060500 		mv	a2,a0
 126:src/tcb.cpp   ****     outputTh->status.setSystematic();
 1233              		.loc 1 126 32
 1234 063c 93050000 		li	a1,0
 1235 0640 17050000 		lla	a0,_ZN3TCB15outputThWrapperEPv
 1235      13050500 
 1236 0648 97000000 		call	_ZN3TCB17initThreadWithRunEPFvPvES0_Pm
 1236      E7800000 
 1237              	.LVL100:
 126:src/tcb.cpp   ****     outputTh->status.setSystematic();
 1238              		.loc 1 126 13
 1239 0650 97070000 		lla	a5,.LANCHOR0
 1239      93870700 
 1240 0658 23BCA700 		sd	a0,24(a5)
 127:src/tcb.cpp   ****     outputTh->id=1;
 1241              		.loc 1 127 5 is_stmt 1
 1242              	.LVL101:
 1243              	.LBB180:
 1244              	.LBB181:
  94:src/../h/tcb.hpp ****         bool getSystematic(){return  SYSTEMATIC;}
 1245              		.loc 2 94 31
  94:src/../h/tcb.hpp ****         bool getSystematic(){return  SYSTEMATIC;}
 1246              		.loc 2 94 41 is_stmt 0
 1247 065c 13071000 		li	a4,1
 1248 0660 A307E502 		sb	a4,47(a0)
 1249              	.LVL102:
 1250              	.LBE181:
 1251              	.LBE180:
 128:src/tcb.cpp   ****     return outputTh;
 1252              		.loc 1 128 5 is_stmt 1
 128:src/tcb.cpp   ****     return outputTh;
 1253              		.loc 1 128 17 is_stmt 0
 1254 0664 13071000 		li	a4,1
 1255 0668 2320E500 		sw	a4,0(a0)
 129:src/tcb.cpp   **** }
 1256              		.loc 1 129 5 is_stmt 1
 129:src/tcb.cpp   **** }
 1257              		.loc 1 129 12 is_stmt 0
 1258 066c 03B58701 		ld	a0,24(a5)
 130:src/tcb.cpp   **** void TCB::outputThWrapper(void *) {
 1259              		.loc 1 130 1
GAS LISTING /tmp/ccS1nm3Y.s 			page 33


 1260 0670 83308100 		ld	ra,8(sp)
 1261              		.cfi_restore 1
 1262 0674 03340100 		ld	s0,0(sp)
 1263              		.cfi_restore 8
 1264              		.cfi_def_cfa 2, 16
 1265 0678 13010101 		addi	sp,sp,16
 1266              		.cfi_def_cfa_offset 0
 1267 067c 67800000 		jr	ra
 1268              		.cfi_endproc
 1269              	.LFE103:
 1271              		.globl	_ZN3TCB8outputThE
 1272              		.globl	_ZN3TCB6kernelE
 1273              		.globl	_ZN3TCB4idleE
 1274              		.globl	_ZN3TCB7runningE
 1275              		.globl	_ZN3TCB16timeSliceCounterE
 1276              		.bss
 1277              		.align	3
 1278              		.set	.LANCHOR0,. + 0
 1281              	_ZN3TCB7runningE:
 1282 0000 00000000 		.zero	8
 1282      00000000 
 1285              	_ZN3TCB6kernelE:
 1286 0008 00000000 		.zero	8
 1286      00000000 
 1289              	_ZN3TCB4idleE:
 1290 0010 00000000 		.zero	8
 1290      00000000 
 1293              	_ZN3TCB8outputThE:
 1294 0018 00000000 		.zero	8
 1294      00000000 
 1297              	_ZN3TCB16timeSliceCounterE:
 1298 0020 00000000 		.zero	8
 1298      00000000 
 1299              		.text
 1300              	.Letext0:
 1301              		.file 3 "src/../h/../lib/hw.h"
 1302              		.file 4 "src/../h/scheduler.hpp"
 1303              		.file 5 "src/../h/list.hpp"
 1304              		.file 6 "src/../h/syscall_c.hpp"
 1305              		.file 7 "src/../h/_sem.hpp"
 1306              		.file 8 "src/../h/Buffer.hpp"
 1307              		.file 9 "src/../h/TimeList.hpp"
 1308              		.file 10 "src/../h/riscv.hpp"
 1309              		.file 11 "src/../h/globals.hpp"
 1310              		.file 12 "src/../h/../lib/mem.h"
GAS LISTING /tmp/ccS1nm3Y.s 			page 34


DEFINED SYMBOLS
                            *ABS*:0000000000000000 tcb.cpp
     /tmp/ccS1nm3Y.s:9      .text:0000000000000000 _ZN3TCB13threadWrapperEv
     /tmp/ccS1nm3Y.s:13     .text:0000000000000000 .L0 
     /tmp/ccS1nm3Y.s:14     .text:0000000000000000 .L0 
     /tmp/ccS1nm3Y.s:15     .text:0000000000000004 .L0 
     /tmp/ccS1nm3Y.s:18     .text:000000000000000c .L0 
     /tmp/ccS1nm3Y.s:19     .text:000000000000000c .L0 
     /tmp/ccS1nm3Y.s:21     .text:0000000000000010 .L0 
     /tmp/ccS1nm3Y.s:23     .text:0000000000000010 .L0 
     /tmp/ccS1nm3Y.s:24     .text:0000000000000010 .L0 
     /tmp/ccS1nm3Y.s:27     .text:0000000000000018 .L0 
     /tmp/ccS1nm3Y.s:28     .text:0000000000000018 .L0 
     /tmp/ccS1nm3Y.s:31     .text:0000000000000024 .L0 
     /tmp/ccS1nm3Y.s:35     .text:000000000000002c .L0 
     /tmp/ccS1nm3Y.s:36     .text:000000000000002c .L0 
     /tmp/ccS1nm3Y.s:39     .text:0000000000000034 .L0 
     /tmp/ccS1nm3Y.s:40     .text:0000000000000038 .L0 
     /tmp/ccS1nm3Y.s:42     .text:000000000000003c .L0 
     /tmp/ccS1nm3Y.s:43     .text:000000000000003c .L0 
     /tmp/ccS1nm3Y.s:45     .text:0000000000000040 .L0 
     /tmp/ccS1nm3Y.s:47     .text:0000000000000044 .L0 
     /tmp/ccS1nm3Y.s:53     .text:0000000000000044 _ZN3TCB11idleWrapperEPv
     /tmp/ccS1nm3Y.s:56     .text:0000000000000044 .L0 
     /tmp/ccS1nm3Y.s:57     .text:0000000000000044 .L0 
     /tmp/ccS1nm3Y.s:58     .text:0000000000000048 .L0 
     /tmp/ccS1nm3Y.s:61     .text:0000000000000050 .L0 
     /tmp/ccS1nm3Y.s:62     .text:0000000000000050 .L0 
     /tmp/ccS1nm3Y.s:64     .text:0000000000000054 .L0 
     /tmp/ccS1nm3Y.s:67     .text:0000000000000054 .L0 
     /tmp/ccS1nm3Y.s:68     .text:0000000000000054 .L0 
     /tmp/ccS1nm3Y.s:69     .text:0000000000000054 .L0 
     /tmp/ccS1nm3Y.s:72     .text:000000000000005c .L0 
     /tmp/ccS1nm3Y.s:73     .text:0000000000000060 .L0 
     /tmp/ccS1nm3Y.s:79     .text:0000000000000060 _ZN3TCB15outputThWrapperEPv
     /tmp/ccS1nm3Y.s:82     .text:0000000000000060 .L0 
     /tmp/ccS1nm3Y.s:84     .text:0000000000000060 .L0 
     /tmp/ccS1nm3Y.s:86     .text:0000000000000060 .L0 
     /tmp/ccS1nm3Y.s:87     .text:0000000000000060 .L0 
     /tmp/ccS1nm3Y.s:88     .text:0000000000000060 .L0 
     /tmp/ccS1nm3Y.s:89     .text:0000000000000060 .L0 
     /tmp/ccS1nm3Y.s:93     .text:0000000000000070 .L0 
     /tmp/ccS1nm3Y.s:97     .text:0000000000000078 .L0 
     /tmp/ccS1nm3Y.s:98     .text:000000000000007c .L0 
     /tmp/ccS1nm3Y.s:101    .text:0000000000000084 .L0 
     /tmp/ccS1nm3Y.s:102    .text:0000000000000084 .L0 
     /tmp/ccS1nm3Y.s:104    .text:0000000000000088 .L0 
     /tmp/ccS1nm3Y.s:109    .text:0000000000000088 .L0 
     /tmp/ccS1nm3Y.s:110    .text:0000000000000088 .L0 
     /tmp/ccS1nm3Y.s:115    .text:000000000000009c .L0 
     /tmp/ccS1nm3Y.s:118    .text:00000000000000a8 .L0 
     /tmp/ccS1nm3Y.s:124    .text:00000000000000ac .L0 
     /tmp/ccS1nm3Y.s:125    .text:00000000000000ac .L0 
     /tmp/ccS1nm3Y.s:126    .text:00000000000000ac .L0 
     /tmp/ccS1nm3Y.s:127    .text:00000000000000ac .L0 
     /tmp/ccS1nm3Y.s:131    .text:00000000000000bc .L0 
     /tmp/ccS1nm3Y.s:135    .text:00000000000000c8 .L0 
GAS LISTING /tmp/ccS1nm3Y.s 			page 35


     /tmp/ccS1nm3Y.s:141    .text:00000000000000c8 _ZN3TCB17initThreadWithRunEPFvPvES0_Pm
     /tmp/ccS1nm3Y.s:144    .text:00000000000000c8 .L0 
     /tmp/ccS1nm3Y.s:146    .text:00000000000000c8 .L0 
     /tmp/ccS1nm3Y.s:147    .text:00000000000000cc .L0 
     /tmp/ccS1nm3Y.s:154    .text:00000000000000e4 .L0 
     /tmp/ccS1nm3Y.s:155    .text:00000000000000e4 .L0 
     /tmp/ccS1nm3Y.s:156    .text:00000000000000e4 .L0 
     /tmp/ccS1nm3Y.s:157    .text:00000000000000e4 .L0 
     /tmp/ccS1nm3Y.s:158    .text:00000000000000e4 .L0 
     /tmp/ccS1nm3Y.s:159    .text:00000000000000e4 .L0 
     /tmp/ccS1nm3Y.s:161    .text:00000000000000e8 .L0 
     /tmp/ccS1nm3Y.s:170    .text:00000000000000f4 .L0 
     /tmp/ccS1nm3Y.s:171    .text:00000000000000f4 .L0 
     /tmp/ccS1nm3Y.s:172    .text:00000000000000f4 .L0 
     /tmp/ccS1nm3Y.s:183    .text:0000000000000104 .L0 
     /tmp/ccS1nm3Y.s:190    .text:0000000000000110 .L0 
     /tmp/ccS1nm3Y.s:200    .text:0000000000000128 .L0 
     /tmp/ccS1nm3Y.s:207    .text:0000000000000134 .L0 
     /tmp/ccS1nm3Y.s:210    .text:0000000000000134 .L0 
     /tmp/ccS1nm3Y.s:211    .text:0000000000000134 .L0 
     /tmp/ccS1nm3Y.s:212    .text:0000000000000134 .L0 
     /tmp/ccS1nm3Y.s:216    .text:000000000000013c .L0 
     /tmp/ccS1nm3Y.s:225    .text:000000000000014c .L0 
     /tmp/ccS1nm3Y.s:226    .text:000000000000014c .L0 
     /tmp/ccS1nm3Y.s:227    .text:000000000000014c .L0 
     /tmp/ccS1nm3Y.s:228    .text:000000000000014c .L0 
     /tmp/ccS1nm3Y.s:229    .text:000000000000014c .L0 
     /tmp/ccS1nm3Y.s:230    .text:000000000000014c .L0 
     /tmp/ccS1nm3Y.s:232    .text:0000000000000150 .L0 
     /tmp/ccS1nm3Y.s:236    .text:0000000000000150 .L0 
     /tmp/ccS1nm3Y.s:239    .text:0000000000000150 .L0 
     /tmp/ccS1nm3Y.s:240    .text:0000000000000150 .L0 
     /tmp/ccS1nm3Y.s:241    .text:0000000000000150 .L0 
     /tmp/ccS1nm3Y.s:247    .text:0000000000000158 .L0 
     /tmp/ccS1nm3Y.s:248    .text:0000000000000158 .L0 
     /tmp/ccS1nm3Y.s:251    .text:0000000000000160 .L0 
     /tmp/ccS1nm3Y.s:252    .text:0000000000000160 .L0 
     /tmp/ccS1nm3Y.s:254    .text:0000000000000168 .L0 
     /tmp/ccS1nm3Y.s:256    .text:000000000000016c .L0 
     /tmp/ccS1nm3Y.s:257    .text:000000000000016c .L0 
     /tmp/ccS1nm3Y.s:259    .text:0000000000000170 .L0 
     /tmp/ccS1nm3Y.s:262    .text:0000000000000174 .L0 
     /tmp/ccS1nm3Y.s:265    .text:0000000000000178 .L0 
     /tmp/ccS1nm3Y.s:268    .text:000000000000017c .L0 
     /tmp/ccS1nm3Y.s:271    .text:0000000000000180 .L0 
     /tmp/ccS1nm3Y.s:273    .text:0000000000000184 .L0 
     /tmp/ccS1nm3Y.s:279    .text:0000000000000184 _ZN3TCB19initThreadWithNoRunEPFvPvES0_Pm
     /tmp/ccS1nm3Y.s:282    .text:0000000000000184 .L0 
     /tmp/ccS1nm3Y.s:284    .text:0000000000000184 .L0 
     /tmp/ccS1nm3Y.s:285    .text:0000000000000188 .L0 
     /tmp/ccS1nm3Y.s:291    .text:000000000000019c .L0 
     /tmp/ccS1nm3Y.s:292    .text:000000000000019c .L0 
     /tmp/ccS1nm3Y.s:293    .text:000000000000019c .L0 
     /tmp/ccS1nm3Y.s:294    .text:000000000000019c .L0 
     /tmp/ccS1nm3Y.s:295    .text:000000000000019c .L0 
     /tmp/ccS1nm3Y.s:297    .text:00000000000001a0 .L0 
     /tmp/ccS1nm3Y.s:305    .text:00000000000001ac .L0 
GAS LISTING /tmp/ccS1nm3Y.s 			page 36


     /tmp/ccS1nm3Y.s:306    .text:00000000000001ac .L0 
     /tmp/ccS1nm3Y.s:307    .text:00000000000001ac .L0 
     /tmp/ccS1nm3Y.s:316    .text:00000000000001b8 .L0 
     /tmp/ccS1nm3Y.s:323    .text:00000000000001c4 .L0 
     /tmp/ccS1nm3Y.s:334    .text:00000000000001e0 .L0 
     /tmp/ccS1nm3Y.s:341    .text:00000000000001ec .L0 
     /tmp/ccS1nm3Y.s:342    .text:00000000000001ec .L0 
     /tmp/ccS1nm3Y.s:343    .text:00000000000001ec .L0 
     /tmp/ccS1nm3Y.s:349    .text:00000000000001f4 .L0 
     /tmp/ccS1nm3Y.s:350    .text:00000000000001f4 .L0 
     /tmp/ccS1nm3Y.s:354    .text:00000000000001fc .L0 
     /tmp/ccS1nm3Y.s:361    .text:000000000000020c .L0 
     /tmp/ccS1nm3Y.s:362    .text:0000000000000210 .L0 
     /tmp/ccS1nm3Y.s:364    .text:0000000000000214 .L0 
     /tmp/ccS1nm3Y.s:365    .text:0000000000000214 .L0 
     /tmp/ccS1nm3Y.s:367    .text:0000000000000218 .L0 
     /tmp/ccS1nm3Y.s:369    .text:000000000000021c .L0 
     /tmp/ccS1nm3Y.s:372    .text:0000000000000220 .L0 
     /tmp/ccS1nm3Y.s:375    .text:0000000000000224 .L0 
     /tmp/ccS1nm3Y.s:377    .text:0000000000000228 .L0 
     /tmp/ccS1nm3Y.s:383    .text:0000000000000228 _ZN3TCB9getKernelEv
     /tmp/ccS1nm3Y.s:386    .text:0000000000000228 .L0 
     /tmp/ccS1nm3Y.s:387    .text:0000000000000228 .L0 
     /tmp/ccS1nm3Y.s:388    .text:0000000000000228 .L0 
     /tmp/ccS1nm3Y.s:389    .text:0000000000000228 .L0 
     /tmp/ccS1nm3Y.s:391    .text:0000000000000230 .L0 
     /tmp/ccS1nm3Y.s:393    .text:0000000000000234 .L0 
     /tmp/ccS1nm3Y.s:396    .text:0000000000000238 .L0 
     /tmp/ccS1nm3Y.s:397    .text:000000000000023c .L0 
     /tmp/ccS1nm3Y.s:400    .text:0000000000000244 .L0 
     /tmp/ccS1nm3Y.s:401    .text:0000000000000244 .L0 
     /tmp/ccS1nm3Y.s:403    .text:0000000000000248 .L0 
     /tmp/ccS1nm3Y.s:408    .text:0000000000000248 .L0 
     /tmp/ccS1nm3Y.s:409    .text:0000000000000248 .L0 
     /tmp/ccS1nm3Y.s:410    .text:0000000000000248 .L0 
     /tmp/ccS1nm3Y.s:420    .text:0000000000000254 .L0 
     /tmp/ccS1nm3Y.s:431    .text:0000000000000270 .L0 
     /tmp/ccS1nm3Y.s:432    .text:0000000000000270 .L0 
     /tmp/ccS1nm3Y.s:434    .text:0000000000000274 .L0 
     /tmp/ccS1nm3Y.s:435    .text:0000000000000274 .L0 
     /tmp/ccS1nm3Y.s:437    .text:0000000000000278 .L0 
     /tmp/ccS1nm3Y.s:438    .text:0000000000000278 .L0 
     /tmp/ccS1nm3Y.s:440    .text:000000000000027c .L0 
     /tmp/ccS1nm3Y.s:441    .text:000000000000027c .L0 
     /tmp/ccS1nm3Y.s:444    .text:0000000000000284 .L0 
     /tmp/ccS1nm3Y.s:445    .text:0000000000000284 .L0 
     /tmp/ccS1nm3Y.s:451    .text:000000000000028c .L0 
     /tmp/ccS1nm3Y.s:452    .text:000000000000028c .L0 
     /tmp/ccS1nm3Y.s:453    .text:000000000000028c .L0 
     /tmp/ccS1nm3Y.s:454    .text:000000000000028c .L0 
     /tmp/ccS1nm3Y.s:455    .text:000000000000028c .L0 
     /tmp/ccS1nm3Y.s:456    .text:000000000000028c .L0 
     /tmp/ccS1nm3Y.s:459    .text:000000000000028c .L0 
     /tmp/ccS1nm3Y.s:462    .text:000000000000028c .L0 
     /tmp/ccS1nm3Y.s:463    .text:000000000000028c .L0 
     /tmp/ccS1nm3Y.s:464    .text:000000000000028c .L0 
     /tmp/ccS1nm3Y.s:472    .text:0000000000000294 .L0 
GAS LISTING /tmp/ccS1nm3Y.s 			page 37


     /tmp/ccS1nm3Y.s:475    .text:00000000000002a0 .L0 
     /tmp/ccS1nm3Y.s:476    .text:00000000000002a0 .L0 
     /tmp/ccS1nm3Y.s:479    .text:00000000000002a8 .L0 
     /tmp/ccS1nm3Y.s:480    .text:00000000000002a8 .L0 
     /tmp/ccS1nm3Y.s:485    .text:00000000000002ac .L0 
     /tmp/ccS1nm3Y.s:486    .text:00000000000002ac .L0 
     /tmp/ccS1nm3Y.s:491    .text:00000000000002b0 .L0 
     /tmp/ccS1nm3Y.s:492    .text:00000000000002b0 .L0 
     /tmp/ccS1nm3Y.s:494    .text:00000000000002b4 .L0 
     /tmp/ccS1nm3Y.s:495    .text:00000000000002b4 .L0 
     /tmp/ccS1nm3Y.s:496    .text:00000000000002b8 .L0 
     /tmp/ccS1nm3Y.s:498    .text:00000000000002bc .L0 
     /tmp/ccS1nm3Y.s:499    .text:00000000000002bc .L0 
     /tmp/ccS1nm3Y.s:501    .text:00000000000002c0 .L0 
     /tmp/ccS1nm3Y.s:503    .text:00000000000002c4 .L0 
     /tmp/ccS1nm3Y.s:509    .text:00000000000002c4 _ZN3TCB8dispatchEv
     /tmp/ccS1nm3Y.s:512    .text:00000000000002c4 .L0 
     /tmp/ccS1nm3Y.s:513    .text:00000000000002c4 .L0 
     /tmp/ccS1nm3Y.s:514    .text:00000000000002c8 .L0 
     /tmp/ccS1nm3Y.s:518    .text:00000000000002d4 .L0 
     /tmp/ccS1nm3Y.s:519    .text:00000000000002d4 .L0 
     /tmp/ccS1nm3Y.s:520    .text:00000000000002d4 .L0 
     /tmp/ccS1nm3Y.s:522    .text:00000000000002d8 .L0 
     /tmp/ccS1nm3Y.s:524    .text:00000000000002d8 .L0 
     /tmp/ccS1nm3Y.s:525    .text:00000000000002d8 .L0 
     /tmp/ccS1nm3Y.s:530    .text:00000000000002e0 .L0 
     /tmp/ccS1nm3Y.s:531    .text:00000000000002e0 .L0 
     /tmp/ccS1nm3Y.s:532    .text:00000000000002e0 .L0 
     /tmp/ccS1nm3Y.s:537    .text:00000000000002e4 .L0 
     /tmp/ccS1nm3Y.s:540    .text:00000000000002e8 .L0 
     /tmp/ccS1nm3Y.s:541    .text:00000000000002e8 .L0 
     /tmp/ccS1nm3Y.s:544    .text:00000000000002f0 .L0 
     /tmp/ccS1nm3Y.s:546    .text:00000000000002f8 .L0 
     /tmp/ccS1nm3Y.s:551    .text:00000000000002fc .L0 
     /tmp/ccS1nm3Y.s:552    .text:00000000000002fc .L0 
     /tmp/ccS1nm3Y.s:553    .text:00000000000002fc .L0 
     /tmp/ccS1nm3Y.s:555    .text:0000000000000300 .L0 
     /tmp/ccS1nm3Y.s:556    .text:0000000000000300 .L0 
     /tmp/ccS1nm3Y.s:557    .text:0000000000000300 .L0 
     /tmp/ccS1nm3Y.s:559    .text:0000000000000304 .L0 
     /tmp/ccS1nm3Y.s:560    .text:0000000000000304 .L0 
     /tmp/ccS1nm3Y.s:562    .text:0000000000000308 .L0 
     /tmp/ccS1nm3Y.s:563    .text:0000000000000308 .L0 
     /tmp/ccS1nm3Y.s:565    .text:000000000000030c .L0 
     /tmp/ccS1nm3Y.s:566    .text:000000000000030c .L0 
     /tmp/ccS1nm3Y.s:573    .text:0000000000000310 .L0 
     /tmp/ccS1nm3Y.s:574    .text:0000000000000310 .L0 
     /tmp/ccS1nm3Y.s:575    .text:0000000000000310 .L0 
     /tmp/ccS1nm3Y.s:582    .text:0000000000000318 .L0 
     /tmp/ccS1nm3Y.s:583    .text:0000000000000318 .L0 
     /tmp/ccS1nm3Y.s:586    .text:0000000000000320 .L0 
     /tmp/ccS1nm3Y.s:587    .text:0000000000000320 .L0 
     /tmp/ccS1nm3Y.s:593    .text:0000000000000338 .L0 
     /tmp/ccS1nm3Y.s:594    .text:000000000000033c .L0 
     /tmp/ccS1nm3Y.s:595    .text:000000000000033c .L0 
     /tmp/ccS1nm3Y.s:597    .text:0000000000000340 .L0 
     /tmp/ccS1nm3Y.s:598    .text:0000000000000340 .L0 
GAS LISTING /tmp/ccS1nm3Y.s 			page 38


     /tmp/ccS1nm3Y.s:600    .text:0000000000000344 .L0 
     /tmp/ccS1nm3Y.s:603    .text:0000000000000348 .L0 
     /tmp/ccS1nm3Y.s:607    .text:000000000000034c .L0 
     /tmp/ccS1nm3Y.s:611    .text:000000000000034c .L0 
     /tmp/ccS1nm3Y.s:612    .text:000000000000034c .L0 
     /tmp/ccS1nm3Y.s:613    .text:000000000000034c .L0 
     /tmp/ccS1nm3Y.s:615    .text:0000000000000350 .L0 
     /tmp/ccS1nm3Y.s:616    .text:0000000000000350 .L0 
     /tmp/ccS1nm3Y.s:618    .text:0000000000000354 .L0 
     /tmp/ccS1nm3Y.s:619    .text:0000000000000354 .L0 
     /tmp/ccS1nm3Y.s:620    .text:0000000000000354 .L0 
     /tmp/ccS1nm3Y.s:622    .text:0000000000000358 .L0 
     /tmp/ccS1nm3Y.s:623    .text:0000000000000358 .L0 
     /tmp/ccS1nm3Y.s:625    .text:000000000000035c .L0 
     /tmp/ccS1nm3Y.s:626    .text:000000000000035c .L0 
     /tmp/ccS1nm3Y.s:633    .text:0000000000000360 .L0 
     /tmp/ccS1nm3Y.s:634    .text:0000000000000360 .L0 
     /tmp/ccS1nm3Y.s:635    .text:0000000000000360 .L0 
     /tmp/ccS1nm3Y.s:641    .text:0000000000000368 .L0 
     /tmp/ccS1nm3Y.s:642    .text:0000000000000368 .L0 
     /tmp/ccS1nm3Y.s:648    .text:0000000000000378 .L0 
     /tmp/ccS1nm3Y.s:649    .text:0000000000000378 .L0 
     /tmp/ccS1nm3Y.s:653    .text:000000000000038c .L0 
     /tmp/ccS1nm3Y.s:659    .text:000000000000038c _ZN3TCB5startEv
     /tmp/ccS1nm3Y.s:662    .text:000000000000038c .L0 
     /tmp/ccS1nm3Y.s:664    .text:000000000000038c .L0 
     /tmp/ccS1nm3Y.s:667    .text:000000000000038c .L0 
     /tmp/ccS1nm3Y.s:668    .text:000000000000038c .L0 
     /tmp/ccS1nm3Y.s:669    .text:000000000000038c .L0 
     /tmp/ccS1nm3Y.s:674    .text:0000000000000390 .L0 
     /tmp/ccS1nm3Y.s:676    .text:0000000000000394 .L0 
     /tmp/ccS1nm3Y.s:677    .text:0000000000000398 .L0 
     /tmp/ccS1nm3Y.s:680    .text:00000000000003a0 .L0 
     /tmp/ccS1nm3Y.s:681    .text:00000000000003a0 .L0 
     /tmp/ccS1nm3Y.s:683    .text:00000000000003a4 .L0 
     /tmp/ccS1nm3Y.s:688    .text:00000000000003a4 .L0 
     /tmp/ccS1nm3Y.s:689    .text:00000000000003a4 .L0 
     /tmp/ccS1nm3Y.s:690    .text:00000000000003a4 .L0 
     /tmp/ccS1nm3Y.s:692    .text:00000000000003a8 .L0 
     /tmp/ccS1nm3Y.s:693    .text:00000000000003a8 .L0 
     /tmp/ccS1nm3Y.s:695    .text:00000000000003ac .L0 
     /tmp/ccS1nm3Y.s:696    .text:00000000000003ac .L0 
     /tmp/ccS1nm3Y.s:697    .text:00000000000003ac .L0 
     /tmp/ccS1nm3Y.s:699    .text:00000000000003b0 .L0 
     /tmp/ccS1nm3Y.s:700    .text:00000000000003b0 .L0 
     /tmp/ccS1nm3Y.s:702    .text:00000000000003b4 .L0 
     /tmp/ccS1nm3Y.s:703    .text:00000000000003b4 .L0 
     /tmp/ccS1nm3Y.s:710    .text:00000000000003b8 .L0 
     /tmp/ccS1nm3Y.s:711    .text:00000000000003b8 .L0 
     /tmp/ccS1nm3Y.s:712    .text:00000000000003b8 .L0 
     /tmp/ccS1nm3Y.s:718    .text:00000000000003c0 .L0 
     /tmp/ccS1nm3Y.s:719    .text:00000000000003c0 .L0 
     /tmp/ccS1nm3Y.s:722    .text:00000000000003c8 .L0 
     /tmp/ccS1nm3Y.s:723    .text:00000000000003c8 .L0 
     /tmp/ccS1nm3Y.s:725    .text:00000000000003cc .L0 
     /tmp/ccS1nm3Y.s:726    .text:00000000000003d0 .L0 
     /tmp/ccS1nm3Y.s:728    .text:00000000000003d4 .L0 
GAS LISTING /tmp/ccS1nm3Y.s 			page 39


     /tmp/ccS1nm3Y.s:729    .text:00000000000003d4 .L0 
     /tmp/ccS1nm3Y.s:731    .text:00000000000003d8 .L0 
     /tmp/ccS1nm3Y.s:736    .text:00000000000003dc .L0 
     /tmp/ccS1nm3Y.s:739    .text:00000000000003e0 .L0 
     /tmp/ccS1nm3Y.s:740    .text:00000000000003e4 .L0 
     /tmp/ccS1nm3Y.s:746    .text:00000000000003e4 _ZN3TCB7getIdleEv
     /tmp/ccS1nm3Y.s:749    .text:00000000000003e4 .L0 
     /tmp/ccS1nm3Y.s:750    .text:00000000000003e4 .L0 
     /tmp/ccS1nm3Y.s:751    .text:00000000000003e4 .L0 
     /tmp/ccS1nm3Y.s:752    .text:00000000000003e4 .L0 
     /tmp/ccS1nm3Y.s:754    .text:00000000000003ec .L0 
     /tmp/ccS1nm3Y.s:756    .text:00000000000003f0 .L0 
     /tmp/ccS1nm3Y.s:757    .text:00000000000003f0 .L0 
     /tmp/ccS1nm3Y.s:761    .text:00000000000003fc .L0 
     /tmp/ccS1nm3Y.s:762    .text:0000000000000400 .L0 
     /tmp/ccS1nm3Y.s:765    .text:0000000000000408 .L0 
     /tmp/ccS1nm3Y.s:766    .text:0000000000000408 .L0 
     /tmp/ccS1nm3Y.s:768    .text:000000000000040c .L0 
     /tmp/ccS1nm3Y.s:770    .text:000000000000040c .L0 
     /tmp/ccS1nm3Y.s:771    .text:000000000000040c .L0 
     /tmp/ccS1nm3Y.s:776    .text:000000000000041c .L0 
     /tmp/ccS1nm3Y.s:781    .text:0000000000000430 .L0 
     /tmp/ccS1nm3Y.s:786    .text:0000000000000438 .L0 
     /tmp/ccS1nm3Y.s:787    .text:0000000000000438 .L0 
     /tmp/ccS1nm3Y.s:788    .text:0000000000000438 .L0 
     /tmp/ccS1nm3Y.s:790    .text:000000000000043c .L0 
     /tmp/ccS1nm3Y.s:791    .text:000000000000043c .L0 
     /tmp/ccS1nm3Y.s:793    .text:0000000000000440 .L0 
     /tmp/ccS1nm3Y.s:794    .text:0000000000000440 .L0 
     /tmp/ccS1nm3Y.s:796    .text:0000000000000444 .L0 
     /tmp/ccS1nm3Y.s:797    .text:0000000000000444 .L0 
     /tmp/ccS1nm3Y.s:799    .text:0000000000000448 .L0 
     /tmp/ccS1nm3Y.s:800    .text:0000000000000448 .L0 
     /tmp/ccS1nm3Y.s:802    .text:000000000000044c .L0 
     /tmp/ccS1nm3Y.s:803    .text:000000000000044c .L0 
     /tmp/ccS1nm3Y.s:810    .text:0000000000000450 .L0 
     /tmp/ccS1nm3Y.s:811    .text:0000000000000450 .L0 
     /tmp/ccS1nm3Y.s:812    .text:0000000000000450 .L0 
     /tmp/ccS1nm3Y.s:820    .text:0000000000000458 .L0 
     /tmp/ccS1nm3Y.s:821    .text:0000000000000458 .L0 
     /tmp/ccS1nm3Y.s:822    .text:0000000000000458 .L0 
     /tmp/ccS1nm3Y.s:827    .text:000000000000045c .L0 
     /tmp/ccS1nm3Y.s:828    .text:000000000000045c .L0 
     /tmp/ccS1nm3Y.s:831    .text:0000000000000464 .L0 
     /tmp/ccS1nm3Y.s:832    .text:0000000000000464 .L0 
     /tmp/ccS1nm3Y.s:834    .text:0000000000000470 .L0 
     /tmp/ccS1nm3Y.s:836    .text:0000000000000474 .L0 
     /tmp/ccS1nm3Y.s:837    .text:0000000000000474 .L0 
     /tmp/ccS1nm3Y.s:839    .text:0000000000000478 .L0 
     /tmp/ccS1nm3Y.s:841    .text:000000000000047c .L0 
     /tmp/ccS1nm3Y.s:847    .text:000000000000047c _ZN3TCB4exitEv
     /tmp/ccS1nm3Y.s:850    .text:000000000000047c .L0 
     /tmp/ccS1nm3Y.s:851    .text:000000000000047c .L0 
     /tmp/ccS1nm3Y.s:852    .text:000000000000047c .L0 
     /tmp/ccS1nm3Y.s:853    .text:000000000000047c .L0 
     /tmp/ccS1nm3Y.s:858    .text:0000000000000484 .L0 
     /tmp/ccS1nm3Y.s:859    .text:0000000000000484 .L0 
GAS LISTING /tmp/ccS1nm3Y.s 			page 40


     /tmp/ccS1nm3Y.s:864    .text:0000000000000488 .L0 
     /tmp/ccS1nm3Y.s:866    .text:000000000000048c .L0 
     /tmp/ccS1nm3Y.s:867    .text:0000000000000490 .L0 
     /tmp/ccS1nm3Y.s:870    .text:0000000000000498 .L0 
     /tmp/ccS1nm3Y.s:871    .text:0000000000000498 .L0 
     /tmp/ccS1nm3Y.s:873    .text:000000000000049c .L0 
     /tmp/ccS1nm3Y.s:878    .text:000000000000049c .L0 
     /tmp/ccS1nm3Y.s:879    .text:000000000000049c .L0 
     /tmp/ccS1nm3Y.s:880    .text:000000000000049c .L0 
     /tmp/ccS1nm3Y.s:881    .text:000000000000049c .L0 
     /tmp/ccS1nm3Y.s:883    .text:00000000000004a0 .L0 
     /tmp/ccS1nm3Y.s:884    .text:00000000000004a0 .L0 
     /tmp/ccS1nm3Y.s:886    .text:00000000000004a4 .L0 
     /tmp/ccS1nm3Y.s:887    .text:00000000000004a4 .L0 
     /tmp/ccS1nm3Y.s:889    .text:00000000000004a8 .L0 
     /tmp/ccS1nm3Y.s:890    .text:00000000000004a8 .L0 
     /tmp/ccS1nm3Y.s:892    .text:00000000000004ac .L0 
     /tmp/ccS1nm3Y.s:893    .text:00000000000004ac .L0 
     /tmp/ccS1nm3Y.s:900    .text:00000000000004b0 .L0 
     /tmp/ccS1nm3Y.s:901    .text:00000000000004b0 .L0 
     /tmp/ccS1nm3Y.s:902    .text:00000000000004b0 .L0 
     /tmp/ccS1nm3Y.s:908    .text:00000000000004b8 .L0 
     /tmp/ccS1nm3Y.s:909    .text:00000000000004b8 .L0 
     /tmp/ccS1nm3Y.s:912    .text:00000000000004c0 .L0 
     /tmp/ccS1nm3Y.s:913    .text:00000000000004c0 .L0 
     /tmp/ccS1nm3Y.s:915    .text:00000000000004c4 .L0 
     /tmp/ccS1nm3Y.s:916    .text:00000000000004c8 .L0 
     /tmp/ccS1nm3Y.s:918    .text:00000000000004cc .L0 
     /tmp/ccS1nm3Y.s:919    .text:00000000000004cc .L0 
     /tmp/ccS1nm3Y.s:921    .text:00000000000004d0 .L0 
     /tmp/ccS1nm3Y.s:925    .text:00000000000004d4 .L0 
     /tmp/ccS1nm3Y.s:927    .text:00000000000004d8 .L0 
     /tmp/ccS1nm3Y.s:928    .text:00000000000004dc .L0 
     /tmp/ccS1nm3Y.s:934    .text:00000000000004dc _ZN3TCB4waitEv
     /tmp/ccS1nm3Y.s:937    .text:00000000000004dc .L0 
     /tmp/ccS1nm3Y.s:938    .text:00000000000004dc .L0 
     /tmp/ccS1nm3Y.s:939    .text:00000000000004dc .L0 
     /tmp/ccS1nm3Y.s:940    .text:00000000000004dc .L0 
     /tmp/ccS1nm3Y.s:945    .text:00000000000004e4 .L0 
     /tmp/ccS1nm3Y.s:946    .text:00000000000004e4 .L0 
     /tmp/ccS1nm3Y.s:951    .text:00000000000004e8 .L0 
     /tmp/ccS1nm3Y.s:953    .text:00000000000004ec .L0 
     /tmp/ccS1nm3Y.s:954    .text:00000000000004f0 .L0 
     /tmp/ccS1nm3Y.s:957    .text:00000000000004f8 .L0 
     /tmp/ccS1nm3Y.s:958    .text:00000000000004f8 .L0 
     /tmp/ccS1nm3Y.s:960    .text:00000000000004fc .L0 
     /tmp/ccS1nm3Y.s:965    .text:00000000000004fc .L0 
     /tmp/ccS1nm3Y.s:966    .text:00000000000004fc .L0 
     /tmp/ccS1nm3Y.s:967    .text:00000000000004fc .L0 
     /tmp/ccS1nm3Y.s:969    .text:0000000000000500 .L0 
     /tmp/ccS1nm3Y.s:970    .text:0000000000000500 .L0 
     /tmp/ccS1nm3Y.s:972    .text:0000000000000504 .L0 
     /tmp/ccS1nm3Y.s:973    .text:0000000000000504 .L0 
     /tmp/ccS1nm3Y.s:975    .text:0000000000000508 .L0 
     /tmp/ccS1nm3Y.s:976    .text:0000000000000508 .L0 
     /tmp/ccS1nm3Y.s:978    .text:000000000000050c .L0 
     /tmp/ccS1nm3Y.s:979    .text:000000000000050c .L0 
GAS LISTING /tmp/ccS1nm3Y.s 			page 41


     /tmp/ccS1nm3Y.s:980    .text:000000000000050c .L0 
     /tmp/ccS1nm3Y.s:987    .text:0000000000000510 .L0 
     /tmp/ccS1nm3Y.s:988    .text:0000000000000510 .L0 
     /tmp/ccS1nm3Y.s:989    .text:0000000000000510 .L0 
     /tmp/ccS1nm3Y.s:995    .text:0000000000000518 .L0 
     /tmp/ccS1nm3Y.s:996    .text:0000000000000518 .L0 
     /tmp/ccS1nm3Y.s:999    .text:0000000000000520 .L0 
     /tmp/ccS1nm3Y.s:1000   .text:0000000000000520 .L0 
     /tmp/ccS1nm3Y.s:1002   .text:0000000000000524 .L0 
     /tmp/ccS1nm3Y.s:1003   .text:0000000000000528 .L0 
     /tmp/ccS1nm3Y.s:1005   .text:000000000000052c .L0 
     /tmp/ccS1nm3Y.s:1006   .text:000000000000052c .L0 
     /tmp/ccS1nm3Y.s:1008   .text:0000000000000530 .L0 
     /tmp/ccS1nm3Y.s:1012   .text:0000000000000534 .L0 
     /tmp/ccS1nm3Y.s:1014   .text:0000000000000538 .L0 
     /tmp/ccS1nm3Y.s:1015   .text:000000000000053c .L0 
     /tmp/ccS1nm3Y.s:1021   .text:000000000000053c _ZN3TCB14releaseWaitingEv
     /tmp/ccS1nm3Y.s:1024   .text:000000000000053c .L0 
     /tmp/ccS1nm3Y.s:1026   .text:000000000000053c .L0 
     /tmp/ccS1nm3Y.s:1029   .text:000000000000053c .L0 
     /tmp/ccS1nm3Y.s:1030   .text:000000000000053c .L0 
     /tmp/ccS1nm3Y.s:1031   .text:000000000000053c .L0 
     /tmp/ccS1nm3Y.s:1036   .text:0000000000000540 .L0 
     /tmp/ccS1nm3Y.s:1038   .text:0000000000000544 .L0 
     /tmp/ccS1nm3Y.s:1039   .text:0000000000000548 .L0 
     /tmp/ccS1nm3Y.s:1042   .text:0000000000000550 .L0 
     /tmp/ccS1nm3Y.s:1043   .text:0000000000000550 .L0 
     /tmp/ccS1nm3Y.s:1045   .text:0000000000000554 .L0 
     /tmp/ccS1nm3Y.s:1050   .text:0000000000000554 .L0 
     /tmp/ccS1nm3Y.s:1051   .text:0000000000000554 .L0 
     /tmp/ccS1nm3Y.s:1052   .text:0000000000000554 .L0 
     /tmp/ccS1nm3Y.s:1054   .text:0000000000000558 .L0 
     /tmp/ccS1nm3Y.s:1055   .text:0000000000000558 .L0 
     /tmp/ccS1nm3Y.s:1057   .text:000000000000055c .L0 
     /tmp/ccS1nm3Y.s:1058   .text:000000000000055c .L0 
     /tmp/ccS1nm3Y.s:1059   .text:000000000000055c .L0 
     /tmp/ccS1nm3Y.s:1061   .text:0000000000000560 .L0 
     /tmp/ccS1nm3Y.s:1062   .text:0000000000000560 .L0 
     /tmp/ccS1nm3Y.s:1064   .text:0000000000000564 .L0 
     /tmp/ccS1nm3Y.s:1065   .text:0000000000000564 .L0 
     /tmp/ccS1nm3Y.s:1072   .text:0000000000000568 .L0 
     /tmp/ccS1nm3Y.s:1073   .text:0000000000000568 .L0 
     /tmp/ccS1nm3Y.s:1074   .text:0000000000000568 .L0 
     /tmp/ccS1nm3Y.s:1080   .text:0000000000000570 .L0 
     /tmp/ccS1nm3Y.s:1081   .text:0000000000000570 .L0 
     /tmp/ccS1nm3Y.s:1084   .text:0000000000000578 .L0 
     /tmp/ccS1nm3Y.s:1085   .text:0000000000000578 .L0 
     /tmp/ccS1nm3Y.s:1087   .text:000000000000057c .L0 
     /tmp/ccS1nm3Y.s:1088   .text:0000000000000580 .L0 
     /tmp/ccS1nm3Y.s:1090   .text:0000000000000584 .L0 
     /tmp/ccS1nm3Y.s:1091   .text:0000000000000584 .L0 
     /tmp/ccS1nm3Y.s:1093   .text:0000000000000588 .L0 
     /tmp/ccS1nm3Y.s:1098   .text:000000000000058c .L0 
     /tmp/ccS1nm3Y.s:1101   .text:0000000000000590 .L0 
     /tmp/ccS1nm3Y.s:1102   .text:0000000000000594 .L0 
     /tmp/ccS1nm3Y.s:1108   .text:0000000000000594 _ZN3TCB5sleepEm
     /tmp/ccS1nm3Y.s:1111   .text:0000000000000594 .L0 
GAS LISTING /tmp/ccS1nm3Y.s 			page 42


     /tmp/ccS1nm3Y.s:1113   .text:0000000000000594 .L0 
     /tmp/ccS1nm3Y.s:1114   .text:0000000000000594 .L0 
     /tmp/ccS1nm3Y.s:1115   .text:0000000000000594 .L0 
     /tmp/ccS1nm3Y.s:1120   .text:000000000000059c .L0 
     /tmp/ccS1nm3Y.s:1121   .text:000000000000059c .L0 
     /tmp/ccS1nm3Y.s:1126   .text:00000000000005a0 .L0 
     /tmp/ccS1nm3Y.s:1128   .text:00000000000005a4 .L0 
     /tmp/ccS1nm3Y.s:1129   .text:00000000000005a8 .L0 
     /tmp/ccS1nm3Y.s:1132   .text:00000000000005b0 .L0 
     /tmp/ccS1nm3Y.s:1133   .text:00000000000005b0 .L0 
     /tmp/ccS1nm3Y.s:1135   .text:00000000000005b4 .L0 
     /tmp/ccS1nm3Y.s:1141   .text:00000000000005b8 .L0 
     /tmp/ccS1nm3Y.s:1142   .text:00000000000005b8 .L0 
     /tmp/ccS1nm3Y.s:1143   .text:00000000000005b8 .L0 
     /tmp/ccS1nm3Y.s:1145   .text:00000000000005bc .L0 
     /tmp/ccS1nm3Y.s:1146   .text:00000000000005bc .L0 
     /tmp/ccS1nm3Y.s:1148   .text:00000000000005c0 .L0 
     /tmp/ccS1nm3Y.s:1149   .text:00000000000005c0 .L0 
     /tmp/ccS1nm3Y.s:1151   .text:00000000000005c4 .L0 
     /tmp/ccS1nm3Y.s:1152   .text:00000000000005c4 .L0 
     /tmp/ccS1nm3Y.s:1154   .text:00000000000005c8 .L0 
     /tmp/ccS1nm3Y.s:1155   .text:00000000000005c8 .L0 
     /tmp/ccS1nm3Y.s:1160   .text:00000000000005cc .L0 
     /tmp/ccS1nm3Y.s:1163   .text:00000000000005cc .L0 
     /tmp/ccS1nm3Y.s:1164   .text:00000000000005cc .L0 
     /tmp/ccS1nm3Y.s:1165   .text:00000000000005cc .L0 
     /tmp/ccS1nm3Y.s:1171   .text:00000000000005d4 .L0 
     /tmp/ccS1nm3Y.s:1172   .text:00000000000005d4 .L0 
     /tmp/ccS1nm3Y.s:1178   .text:00000000000005e8 .L0 
     /tmp/ccS1nm3Y.s:1179   .text:00000000000005e8 .L0 
     /tmp/ccS1nm3Y.s:1182   .text:00000000000005f0 .L0 
     /tmp/ccS1nm3Y.s:1183   .text:00000000000005f0 .L0 
     /tmp/ccS1nm3Y.s:1185   .text:00000000000005f4 .L0 
     /tmp/ccS1nm3Y.s:1186   .text:00000000000005f8 .L0 
     /tmp/ccS1nm3Y.s:1188   .text:00000000000005fc .L0 
     /tmp/ccS1nm3Y.s:1189   .text:00000000000005fc .L0 
     /tmp/ccS1nm3Y.s:1191   .text:0000000000000600 .L0 
     /tmp/ccS1nm3Y.s:1196   .text:0000000000000604 .L0 
     /tmp/ccS1nm3Y.s:1199   .text:0000000000000608 .L0 
     /tmp/ccS1nm3Y.s:1200   .text:000000000000060c .L0 
     /tmp/ccS1nm3Y.s:1206   .text:000000000000060c _ZN3TCB11getOutputThEv
     /tmp/ccS1nm3Y.s:1209   .text:000000000000060c .L0 
     /tmp/ccS1nm3Y.s:1210   .text:000000000000060c .L0 
     /tmp/ccS1nm3Y.s:1211   .text:000000000000060c .L0 
     /tmp/ccS1nm3Y.s:1212   .text:000000000000060c .L0 
     /tmp/ccS1nm3Y.s:1214   .text:0000000000000614 .L0 
     /tmp/ccS1nm3Y.s:1216   .text:0000000000000618 .L0 
     /tmp/ccS1nm3Y.s:1219   .text:000000000000061c .L0 
     /tmp/ccS1nm3Y.s:1220   .text:0000000000000620 .L0 
     /tmp/ccS1nm3Y.s:1223   .text:0000000000000628 .L0 
     /tmp/ccS1nm3Y.s:1224   .text:0000000000000628 .L0 
     /tmp/ccS1nm3Y.s:1226   .text:000000000000062c .L0 
     /tmp/ccS1nm3Y.s:1228   .text:000000000000062c .L0 
     /tmp/ccS1nm3Y.s:1229   .text:000000000000062c .L0 
     /tmp/ccS1nm3Y.s:1234   .text:000000000000063c .L0 
     /tmp/ccS1nm3Y.s:1239   .text:0000000000000650 .L0 
     /tmp/ccS1nm3Y.s:1245   .text:000000000000065c .L0 
GAS LISTING /tmp/ccS1nm3Y.s 			page 43


     /tmp/ccS1nm3Y.s:1246   .text:000000000000065c .L0 
     /tmp/ccS1nm3Y.s:1247   .text:000000000000065c .L0 
     /tmp/ccS1nm3Y.s:1253   .text:0000000000000664 .L0 
     /tmp/ccS1nm3Y.s:1254   .text:0000000000000664 .L0 
     /tmp/ccS1nm3Y.s:1257   .text:000000000000066c .L0 
     /tmp/ccS1nm3Y.s:1258   .text:000000000000066c .L0 
     /tmp/ccS1nm3Y.s:1260   .text:0000000000000670 .L0 
     /tmp/ccS1nm3Y.s:1261   .text:0000000000000674 .L0 
     /tmp/ccS1nm3Y.s:1263   .text:0000000000000678 .L0 
     /tmp/ccS1nm3Y.s:1264   .text:0000000000000678 .L0 
     /tmp/ccS1nm3Y.s:1266   .text:000000000000067c .L0 
     /tmp/ccS1nm3Y.s:1268   .text:0000000000000680 .L0 
     /tmp/ccS1nm3Y.s:1293   .bss:0000000000000018 _ZN3TCB8outputThE
     /tmp/ccS1nm3Y.s:1285   .bss:0000000000000008 _ZN3TCB6kernelE
     /tmp/ccS1nm3Y.s:1289   .bss:0000000000000010 _ZN3TCB4idleE
     /tmp/ccS1nm3Y.s:1281   .bss:0000000000000000 _ZN3TCB7runningE
     /tmp/ccS1nm3Y.s:1297   .bss:0000000000000020 _ZN3TCB16timeSliceCounterE
     /tmp/ccS1nm3Y.s:1278   .bss:0000000000000000 .LANCHOR0
     /tmp/ccS1nm3Y.s:1311   .text:0000000000000680 .L0 
     /tmp/ccS1nm3Y.s:28     .text:0000000000000018 .L0 
     /tmp/ccS1nm3Y.s:89     .text:0000000000000060 .L0 
     /tmp/ccS1nm3Y.s:110    .text:0000000000000088 .L0 
     /tmp/ccS1nm3Y.s:115    .text:000000000000009c .L0 
     /tmp/ccS1nm3Y.s:127    .text:00000000000000ac .L0 
     /tmp/ccS1nm3Y.s:216    .text:000000000000013c .L0 
     /tmp/ccS1nm3Y.s:354    .text:00000000000001fc .L0 
     /tmp/ccS1nm3Y.s:389    .text:0000000000000228 .L0 
     /tmp/ccS1nm3Y.s:472    .text:0000000000000294 .L0 
     /tmp/ccS1nm3Y.s:525    .text:00000000000002d8 .L0 
     /tmp/ccS1nm3Y.s:544    .text:00000000000002f0 .L0 
     /tmp/ccS1nm3Y.s:587    .text:0000000000000320 .L0 
     /tmp/ccS1nm3Y.s:649    .text:0000000000000378 .L0 
     /tmp/ccS1nm3Y.s:752    .text:00000000000003e4 .L0 
     /tmp/ccS1nm3Y.s:757    .text:00000000000003f0 .L0 
     /tmp/ccS1nm3Y.s:777    .text:0000000000000420 .L0 
     /tmp/ccS1nm3Y.s:781    .text:0000000000000430 .L0 
     /tmp/ccS1nm3Y.s:832    .text:0000000000000464 .L0 
     /tmp/ccS1nm3Y.s:853    .text:000000000000047c .L0 
     /tmp/ccS1nm3Y.s:940    .text:00000000000004dc .L0 
     /tmp/ccS1nm3Y.s:1115   .text:0000000000000594 .L0 
     /tmp/ccS1nm3Y.s:1172   .text:00000000000005d4 .L0 
     /tmp/ccS1nm3Y.s:1212   .text:000000000000060c .L0 
     /tmp/ccS1nm3Y.s:1235   .text:0000000000000640 .L0 
     /tmp/ccS1nm3Y.s:1239   .text:0000000000000650 .L0 
     /tmp/ccS1nm3Y.s:65     .text:0000000000000054 .L4
     /tmp/ccS1nm3Y.s:83     .text:0000000000000060 .L10
     /tmp/ccS1nm3Y.s:119    .text:00000000000000ac .L7
     /tmp/ccS1nm3Y.s:105    .text:0000000000000088 .L11
     /tmp/ccS1nm3Y.s:394    .text:0000000000000238 .L22
     /tmp/ccS1nm3Y.s:606    .text:000000000000034c .L28
     /tmp/ccS1nm3Y.s:646    .text:0000000000000378 .L25
     /tmp/ccS1nm3Y.s:538    .text:00000000000002e8 .L24
     /tmp/ccS1nm3Y.s:578    .text:0000000000000318 .L26
     /tmp/ccS1nm3Y.s:734    .text:00000000000003dc .L31
     /tmp/ccS1nm3Y.s:759    .text:00000000000003fc .L42
     /tmp/ccS1nm3Y.s:923    .text:00000000000004d4 .L45
     /tmp/ccS1nm3Y.s:1010   .text:0000000000000534 .L52
GAS LISTING /tmp/ccS1nm3Y.s 			page 44


     /tmp/ccS1nm3Y.s:1096   .text:000000000000058c .L59
     /tmp/ccS1nm3Y.s:1194   .text:0000000000000604 .L66
     /tmp/ccS1nm3Y.s:1217   .text:000000000000061c .L77
     /tmp/ccS1nm3Y.s:4799   .debug_abbrev:0000000000000000 .Ldebug_abbrev0
     /tmp/ccS1nm3Y.s:7388   .debug_str:0000000000000ff1 .LASF323
     /tmp/ccS1nm3Y.s:7078   .debug_str:0000000000000631 .LASF324
     /tmp/ccS1nm3Y.s:7148   .debug_str:0000000000000891 .LASF325
     /tmp/ccS1nm3Y.s:5      .text:0000000000000000 .Ltext0
     /tmp/ccS1nm3Y.s:1300   .text:0000000000000680 .Letext0
     /tmp/ccS1nm3Y.s:6866   .debug_line:0000000000000000 .Ldebug_line0
     /tmp/ccS1nm3Y.s:7080   .debug_str:000000000000063d .LASF0
     /tmp/ccS1nm3Y.s:7122   .debug_str:00000000000007bd .LASF1
     /tmp/ccS1nm3Y.s:7278   .debug_str:0000000000000cad .LASF2
     /tmp/ccS1nm3Y.s:7290   .debug_str:0000000000000d0f .LASF4
     /tmp/ccS1nm3Y.s:7092   .debug_str:00000000000006c0 .LASF3
     /tmp/ccS1nm3Y.s:6890   .debug_str:00000000000000bc .LASF5
     /tmp/ccS1nm3Y.s:7242   .debug_str:0000000000000b9b .LASF6
     /tmp/ccS1nm3Y.s:7228   .debug_str:0000000000000b0e .LASF7
     /tmp/ccS1nm3Y.s:7110   .debug_str:0000000000000752 .LASF8
     /tmp/ccS1nm3Y.s:7036   .debug_str:0000000000000510 .LASF9
     /tmp/ccS1nm3Y.s:7052   .debug_str:0000000000000573 .LASF10
     /tmp/ccS1nm3Y.s:6950   .debug_str:00000000000002a5 .LASF11
     /tmp/ccS1nm3Y.s:7024   .debug_str:00000000000004c8 .LASF12
     /tmp/ccS1nm3Y.s:6974   .debug_str:0000000000000352 .LASF13
     /tmp/ccS1nm3Y.s:6948   .debug_str:0000000000000295 .LASF14
     /tmp/ccS1nm3Y.s:7350   .debug_str:0000000000000ecd .LASF15
     /tmp/ccS1nm3Y.s:7006   .debug_str:000000000000042b .LASF16
     /tmp/ccS1nm3Y.s:7330   .debug_str:0000000000000e16 .LASF17
     /tmp/ccS1nm3Y.s:7034   .debug_str:0000000000000506 .LASF18
     /tmp/ccS1nm3Y.s:7364   .debug_str:0000000000000f2b .LASF113
     /tmp/ccS1nm3Y.s:7500   .debug_str:000000000000149b .LASF326
     /tmp/ccS1nm3Y.s:7070   .debug_str:00000000000005df .LASF327
     /tmp/ccS1nm3Y.s:7444   .debug_str:00000000000012ad .LASF19
     /tmp/ccS1nm3Y.s:7430   .debug_str:0000000000001218 .LASF225
     /tmp/ccS1nm3Y.s:7342   .debug_str:0000000000000e9b .LASF20
     /tmp/ccS1nm3Y.s:7190   .debug_str:0000000000000a04 .LASF21
     /tmp/ccS1nm3Y.s:7022   .debug_str:00000000000004bd .LASF22
     /tmp/ccS1nm3Y.s:7178   .debug_str:00000000000009b0 .LASF23
     /tmp/ccS1nm3Y.s:7332   .debug_str:0000000000000e2c .LASF28
     /tmp/ccS1nm3Y.s:7018   .debug_str:0000000000000498 .LASF25
     /tmp/ccS1nm3Y.s:7280   .debug_str:0000000000000cbb .LASF228
     /tmp/ccS1nm3Y.s:7266   .debug_str:0000000000000c53 .LASF229
     /tmp/ccS1nm3Y.s:7120   .debug_str:00000000000007b8 .LASF24
     /tmp/ccS1nm3Y.s:7292   .debug_str:0000000000000d16 .LASF26
     /tmp/ccS1nm3Y.s:7118   .debug_str:00000000000007af .LASF27
     /tmp/ccS1nm3Y.s:6934   .debug_str:000000000000021c .LASF29
     /tmp/ccS1nm3Y.s:7142   .debug_str:0000000000000877 .LASF30
     /tmp/ccS1nm3Y.s:7008   .debug_str:0000000000000441 .LASF31
     /tmp/ccS1nm3Y.s:7222   .debug_str:0000000000000aed .LASF32
     /tmp/ccS1nm3Y.s:7448   .debug_str:00000000000012c7 .LASF33
     /tmp/ccS1nm3Y.s:7048   .debug_str:0000000000000558 .LASF34
     /tmp/ccS1nm3Y.s:6886   .debug_str:0000000000000092 .LASF35
     /tmp/ccS1nm3Y.s:7528   .debug_str:0000000000001599 .LASF36
     /tmp/ccS1nm3Y.s:7504   .debug_str:00000000000014b6 .LASF37
     /tmp/ccS1nm3Y.s:7314   .debug_str:0000000000000dc7 .LASF38
     /tmp/ccS1nm3Y.s:7108   .debug_str:0000000000000735 .LASF39
     /tmp/ccS1nm3Y.s:7258   .debug_str:0000000000000c18 .LASF40
GAS LISTING /tmp/ccS1nm3Y.s 			page 45


     /tmp/ccS1nm3Y.s:6880   .debug_str:0000000000000044 .LASF41
     /tmp/ccS1nm3Y.s:7360   .debug_str:0000000000000f18 .LASF42
     /tmp/ccS1nm3Y.s:7496   .debug_str:000000000000148e .LASF43
     /tmp/ccS1nm3Y.s:6930   .debug_str:0000000000000205 .LASF44
     /tmp/ccS1nm3Y.s:7316   .debug_str:0000000000000dd2 .LASF45
     /tmp/ccS1nm3Y.s:7366   .debug_str:0000000000000f3f .LASF46
     /tmp/ccS1nm3Y.s:7246   .debug_str:0000000000000bab .LASF47
     /tmp/ccS1nm3Y.s:7516   .debug_str:000000000000154c .LASF48
     /tmp/ccS1nm3Y.s:6956   .debug_str:00000000000002dd .LASF49
     /tmp/ccS1nm3Y.s:7046   .debug_str:0000000000000553 .LASF50
     /tmp/ccS1nm3Y.s:7174   .debug_str:000000000000097e .LASF51
     /tmp/ccS1nm3Y.s:7512   .debug_str:0000000000001524 .LASF53
     /tmp/ccS1nm3Y.s:7320   .debug_str:0000000000000de6 .LASF55
     /tmp/ccS1nm3Y.s:6876   .debug_str:0000000000000022 .LASF52
     /tmp/ccS1nm3Y.s:7470   .debug_str:0000000000001383 .LASF135
     /tmp/ccS1nm3Y.s:6922   .debug_str:00000000000001bf .LASF54
     /tmp/ccS1nm3Y.s:7212   .debug_str:0000000000000a9f .LASF56
     /tmp/ccS1nm3Y.s:7284   .debug_str:0000000000000ce5 .LASF57
     /tmp/ccS1nm3Y.s:7406   .debug_str:000000000000113e .LASF58
     /tmp/ccS1nm3Y.s:6872   .debug_str:0000000000000012 .LASF59
     /tmp/ccS1nm3Y.s:7344   .debug_str:0000000000000ea0 .LASF60
     /tmp/ccS1nm3Y.s:7400   .debug_str:00000000000010ff .LASF61
     /tmp/ccS1nm3Y.s:7182   .debug_str:00000000000009c5 .LASF62
     /tmp/ccS1nm3Y.s:6914   .debug_str:0000000000000180 .LASF63
     /tmp/ccS1nm3Y.s:7166   .debug_str:0000000000000929 .LASF64
     /tmp/ccS1nm3Y.s:7042   .debug_str:0000000000000537 .LASF65
     /tmp/ccS1nm3Y.s:7416   .debug_str:00000000000011ba .LASF66
     /tmp/ccS1nm3Y.s:7464   .debug_str:0000000000001361 .LASF67
     /tmp/ccS1nm3Y.s:6942   .debug_str:000000000000025e .LASF68
     /tmp/ccS1nm3Y.s:7348   .debug_str:0000000000000ec2 .LASF69
     /tmp/ccS1nm3Y.s:7402   .debug_str:000000000000110a .LASF70
     /tmp/ccS1nm3Y.s:7210   .debug_str:0000000000000a94 .LASF71
     /tmp/ccS1nm3Y.s:7116   .debug_str:0000000000000792 .LASF72
     /tmp/ccS1nm3Y.s:7450   .debug_str:00000000000012e5 .LASF73
     /tmp/ccS1nm3Y.s:6918   .debug_str:000000000000019a .LASF74
     /tmp/ccS1nm3Y.s:7386   .debug_str:0000000000000fe5 .LASF75
     /tmp/ccS1nm3Y.s:7202   .debug_str:0000000000000a45 .LASF76
     /tmp/ccS1nm3Y.s:7318   .debug_str:0000000000000dda .LASF77
     /tmp/ccS1nm3Y.s:7398   .debug_str:00000000000010e1 .LASF78
     /tmp/ccS1nm3Y.s:7068   .debug_str:00000000000005d7 .LASF79
     /tmp/ccS1nm3Y.s:7026   .debug_str:00000000000004d7 .LASF80
     /tmp/ccS1nm3Y.s:7154   .debug_str:00000000000008c9 .LASF81
     /tmp/ccS1nm3Y.s:7340   .debug_str:0000000000000e82 .LASF82
     /tmp/ccS1nm3Y.s:7188   .debug_str:00000000000009f8 .LASF83
     /tmp/ccS1nm3Y.s:7094   .debug_str:00000000000006d2 .LASF84
     /tmp/ccS1nm3Y.s:7040   .debug_str:000000000000052c .LASF85
     /tmp/ccS1nm3Y.s:7488   .debug_str:0000000000001423 .LASF86
     /tmp/ccS1nm3Y.s:7272   .debug_str:0000000000000c87 .LASF87
     /tmp/ccS1nm3Y.s:6924   .debug_str:00000000000001cb .LASF88
     /tmp/ccS1nm3Y.s:6984   .debug_str:00000000000003af .LASF89
     /tmp/ccS1nm3Y.s:7082   .debug_str:000000000000064a .LASF90
     /tmp/ccS1nm3Y.s:7390   .debug_str:00000000000010b5 .LASF91
     /tmp/ccS1nm3Y.s:7458   .debug_str:0000000000001321 .LASF92
     /tmp/ccS1nm3Y.s:6928   .debug_str:00000000000001f9 .LASF93
     /tmp/ccS1nm3Y.s:6896   .debug_str:00000000000000d7 .LASF94
     /tmp/ccS1nm3Y.s:7418   .debug_str:00000000000011d4 .LASF95
     /tmp/ccS1nm3Y.s:7440   .debug_str:000000000000128d .LASF96
GAS LISTING /tmp/ccS1nm3Y.s 			page 46


     /tmp/ccS1nm3Y.s:7216   .debug_str:0000000000000ac7 .LASF97
     /tmp/ccS1nm3Y.s:6954   .debug_str:00000000000002bd .LASF98
     /tmp/ccS1nm3Y.s:6906   .debug_str:0000000000000134 .LASF99
     /tmp/ccS1nm3Y.s:7282   .debug_str:0000000000000cc5 .LASF100
     /tmp/ccS1nm3Y.s:7468   .debug_str:000000000000137c .LASF101
     /tmp/ccS1nm3Y.s:7268   .debug_str:0000000000000c6a .LASF102
     /tmp/ccS1nm3Y.s:7286   .debug_str:0000000000000cf1 .LASF328
     /tmp/ccS1nm3Y.s:7248   .debug_str:0000000000000bb3 .LASF103
     /tmp/ccS1nm3Y.s:6884   .debug_str:0000000000000086 .LASF104
     /tmp/ccS1nm3Y.s:7506   .debug_str:00000000000014d1 .LASF105
     /tmp/ccS1nm3Y.s:7090   .debug_str:0000000000000699 .LASF106
     /tmp/ccS1nm3Y.s:7270   .debug_str:0000000000000c82 .LASF329
     /tmp/ccS1nm3Y.s:7164   .debug_str:0000000000000915 .LASF107
     /tmp/ccS1nm3Y.s:7508   .debug_str:00000000000014e3 .LASF108
     /tmp/ccS1nm3Y.s:7032   .debug_str:00000000000004fe .LASF109
     /tmp/ccS1nm3Y.s:7028   .debug_str:00000000000004f0 .LASF110
     /tmp/ccS1nm3Y.s:7502   .debug_str:00000000000014af .LASF111
     /tmp/ccS1nm3Y.s:7244   .debug_str:0000000000000ba2 .LASF112
     /tmp/ccS1nm3Y.s:7362   .debug_str:0000000000000f20 .LASF114
     /tmp/ccS1nm3Y.s:7356   .debug_str:0000000000000ee8 .LASF115
     /tmp/ccS1nm3Y.s:7128   .debug_str:00000000000007e6 .LASF116
     /tmp/ccS1nm3Y.s:7256   .debug_str:0000000000000c00 .LASF117
     /tmp/ccS1nm3Y.s:6878   .debug_str:0000000000000032 .LASF119
     /tmp/ccS1nm3Y.s:6944   .debug_str:000000000000027b .LASF118
     /tmp/ccS1nm3Y.s:7172   .debug_str:000000000000096a .LASF120
     /tmp/ccS1nm3Y.s:7300   .debug_str:0000000000000d65 .LASF121
     /tmp/ccS1nm3Y.s:7432   .debug_str:000000000000121d .LASF122
     /tmp/ccS1nm3Y.s:7498   .debug_str:0000000000001495 .LASF123
     /tmp/ccS1nm3Y.s:7446   .debug_str:00000000000012b7 .LASF124
     /tmp/ccS1nm3Y.s:7224   .debug_str:0000000000000af9 .LASF125
     /tmp/ccS1nm3Y.s:7146   .debug_str:0000000000000884 .LASF126
     /tmp/ccS1nm3Y.s:7490   .debug_str:0000000000001440 .LASF127
     /tmp/ccS1nm3Y.s:6958   .debug_str:00000000000002e6 .LASF128
     /tmp/ccS1nm3Y.s:6874   .debug_str:000000000000001d .LASF129
     /tmp/ccS1nm3Y.s:7322   .debug_str:0000000000000df9 .LASF130
     /tmp/ccS1nm3Y.s:7412   .debug_str:000000000000119c .LASF131
     /tmp/ccS1nm3Y.s:7442   .debug_str:00000000000012a6 .LASF132
     /tmp/ccS1nm3Y.s:7396   .debug_str:00000000000010d7 .LASF133
     /tmp/ccS1nm3Y.s:6980   .debug_str:0000000000000393 .LASF134
     /tmp/ccS1nm3Y.s:6882   .debug_str:000000000000005e .LASF136
     /tmp/ccS1nm3Y.s:7304   .debug_str:0000000000000d7a .LASF137
     /tmp/ccS1nm3Y.s:6994   .debug_str:00000000000003fc .LASF140
     /tmp/ccS1nm3Y.s:7104   .debug_str:000000000000071a .LASF142
     /tmp/ccS1nm3Y.s:7010   .debug_str:000000000000045d .LASF138
     /tmp/ccS1nm3Y.s:6976   .debug_str:0000000000000362 .LASF139
     /tmp/ccS1nm3Y.s:6932   .debug_str:000000000000020e .LASF141
     /tmp/ccS1nm3Y.s:7130   .debug_str:00000000000007f3 .LASF143
     /tmp/ccS1nm3Y.s:7124   .debug_str:00000000000007d0 .LASF144
     /tmp/ccS1nm3Y.s:7170   .debug_str:000000000000094e .LASF145
     /tmp/ccS1nm3Y.s:7126   .debug_str:00000000000007e0 .LASF146
     /tmp/ccS1nm3Y.s:7384   .debug_str:0000000000000fd5 .LASF147
     /tmp/ccS1nm3Y.s:7326   .debug_str:0000000000000e08 .LASF148
     /tmp/ccS1nm3Y.s:7102   .debug_str:000000000000070b .LASF150
     /tmp/ccS1nm3Y.s:6996   .debug_str:0000000000000405 .LASF149
     /tmp/ccS1nm3Y.s:7050   .debug_str:0000000000000564 .LASF151
     /tmp/ccS1nm3Y.s:7334   .debug_str:0000000000000e3f .LASF152
     /tmp/ccS1nm3Y.s:7112   .debug_str:0000000000000765 .LASF153
GAS LISTING /tmp/ccS1nm3Y.s 			page 47


     /tmp/ccS1nm3Y.s:7002   .debug_str:0000000000000417 .LASF154
     /tmp/ccS1nm3Y.s:7140   .debug_str:000000000000085e .LASF155
     /tmp/ccS1nm3Y.s:6904   .debug_str:000000000000012d .LASF156
     /tmp/ccS1nm3Y.s:7492   .debug_str:0000000000001456 .LASF157
     /tmp/ccS1nm3Y.s:7262   .debug_str:0000000000000c39 .LASF158
     /tmp/ccS1nm3Y.s:7482   .debug_str:00000000000013f1 .LASF159
     /tmp/ccS1nm3Y.s:7346   .debug_str:0000000000000ebd .LASF160
     /tmp/ccS1nm3Y.s:7058   .debug_str:0000000000000597 .LASF161
     /tmp/ccS1nm3Y.s:7014   .debug_str:0000000000000484 .LASF162
     /tmp/ccS1nm3Y.s:6902   .debug_str:0000000000000127 .LASF163
     /tmp/ccS1nm3Y.s:7196   .debug_str:0000000000000a27 .LASF164
     /tmp/ccS1nm3Y.s:7180   .debug_str:00000000000009b5 .LASF165
     /tmp/ccS1nm3Y.s:7354   .debug_str:0000000000000ee1 .LASF166
     /tmp/ccS1nm3Y.s:7530   .debug_str:00000000000015a3 .LASF167
     /tmp/ccS1nm3Y.s:7298   .debug_str:0000000000000d54 .LASF168
     /tmp/ccS1nm3Y.s:7004   .debug_str:0000000000000425 .LASF169
     /tmp/ccS1nm3Y.s:7152   .debug_str:00000000000008bc .LASF170
     /tmp/ccS1nm3Y.s:7524   .debug_str:0000000000001582 .LASF171
     /tmp/ccS1nm3Y.s:7020   .debug_str:00000000000004af .LASF172
     /tmp/ccS1nm3Y.s:7162   .debug_str:000000000000090e .LASF173
     /tmp/ccS1nm3Y.s:7436   .debug_str:0000000000001261 .LASF174
     /tmp/ccS1nm3Y.s:7062   .debug_str:00000000000005b1 .LASF175
     /tmp/ccS1nm3Y.s:7452   .debug_str:00000000000012f0 .LASF176
     /tmp/ccS1nm3Y.s:7076   .debug_str:0000000000000620 .LASF177
     /tmp/ccS1nm3Y.s:7394   .debug_str:00000000000010c7 .LASF178
     /tmp/ccS1nm3Y.s:7428   .debug_str:0000000000001208 .LASF179
     /tmp/ccS1nm3Y.s:6888   .debug_str:00000000000000b3 .LASF180
     /tmp/ccS1nm3Y.s:7378   .debug_str:0000000000000f9e .LASF181
     /tmp/ccS1nm3Y.s:6970   .debug_str:0000000000000325 .LASF330
     /tmp/ccS1nm3Y.s:7230   .debug_str:0000000000000b21 .LASF182
     /tmp/ccS1nm3Y.s:7312   .debug_str:0000000000000db1 .LASF183
     /tmp/ccS1nm3Y.s:6920   .debug_str:00000000000001b7 .LASF184
     /tmp/ccS1nm3Y.s:7414   .debug_str:00000000000011a4 .LASF185
     /tmp/ccS1nm3Y.s:7208   .debug_str:0000000000000a8c .LASF186
     /tmp/ccS1nm3Y.s:7404   .debug_str:0000000000001127 .LASF187
     /tmp/ccS1nm3Y.s:6998   .debug_str:000000000000040a .LASF188
     /tmp/ccS1nm3Y.s:7456   .debug_str:000000000000130a .LASF189
     /tmp/ccS1nm3Y.s:7336   .debug_str:0000000000000e4e .LASF190
     /tmp/ccS1nm3Y.s:6936   .debug_str:0000000000000239 .LASF191
     /tmp/ccS1nm3Y.s:6962   .debug_str:00000000000002fc .LASF192
     /tmp/ccS1nm3Y.s:7198   .debug_str:0000000000000a38 .LASF193
     /tmp/ccS1nm3Y.s:7392   .debug_str:00000000000010c0 .LASF194
     /tmp/ccS1nm3Y.s:7144   .debug_str:000000000000087f .LASF195
     /tmp/ccS1nm3Y.s:7372   .debug_str:0000000000000f7e .LASF196
     /tmp/ccS1nm3Y.s:7324   .debug_str:0000000000000dff .LASF197
     /tmp/ccS1nm3Y.s:6894   .debug_str:00000000000000ce .LASF199
     /tmp/ccS1nm3Y.s:7232   .debug_str:0000000000000b29 .LASF198
     /tmp/ccS1nm3Y.s:7158   .debug_str:00000000000008e7 .LASF200
     /tmp/ccS1nm3Y.s:7134   .debug_str:0000000000000824 .LASF201
     /tmp/ccS1nm3Y.s:6972   .debug_str:0000000000000337 .LASF331
     /tmp/ccS1nm3Y.s:7460   .debug_str:000000000000133e .LASF202
     /tmp/ccS1nm3Y.s:7422   .debug_str:00000000000011eb .LASF203
     /tmp/ccS1nm3Y.s:7060   .debug_str:000000000000059f .LASF204
     /tmp/ccS1nm3Y.s:7214   .debug_str:0000000000000abd .LASF205
     /tmp/ccS1nm3Y.s:6910   .debug_str:0000000000000148 .LASF206
     /tmp/ccS1nm3Y.s:7072   .debug_str:00000000000005f7 .LASF207
     /tmp/ccS1nm3Y.s:7274   .debug_str:0000000000000c90 .LASF208
GAS LISTING /tmp/ccS1nm3Y.s 			page 48


     /tmp/ccS1nm3Y.s:7132   .debug_str:000000000000080c .LASF209
     /tmp/ccS1nm3Y.s:7000   .debug_str:0000000000000412 .LASF210
     /tmp/ccS1nm3Y.s:6938   .debug_str:0000000000000240 .LASF211
     /tmp/ccS1nm3Y.s:7328   .debug_str:0000000000000e0d .LASF212
     /tmp/ccS1nm3Y.s:7260   .debug_str:0000000000000c21 .LASF213
     /tmp/ccS1nm3Y.s:7462   .debug_str:000000000000134a .LASF214
     /tmp/ccS1nm3Y.s:7486   .debug_str:000000000000141a .LASF215
     /tmp/ccS1nm3Y.s:7138   .debug_str:0000000000000846 .LASF216
     /tmp/ccS1nm3Y.s:7200   .debug_str:0000000000000a3d .LASF217
     /tmp/ccS1nm3Y.s:7192   .debug_str:0000000000000a09 .LASF218
     /tmp/ccS1nm3Y.s:6940   .debug_str:0000000000000254 .LASF219
     /tmp/ccS1nm3Y.s:6992   .debug_str:00000000000003e3 .LASF220
     /tmp/ccS1nm3Y.s:7302   .debug_str:0000000000000d71 .LASF221
     /tmp/ccS1nm3Y.s:7380   .debug_str:0000000000000fae .LASF222
     /tmp/ccS1nm3Y.s:7518   .debug_str:0000000000001554 .LASF223
     /tmp/ccS1nm3Y.s:6978   .debug_str:000000000000037a .LASF224
     /tmp/ccS1nm3Y.s:7484   .debug_str:00000000000013f7 .LASF226
     /tmp/ccS1nm3Y.s:6912   .debug_str:0000000000000159 .LASF227
     /tmp/ccS1nm3Y.s:7494   .debug_str:0000000000001467 .LASF230
     /tmp/ccS1nm3Y.s:7176   .debug_str:0000000000000989 .LASF231
     /tmp/ccS1nm3Y.s:7338   .debug_str:0000000000000e55 .LASF232
     /tmp/ccS1nm3Y.s:7254   .debug_str:0000000000000bd4 .LASF233
     /tmp/ccS1nm3Y.s:7240   .debug_str:0000000000000b6d .LASF234
     /tmp/ccS1nm3Y.s:7480   .debug_str:00000000000013c0 .LASF235
     /tmp/ccS1nm3Y.s:7370   .debug_str:0000000000000f53 .LASF236
     /tmp/ccS1nm3Y.s:7434   .debug_str:0000000000001234 .LASF237
     /tmp/ccS1nm3Y.s:7408   .debug_str:000000000000115c .LASF238
     /tmp/ccS1nm3Y.s:6908   .debug_str:0000000000000142 .LASF239
     /tmp/ccS1nm3Y.s:7064   .debug_str:00000000000005b9 .LASF240
     /tmp/ccS1nm3Y.s:7074   .debug_str:0000000000000608 .LASF241
     /tmp/ccS1nm3Y.s:7218   .debug_str:0000000000000ad5 .LASF242
     /tmp/ccS1nm3Y.s:7012   .debug_str:0000000000000469 .LASF243
     /tmp/ccS1nm3Y.s:7184   .debug_str:00000000000009e2 .LASF244
     /tmp/ccS1nm3Y.s:7438   .debug_str:0000000000001273 .LASF245
     /tmp/ccS1nm3Y.s:7424   .debug_str:00000000000011f5 .LASF246
     /tmp/ccS1nm3Y.s:7264   .debug_str:0000000000000c3e .LASF247
     /tmp/ccS1nm3Y.s:7308   .debug_str:0000000000000d97 .LASF248
     /tmp/ccS1nm3Y.s:7206   .debug_str:0000000000000a77 .LASF249
     /tmp/ccS1nm3Y.s:6966   .debug_str:0000000000000308 .LASF250
     /tmp/ccS1nm3Y.s:7252   .debug_str:0000000000000bc1 .LASF251
     /tmp/ccS1nm3Y.s:7194   .debug_str:0000000000000a20 .LASF252
     /tmp/ccS1nm3Y.s:7114   .debug_str:000000000000077f .LASF253
     /tmp/ccS1nm3Y.s:7472   .debug_str:0000000000001397 .LASF254
     /tmp/ccS1nm3Y.s:7294   .debug_str:0000000000000d2d .LASF255
     /tmp/ccS1nm3Y.s:7106   .debug_str:000000000000072d .LASF256
     /tmp/ccS1nm3Y.s:7204   .debug_str:0000000000000a63 .LASF257
     /tmp/ccS1nm3Y.s:7136   .debug_str:000000000000083e .LASF258
     /tmp/ccS1nm3Y.s:6926   .debug_str:00000000000001e5 .LASF259
     /tmp/ccS1nm3Y.s:7520   .debug_str:0000000000001568 .LASF260
     /tmp/ccS1nm3Y.s:7086   .debug_str:000000000000066d .LASF261
     /tmp/ccS1nm3Y.s:6986   .debug_str:00000000000003ba .LASF262
     /tmp/ccS1nm3Y.s:7296   .debug_str:0000000000000d41 .LASF263
     /tmp/ccS1nm3Y.s:7474   .debug_str:000000000000139f .LASF264
     /tmp/ccS1nm3Y.s:7044   .debug_str:0000000000000540 .LASF265
     /tmp/ccS1nm3Y.s:6964   .debug_str:0000000000000302 .LASF266
     /tmp/ccS1nm3Y.s:7374   .debug_str:0000000000000f83 .LASF267
     /tmp/ccS1nm3Y.s:7084   .debug_str:0000000000000667 .LASF268
GAS LISTING /tmp/ccS1nm3Y.s 			page 49


     /tmp/ccS1nm3Y.s:6990   .debug_str:00000000000003d1 .LASF269
     /tmp/ccS1nm3Y.s:6868   .debug_str:0000000000000000 .LASF270
     /tmp/ccS1nm3Y.s:7358   .debug_str:0000000000000efe .LASF271
     /tmp/ccS1nm3Y.s:6892   .debug_str:00000000000000c3 .LASF272
     /tmp/ccS1nm3Y.s:7088   .debug_str:0000000000000681 .LASF273
     /tmp/ccS1nm3Y.s:7276   .debug_str:0000000000000ca2 .LASF274
     /tmp/ccS1nm3Y.s:7510   .debug_str:000000000000150c .LASF275
     /tmp/ccS1nm3Y.s:7454   .debug_str:0000000000001300 .LASF276
     /tmp/ccS1nm3Y.s:6968   .debug_str:000000000000030f .LASF277
     /tmp/ccS1nm3Y.s:7220   .debug_str:0000000000000ae3 .LASF278
     /tmp/ccS1nm3Y.s:6898   .debug_str:00000000000000f5 .LASF279
     /tmp/ccS1nm3Y.s:7420   .debug_str:00000000000011dc .LASF280
     /tmp/ccS1nm3Y.s:6900   .debug_str:000000000000010b .LASF281
     /tmp/ccS1nm3Y.s:7426   .debug_str:00000000000011fe .LASF282
     /tmp/ccS1nm3Y.s:7410   .debug_str:0000000000001186 .LASF283
     /tmp/ccS1nm3Y.s:7030   .debug_str:00000000000004f5 .LASF284
     /tmp/ccS1nm3Y.s:7098   .debug_str:00000000000006fc .LASF285
     /tmp/ccS1nm3Y.s:7250   .debug_str:0000000000000bb8 .LASF286
     /tmp/ccS1nm3Y.s:7234   .debug_str:0000000000000b2e .LASF287
     /tmp/ccS1nm3Y.s:7236   .debug_str:0000000000000b43 .LASF288
     /tmp/ccS1nm3Y.s:7526   .debug_str:000000000000158f .LASF289
     /tmp/ccS1nm3Y.s:7054   .debug_str:0000000000000581 .LASF290
     /tmp/ccS1nm3Y.s:7056   .debug_str:000000000000058a .LASF291
     /tmp/ccS1nm3Y.s:7368   .debug_str:0000000000000f45 .LASF292
     /tmp/ccS1nm3Y.s:7038   .debug_str:0000000000000520 .LASF293
     /tmp/ccS1nm3Y.s:6988   .debug_str:00000000000003c1 .LASF294
     /tmp/ccS1nm3Y.s:7382   .debug_str:0000000000000fc6 .LASF295
     /tmp/ccS1nm3Y.s:6982   .debug_str:00000000000003a1 .LASF296
     /tmp/ccS1nm3Y.s:6952   .debug_str:00000000000002b4 .LASF297
     /tmp/ccS1nm3Y.s:6960   .debug_str:00000000000002f2 .LASF298
     /tmp/ccS1nm3Y.s:7186   .debug_str:00000000000009ef .LASF299
     /tmp/ccS1nm3Y.s:7288   .debug_str:0000000000000d04 .LASF300
     /tmp/ccS1nm3Y.s:7168   .debug_str:0000000000000943 .LASF301
     /tmp/ccS1nm3Y.s:7100   .debug_str:0000000000000706 .LASF302
     /tmp/ccS1nm3Y.s:6870   .debug_str:000000000000000d .LASF303
     /tmp/ccS1nm3Y.s:7376   .debug_str:0000000000000f95 .LASF304
     /tmp/ccS1nm3Y.s:7352   .debug_str:0000000000000ed9 .LASF305
     /tmp/ccS1nm3Y.s:7160   .debug_str:0000000000000906 .LASF306
     /tmp/ccS1nm3Y.s:7226   .debug_str:0000000000000b05 .LASF307
     /tmp/ccS1nm3Y.s:7514   .debug_str:0000000000001531 .LASF308
     /tmp/ccS1nm3Y.s:7310   .debug_str:0000000000000da0 .LASF309
     /tmp/ccS1nm3Y.s:7016   .debug_str:000000000000048a .LASF310
     /tmp/ccS1nm3Y.s:7466   .debug_str:000000000000136c .LASF311
     /tmp/ccS1nm3Y.s:7522   .debug_str:0000000000001570 .LASF312
     /tmp/ccS1nm3Y.s:80     .text:0000000000000060 .LFB104
     /tmp/ccS1nm3Y.s:136    .text:00000000000000c8 .LFE104
     /tmp/ccS1nm3Y.s:107    .text:0000000000000088 .LBB99
     /tmp/ccS1nm3Y.s:120    .text:00000000000000ac .LBE99
     /tmp/ccS1nm3Y.s:7238   .debug_str:0000000000000b65 .LASF313
     /tmp/ccS1nm3Y.s:113    .text:000000000000009c .LVL4
     /tmp/ccS1nm3Y.s:1207   .text:000000000000060c .LFB103
     /tmp/ccS1nm3Y.s:1269   .text:0000000000000680 .LFE103
     /tmp/ccS1nm3Y.s:1243   .text:000000000000065c .LBB180
     /tmp/ccS1nm3Y.s:1251   .text:0000000000000664 .LBE180
     /tmp/ccS1nm3Y.s:6237   .debug_loc:0000000000000000 .LLST54
     /tmp/ccS1nm3Y.s:1231   .text:0000000000000638 .LVL99
     /tmp/ccS1nm3Y.s:1237   .text:0000000000000650 .LVL100
GAS LISTING /tmp/ccS1nm3Y.s 			page 50


     /tmp/ccS1nm3Y.s:1109   .text:0000000000000594 .LFB102
     /tmp/ccS1nm3Y.s:1201   .text:000000000000060c .LFE102
     /tmp/ccS1nm3Y.s:6246   .debug_loc:0000000000000025 .LLST50
     /tmp/ccS1nm3Y.s:1117   .text:000000000000059c .LBB174
     /tmp/ccS1nm3Y.s:1124   .text:00000000000005a0 .LBE174
     /tmp/ccS1nm3Y.s:6275   .debug_loc:000000000000009a .LLST51
     /tmp/ccS1nm3Y.s:1139   .text:00000000000005b8 .LBB176
     /tmp/ccS1nm3Y.s:1159   .text:00000000000005cc .LBE176
     /tmp/ccS1nm3Y.s:6284   .debug_loc:00000000000000bf .LLST52
     /tmp/ccS1nm3Y.s:1161   .text:00000000000005cc .LBB178
     /tmp/ccS1nm3Y.s:1169   .text:00000000000005d4 .LBE178
     /tmp/ccS1nm3Y.s:6293   .debug_loc:00000000000000e4 .LLST53
     /tmp/ccS1nm3Y.s:1176   .text:00000000000005e8 .LVL95
     /tmp/ccS1nm3Y.s:1180   .text:00000000000005f0 .LVL96
     /tmp/ccS1nm3Y.s:1022   .text:000000000000053c .LFB101
     /tmp/ccS1nm3Y.s:1103   .text:0000000000000594 .LFE101
     /tmp/ccS1nm3Y.s:7478   .debug_str:00000000000013bb .LASF314
     /tmp/ccS1nm3Y.s:6302   .debug_loc:0000000000000109 .LLST46
     /tmp/ccS1nm3Y.s:1027   .text:000000000000053c .LBB168
     /tmp/ccS1nm3Y.s:1034   .text:0000000000000540 .LBE168
     /tmp/ccS1nm3Y.s:6327   .debug_loc:000000000000016b .LLST47
     /tmp/ccS1nm3Y.s:1048   .text:0000000000000554 .LBB170
     /tmp/ccS1nm3Y.s:1068   .text:0000000000000568 .LBE170
     /tmp/ccS1nm3Y.s:6336   .debug_loc:0000000000000190 .LLST48
     /tmp/ccS1nm3Y.s:1070   .text:0000000000000568 .LBB172
     /tmp/ccS1nm3Y.s:1078   .text:0000000000000570 .LBE172
     /tmp/ccS1nm3Y.s:6345   .debug_loc:00000000000001b5 .LLST49
     /tmp/ccS1nm3Y.s:1082   .text:0000000000000578 .LVL85
     /tmp/ccS1nm3Y.s:935    .text:00000000000004dc .LFB100
     /tmp/ccS1nm3Y.s:1016   .text:000000000000053c .LFE100
     /tmp/ccS1nm3Y.s:942    .text:00000000000004e4 .LBB162
     /tmp/ccS1nm3Y.s:949    .text:00000000000004e8 .LBE162
     /tmp/ccS1nm3Y.s:6354   .debug_loc:00000000000001da .LLST43
     /tmp/ccS1nm3Y.s:963    .text:00000000000004fc .LBB164
     /tmp/ccS1nm3Y.s:983    .text:0000000000000510 .LBE164
     /tmp/ccS1nm3Y.s:6363   .debug_loc:00000000000001ff .LLST44
     /tmp/ccS1nm3Y.s:985    .text:0000000000000510 .LBB166
     /tmp/ccS1nm3Y.s:993    .text:0000000000000518 .LBE166
     /tmp/ccS1nm3Y.s:6372   .debug_loc:0000000000000224 .LLST45
     /tmp/ccS1nm3Y.s:997    .text:0000000000000520 .LVL79
     /tmp/ccS1nm3Y.s:848    .text:000000000000047c .LFB99
     /tmp/ccS1nm3Y.s:929    .text:00000000000004dc .LFE99
     /tmp/ccS1nm3Y.s:855    .text:0000000000000484 .LBB156
     /tmp/ccS1nm3Y.s:862    .text:0000000000000488 .LBE156
     /tmp/ccS1nm3Y.s:6381   .debug_loc:0000000000000249 .LLST40
     /tmp/ccS1nm3Y.s:876    .text:000000000000049c .LBB158
     /tmp/ccS1nm3Y.s:896    .text:00000000000004b0 .LBE158
     /tmp/ccS1nm3Y.s:6390   .debug_loc:000000000000026e .LLST41
     /tmp/ccS1nm3Y.s:898    .text:00000000000004b0 .LBB160
     /tmp/ccS1nm3Y.s:906    .text:00000000000004b8 .LBE160
     /tmp/ccS1nm3Y.s:6399   .debug_loc:0000000000000293 .LLST42
     /tmp/ccS1nm3Y.s:910    .text:00000000000004c0 .LVL73
     /tmp/ccS1nm3Y.s:54     .text:0000000000000044 .LFB98
     /tmp/ccS1nm3Y.s:74     .text:0000000000000060 .LFE98
     /tmp/ccS1nm3Y.s:70     .text:000000000000005c .LVL3
     /tmp/ccS1nm3Y.s:747    .text:00000000000003e4 .LFB97
     /tmp/ccS1nm3Y.s:842    .text:000000000000047c .LFE97
GAS LISTING /tmp/ccS1nm3Y.s 			page 51


     /tmp/ccS1nm3Y.s:784    .text:0000000000000438 .LBB150
     /tmp/ccS1nm3Y.s:806    .text:0000000000000450 .LBE150
     /tmp/ccS1nm3Y.s:6408   .debug_loc:00000000000002b8 .LLST37
     /tmp/ccS1nm3Y.s:808    .text:0000000000000450 .LBB152
     /tmp/ccS1nm3Y.s:816    .text:0000000000000458 .LBE152
     /tmp/ccS1nm3Y.s:6417   .debug_loc:00000000000002dd .LLST38
     /tmp/ccS1nm3Y.s:818    .text:0000000000000458 .LBB154
     /tmp/ccS1nm3Y.s:825    .text:000000000000045c .LBE154
     /tmp/ccS1nm3Y.s:6426   .debug_loc:0000000000000302 .LLST39
     /tmp/ccS1nm3Y.s:773    .text:0000000000000418 .LVL62
     /tmp/ccS1nm3Y.s:779    .text:0000000000000430 .LVL63
     /tmp/ccS1nm3Y.s:660    .text:000000000000038c .LFB96
     /tmp/ccS1nm3Y.s:741    .text:00000000000003e4 .LFE96
     /tmp/ccS1nm3Y.s:6435   .debug_loc:0000000000000327 .LLST33
     /tmp/ccS1nm3Y.s:665    .text:000000000000038c .LBB144
     /tmp/ccS1nm3Y.s:672    .text:0000000000000390 .LBE144
     /tmp/ccS1nm3Y.s:6460   .debug_loc:0000000000000389 .LLST34
     /tmp/ccS1nm3Y.s:686    .text:00000000000003a4 .LBB146
     /tmp/ccS1nm3Y.s:706    .text:00000000000003b8 .LBE146
     /tmp/ccS1nm3Y.s:6469   .debug_loc:00000000000003ae .LLST35
     /tmp/ccS1nm3Y.s:708    .text:00000000000003b8 .LBB148
     /tmp/ccS1nm3Y.s:716    .text:00000000000003c0 .LBE148
     /tmp/ccS1nm3Y.s:6478   .debug_loc:00000000000003d3 .LLST36
     /tmp/ccS1nm3Y.s:720    .text:00000000000003c8 .LVL59
     /tmp/ccS1nm3Y.s:10     .text:0000000000000000 .LFB95
     /tmp/ccS1nm3Y.s:48     .text:0000000000000044 .LFE95
     /tmp/ccS1nm3Y.s:25     .text:0000000000000018 .LVL0
     /tmp/ccS1nm3Y.s:37     .text:0000000000000034 .LVL2
     /tmp/ccS1nm3Y.s:510    .text:00000000000002c4 .LFB94
     /tmp/ccS1nm3Y.s:654    .text:000000000000038c .LFE94
     /tmp/ccS1nm3Y.s:6487   .debug_loc:00000000000003f8 .LLST27
     /tmp/ccS1nm3Y.s:528    .text:00000000000002e0 .LBB134
     /tmp/ccS1nm3Y.s:535    .text:00000000000002e4 .LBE134
     /tmp/ccS1nm3Y.s:6498   .debug_loc:000000000000042e .LLST28
     /tmp/ccS1nm3Y.s:549    .text:00000000000002fc .LBB136
     /tmp/ccS1nm3Y.s:569    .text:0000000000000310 .LBE136
     /tmp/ccS1nm3Y.s:6507   .debug_loc:0000000000000453 .LLST29
     /tmp/ccS1nm3Y.s:571    .text:0000000000000310 .LBB138
     /tmp/ccS1nm3Y.s:580    .text:0000000000000318 .LBE138
     /tmp/ccS1nm3Y.s:6516   .debug_loc:0000000000000478 .LLST30
     /tmp/ccS1nm3Y.s:609    .text:000000000000034c .LBB140
     /tmp/ccS1nm3Y.s:629    .text:0000000000000360 .LBE140
     /tmp/ccS1nm3Y.s:6525   .debug_loc:000000000000049d .LLST31
     /tmp/ccS1nm3Y.s:631    .text:0000000000000360 .LBB142
     /tmp/ccS1nm3Y.s:639    .text:0000000000000368 .LBE142
     /tmp/ccS1nm3Y.s:6534   .debug_loc:00000000000004c2 .LLST32
     /tmp/ccS1nm3Y.s:542    .text:00000000000002f0 .LVL43
     /tmp/ccS1nm3Y.s:584    .text:0000000000000320 .LVL47
     /tmp/ccS1nm3Y.s:591    .text:0000000000000338 .LVL48
     /tmp/ccS1nm3Y.s:644    .text:0000000000000374 .LVL53
     /tmp/ccS1nm3Y.s:384    .text:0000000000000228 .LFB93
     /tmp/ccS1nm3Y.s:504    .text:00000000000002c4 .LFE93
     /tmp/ccS1nm3Y.s:406    .text:0000000000000248 .LBB122
     /tmp/ccS1nm3Y.s:414    .text:0000000000000254 .LBE122
     /tmp/ccS1nm3Y.s:6543   .debug_loc:00000000000004e7 .LLST22
     /tmp/ccS1nm3Y.s:412    .text:0000000000000254 .LVL35
     /tmp/ccS1nm3Y.s:415    .text:0000000000000254 .LBB124
GAS LISTING /tmp/ccS1nm3Y.s 			page 52


     /tmp/ccS1nm3Y.s:6852   .debug_ranges:0000000000000000 .Ldebug_ranges0
     /tmp/ccS1nm3Y.s:6552   .debug_loc:000000000000050c .LLST23
     /tmp/ccS1nm3Y.s:417    .text:0000000000000254 .LBB126
     /tmp/ccS1nm3Y.s:429    .text:0000000000000270 .LBE126
     /tmp/ccS1nm3Y.s:6559   .debug_loc:000000000000052f .LLST24
     /tmp/ccS1nm3Y.s:460    .text:000000000000028c .LBB128
     /tmp/ccS1nm3Y.s:468    .text:0000000000000294 .LBE128
     /tmp/ccS1nm3Y.s:6568   .debug_loc:0000000000000554 .LLST25
     /tmp/ccS1nm3Y.s:482    .text:00000000000002ac .LBB132
     /tmp/ccS1nm3Y.s:489    .text:00000000000002b0 .LBE132
     /tmp/ccS1nm3Y.s:6577   .debug_loc:0000000000000579 .LLST26
     /tmp/ccS1nm3Y.s:280    .text:0000000000000184 .LFB92
     /tmp/ccS1nm3Y.s:378    .text:0000000000000228 .LFE92
     /tmp/ccS1nm3Y.s:6586   .debug_loc:000000000000059e .LLST12
     /tmp/ccS1nm3Y.s:6602   .debug_loc:00000000000005e8 .LLST13
     /tmp/ccS1nm3Y.s:6618   .debug_loc:0000000000000632 .LLST14
     /tmp/ccS1nm3Y.s:303    .text:00000000000001ac .LBB114
     /tmp/ccS1nm3Y.s:312    .text:00000000000001b8 .LBE114
     /tmp/ccS1nm3Y.s:6634   .debug_loc:000000000000067c .LLST15
     /tmp/ccS1nm3Y.s:310    .text:00000000000001b8 .LVL25
     /tmp/ccS1nm3Y.s:313    .text:00000000000001b8 .LBB116
     /tmp/ccS1nm3Y.s:359    .text:000000000000020c .LBE116
     /tmp/ccS1nm3Y.s:6643   .debug_loc:00000000000006a1 .LLST16
     /tmp/ccS1nm3Y.s:6655   .debug_loc:00000000000006d8 .LLST17
     /tmp/ccS1nm3Y.s:6662   .debug_loc:00000000000006fb .LLST18
     /tmp/ccS1nm3Y.s:6669   .debug_loc:000000000000071e .LLST19
     /tmp/ccS1nm3Y.s:320    .text:00000000000001c4 .LBB118
     /tmp/ccS1nm3Y.s:332    .text:00000000000001e0 .LBE118
     /tmp/ccS1nm3Y.s:6676   .debug_loc:0000000000000741 .LLST20
     /tmp/ccS1nm3Y.s:339    .text:00000000000001ec .LBB120
     /tmp/ccS1nm3Y.s:347    .text:00000000000001f4 .LBE120
     /tmp/ccS1nm3Y.s:6685   .debug_loc:0000000000000766 .LLST21
     /tmp/ccS1nm3Y.s:142    .text:00000000000000c8 .LFB91
     /tmp/ccS1nm3Y.s:274    .text:0000000000000184 .LFE91
     /tmp/ccS1nm3Y.s:6694   .debug_loc:000000000000078b .LLST0
     /tmp/ccS1nm3Y.s:6712   .debug_loc:00000000000007d7 .LLST1
     /tmp/ccS1nm3Y.s:6730   .debug_loc:0000000000000823 .LLST2
     /tmp/ccS1nm3Y.s:6759   .debug_loc:000000000000089a .LLST3
     /tmp/ccS1nm3Y.s:167    .text:00000000000000f4 .LBB102
     /tmp/ccS1nm3Y.s:179    .text:0000000000000104 .LBE102
     /tmp/ccS1nm3Y.s:6770   .debug_loc:00000000000008d0 .LLST4
     /tmp/ccS1nm3Y.s:175    .text:0000000000000100 .LVL8
     /tmp/ccS1nm3Y.s:180    .text:0000000000000104 .LBB104
     /tmp/ccS1nm3Y.s:6779   .debug_loc:00000000000008f5 .LLST5
     /tmp/ccS1nm3Y.s:6791   .debug_loc:000000000000092c .LLST6
     /tmp/ccS1nm3Y.s:6798   .debug_loc:000000000000094f .LLST7
     /tmp/ccS1nm3Y.s:6805   .debug_loc:0000000000000972 .LLST8
     /tmp/ccS1nm3Y.s:187    .text:0000000000000110 .LBB106
     /tmp/ccS1nm3Y.s:198    .text:0000000000000128 .LBE106
     /tmp/ccS1nm3Y.s:6812   .debug_loc:0000000000000995 .LLST9
     /tmp/ccS1nm3Y.s:223    .text:000000000000014c .LBB110
     /tmp/ccS1nm3Y.s:235    .text:0000000000000150 .LBE110
     /tmp/ccS1nm3Y.s:6821   .debug_loc:00000000000009ba .LLST10
     /tmp/ccS1nm3Y.s:237    .text:0000000000000150 .LBB112
     /tmp/ccS1nm3Y.s:245    .text:0000000000000158 .LBE112
     /tmp/ccS1nm3Y.s:6830   .debug_loc:00000000000009df .LLST11
     /tmp/ccS1nm3Y.s:249    .text:0000000000000160 .LVL17
GAS LISTING /tmp/ccS1nm3Y.s 			page 53


     /tmp/ccS1nm3Y.s:7096   .debug_str:00000000000006f0 .LASF315
     /tmp/ccS1nm3Y.s:7156   .debug_str:00000000000008d1 .LASF316
     /tmp/ccS1nm3Y.s:7066   .debug_str:00000000000005c4 .LASF317
     /tmp/ccS1nm3Y.s:7306   .debug_str:0000000000000d8b .LASF318
     /tmp/ccS1nm3Y.s:7476   .debug_str:00000000000013a6 .LASF319
     /tmp/ccS1nm3Y.s:6946   .debug_str:0000000000000285 .LASF320
     /tmp/ccS1nm3Y.s:6916   .debug_str:0000000000000189 .LASF321
     /tmp/ccS1nm3Y.s:7150   .debug_str:00000000000008b0 .LASF322
     /tmp/ccS1nm3Y.s:1242   .text:000000000000065c .LVL101
     /tmp/ccS1nm3Y.s:1249   .text:0000000000000664 .LVL102
     /tmp/ccS1nm3Y.s:1112   .text:0000000000000594 .LVL88
     /tmp/ccS1nm3Y.s:1174   .text:00000000000005e0 .LVL94
     /tmp/ccS1nm3Y.s:1193   .text:0000000000000604 .LVL97
     /tmp/ccS1nm3Y.s:1197   .text:0000000000000608 .LVL98
     /tmp/ccS1nm3Y.s:1116   .text:000000000000059c .LVL89
     /tmp/ccS1nm3Y.s:1122   .text:00000000000005a0 .LVL90
     /tmp/ccS1nm3Y.s:1138   .text:00000000000005b8 .LVL91
     /tmp/ccS1nm3Y.s:1157   .text:00000000000005cc .LVL92
     /tmp/ccS1nm3Y.s:1167   .text:00000000000005d4 .LVL93
     /tmp/ccS1nm3Y.s:1025   .text:000000000000053c .LVL80
     /tmp/ccS1nm3Y.s:1095   .text:000000000000058c .LVL86
     /tmp/ccS1nm3Y.s:1099   .text:0000000000000590 .LVL87
     /tmp/ccS1nm3Y.s:1032   .text:0000000000000540 .LVL81
     /tmp/ccS1nm3Y.s:1047   .text:0000000000000554 .LVL82
     /tmp/ccS1nm3Y.s:1066   .text:0000000000000568 .LVL83
     /tmp/ccS1nm3Y.s:1076   .text:0000000000000570 .LVL84
     /tmp/ccS1nm3Y.s:941    .text:00000000000004e4 .LVL74
     /tmp/ccS1nm3Y.s:947    .text:00000000000004e8 .LVL75
     /tmp/ccS1nm3Y.s:962    .text:00000000000004fc .LVL76
     /tmp/ccS1nm3Y.s:981    .text:0000000000000510 .LVL77
     /tmp/ccS1nm3Y.s:991    .text:0000000000000518 .LVL78
     /tmp/ccS1nm3Y.s:854    .text:0000000000000484 .LVL68
     /tmp/ccS1nm3Y.s:860    .text:0000000000000488 .LVL69
     /tmp/ccS1nm3Y.s:875    .text:000000000000049c .LVL70
     /tmp/ccS1nm3Y.s:894    .text:00000000000004b0 .LVL71
     /tmp/ccS1nm3Y.s:904    .text:00000000000004b8 .LVL72
     /tmp/ccS1nm3Y.s:783    .text:0000000000000438 .LVL64
     /tmp/ccS1nm3Y.s:804    .text:0000000000000450 .LVL65
     /tmp/ccS1nm3Y.s:814    .text:0000000000000458 .LVL66
     /tmp/ccS1nm3Y.s:823    .text:000000000000045c .LVL67
     /tmp/ccS1nm3Y.s:663    .text:000000000000038c .LVL54
     /tmp/ccS1nm3Y.s:733    .text:00000000000003dc .LVL60
     /tmp/ccS1nm3Y.s:737    .text:00000000000003e0 .LVL61
     /tmp/ccS1nm3Y.s:670    .text:0000000000000390 .LVL55
     /tmp/ccS1nm3Y.s:685    .text:00000000000003a4 .LVL56
     /tmp/ccS1nm3Y.s:704    .text:00000000000003b8 .LVL57
     /tmp/ccS1nm3Y.s:714    .text:00000000000003c0 .LVL58
     /tmp/ccS1nm3Y.s:526    .text:00000000000002e0 .LVL41
     /tmp/ccS1nm3Y.s:601    .text:0000000000000344 .LVL49
     /tmp/ccS1nm3Y.s:605    .text:000000000000034c .LVL50
     /tmp/ccS1nm3Y.s:533    .text:00000000000002e4 .LVL42
     /tmp/ccS1nm3Y.s:548    .text:00000000000002fc .LVL44
     /tmp/ccS1nm3Y.s:567    .text:0000000000000310 .LVL45
     /tmp/ccS1nm3Y.s:577    .text:0000000000000318 .LVL46
     /tmp/ccS1nm3Y.s:627    .text:0000000000000360 .LVL51
     /tmp/ccS1nm3Y.s:637    .text:0000000000000368 .LVL52
     /tmp/ccS1nm3Y.s:405    .text:0000000000000248 .LVL34
GAS LISTING /tmp/ccS1nm3Y.s 			page 54


     /tmp/ccS1nm3Y.s:466    .text:0000000000000294 .LVL38
     /tmp/ccS1nm3Y.s:427    .text:0000000000000270 .LVL36
     /tmp/ccS1nm3Y.s:448    .text:000000000000028c .LVL37
     /tmp/ccS1nm3Y.s:481    .text:00000000000002ac .LVL39
     /tmp/ccS1nm3Y.s:487    .text:00000000000002b0 .LVL40
     /tmp/ccS1nm3Y.s:283    .text:0000000000000184 .LVL22
     /tmp/ccS1nm3Y.s:308    .text:00000000000001b0 .LVL24
     /tmp/ccS1nm3Y.s:373    .text:0000000000000220 .LVL33
     /tmp/ccS1nm3Y.s:370    .text:000000000000021c .LVL32
     /tmp/ccS1nm3Y.s:352    .text:00000000000001fc .LVL30
     /tmp/ccS1nm3Y.s:302    .text:00000000000001ac .LVL23
     /tmp/ccS1nm3Y.s:357    .text:000000000000020c .LVL31
     /tmp/ccS1nm3Y.s:319    .text:00000000000001c4 .LVL26
     /tmp/ccS1nm3Y.s:330    .text:00000000000001e0 .LVL27
     /tmp/ccS1nm3Y.s:338    .text:00000000000001ec .LVL28
     /tmp/ccS1nm3Y.s:345    .text:00000000000001f4 .LVL29
     /tmp/ccS1nm3Y.s:145    .text:00000000000000c8 .LVL5
     /tmp/ccS1nm3Y.s:173    .text:00000000000000f8 .LVL7
     /tmp/ccS1nm3Y.s:269    .text:000000000000017c .LVL21
     /tmp/ccS1nm3Y.s:266    .text:0000000000000178 .LVL20
     /tmp/ccS1nm3Y.s:214    .text:000000000000013c .LVL13
     /tmp/ccS1nm3Y.s:263    .text:0000000000000174 .LVL19
     /tmp/ccS1nm3Y.s:219    .text:000000000000014c .LVL14
     /tmp/ccS1nm3Y.s:260    .text:0000000000000170 .LVL18
     /tmp/ccS1nm3Y.s:166    .text:00000000000000f4 .LVL6
     /tmp/ccS1nm3Y.s:177    .text:0000000000000104 .LVL9
     /tmp/ccS1nm3Y.s:186    .text:0000000000000110 .LVL10
     /tmp/ccS1nm3Y.s:196    .text:0000000000000128 .LVL11
     /tmp/ccS1nm3Y.s:233    .text:0000000000000150 .LVL15
     /tmp/ccS1nm3Y.s:243    .text:0000000000000158 .LVL16
     /tmp/ccS1nm3Y.s:1312   .debug_info:0000000000000000 .Ldebug_info0
     /tmp/ccS1nm3Y.s:206    .text:0000000000000134 .LBE104
     /tmp/ccS1nm3Y.s:208    .text:0000000000000134 .LBB109
     /tmp/ccS1nm3Y.s:221    .text:000000000000014c .LBE109
     /tmp/ccS1nm3Y.s:450    .text:000000000000028c .LBE124
     /tmp/ccS1nm3Y.s:457    .text:000000000000028c .LBB131
     /tmp/ccS1nm3Y.s:470    .text:0000000000000294 .LBE131

UNDEFINED SYMBOLS
_ZN5Riscv10popSppSpieEv
_Z11thread_exitv
_Z15thread_dispatchv
CONSOLE_STATUS
_ZN5Riscv9bufferOutE
_ZN7_Buffer3getEv
CONSOLE_TX_DATA
__mem_alloc
_ZN9Scheduler3putEP3TCB
_ZN9Scheduler3getEv
_ZN5Riscv9Rest_PrivEv
_ZN3TCB13contextSwitchEPNS_7ContextES1_
_ZN5Riscv8timelistE
_ZN8TimeList3addEP3TCBm
