GAS LISTING /tmp/ccSvzbZj.s 			page 1


   1              		.file	"tcb.cpp"
   2              		.option pic
   3              		.option norelax
   4              		.text
   5              	.Ltext0:
   6              		.align	2
   7              		.globl	_ZN3TCB13threadWrapperEv
   9              	_ZN3TCB13threadWrapperEv:
  10              	.LFB109:
  11              		.file 1 "src/tcb.cpp"
   1:src/tcb.cpp   **** //
   2:src/tcb.cpp   **** // Created by os on 7/30/22.
   3:src/tcb.cpp   **** //
   4:src/tcb.cpp   **** 
   5:src/tcb.cpp   **** #include "../h/tcb.hpp"
   6:src/tcb.cpp   **** #include "../h/riscv.hpp"
   7:src/tcb.cpp   **** #include "../h/scheduler.hpp"
   8:src/tcb.cpp   **** #include "../h/syscall_c.hpp"
   9:src/tcb.cpp   **** #include "../h/globals.hpp"
  10:src/tcb.cpp   **** #include "../lib/mem.h"
  11:src/tcb.cpp   **** #include "../h/print.hpp"
  12:src/tcb.cpp   **** #include "../h/TimeList.hpp"
  13:src/tcb.cpp   **** uint64 TCB::timeSliceCounter=0;
  14:src/tcb.cpp   **** TCB *TCB::running= nullptr;
  15:src/tcb.cpp   **** TCB *TCB::idle = nullptr;
  16:src/tcb.cpp   **** TCB *TCB::kernel= nullptr;
  17:src/tcb.cpp   **** TCB *TCB::outputTh= nullptr;
  18:src/tcb.cpp   **** int TCB::idS=0;
  19:src/tcb.cpp   **** TCB *TCB::initThreadWithRun(Body body,void*arg,uint64*stack) {
  20:src/tcb.cpp   ****     TCB*tcb= new TCB(body,arg,stack);
  21:src/tcb.cpp   ****     tcb->status.delAll();
  22:src/tcb.cpp   ****     tcb->status.setReady();
  23:src/tcb.cpp   ****     Scheduler::put(tcb);
  24:src/tcb.cpp   ****     return tcb;
  25:src/tcb.cpp   **** }
  26:src/tcb.cpp   **** int TCB::start() {
  27:src/tcb.cpp   **** 
  28:src/tcb.cpp   ****     if(!status.getCreated()) return -1;
  29:src/tcb.cpp   ****     status.delAll();
  30:src/tcb.cpp   ****     status.setReady();
  31:src/tcb.cpp   ****     Scheduler::put(this);
  32:src/tcb.cpp   ****     return 0;
  33:src/tcb.cpp   **** }
  34:src/tcb.cpp   **** TCB* TCB::initThreadWithNoRun(Body body, void *arg, uint64 *stack) {
  35:src/tcb.cpp   ****     return new TCB(body,arg,stack);
  36:src/tcb.cpp   **** }
  37:src/tcb.cpp   **** TCB* TCB::getKernel() {
  38:src/tcb.cpp   ****     if(kernel)return kernel;
  39:src/tcb.cpp   ****    kernel=new TCB();
  40:src/tcb.cpp   **** 
  41:src/tcb.cpp   ****     kernel->status.setSystematic();
  42:src/tcb.cpp   ****     running=kernel;
  43:src/tcb.cpp   ****     return kernel;
  44:src/tcb.cpp   **** }
  45:src/tcb.cpp   **** void TCB::dispatch(){
  46:src/tcb.cpp   **** 
  47:src/tcb.cpp   ****     TCB* old= running;
GAS LISTING /tmp/ccSvzbZj.s 			page 2


  48:src/tcb.cpp   ****     if(old->status.getRunning()) {
  49:src/tcb.cpp   ****         old->status.delAll();
  50:src/tcb.cpp   ****         old->status.setReady();
  51:src/tcb.cpp   ****         Scheduler::put(old);
  52:src/tcb.cpp   ****     }
  53:src/tcb.cpp   ****     running = Scheduler::get();
  54:src/tcb.cpp   ****     if(running){
  55:src/tcb.cpp   ****         running->status.delAll();
  56:src/tcb.cpp   ****         running->status.setRunning();
  57:src/tcb.cpp   ****     }else{
  58:src/tcb.cpp   ****         running=idle;
  59:src/tcb.cpp   ****     }
  60:src/tcb.cpp   ****     Riscv::Rest_Priv(TCB::running->status.getSystematic());
  61:src/tcb.cpp   ****     TCB::contextSwitch(&old->context, &running->context);
  62:src/tcb.cpp   **** }
  63:src/tcb.cpp   **** 
  64:src/tcb.cpp   **** void TCB::threadWrapper() {
  12              		.loc 1 64 27
  13              		.cfi_startproc
  14 0000 130101FF 		addi	sp,sp,-16
  15              		.cfi_def_cfa_offset 16
  16 0004 23341100 		sd	ra,8(sp)
  17 0008 23308100 		sd	s0,0(sp)
  18              		.cfi_offset 1, -8
  19              		.cfi_offset 8, -16
  20 000c 13040101 		addi	s0,sp,16
  21              		.cfi_def_cfa 8, 0
  65:src/tcb.cpp   **** 
  66:src/tcb.cpp   ****     Riscv::popSppSpie();
  22              		.loc 1 66 5
  23              		.loc 1 66 22 is_stmt 0
  24 0010 97000000 		call	_ZN5Riscv10popSppSpieEv@plt
  24      E7800000 
  25              	.LVL0:
  67:src/tcb.cpp   ****     running->body(running->arg);
  26              		.loc 1 67 5 is_stmt 1
  27              		.loc 1 67 14 is_stmt 0
  28 0018 97070000 		ld	a5,.LANCHOR0
  28      83B70700 
  29 0020 03B78700 		ld	a4,8(a5)
  30              		.loc 1 67 18
  31 0024 03B50703 		ld	a0,48(a5)
  32 0028 E7000700 		jalr	a4
  33              	.LVL1:
  68:src/tcb.cpp   ****     thread_exit();
  34              		.loc 1 68 5 is_stmt 1
  35              		.loc 1 68 16 is_stmt 0
  36 002c 97000000 		call	_Z11thread_exitv@plt
  36      E7800000 
  37              	.LVL2:
  69:src/tcb.cpp   **** }
  38              		.loc 1 69 1
  39 0034 83308100 		ld	ra,8(sp)
  40              		.cfi_restore 1
  41 0038 03340100 		ld	s0,0(sp)
  42              		.cfi_restore 8
  43              		.cfi_def_cfa 2, 16
GAS LISTING /tmp/ccSvzbZj.s 			page 3


  44 003c 13010101 		addi	sp,sp,16
  45              		.cfi_def_cfa_offset 0
  46 0040 67800000 		jr	ra
  47              		.cfi_endproc
  48              	.LFE109:
  50              		.align	2
  51              		.globl	_ZN3TCB11idleWrapperEPv
  53              	_ZN3TCB11idleWrapperEPv:
  54              	.LFB111:
  70:src/tcb.cpp   **** 
  71:src/tcb.cpp   **** 
  72:src/tcb.cpp   **** TCB* TCB::getIdle() {
  73:src/tcb.cpp   **** 
  74:src/tcb.cpp   ****     if(!idle) {
  75:src/tcb.cpp   **** 
  76:src/tcb.cpp   ****         idle = initThreadWithNoRun(idleWrapper, nullptr, (uint64 *) __mem_alloc(sizeof(uint64) * DE
  77:src/tcb.cpp   ****         idle->status.delAll();
  78:src/tcb.cpp   ****         idle->status.setIdle();
  79:src/tcb.cpp   ****         idle->status.setSystematic();
  80:src/tcb.cpp   ****     }
  81:src/tcb.cpp   ****     return idle;
  82:src/tcb.cpp   **** }
  83:src/tcb.cpp   **** 
  84:src/tcb.cpp   **** void TCB::idleWrapper(void*) {
  55              		.loc 1 84 30 is_stmt 1
  56              		.cfi_startproc
  57 0044 130101FF 		addi	sp,sp,-16
  58              		.cfi_def_cfa_offset 16
  59 0048 23341100 		sd	ra,8(sp)
  60 004c 23308100 		sd	s0,0(sp)
  61              		.cfi_offset 1, -8
  62              		.cfi_offset 8, -16
  63 0050 13040101 		addi	s0,sp,16
  64              		.cfi_def_cfa 8, 0
  65              	.L4:
  85:src/tcb.cpp   **** 
  86:src/tcb.cpp   ****     while(true){
  66              		.loc 1 86 5 discriminator 1
  87:src/tcb.cpp   **** 
  88:src/tcb.cpp   ****         thread_dispatch();
  67              		.loc 1 88 9 discriminator 1
  68              		.loc 1 88 24 is_stmt 0 discriminator 1
  69 0054 97000000 		call	_Z15thread_dispatchv@plt
  69      E7800000 
  70              	.LVL3:
  86:src/tcb.cpp   **** 
  71              		.loc 1 86 5 is_stmt 1 discriminator 1
  72 005c 6FF09FFF 		j	.L4
  73              		.cfi_endproc
  74              	.LFE111:
  76              		.align	2
  77              		.globl	_ZN3TCB15outputThWrapperEPv
  79              	_ZN3TCB15outputThWrapperEPv:
  80              	.LFB117:
  89:src/tcb.cpp   **** 
  90:src/tcb.cpp   ****     }
  91:src/tcb.cpp   **** 
GAS LISTING /tmp/ccSvzbZj.s 			page 4


  92:src/tcb.cpp   **** }
  93:src/tcb.cpp   **** int TCB::exit() {
  94:src/tcb.cpp   ****     if(!running->status.getRunning())return -1;
  95:src/tcb.cpp   ****     running->status.delAll();
  96:src/tcb.cpp   ****     running->status.setFinished();
  97:src/tcb.cpp   ****     dispatch();
  98:src/tcb.cpp   ****     return 0;
  99:src/tcb.cpp   **** }
 100:src/tcb.cpp   **** 
 101:src/tcb.cpp   **** int TCB::wait() {
 102:src/tcb.cpp   ****     if(!running->status.getRunning())return -1;
 103:src/tcb.cpp   ****     running->status.delAll();
 104:src/tcb.cpp   ****     running->status.setWaiting();
 105:src/tcb.cpp   ****     dispatch();
 106:src/tcb.cpp   ****     return 0;
 107:src/tcb.cpp   **** }
 108:src/tcb.cpp   **** int TCB::releaseWaiting() {
 109:src/tcb.cpp   ****     if(!status.getWaiting())return -1;
 110:src/tcb.cpp   ****     status.delAll();
 111:src/tcb.cpp   ****     status.setReady();
 112:src/tcb.cpp   ****     Scheduler::put(this);
 113:src/tcb.cpp   ****     return 0;
 114:src/tcb.cpp   **** }
 115:src/tcb.cpp   **** 
 116:src/tcb.cpp   **** int TCB::sleep(time_t tm) {
 117:src/tcb.cpp   ****     if(!running->status.getRunning())return -1;
 118:src/tcb.cpp   **** 
 119:src/tcb.cpp   ****         running->status.delAll();
 120:src/tcb.cpp   ****         running->status.setSleeping();
 121:src/tcb.cpp   ****         Riscv::timelist->add(running, tm);
 122:src/tcb.cpp   ****         dispatch();
 123:src/tcb.cpp   ****         return 0;
 124:src/tcb.cpp   **** 
 125:src/tcb.cpp   **** }
 126:src/tcb.cpp   **** TCB * TCB::getOutputTh() {
 127:src/tcb.cpp   ****     if(outputTh)return outputTh;
 128:src/tcb.cpp   ****     outputTh= initThreadWithRun(outputThWrapper, nullptr, (uint64*)__mem_alloc(sizeof(uint64) * DEF
 129:src/tcb.cpp   ****     outputTh->status.setSystematic();
 130:src/tcb.cpp   **** 
 131:src/tcb.cpp   ****     return outputTh;
 132:src/tcb.cpp   **** }
 133:src/tcb.cpp   **** void TCB::outputThWrapper(void *) {
  81              		.loc 1 133 35
  82              		.cfi_startproc
  83              	.L10:
 134:src/tcb.cpp   ****     while(true){
  84              		.loc 1 134 5
  85              	.LBB100:
 135:src/tcb.cpp   ****         while (*((char*)CONSOLE_STATUS) & CONSOLE_TX_STATUS_BIT){
  86              		.loc 1 135 9
  87              		.loc 1 135 43
  88              		.loc 1 135 16 is_stmt 0
  89 0060 97070000 		la	a5,CONSOLE_STATUS
  89      83B70700 
  90 0068 83B70700 		ld	a5,0(a5)
  91 006c 83C70700 		lbu	a5,0(a5)
  92              		.loc 1 135 43
GAS LISTING /tmp/ccSvzbZj.s 			page 5


  93 0070 93F70702 		andi	a5,a5,32
  94 0074 E38607FE 		beqz	a5,.L10
  95              	.LBE100:
 133:src/tcb.cpp   ****     while(true){
  96              		.loc 1 133 35
  97 0078 130101FF 		addi	sp,sp,-16
  98              		.cfi_def_cfa_offset 16
  99 007c 23341100 		sd	ra,8(sp)
 100 0080 23308100 		sd	s0,0(sp)
 101              		.cfi_offset 1, -8
 102              		.cfi_offset 8, -16
 103 0084 13040101 		addi	s0,sp,16
 104              		.cfi_def_cfa 8, 0
 105              	.L11:
 106              	.LBB102:
 107              	.LBB101:
 136:src/tcb.cpp   ****             char inpChar = Riscv::bufferOut->get();
 108              		.loc 1 136 13 is_stmt 1
 109              		.loc 1 136 49 is_stmt 0
 110 0088 97070000 		la	a5,_ZN5Riscv9bufferOutE
 110      83B70700 
 111 0090 03B50700 		ld	a0,0(a5)
 112 0094 97000000 		call	_ZN7_Buffer3getEv@plt
 112      E7800000 
 113              	.LVL4:
 137:src/tcb.cpp   ****             *((char*)CONSOLE_TX_DATA)=inpChar;
 114              		.loc 1 137 13 is_stmt 1
 115 009c 97070000 		la	a5,CONSOLE_TX_DATA
 115      83B70700 
 116 00a4 83B70700 		ld	a5,0(a5)
 117              		.loc 1 137 38 is_stmt 0
 118 00a8 2380A700 		sb	a0,0(a5)
 119              	.L7:
 120              	.LBE101:
 121              	.LBE102:
 134:src/tcb.cpp   ****         while (*((char*)CONSOLE_STATUS) & CONSOLE_TX_STATUS_BIT){
 122              		.loc 1 134 5 is_stmt 1
 123              	.LBB103:
 135:src/tcb.cpp   ****             char inpChar = Riscv::bufferOut->get();
 124              		.loc 1 135 9
 135:src/tcb.cpp   ****             char inpChar = Riscv::bufferOut->get();
 125              		.loc 1 135 43
 135:src/tcb.cpp   ****             char inpChar = Riscv::bufferOut->get();
 126              		.loc 1 135 16 is_stmt 0
 127 00ac 97070000 		la	a5,CONSOLE_STATUS
 127      83B70700 
 128 00b4 83B70700 		ld	a5,0(a5)
 129 00b8 83C70700 		lbu	a5,0(a5)
 135:src/tcb.cpp   ****             char inpChar = Riscv::bufferOut->get();
 130              		.loc 1 135 43
 131 00bc 93F70702 		andi	a5,a5,32
 132 00c0 E38607FE 		beqz	a5,.L7
 133 00c4 6FF05FFC 		j	.L11
 134              	.LBE103:
 135              		.cfi_endproc
 136              	.LFE117:
 138              		.align	2
GAS LISTING /tmp/ccSvzbZj.s 			page 6


 139              		.globl	_ZN3TCB17initThreadWithRunEPFvPvES0_Pm
 141              	_ZN3TCB17initThreadWithRunEPFvPvES0_Pm:
 142              	.LFB104:
  19:src/tcb.cpp   ****     TCB*tcb= new TCB(body,arg,stack);
 143              		.loc 1 19 62 is_stmt 1
 144              		.cfi_startproc
 145              	.LVL5:
 146 00c8 130101FD 		addi	sp,sp,-48
 147              		.cfi_def_cfa_offset 48
 148 00cc 23341102 		sd	ra,40(sp)
 149 00d0 23308102 		sd	s0,32(sp)
 150 00d4 233C9100 		sd	s1,24(sp)
 151 00d8 23382101 		sd	s2,16(sp)
 152 00dc 23343101 		sd	s3,8(sp)
 153 00e0 23304101 		sd	s4,0(sp)
 154              		.cfi_offset 1, -8
 155              		.cfi_offset 8, -16
 156              		.cfi_offset 9, -24
 157              		.cfi_offset 18, -32
 158              		.cfi_offset 19, -40
 159              		.cfi_offset 20, -48
 160 00e4 13040103 		addi	s0,sp,48
 161              		.cfi_def_cfa 8, 0
 162 00e8 130A0500 		mv	s4,a0
 163 00ec 93890500 		mv	s3,a1
 164 00f0 13090600 		mv	s2,a2
  20:src/tcb.cpp   ****     tcb->status.delAll();
 165              		.loc 1 20 5
 166              	.LVL6:
 167              	.LBB104:
 168              	.LBB105:
 169              		.file 2 "src/../h/tcb.hpp"
   1:src/../h/tcb.hpp **** //
   2:src/../h/tcb.hpp **** // Created by os on 7/30/22.
   3:src/../h/tcb.hpp **** //
   4:src/../h/tcb.hpp **** 
   5:src/../h/tcb.hpp **** #ifndef OSPROJECT_TCB_HPP
   6:src/../h/tcb.hpp **** #define OSPROJECT_TCB_HPP
   7:src/../h/tcb.hpp **** 
   8:src/../h/tcb.hpp **** #include "../lib/hw.h"
   9:src/../h/tcb.hpp **** #include "scheduler.hpp"
  10:src/../h/tcb.hpp **** #include "../lib/mem.h"
  11:src/../h/tcb.hpp **** class TCB{
  12:src/../h/tcb.hpp **** 
  13:src/../h/tcb.hpp **** public:
  14:src/../h/tcb.hpp ****     ~TCB(){delete[] stack;}
  15:src/../h/tcb.hpp ****     using Body = void (*)(void*);
  16:src/../h/tcb.hpp ****     static TCB *initThreadWithRun(Body body,void *arg,uint64*stack);
  17:src/../h/tcb.hpp ****     static TCB *initThreadWithNoRun(Body body , void*arg,uint64*stack);
  18:src/../h/tcb.hpp ****     static TCB* running;
  19:src/../h/tcb.hpp ****     static TCB* idle;
  20:src/../h/tcb.hpp ****     static TCB * kernel;
  21:src/../h/tcb.hpp ****     static TCB * outputTh;
  22:src/../h/tcb.hpp **** 
  23:src/../h/tcb.hpp ****     bool isFinished(){
  24:src/../h/tcb.hpp ****         return status.getFinished();
  25:src/../h/tcb.hpp ****     }
GAS LISTING /tmp/ccSvzbZj.s 			page 7


  26:src/../h/tcb.hpp ****     uint64 getTimeSlice(){return timeSlice;}
  27:src/../h/tcb.hpp ****     static TCB* getIdle();
  28:src/../h/tcb.hpp ****     static TCB* getKernel();
  29:src/../h/tcb.hpp ****     static TCB* getOutputTh();
  30:src/../h/tcb.hpp ****     int start();
  31:src/../h/tcb.hpp ****     void *operator new(size_t size) { return __mem_alloc(size); }
 170              		.loc 2 31 39
 171              		.loc 2 31 57 is_stmt 0
 172 00f4 13050004 		li	a0,64
 173              	.LVL7:
 174 00f8 97000000 		call	__mem_alloc@plt
 174      E7800000 
 175              	.LVL8:
 176 0100 93040500 		mv	s1,a0
 177              	.LVL9:
 178              	.LBE105:
 179              	.LBE104:
 180              	.LBB106:
 181              	.LBB107:
  32:src/../h/tcb.hpp ****     void operator delete(void *ptr) { __mem_free(ptr); }
  33:src/../h/tcb.hpp **** private:
  34:src/../h/tcb.hpp ****     static int idS;
  35:src/../h/tcb.hpp ****     int myId;
  36:src/../h/tcb.hpp ****     explicit TCB(Body body,void *arg, uint64 *stack):
  37:src/../h/tcb.hpp ****     body(body),
  38:src/../h/tcb.hpp ****     stack(stack),
  39:src/../h/tcb.hpp ****     arg(arg),
  40:src/../h/tcb.hpp ****     timeSlice(DEFAULT_TIME_SLICE)
 182              		.loc 2 40 33
 183 0104 23344501 		sd	s4,8(a0)
 184 0108 23382501 		sd	s2,16(a0)
 185              	.LVL10:
 186              	.LBB108:
 187              	.LBB109:
  41:src/../h/tcb.hpp ****     {
  42:src/../h/tcb.hpp ****         myId=idS++;
  43:src/../h/tcb.hpp ****         status.setCreated();
  44:src/../h/tcb.hpp ****         context={(uint64) &threadWrapper,
  45:src/../h/tcb.hpp ****                  (uint64) &stack[DEFAULT_STACK_SIZE]};
  46:src/../h/tcb.hpp ****     }
  47:src/../h/tcb.hpp **** 
  48:src/../h/tcb.hpp ****     explicit TCB(){
  49:src/../h/tcb.hpp ****         body= nullptr;
  50:src/../h/tcb.hpp ****         stack= nullptr;
  51:src/../h/tcb.hpp ****         arg= nullptr;
  52:src/../h/tcb.hpp ****         myId=idS++;
  53:src/../h/tcb.hpp ****         timeSlice=DEFAULT_TIME_SLICE;
  54:src/../h/tcb.hpp ****         context = {0, 0};
  55:src/../h/tcb.hpp ****         status.delAll();
  56:src/../h/tcb.hpp ****         status.setRunning();
  57:src/../h/tcb.hpp ****     }
  58:src/../h/tcb.hpp **** 
  59:src/../h/tcb.hpp ****     struct Context
  60:src/../h/tcb.hpp ****     {
  61:src/../h/tcb.hpp ****         uint64 ra;
  62:src/../h/tcb.hpp ****         uint64 sp;
  63:src/../h/tcb.hpp ****     };
GAS LISTING /tmp/ccSvzbZj.s 			page 8


  64:src/../h/tcb.hpp ****     struct Status{
 188              		.loc 2 64 12
 189 010c 23040502 		sb	zero,40(a0)
 190 0110 A3040502 		sb	zero,41(a0)
 191 0114 23060502 		sb	zero,44(a0)
 192 0118 A3060502 		sb	zero,45(a0)
 193 011c 23070502 		sb	zero,46(a0)
 194 0120 A3070502 		sb	zero,47(a0)
 195              	.LVL11:
 196              	.LBE109:
 197              	.LBE108:
  40:src/../h/tcb.hpp ****     {
 198              		.loc 2 40 33
 199 0124 23383503 		sd	s3,48(a0)
 200 0128 93072000 		li	a5,2
 201 012c 233CF502 		sd	a5,56(a0)
  42:src/../h/tcb.hpp ****         status.setCreated();
 202              		.loc 2 42 9 is_stmt 1
  42:src/../h/tcb.hpp ****         status.setCreated();
 203              		.loc 2 42 17 is_stmt 0
 204 0130 17070000 		lla	a4,.LANCHOR0
 204      13070700 
 205 0138 83278700 		lw	a5,8(a4)
 206 013c 9B861700 		addiw	a3,a5,1
 207 0140 2324D700 		sw	a3,8(a4)
  42:src/../h/tcb.hpp ****         status.setCreated();
 208              		.loc 2 42 13
 209 0144 2320F500 		sw	a5,0(a0)
  43:src/../h/tcb.hpp ****         context={(uint64) &threadWrapper,
 210              		.loc 2 43 9 is_stmt 1
 211              	.LVL12:
 212              	.LBE107:
 213              	.LBE106:
  65:src/../h/tcb.hpp ****         bool FINISHED= false;
  66:src/../h/tcb.hpp ****         bool RUNNING = false;
  67:src/../h/tcb.hpp ****         bool READY= false;
  68:src/../h/tcb.hpp ****         bool CREATED= false;
  69:src/../h/tcb.hpp ****         bool WAITING= false;
  70:src/../h/tcb.hpp ****         bool SLEEPING= false;
  71:src/../h/tcb.hpp ****         bool IDLE= false;
  72:src/../h/tcb.hpp ****         bool SYSTEMATIC= false;
  73:src/../h/tcb.hpp ****     public:
  74:src/../h/tcb.hpp ****         void* operator new(size_t size){return __mem_alloc(size);}
  75:src/../h/tcb.hpp ****         void operator delete (void* ptr){ __mem_free(ptr);}
  76:src/../h/tcb.hpp ****         void setFinished(){FINISHED=true;}
  77:src/../h/tcb.hpp ****         void delFinished(){FINISHED= false;}
  78:src/../h/tcb.hpp ****         void setRunning(){RUNNING=true;}
  79:src/../h/tcb.hpp ****         void delRunning(){RUNNING= false;}
  80:src/../h/tcb.hpp ****         void setReady(){READY=true;}
  81:src/../h/tcb.hpp ****         void delReady(){READY= false;}
  82:src/../h/tcb.hpp ****         void setCreated(){CREATED=true;}
 214              		.loc 2 82 27
 215              	.LBB111:
 216              	.LBB110:
  44:src/../h/tcb.hpp ****                  (uint64) &stack[DEFAULT_STACK_SIZE]};
 217              		.loc 2 44 9
  45:src/../h/tcb.hpp ****     }
GAS LISTING /tmp/ccSvzbZj.s 			page 9


 218              		.loc 2 45 27 is_stmt 0
 219 0148 37860000 		li	a2,32768
 220 014c 3309C900 		add	s2,s2,a2
 221              	.LVL13:
  44:src/../h/tcb.hpp ****                  (uint64) &stack[DEFAULT_STACK_SIZE]};
 222              		.loc 2 44 16
 223 0150 97070000 		lla	a5,_ZN3TCB13threadWrapperEv
 223      93870700 
 224 0158 233CF500 		sd	a5,24(a0)
 225 015c 23302503 		sd	s2,32(a0)
 226              	.LVL14:
 227              	.LBE110:
 228              	.LBE111:
  21:src/tcb.cpp   ****     tcb->status.setReady();
 229              		.loc 1 21 5 is_stmt 1
 230              	.LBB112:
 231              	.LBB113:
  83:src/../h/tcb.hpp ****         void delCreated(){CREATED= false;}
  84:src/../h/tcb.hpp ****         void setWaiting(){WAITING=true;}
  85:src/../h/tcb.hpp ****         void delWaiting(){WAITING= false;}
  86:src/../h/tcb.hpp ****         void setSleeping(){SLEEPING=true;}
  87:src/../h/tcb.hpp ****         void delSleeping(){SLEEPING= false;}
  88:src/../h/tcb.hpp ****         void setIdle(){IDLE=true;}
  89:src/../h/tcb.hpp ****         void delIdle(){IDLE= false;}
  90:src/../h/tcb.hpp ****         bool getFinished(){ return FINISHED;}
  91:src/../h/tcb.hpp ****         bool getRunning(){ return RUNNING;}
  92:src/../h/tcb.hpp ****         bool getReady(){return  READY;}
  93:src/../h/tcb.hpp ****         bool getCreated(){return CREATED;}
  94:src/../h/tcb.hpp ****         bool getWaiting(){return WAITING;}
  95:src/../h/tcb.hpp ****         bool getSleeping(){return SLEEPING;}
  96:src/../h/tcb.hpp ****         bool getIdle(){return IDLE;}
  97:src/../h/tcb.hpp ****         void setSystematic(){ SYSTEMATIC= true;}
  98:src/../h/tcb.hpp ****         bool getSystematic(){return  SYSTEMATIC;}
  99:src/../h/tcb.hpp ****         void delAll(){
 100:src/../h/tcb.hpp ****              FINISHED= false;
 232              		.loc 2 100 14
 101:src/../h/tcb.hpp ****              RUNNING = false;
 233              		.loc 2 101 14
 102:src/../h/tcb.hpp ****              READY= false;
 234              		.loc 2 102 14
 103:src/../h/tcb.hpp ****              CREATED= false;
 235              		.loc 2 103 14
 236              		.loc 2 103 21 is_stmt 0
 237 0160 A3050502 		sb	zero,43(a0)
 104:src/../h/tcb.hpp ****              WAITING= false;
 238              		.loc 2 104 14 is_stmt 1
 105:src/../h/tcb.hpp ****              SLEEPING= false;
 239              		.loc 2 105 14
 240              	.LVL15:
 241              	.LBE113:
 242              	.LBE112:
  22:src/tcb.cpp   ****     Scheduler::put(tcb);
 243              		.loc 1 22 5
 244              	.LBB114:
 245              	.LBB115:
  80:src/../h/tcb.hpp ****         void delReady(){READY= false;}
 246              		.loc 2 80 25
GAS LISTING /tmp/ccSvzbZj.s 			page 10


  80:src/../h/tcb.hpp ****         void delReady(){READY= false;}
 247              		.loc 2 80 30 is_stmt 0
 248 0164 93071000 		li	a5,1
 249 0168 2305F502 		sb	a5,42(a0)
 250              	.LVL16:
 251              	.LBE115:
 252              	.LBE114:
  23:src/tcb.cpp   ****     return tcb;
 253              		.loc 1 23 5 is_stmt 1
  23:src/tcb.cpp   ****     return tcb;
 254              		.loc 1 23 19 is_stmt 0
 255 016c 97000000 		call	_ZN9Scheduler3putEP3TCB@plt
 255      E7800000 
 256              	.LVL17:
  24:src/tcb.cpp   **** }
 257              		.loc 1 24 5 is_stmt 1
  25:src/tcb.cpp   **** int TCB::start() {
 258              		.loc 1 25 1 is_stmt 0
 259 0174 13850400 		mv	a0,s1
 260 0178 83308102 		ld	ra,40(sp)
 261              		.cfi_restore 1
 262 017c 03340102 		ld	s0,32(sp)
 263              		.cfi_restore 8
 264              		.cfi_def_cfa 2, 48
 265 0180 83348101 		ld	s1,24(sp)
 266              		.cfi_restore 9
 267              	.LVL18:
 268 0184 03390101 		ld	s2,16(sp)
 269              		.cfi_restore 18
 270              	.LVL19:
 271 0188 83398100 		ld	s3,8(sp)
 272              		.cfi_restore 19
 273              	.LVL20:
 274 018c 033A0100 		ld	s4,0(sp)
 275              		.cfi_restore 20
 276              	.LVL21:
 277 0190 13010103 		addi	sp,sp,48
 278              		.cfi_def_cfa_offset 0
 279 0194 67800000 		jr	ra
 280              		.cfi_endproc
 281              	.LFE104:
 283              		.align	2
 284              		.globl	_ZN3TCB5startEv
 286              	_ZN3TCB5startEv:
 287              	.LFB105:
  26:src/tcb.cpp   **** 
 288              		.loc 1 26 18 is_stmt 1
 289              		.cfi_startproc
 290              	.LVL22:
  28:src/tcb.cpp   ****     status.delAll();
 291              		.loc 1 28 5
 292              	.LBB116:
 293              	.LBB117:
  93:src/../h/tcb.hpp ****         bool getWaiting(){return WAITING;}
 294              		.loc 2 93 27
  93:src/../h/tcb.hpp ****         bool getWaiting(){return WAITING;}
 295              		.loc 2 93 34 is_stmt 0
GAS LISTING /tmp/ccSvzbZj.s 			page 11


 296 0198 8347B502 		lbu	a5,43(a0)
 297              	.LVL23:
 298              	.LBE117:
 299              	.LBE116:
  28:src/tcb.cpp   ****     status.delAll();
 300              		.loc 1 28 5
 301 019c 63860704 		beqz	a5,.L16
  26:src/tcb.cpp   **** 
 302              		.loc 1 26 18
 303 01a0 130101FF 		addi	sp,sp,-16
 304              		.cfi_def_cfa_offset 16
 305 01a4 23341100 		sd	ra,8(sp)
 306 01a8 23308100 		sd	s0,0(sp)
 307              		.cfi_offset 1, -8
 308              		.cfi_offset 8, -16
 309 01ac 13040101 		addi	s0,sp,16
 310              		.cfi_def_cfa 8, 0
  29:src/tcb.cpp   ****     status.setReady();
 311              		.loc 1 29 5 is_stmt 1
 312              	.LVL24:
 313              	.LBB118:
 314              	.LBB119:
 100:src/../h/tcb.hpp ****              RUNNING = false;
 315              		.loc 2 100 14
 100:src/../h/tcb.hpp ****              RUNNING = false;
 316              		.loc 2 100 22 is_stmt 0
 317 01b0 23040502 		sb	zero,40(a0)
 101:src/../h/tcb.hpp ****              READY= false;
 318              		.loc 2 101 14 is_stmt 1
 101:src/../h/tcb.hpp ****              READY= false;
 319              		.loc 2 101 22 is_stmt 0
 320 01b4 A3040502 		sb	zero,41(a0)
 102:src/../h/tcb.hpp ****              CREATED= false;
 321              		.loc 2 102 14 is_stmt 1
 103:src/../h/tcb.hpp ****              WAITING= false;
 322              		.loc 2 103 14
 103:src/../h/tcb.hpp ****              WAITING= false;
 323              		.loc 2 103 21 is_stmt 0
 324 01b8 A3050502 		sb	zero,43(a0)
 104:src/../h/tcb.hpp ****              SLEEPING= false;
 325              		.loc 2 104 14 is_stmt 1
 104:src/../h/tcb.hpp ****              SLEEPING= false;
 326              		.loc 2 104 21 is_stmt 0
 327 01bc 23060502 		sb	zero,44(a0)
 328              		.loc 2 105 14 is_stmt 1
 329              		.loc 2 105 22 is_stmt 0
 330 01c0 A3060502 		sb	zero,45(a0)
 331              	.LVL25:
 332              	.LBE119:
 333              	.LBE118:
  30:src/tcb.cpp   ****     Scheduler::put(this);
 334              		.loc 1 30 5 is_stmt 1
 335              	.LBB120:
 336              	.LBB121:
  80:src/../h/tcb.hpp ****         void delReady(){READY= false;}
 337              		.loc 2 80 25
  80:src/../h/tcb.hpp ****         void delReady(){READY= false;}
GAS LISTING /tmp/ccSvzbZj.s 			page 12


 338              		.loc 2 80 30 is_stmt 0
 339 01c4 93071000 		li	a5,1
 340 01c8 2305F502 		sb	a5,42(a0)
 341              	.LVL26:
 342              	.LBE121:
 343              	.LBE120:
  31:src/tcb.cpp   ****     return 0;
 344              		.loc 1 31 5 is_stmt 1
  31:src/tcb.cpp   ****     return 0;
 345              		.loc 1 31 19 is_stmt 0
 346 01cc 97000000 		call	_ZN9Scheduler3putEP3TCB@plt
 346      E7800000 
 347              	.LVL27:
  32:src/tcb.cpp   **** }
 348              		.loc 1 32 5 is_stmt 1
  32:src/tcb.cpp   **** }
 349              		.loc 1 32 12 is_stmt 0
 350 01d4 13050000 		li	a0,0
  33:src/tcb.cpp   **** TCB* TCB::initThreadWithNoRun(Body body, void *arg, uint64 *stack) {
 351              		.loc 1 33 1
 352 01d8 83308100 		ld	ra,8(sp)
 353              		.cfi_restore 1
 354 01dc 03340100 		ld	s0,0(sp)
 355              		.cfi_restore 8
 356              		.cfi_def_cfa 2, 16
 357 01e0 13010101 		addi	sp,sp,16
 358              		.cfi_def_cfa_offset 0
 359 01e4 67800000 		jr	ra
 360              	.LVL28:
 361              	.L16:
  28:src/tcb.cpp   ****     status.delAll();
 362              		.loc 1 28 38
 363 01e8 1305F0FF 		li	a0,-1
 364              	.LVL29:
  33:src/tcb.cpp   **** TCB* TCB::initThreadWithNoRun(Body body, void *arg, uint64 *stack) {
 365              		.loc 1 33 1
 366 01ec 67800000 		ret
 367              		.cfi_endproc
 368              	.LFE105:
 370              		.align	2
 371              		.globl	_ZN3TCB19initThreadWithNoRunEPFvPvES0_Pm
 373              	_ZN3TCB19initThreadWithNoRunEPFvPvES0_Pm:
 374              	.LFB106:
  34:src/tcb.cpp   ****     return new TCB(body,arg,stack);
 375              		.loc 1 34 68 is_stmt 1
 376              		.cfi_startproc
 377              	.LVL30:
 378 01f0 130101FD 		addi	sp,sp,-48
 379              		.cfi_def_cfa_offset 48
 380 01f4 23341102 		sd	ra,40(sp)
 381 01f8 23308102 		sd	s0,32(sp)
 382 01fc 233C9100 		sd	s1,24(sp)
 383 0200 23382101 		sd	s2,16(sp)
 384 0204 23343101 		sd	s3,8(sp)
 385              		.cfi_offset 1, -8
 386              		.cfi_offset 8, -16
 387              		.cfi_offset 9, -24
GAS LISTING /tmp/ccSvzbZj.s 			page 13


 388              		.cfi_offset 18, -32
 389              		.cfi_offset 19, -40
 390 0208 13040103 		addi	s0,sp,48
 391              		.cfi_def_cfa 8, 0
 392 020c 93090500 		mv	s3,a0
 393 0210 13890500 		mv	s2,a1
 394 0214 93040600 		mv	s1,a2
  35:src/tcb.cpp   **** }
 395              		.loc 1 35 5
 396              	.LVL31:
 397              	.LBB122:
 398              	.LBB123:
  31:src/../h/tcb.hpp ****     void operator delete(void *ptr) { __mem_free(ptr); }
 399              		.loc 2 31 39
  31:src/../h/tcb.hpp ****     void operator delete(void *ptr) { __mem_free(ptr); }
 400              		.loc 2 31 57 is_stmt 0
 401 0218 13050004 		li	a0,64
 402              	.LVL32:
 403 021c 97000000 		call	__mem_alloc@plt
 403      E7800000 
 404              	.LVL33:
 405              	.LBE123:
 406              	.LBE122:
 407              	.LBB124:
 408              	.LBB125:
  40:src/../h/tcb.hpp ****     {
 409              		.loc 2 40 33
 410 0224 23343501 		sd	s3,8(a0)
 411 0228 23389500 		sd	s1,16(a0)
 412              	.LVL34:
 413              	.LBB126:
 414              	.LBB127:
  64:src/../h/tcb.hpp ****         bool FINISHED= false;
 415              		.loc 2 64 12
 416 022c 23040502 		sb	zero,40(a0)
 417 0230 A3040502 		sb	zero,41(a0)
 418 0234 23050502 		sb	zero,42(a0)
 419 0238 23060502 		sb	zero,44(a0)
 420 023c A3060502 		sb	zero,45(a0)
 421 0240 23070502 		sb	zero,46(a0)
 422 0244 A3070502 		sb	zero,47(a0)
 423              	.LVL35:
 424              	.LBE127:
 425              	.LBE126:
  40:src/../h/tcb.hpp ****     {
 426              		.loc 2 40 33
 427 0248 23382503 		sd	s2,48(a0)
 428 024c 13072000 		li	a4,2
 429 0250 233CE502 		sd	a4,56(a0)
  42:src/../h/tcb.hpp ****         status.setCreated();
 430              		.loc 2 42 9 is_stmt 1
  42:src/../h/tcb.hpp ****         status.setCreated();
 431              		.loc 2 42 17 is_stmt 0
 432 0254 97060000 		lla	a3,.LANCHOR0
 432      93860600 
 433 025c 03A78600 		lw	a4,8(a3)
 434 0260 1B061700 		addiw	a2,a4,1
GAS LISTING /tmp/ccSvzbZj.s 			page 14


 435 0264 23A4C600 		sw	a2,8(a3)
  42:src/../h/tcb.hpp ****         status.setCreated();
 436              		.loc 2 42 13
 437 0268 2320E500 		sw	a4,0(a0)
  43:src/../h/tcb.hpp ****         context={(uint64) &threadWrapper,
 438              		.loc 2 43 9 is_stmt 1
 439              	.LVL36:
 440              	.LBB128:
 441              	.LBB129:
  82:src/../h/tcb.hpp ****         void delCreated(){CREATED= false;}
 442              		.loc 2 82 27
  82:src/../h/tcb.hpp ****         void delCreated(){CREATED= false;}
 443              		.loc 2 82 34 is_stmt 0
 444 026c 13071000 		li	a4,1
 445 0270 A305E502 		sb	a4,43(a0)
 446              	.LVL37:
 447              	.LBE129:
 448              	.LBE128:
  44:src/../h/tcb.hpp ****                  (uint64) &stack[DEFAULT_STACK_SIZE]};
 449              		.loc 2 44 9 is_stmt 1
  45:src/../h/tcb.hpp ****     }
 450              		.loc 2 45 27 is_stmt 0
 451 0274 37860000 		li	a2,32768
 452 0278 B384C400 		add	s1,s1,a2
 453              	.LVL38:
  44:src/../h/tcb.hpp ****                  (uint64) &stack[DEFAULT_STACK_SIZE]};
 454              		.loc 2 44 16
 455 027c 17070000 		lla	a4,_ZN3TCB13threadWrapperEv
 455      13070700 
 456 0284 233CE500 		sd	a4,24(a0)
 457 0288 23309502 		sd	s1,32(a0)
 458              	.LVL39:
 459              	.LBE125:
 460              	.LBE124:
  36:src/tcb.cpp   **** TCB* TCB::getKernel() {
 461              		.loc 1 36 1
 462 028c 83308102 		ld	ra,40(sp)
 463              		.cfi_restore 1
 464 0290 03340102 		ld	s0,32(sp)
 465              		.cfi_restore 8
 466              		.cfi_def_cfa 2, 48
 467 0294 83348101 		ld	s1,24(sp)
 468              		.cfi_restore 9
 469 0298 03390101 		ld	s2,16(sp)
 470              		.cfi_restore 18
 471              	.LVL40:
 472 029c 83398100 		ld	s3,8(sp)
 473              		.cfi_restore 19
 474              	.LVL41:
 475 02a0 13010103 		addi	sp,sp,48
 476              		.cfi_def_cfa_offset 0
 477 02a4 67800000 		jr	ra
 478              		.cfi_endproc
 479              	.LFE106:
 481              		.align	2
 482              		.globl	_ZN3TCB9getKernelEv
 484              	_ZN3TCB9getKernelEv:
GAS LISTING /tmp/ccSvzbZj.s 			page 15


 485              	.LFB107:
  37:src/tcb.cpp   ****     if(kernel)return kernel;
 486              		.loc 1 37 23 is_stmt 1
 487              		.cfi_startproc
  38:src/tcb.cpp   ****    kernel=new TCB();
 488              		.loc 1 38 5
  38:src/tcb.cpp   ****    kernel=new TCB();
 489              		.loc 1 38 14 is_stmt 0
 490 02a8 17050000 		ld	a0,.LANCHOR0+16
 490      03350500 
  38:src/tcb.cpp   ****    kernel=new TCB();
 491              		.loc 1 38 5
 492 02b0 63040500 		beqz	a0,.L29
  44:src/tcb.cpp   **** void TCB::dispatch(){
 493              		.loc 1 44 1
 494 02b4 67800000 		ret
 495              	.L29:
  37:src/tcb.cpp   ****     if(kernel)return kernel;
 496              		.loc 1 37 23
 497 02b8 130101FF 		addi	sp,sp,-16
 498              		.cfi_def_cfa_offset 16
 499 02bc 23341100 		sd	ra,8(sp)
 500 02c0 23308100 		sd	s0,0(sp)
 501              		.cfi_offset 1, -8
 502              		.cfi_offset 8, -16
 503 02c4 13040101 		addi	s0,sp,16
 504              		.cfi_def_cfa 8, 0
  39:src/tcb.cpp   **** 
 505              		.loc 1 39 4 is_stmt 1
 506              	.LVL42:
 507              	.LBB130:
 508              	.LBB131:
  31:src/../h/tcb.hpp ****     void operator delete(void *ptr) { __mem_free(ptr); }
 509              		.loc 2 31 39
  31:src/../h/tcb.hpp ****     void operator delete(void *ptr) { __mem_free(ptr); }
 510              		.loc 2 31 57 is_stmt 0
 511 02c8 13050004 		li	a0,64
 512 02cc 97000000 		call	__mem_alloc@plt
 512      E7800000 
 513              	.LVL43:
 514              	.LBE131:
 515              	.LBE130:
 516              	.LBB132:
 517              	.LBB133:
 518              	.LBB134:
 519              	.LBB135:
  64:src/../h/tcb.hpp ****         bool FINISHED= false;
 520              		.loc 2 64 12
 521 02d4 23040502 		sb	zero,40(a0)
 522 02d8 23050502 		sb	zero,42(a0)
 523 02dc A3050502 		sb	zero,43(a0)
 524 02e0 23060502 		sb	zero,44(a0)
 525 02e4 A3060502 		sb	zero,45(a0)
 526 02e8 23070502 		sb	zero,46(a0)
 527              	.LVL44:
 528              	.LBE135:
 529              	.LBE134:
GAS LISTING /tmp/ccSvzbZj.s 			page 16


  49:src/../h/tcb.hpp ****         stack= nullptr;
 530              		.loc 2 49 9 is_stmt 1
  49:src/../h/tcb.hpp ****         stack= nullptr;
 531              		.loc 2 49 13 is_stmt 0
 532 02ec 23340500 		sd	zero,8(a0)
  50:src/../h/tcb.hpp ****         arg= nullptr;
 533              		.loc 2 50 9 is_stmt 1
  50:src/../h/tcb.hpp ****         arg= nullptr;
 534              		.loc 2 50 14 is_stmt 0
 535 02f0 23380500 		sd	zero,16(a0)
  51:src/../h/tcb.hpp ****         myId=idS++;
 536              		.loc 2 51 9 is_stmt 1
  51:src/../h/tcb.hpp ****         myId=idS++;
 537              		.loc 2 51 12 is_stmt 0
 538 02f4 23380502 		sd	zero,48(a0)
  52:src/../h/tcb.hpp ****         timeSlice=DEFAULT_TIME_SLICE;
 539              		.loc 2 52 9 is_stmt 1
  52:src/../h/tcb.hpp ****         timeSlice=DEFAULT_TIME_SLICE;
 540              		.loc 2 52 17 is_stmt 0
 541 02f8 97070000 		lla	a5,.LANCHOR0
 541      93870700 
 542 0300 03A78700 		lw	a4,8(a5)
 543 0304 9B061700 		addiw	a3,a4,1
 544 0308 23A4D700 		sw	a3,8(a5)
  52:src/../h/tcb.hpp ****         timeSlice=DEFAULT_TIME_SLICE;
 545              		.loc 2 52 13
 546 030c 2320E500 		sw	a4,0(a0)
  53:src/../h/tcb.hpp ****         context = {0, 0};
 547              		.loc 2 53 9 is_stmt 1
  53:src/../h/tcb.hpp ****         context = {0, 0};
 548              		.loc 2 53 18 is_stmt 0
 549 0310 13072000 		li	a4,2
 550 0314 233CE502 		sd	a4,56(a0)
  54:src/../h/tcb.hpp ****         status.delAll();
 551              		.loc 2 54 9 is_stmt 1
  54:src/../h/tcb.hpp ****         status.delAll();
 552              		.loc 2 54 17 is_stmt 0
 553 0318 233C0500 		sd	zero,24(a0)
 554 031c 23300502 		sd	zero,32(a0)
  55:src/../h/tcb.hpp ****         status.setRunning();
 555              		.loc 2 55 9 is_stmt 1
 556              	.LVL45:
 557              	.LBE133:
 558              	.LBE132:
 100:src/../h/tcb.hpp ****              RUNNING = false;
 559              		.loc 2 100 14
 101:src/../h/tcb.hpp ****              READY= false;
 560              		.loc 2 101 14
 102:src/../h/tcb.hpp ****              CREATED= false;
 561              		.loc 2 102 14
 103:src/../h/tcb.hpp ****              WAITING= false;
 562              		.loc 2 103 14
 104:src/../h/tcb.hpp ****              SLEEPING= false;
 563              		.loc 2 104 14
 564              		.loc 2 105 14
 565              	.LBB139:
 566              	.LBB138:
GAS LISTING /tmp/ccSvzbZj.s 			page 17


  56:src/../h/tcb.hpp ****     }
 567              		.loc 2 56 9
 568              	.LBB136:
 569              	.LBB137:
  78:src/../h/tcb.hpp ****         void delRunning(){RUNNING= false;}
 570              		.loc 2 78 27
  78:src/../h/tcb.hpp ****         void delRunning(){RUNNING= false;}
 571              		.loc 2 78 34 is_stmt 0
 572 0320 13071000 		li	a4,1
 573 0324 A304E502 		sb	a4,41(a0)
 574              	.LVL46:
 575              	.LBE137:
 576              	.LBE136:
 577              	.LBE138:
 578              	.LBE139:
  39:src/tcb.cpp   **** 
 579              		.loc 1 39 10
 580 0328 23B8A700 		sd	a0,16(a5)
  41:src/tcb.cpp   ****     running=kernel;
 581              		.loc 1 41 5 is_stmt 1
 582              	.LVL47:
 583              	.LBB140:
 584              	.LBB141:
  97:src/../h/tcb.hpp ****         bool getSystematic(){return  SYSTEMATIC;}
 585              		.loc 2 97 31
  97:src/../h/tcb.hpp ****         bool getSystematic(){return  SYSTEMATIC;}
 586              		.loc 2 97 41 is_stmt 0
 587 032c A307E502 		sb	a4,47(a0)
 588              	.LVL48:
 589              	.LBE141:
 590              	.LBE140:
  42:src/tcb.cpp   ****     return kernel;
 591              		.loc 1 42 5 is_stmt 1
  42:src/tcb.cpp   ****     return kernel;
 592              		.loc 1 42 12 is_stmt 0
 593 0330 23B0A700 		sd	a0,0(a5)
  43:src/tcb.cpp   **** }
 594              		.loc 1 43 5 is_stmt 1
  44:src/tcb.cpp   **** void TCB::dispatch(){
 595              		.loc 1 44 1 is_stmt 0
 596 0334 83308100 		ld	ra,8(sp)
 597              		.cfi_restore 1
 598 0338 03340100 		ld	s0,0(sp)
 599              		.cfi_restore 8
 600              		.cfi_def_cfa 2, 16
 601 033c 13010101 		addi	sp,sp,16
 602              		.cfi_def_cfa_offset 0
 603 0340 67800000 		jr	ra
 604              		.cfi_endproc
 605              	.LFE107:
 607              		.align	2
 608              		.globl	_ZN3TCB8dispatchEv
 610              	_ZN3TCB8dispatchEv:
 611              	.LFB108:
  45:src/tcb.cpp   **** 
 612              		.loc 1 45 21 is_stmt 1
 613              		.cfi_startproc
GAS LISTING /tmp/ccSvzbZj.s 			page 18


 614 0344 130101FE 		addi	sp,sp,-32
 615              		.cfi_def_cfa_offset 32
 616 0348 233C1100 		sd	ra,24(sp)
 617 034c 23388100 		sd	s0,16(sp)
 618 0350 23349100 		sd	s1,8(sp)
 619 0354 23302101 		sd	s2,0(sp)
 620              		.cfi_offset 1, -8
 621              		.cfi_offset 8, -16
 622              		.cfi_offset 9, -24
 623              		.cfi_offset 18, -32
 624 0358 13040102 		addi	s0,sp,32
 625              		.cfi_def_cfa 8, 0
  47:src/tcb.cpp   ****     if(old->status.getRunning()) {
 626              		.loc 1 47 5
  47:src/tcb.cpp   ****     if(old->status.getRunning()) {
 627              		.loc 1 47 10 is_stmt 0
 628 035c 97040000 		ld	s1,.LANCHOR0
 628      83B40400 
 629              	.LVL49:
  48:src/tcb.cpp   ****         old->status.delAll();
 630              		.loc 1 48 5 is_stmt 1
 631              	.LBB142:
 632              	.LBB143:
  91:src/../h/tcb.hpp ****         bool getReady(){return  READY;}
 633              		.loc 2 91 28
  91:src/../h/tcb.hpp ****         bool getReady(){return  READY;}
 634              		.loc 2 91 35 is_stmt 0
 635 0364 83C79402 		lbu	a5,41(s1)
 636              	.LVL50:
 637              	.LBE143:
 638              	.LBE142:
  48:src/tcb.cpp   ****         old->status.delAll();
 639              		.loc 1 48 5
 640 0368 639C0706 		bnez	a5,.L35
 641              	.L31:
  53:src/tcb.cpp   ****     if(running){
 642              		.loc 1 53 5 is_stmt 1
  53:src/tcb.cpp   ****     if(running){
 643              		.loc 1 53 29 is_stmt 0
 644 036c 97000000 		call	_ZN9Scheduler3getEv@plt
 644      E7800000 
 645              	.LVL51:
  53:src/tcb.cpp   ****     if(running){
 646              		.loc 1 53 13
 647 0374 97070000 		sd	a0,.LANCHOR0,a5
 647      23B0A700 
  54:src/tcb.cpp   ****         running->status.delAll();
 648              		.loc 1 54 5 is_stmt 1
 649 037c 63080508 		beqz	a0,.L32
  55:src/tcb.cpp   ****         running->status.setRunning();
 650              		.loc 1 55 9
 651              	.LVL52:
 652              	.LBB144:
 653              	.LBB145:
 100:src/../h/tcb.hpp ****              RUNNING = false;
 654              		.loc 2 100 14
 100:src/../h/tcb.hpp ****              RUNNING = false;
GAS LISTING /tmp/ccSvzbZj.s 			page 19


 655              		.loc 2 100 22 is_stmt 0
 656 0380 23040502 		sb	zero,40(a0)
 101:src/../h/tcb.hpp ****              READY= false;
 657              		.loc 2 101 14 is_stmt 1
 102:src/../h/tcb.hpp ****              CREATED= false;
 658              		.loc 2 102 14
 102:src/../h/tcb.hpp ****              CREATED= false;
 659              		.loc 2 102 19 is_stmt 0
 660 0384 23050502 		sb	zero,42(a0)
 103:src/../h/tcb.hpp ****              WAITING= false;
 661              		.loc 2 103 14 is_stmt 1
 103:src/../h/tcb.hpp ****              WAITING= false;
 662              		.loc 2 103 21 is_stmt 0
 663 0388 A3050502 		sb	zero,43(a0)
 104:src/../h/tcb.hpp ****              SLEEPING= false;
 664              		.loc 2 104 14 is_stmt 1
 104:src/../h/tcb.hpp ****              SLEEPING= false;
 665              		.loc 2 104 21 is_stmt 0
 666 038c 23060502 		sb	zero,44(a0)
 667              		.loc 2 105 14 is_stmt 1
 668              		.loc 2 105 22 is_stmt 0
 669 0390 A3060502 		sb	zero,45(a0)
 670              	.LVL53:
 671              	.LBE145:
 672              	.LBE144:
  56:src/tcb.cpp   ****     }else{
 673              		.loc 1 56 9 is_stmt 1
 674              	.LBB146:
 675              	.LBB147:
  78:src/../h/tcb.hpp ****         void delRunning(){RUNNING= false;}
 676              		.loc 2 78 27
  78:src/../h/tcb.hpp ****         void delRunning(){RUNNING= false;}
 677              		.loc 2 78 34 is_stmt 0
 678 0394 93071000 		li	a5,1
 679 0398 A304F502 		sb	a5,41(a0)
 680              	.LVL54:
 681              	.L33:
 682              	.LBE147:
 683              	.LBE146:
  60:src/tcb.cpp   ****     TCB::contextSwitch(&old->context, &running->context);
 684              		.loc 1 60 5 is_stmt 1
  60:src/tcb.cpp   ****     TCB::contextSwitch(&old->context, &running->context);
 685              		.loc 1 60 36 is_stmt 0
 686 039c 17090000 		lla	s2,.LANCHOR0
 686      13090900 
 687 03a4 83370900 		ld	a5,0(s2)
 688              	.LVL55:
 689              	.LBB148:
 690              	.LBB149:
  98:src/../h/tcb.hpp ****         void delAll(){
 691              		.loc 2 98 30 is_stmt 1
 692              	.LBE149:
 693              	.LBE148:
  60:src/tcb.cpp   ****     TCB::contextSwitch(&old->context, &running->context);
 694              		.loc 1 60 21 is_stmt 0
 695 03a8 03C5F702 		lbu	a0,47(a5)
 696 03ac 97000000 		call	_ZN5Riscv9Rest_PrivEb@plt
GAS LISTING /tmp/ccSvzbZj.s 			page 20


 696      E7800000 
 697              	.LVL56:
  61:src/tcb.cpp   **** }
 698              		.loc 1 61 5 is_stmt 1
  61:src/tcb.cpp   **** }
 699              		.loc 1 61 49 is_stmt 0
 700 03b4 83350900 		ld	a1,0(s2)
  61:src/tcb.cpp   **** }
 701              		.loc 1 61 23
 702 03b8 93858501 		addi	a1,a1,24
 703 03bc 13858401 		addi	a0,s1,24
 704 03c0 97000000 		call	_ZN3TCB13contextSwitchEPNS_7ContextES1_@plt
 704      E7800000 
 705              	.LVL57:
  62:src/tcb.cpp   **** 
 706              		.loc 1 62 1
 707 03c8 83308101 		ld	ra,24(sp)
 708              		.cfi_remember_state
 709              		.cfi_restore 1
 710 03cc 03340101 		ld	s0,16(sp)
 711              		.cfi_restore 8
 712              		.cfi_def_cfa 2, 32
 713 03d0 83348100 		ld	s1,8(sp)
 714              		.cfi_restore 9
 715              	.LVL58:
 716 03d4 03390100 		ld	s2,0(sp)
 717              		.cfi_restore 18
 718 03d8 13010102 		addi	sp,sp,32
 719              		.cfi_def_cfa_offset 0
 720 03dc 67800000 		jr	ra
 721              	.LVL59:
 722              	.L35:
 723              		.cfi_restore_state
  49:src/tcb.cpp   ****         old->status.setReady();
 724              		.loc 1 49 9 is_stmt 1
 725              	.LBB150:
 726              	.LBB151:
 100:src/../h/tcb.hpp ****              RUNNING = false;
 727              		.loc 2 100 14
 100:src/../h/tcb.hpp ****              RUNNING = false;
 728              		.loc 2 100 22 is_stmt 0
 729 03e0 23840402 		sb	zero,40(s1)
 101:src/../h/tcb.hpp ****              READY= false;
 730              		.loc 2 101 14 is_stmt 1
 101:src/../h/tcb.hpp ****              READY= false;
 731              		.loc 2 101 22 is_stmt 0
 732 03e4 A3840402 		sb	zero,41(s1)
 102:src/../h/tcb.hpp ****              CREATED= false;
 733              		.loc 2 102 14 is_stmt 1
 103:src/../h/tcb.hpp ****              WAITING= false;
 734              		.loc 2 103 14
 103:src/../h/tcb.hpp ****              WAITING= false;
 735              		.loc 2 103 21 is_stmt 0
 736 03e8 A3850402 		sb	zero,43(s1)
 104:src/../h/tcb.hpp ****              SLEEPING= false;
 737              		.loc 2 104 14 is_stmt 1
 104:src/../h/tcb.hpp ****              SLEEPING= false;
GAS LISTING /tmp/ccSvzbZj.s 			page 21


 738              		.loc 2 104 21 is_stmt 0
 739 03ec 23860402 		sb	zero,44(s1)
 740              		.loc 2 105 14 is_stmt 1
 741              		.loc 2 105 22 is_stmt 0
 742 03f0 A3860402 		sb	zero,45(s1)
 743              	.LVL60:
 744              	.LBE151:
 745              	.LBE150:
  50:src/tcb.cpp   ****         Scheduler::put(old);
 746              		.loc 1 50 9 is_stmt 1
 747              	.LBB152:
 748              	.LBB153:
  80:src/../h/tcb.hpp ****         void delReady(){READY= false;}
 749              		.loc 2 80 25
  80:src/../h/tcb.hpp ****         void delReady(){READY= false;}
 750              		.loc 2 80 30 is_stmt 0
 751 03f4 93071000 		li	a5,1
 752 03f8 2385F402 		sb	a5,42(s1)
 753              	.LVL61:
 754              	.LBE153:
 755              	.LBE152:
  51:src/tcb.cpp   ****     }
 756              		.loc 1 51 9 is_stmt 1
  51:src/tcb.cpp   ****     }
 757              		.loc 1 51 23 is_stmt 0
 758 03fc 13850400 		mv	a0,s1
 759 0400 97000000 		call	_ZN9Scheduler3putEP3TCB@plt
 759      E7800000 
 760              	.LVL62:
 761 0408 6FF05FF6 		j	.L31
 762              	.L32:
  58:src/tcb.cpp   ****     }
 763              		.loc 1 58 9 is_stmt 1
  58:src/tcb.cpp   ****     }
 764              		.loc 1 58 16 is_stmt 0
 765 040c 97070000 		lla	a5,.LANCHOR0
 765      93870700 
 766 0414 03B78701 		ld	a4,24(a5)
 767 0418 23B0E700 		sd	a4,0(a5)
 768 041c 6FF01FF8 		j	.L33
 769              		.cfi_endproc
 770              	.LFE108:
 772              		.align	2
 773              		.globl	_ZN3TCB7getIdleEv
 775              	_ZN3TCB7getIdleEv:
 776              	.LFB110:
  72:src/tcb.cpp   **** 
 777              		.loc 1 72 21 is_stmt 1
 778              		.cfi_startproc
  74:src/tcb.cpp   **** 
 779              		.loc 1 74 5
  74:src/tcb.cpp   **** 
 780              		.loc 1 74 8 is_stmt 0
 781 0420 97070000 		ld	a5,.LANCHOR0+24
 781      83B70700 
  74:src/tcb.cpp   **** 
 782              		.loc 1 74 5
GAS LISTING /tmp/ccSvzbZj.s 			page 22


 783 0428 63880700 		beqz	a5,.L42
  81:src/tcb.cpp   **** }
 784              		.loc 1 81 5 is_stmt 1
  82:src/tcb.cpp   **** 
 785              		.loc 1 82 1 is_stmt 0
 786 042c 17050000 		ld	a0,.LANCHOR0+24
 786      03350500 
 787 0434 67800000 		ret
 788              	.L42:
  72:src/tcb.cpp   **** 
 789              		.loc 1 72 21
 790 0438 130101FF 		addi	sp,sp,-16
 791              		.cfi_def_cfa_offset 16
 792 043c 23341100 		sd	ra,8(sp)
 793 0440 23308100 		sd	s0,0(sp)
 794              		.cfi_offset 1, -8
 795              		.cfi_offset 8, -16
 796 0444 13040101 		addi	s0,sp,16
 797              		.cfi_def_cfa 8, 0
  76:src/tcb.cpp   ****         idle->status.delAll();
 798              		.loc 1 76 9 is_stmt 1
  76:src/tcb.cpp   ****         idle->status.delAll();
 799              		.loc 1 76 80 is_stmt 0
 800 0448 37850000 		li	a0,32768
 801 044c 97000000 		call	__mem_alloc@plt
 801      E7800000 
 802              	.LVL63:
 803 0454 13060500 		mv	a2,a0
  76:src/tcb.cpp   ****         idle->status.delAll();
 804              		.loc 1 76 35
 805 0458 93050000 		li	a1,0
 806 045c 17050000 		lla	a0,_ZN3TCB11idleWrapperEPv
 806      13050500 
 807 0464 97000000 		call	_ZN3TCB19initThreadWithNoRunEPFvPvES0_Pm
 807      E7800000 
 808              	.LVL64:
  76:src/tcb.cpp   ****         idle->status.delAll();
 809              		.loc 1 76 14
 810 046c 97070000 		sd	a0,.LANCHOR0+24,a5
 810      23B0A700 
  77:src/tcb.cpp   ****         idle->status.setIdle();
 811              		.loc 1 77 9 is_stmt 1
 812              	.LVL65:
 813              	.LBB154:
 814              	.LBB155:
 100:src/../h/tcb.hpp ****              RUNNING = false;
 815              		.loc 2 100 14
 100:src/../h/tcb.hpp ****              RUNNING = false;
 816              		.loc 2 100 22 is_stmt 0
 817 0474 23040502 		sb	zero,40(a0)
 101:src/../h/tcb.hpp ****              READY= false;
 818              		.loc 2 101 14 is_stmt 1
 101:src/../h/tcb.hpp ****              READY= false;
 819              		.loc 2 101 22 is_stmt 0
 820 0478 A3040502 		sb	zero,41(a0)
 102:src/../h/tcb.hpp ****              CREATED= false;
 821              		.loc 2 102 14 is_stmt 1
GAS LISTING /tmp/ccSvzbZj.s 			page 23


 102:src/../h/tcb.hpp ****              CREATED= false;
 822              		.loc 2 102 19 is_stmt 0
 823 047c 23050502 		sb	zero,42(a0)
 103:src/../h/tcb.hpp ****              WAITING= false;
 824              		.loc 2 103 14 is_stmt 1
 103:src/../h/tcb.hpp ****              WAITING= false;
 825              		.loc 2 103 21 is_stmt 0
 826 0480 A3050502 		sb	zero,43(a0)
 104:src/../h/tcb.hpp ****              SLEEPING= false;
 827              		.loc 2 104 14 is_stmt 1
 104:src/../h/tcb.hpp ****              SLEEPING= false;
 828              		.loc 2 104 21 is_stmt 0
 829 0484 23060502 		sb	zero,44(a0)
 830              		.loc 2 105 14 is_stmt 1
 831              		.loc 2 105 22 is_stmt 0
 832 0488 A3060502 		sb	zero,45(a0)
 833              	.LVL66:
 834              	.LBE155:
 835              	.LBE154:
  78:src/tcb.cpp   ****         idle->status.setSystematic();
 836              		.loc 1 78 9 is_stmt 1
 837              	.LBB156:
 838              	.LBB157:
  88:src/../h/tcb.hpp ****         void delIdle(){IDLE= false;}
 839              		.loc 2 88 24
  88:src/../h/tcb.hpp ****         void delIdle(){IDLE= false;}
 840              		.loc 2 88 28 is_stmt 0
 841 048c 93071000 		li	a5,1
 842 0490 2307F502 		sb	a5,46(a0)
 843              	.LVL67:
 844              	.LBE157:
 845              	.LBE156:
  79:src/tcb.cpp   ****     }
 846              		.loc 1 79 9 is_stmt 1
 847              	.LBB158:
 848              	.LBB159:
  97:src/../h/tcb.hpp ****         bool getSystematic(){return  SYSTEMATIC;}
 849              		.loc 2 97 31
  97:src/../h/tcb.hpp ****         bool getSystematic(){return  SYSTEMATIC;}
 850              		.loc 2 97 41 is_stmt 0
 851 0494 A307F502 		sb	a5,47(a0)
 852              	.LVL68:
 853              	.LBE159:
 854              	.LBE158:
  81:src/tcb.cpp   **** }
 855              		.loc 1 81 5 is_stmt 1
  82:src/tcb.cpp   **** 
 856              		.loc 1 82 1 is_stmt 0
 857 0498 17050000 		ld	a0,.LANCHOR0+24
 857      03350500 
 858 04a0 83308100 		ld	ra,8(sp)
 859              		.cfi_restore 1
 860 04a4 03340100 		ld	s0,0(sp)
 861              		.cfi_restore 8
 862              		.cfi_def_cfa 2, 16
 863 04a8 13010101 		addi	sp,sp,16
 864              		.cfi_def_cfa_offset 0
GAS LISTING /tmp/ccSvzbZj.s 			page 24


 865 04ac 67800000 		jr	ra
 866              		.cfi_endproc
 867              	.LFE110:
 869              		.align	2
 870              		.globl	_ZN3TCB4exitEv
 872              	_ZN3TCB4exitEv:
 873              	.LFB112:
  93:src/tcb.cpp   ****     if(!running->status.getRunning())return -1;
 874              		.loc 1 93 17 is_stmt 1
 875              		.cfi_startproc
  94:src/tcb.cpp   ****     running->status.delAll();
 876              		.loc 1 94 5
  94:src/tcb.cpp   ****     running->status.delAll();
 877              		.loc 1 94 18 is_stmt 0
 878 04b0 97070000 		ld	a5,.LANCHOR0
 878      83B70700 
 879              	.LVL69:
 880              	.LBB160:
 881              	.LBB161:
  91:src/../h/tcb.hpp ****         bool getReady(){return  READY;}
 882              		.loc 2 91 28 is_stmt 1
  91:src/../h/tcb.hpp ****         bool getReady(){return  READY;}
 883              		.loc 2 91 35 is_stmt 0
 884 04b8 03C79702 		lbu	a4,41(a5)
 885              	.LVL70:
 886              	.LBE161:
 887              	.LBE160:
  94:src/tcb.cpp   ****     running->status.delAll();
 888              		.loc 1 94 5
 889 04bc 63060704 		beqz	a4,.L45
  93:src/tcb.cpp   ****     if(!running->status.getRunning())return -1;
 890              		.loc 1 93 17
 891 04c0 130101FF 		addi	sp,sp,-16
 892              		.cfi_def_cfa_offset 16
 893 04c4 23341100 		sd	ra,8(sp)
 894 04c8 23308100 		sd	s0,0(sp)
 895              		.cfi_offset 1, -8
 896              		.cfi_offset 8, -16
 897 04cc 13040101 		addi	s0,sp,16
 898              		.cfi_def_cfa 8, 0
  95:src/tcb.cpp   ****     running->status.setFinished();
 899              		.loc 1 95 5 is_stmt 1
 900              	.LVL71:
 901              	.LBB162:
 902              	.LBB163:
 100:src/../h/tcb.hpp ****              RUNNING = false;
 903              		.loc 2 100 14
 101:src/../h/tcb.hpp ****              READY= false;
 904              		.loc 2 101 14
 101:src/../h/tcb.hpp ****              READY= false;
 905              		.loc 2 101 22 is_stmt 0
 906 04d0 A3840702 		sb	zero,41(a5)
 102:src/../h/tcb.hpp ****              CREATED= false;
 907              		.loc 2 102 14 is_stmt 1
 102:src/../h/tcb.hpp ****              CREATED= false;
 908              		.loc 2 102 19 is_stmt 0
 909 04d4 23850702 		sb	zero,42(a5)
GAS LISTING /tmp/ccSvzbZj.s 			page 25


 103:src/../h/tcb.hpp ****              WAITING= false;
 910              		.loc 2 103 14 is_stmt 1
 103:src/../h/tcb.hpp ****              WAITING= false;
 911              		.loc 2 103 21 is_stmt 0
 912 04d8 A3850702 		sb	zero,43(a5)
 104:src/../h/tcb.hpp ****              SLEEPING= false;
 913              		.loc 2 104 14 is_stmt 1
 104:src/../h/tcb.hpp ****              SLEEPING= false;
 914              		.loc 2 104 21 is_stmt 0
 915 04dc 23860702 		sb	zero,44(a5)
 916              		.loc 2 105 14 is_stmt 1
 917              		.loc 2 105 22 is_stmt 0
 918 04e0 A3860702 		sb	zero,45(a5)
 919              	.LVL72:
 920              	.LBE163:
 921              	.LBE162:
  96:src/tcb.cpp   ****     dispatch();
 922              		.loc 1 96 5 is_stmt 1
 923              	.LBB164:
 924              	.LBB165:
  76:src/../h/tcb.hpp ****         void delFinished(){FINISHED= false;}
 925              		.loc 2 76 28
  76:src/../h/tcb.hpp ****         void delFinished(){FINISHED= false;}
 926              		.loc 2 76 36 is_stmt 0
 927 04e4 13071000 		li	a4,1
 928 04e8 2384E702 		sb	a4,40(a5)
 929              	.LVL73:
 930              	.LBE165:
 931              	.LBE164:
  97:src/tcb.cpp   ****     return 0;
 932              		.loc 1 97 5 is_stmt 1
  97:src/tcb.cpp   ****     return 0;
 933              		.loc 1 97 13 is_stmt 0
 934 04ec 97000000 		call	_ZN3TCB8dispatchEv
 934      E7800000 
 935              	.LVL74:
  98:src/tcb.cpp   **** }
 936              		.loc 1 98 5 is_stmt 1
  98:src/tcb.cpp   **** }
 937              		.loc 1 98 12 is_stmt 0
 938 04f4 13050000 		li	a0,0
  99:src/tcb.cpp   **** 
 939              		.loc 1 99 1
 940 04f8 83308100 		ld	ra,8(sp)
 941              		.cfi_restore 1
 942 04fc 03340100 		ld	s0,0(sp)
 943              		.cfi_restore 8
 944              		.cfi_def_cfa 2, 16
 945 0500 13010101 		addi	sp,sp,16
 946              		.cfi_def_cfa_offset 0
 947 0504 67800000 		jr	ra
 948              	.L45:
  94:src/tcb.cpp   ****     running->status.delAll();
 949              		.loc 1 94 46
 950 0508 1305F0FF 		li	a0,-1
  99:src/tcb.cpp   **** 
 951              		.loc 1 99 1
GAS LISTING /tmp/ccSvzbZj.s 			page 26


 952 050c 67800000 		ret
 953              		.cfi_endproc
 954              	.LFE112:
 956              		.align	2
 957              		.globl	_ZN3TCB4waitEv
 959              	_ZN3TCB4waitEv:
 960              	.LFB113:
 101:src/tcb.cpp   ****     if(!running->status.getRunning())return -1;
 961              		.loc 1 101 17 is_stmt 1
 962              		.cfi_startproc
 102:src/tcb.cpp   ****     running->status.delAll();
 963              		.loc 1 102 5
 102:src/tcb.cpp   ****     running->status.delAll();
 964              		.loc 1 102 18 is_stmt 0
 965 0510 97070000 		ld	a5,.LANCHOR0
 965      83B70700 
 966              	.LVL75:
 967              	.LBB166:
 968              	.LBB167:
  91:src/../h/tcb.hpp ****         bool getReady(){return  READY;}
 969              		.loc 2 91 28 is_stmt 1
  91:src/../h/tcb.hpp ****         bool getReady(){return  READY;}
 970              		.loc 2 91 35 is_stmt 0
 971 0518 03C79702 		lbu	a4,41(a5)
 972              	.LVL76:
 973              	.LBE167:
 974              	.LBE166:
 102:src/tcb.cpp   ****     running->status.delAll();
 975              		.loc 1 102 5
 976 051c 63060704 		beqz	a4,.L52
 101:src/tcb.cpp   ****     if(!running->status.getRunning())return -1;
 977              		.loc 1 101 17
 978 0520 130101FF 		addi	sp,sp,-16
 979              		.cfi_def_cfa_offset 16
 980 0524 23341100 		sd	ra,8(sp)
 981 0528 23308100 		sd	s0,0(sp)
 982              		.cfi_offset 1, -8
 983              		.cfi_offset 8, -16
 984 052c 13040101 		addi	s0,sp,16
 985              		.cfi_def_cfa 8, 0
 103:src/tcb.cpp   ****     running->status.setWaiting();
 986              		.loc 1 103 5 is_stmt 1
 987              	.LVL77:
 988              	.LBB168:
 989              	.LBB169:
 100:src/../h/tcb.hpp ****              RUNNING = false;
 990              		.loc 2 100 14
 100:src/../h/tcb.hpp ****              RUNNING = false;
 991              		.loc 2 100 22 is_stmt 0
 992 0530 23840702 		sb	zero,40(a5)
 101:src/../h/tcb.hpp ****              READY= false;
 993              		.loc 2 101 14 is_stmt 1
 101:src/../h/tcb.hpp ****              READY= false;
 994              		.loc 2 101 22 is_stmt 0
 995 0534 A3840702 		sb	zero,41(a5)
 102:src/../h/tcb.hpp ****              CREATED= false;
 996              		.loc 2 102 14 is_stmt 1
GAS LISTING /tmp/ccSvzbZj.s 			page 27


 102:src/../h/tcb.hpp ****              CREATED= false;
 997              		.loc 2 102 19 is_stmt 0
 998 0538 23850702 		sb	zero,42(a5)
 103:src/../h/tcb.hpp ****              WAITING= false;
 999              		.loc 2 103 14 is_stmt 1
 103:src/../h/tcb.hpp ****              WAITING= false;
 1000              		.loc 2 103 21 is_stmt 0
 1001 053c A3850702 		sb	zero,43(a5)
 104:src/../h/tcb.hpp ****              SLEEPING= false;
 1002              		.loc 2 104 14 is_stmt 1
 1003              		.loc 2 105 14
 1004              		.loc 2 105 22 is_stmt 0
 1005 0540 A3860702 		sb	zero,45(a5)
 1006              	.LVL78:
 1007              	.LBE169:
 1008              	.LBE168:
 104:src/tcb.cpp   ****     dispatch();
 1009              		.loc 1 104 5 is_stmt 1
 1010              	.LBB170:
 1011              	.LBB171:
  84:src/../h/tcb.hpp ****         void delWaiting(){WAITING= false;}
 1012              		.loc 2 84 27
  84:src/../h/tcb.hpp ****         void delWaiting(){WAITING= false;}
 1013              		.loc 2 84 34 is_stmt 0
 1014 0544 13071000 		li	a4,1
 1015 0548 2386E702 		sb	a4,44(a5)
 1016              	.LVL79:
 1017              	.LBE171:
 1018              	.LBE170:
 105:src/tcb.cpp   ****     return 0;
 1019              		.loc 1 105 5 is_stmt 1
 105:src/tcb.cpp   ****     return 0;
 1020              		.loc 1 105 13 is_stmt 0
 1021 054c 97000000 		call	_ZN3TCB8dispatchEv
 1021      E7800000 
 1022              	.LVL80:
 106:src/tcb.cpp   **** }
 1023              		.loc 1 106 5 is_stmt 1
 106:src/tcb.cpp   **** }
 1024              		.loc 1 106 12 is_stmt 0
 1025 0554 13050000 		li	a0,0
 107:src/tcb.cpp   **** int TCB::releaseWaiting() {
 1026              		.loc 1 107 1
 1027 0558 83308100 		ld	ra,8(sp)
 1028              		.cfi_restore 1
 1029 055c 03340100 		ld	s0,0(sp)
 1030              		.cfi_restore 8
 1031              		.cfi_def_cfa 2, 16
 1032 0560 13010101 		addi	sp,sp,16
 1033              		.cfi_def_cfa_offset 0
 1034 0564 67800000 		jr	ra
 1035              	.L52:
 102:src/tcb.cpp   ****     running->status.delAll();
 1036              		.loc 1 102 46
 1037 0568 1305F0FF 		li	a0,-1
 107:src/tcb.cpp   **** int TCB::releaseWaiting() {
 1038              		.loc 1 107 1
GAS LISTING /tmp/ccSvzbZj.s 			page 28


 1039 056c 67800000 		ret
 1040              		.cfi_endproc
 1041              	.LFE113:
 1043              		.align	2
 1044              		.globl	_ZN3TCB14releaseWaitingEv
 1046              	_ZN3TCB14releaseWaitingEv:
 1047              	.LFB114:
 108:src/tcb.cpp   ****     if(!status.getWaiting())return -1;
 1048              		.loc 1 108 27 is_stmt 1
 1049              		.cfi_startproc
 1050              	.LVL81:
 109:src/tcb.cpp   ****     status.delAll();
 1051              		.loc 1 109 5
 1052              	.LBB172:
 1053              	.LBB173:
  94:src/../h/tcb.hpp ****         bool getSleeping(){return SLEEPING;}
 1054              		.loc 2 94 27
  94:src/../h/tcb.hpp ****         bool getSleeping(){return SLEEPING;}
 1055              		.loc 2 94 34 is_stmt 0
 1056 0570 8347C502 		lbu	a5,44(a0)
 1057              	.LVL82:
 1058              	.LBE173:
 1059              	.LBE172:
 109:src/tcb.cpp   ****     status.delAll();
 1060              		.loc 1 109 5
 1061 0574 63860704 		beqz	a5,.L59
 108:src/tcb.cpp   ****     if(!status.getWaiting())return -1;
 1062              		.loc 1 108 27
 1063 0578 130101FF 		addi	sp,sp,-16
 1064              		.cfi_def_cfa_offset 16
 1065 057c 23341100 		sd	ra,8(sp)
 1066 0580 23308100 		sd	s0,0(sp)
 1067              		.cfi_offset 1, -8
 1068              		.cfi_offset 8, -16
 1069 0584 13040101 		addi	s0,sp,16
 1070              		.cfi_def_cfa 8, 0
 110:src/tcb.cpp   ****     status.setReady();
 1071              		.loc 1 110 5 is_stmt 1
 1072              	.LVL83:
 1073              	.LBB174:
 1074              	.LBB175:
 100:src/../h/tcb.hpp ****              RUNNING = false;
 1075              		.loc 2 100 14
 100:src/../h/tcb.hpp ****              RUNNING = false;
 1076              		.loc 2 100 22 is_stmt 0
 1077 0588 23040502 		sb	zero,40(a0)
 101:src/../h/tcb.hpp ****              READY= false;
 1078              		.loc 2 101 14 is_stmt 1
 101:src/../h/tcb.hpp ****              READY= false;
 1079              		.loc 2 101 22 is_stmt 0
 1080 058c A3040502 		sb	zero,41(a0)
 102:src/../h/tcb.hpp ****              CREATED= false;
 1081              		.loc 2 102 14 is_stmt 1
 103:src/../h/tcb.hpp ****              WAITING= false;
 1082              		.loc 2 103 14
 103:src/../h/tcb.hpp ****              WAITING= false;
 1083              		.loc 2 103 21 is_stmt 0
GAS LISTING /tmp/ccSvzbZj.s 			page 29


 1084 0590 A3050502 		sb	zero,43(a0)
 104:src/../h/tcb.hpp ****              SLEEPING= false;
 1085              		.loc 2 104 14 is_stmt 1
 104:src/../h/tcb.hpp ****              SLEEPING= false;
 1086              		.loc 2 104 21 is_stmt 0
 1087 0594 23060502 		sb	zero,44(a0)
 1088              		.loc 2 105 14 is_stmt 1
 1089              		.loc 2 105 22 is_stmt 0
 1090 0598 A3060502 		sb	zero,45(a0)
 1091              	.LVL84:
 1092              	.LBE175:
 1093              	.LBE174:
 111:src/tcb.cpp   ****     Scheduler::put(this);
 1094              		.loc 1 111 5 is_stmt 1
 1095              	.LBB176:
 1096              	.LBB177:
  80:src/../h/tcb.hpp ****         void delReady(){READY= false;}
 1097              		.loc 2 80 25
  80:src/../h/tcb.hpp ****         void delReady(){READY= false;}
 1098              		.loc 2 80 30 is_stmt 0
 1099 059c 93071000 		li	a5,1
 1100 05a0 2305F502 		sb	a5,42(a0)
 1101              	.LVL85:
 1102              	.LBE177:
 1103              	.LBE176:
 112:src/tcb.cpp   ****     return 0;
 1104              		.loc 1 112 5 is_stmt 1
 112:src/tcb.cpp   ****     return 0;
 1105              		.loc 1 112 19 is_stmt 0
 1106 05a4 97000000 		call	_ZN9Scheduler3putEP3TCB@plt
 1106      E7800000 
 1107              	.LVL86:
 113:src/tcb.cpp   **** }
 1108              		.loc 1 113 5 is_stmt 1
 113:src/tcb.cpp   **** }
 1109              		.loc 1 113 12 is_stmt 0
 1110 05ac 13050000 		li	a0,0
 114:src/tcb.cpp   **** 
 1111              		.loc 1 114 1
 1112 05b0 83308100 		ld	ra,8(sp)
 1113              		.cfi_restore 1
 1114 05b4 03340100 		ld	s0,0(sp)
 1115              		.cfi_restore 8
 1116              		.cfi_def_cfa 2, 16
 1117 05b8 13010101 		addi	sp,sp,16
 1118              		.cfi_def_cfa_offset 0
 1119 05bc 67800000 		jr	ra
 1120              	.LVL87:
 1121              	.L59:
 109:src/tcb.cpp   ****     status.delAll();
 1122              		.loc 1 109 37
 1123 05c0 1305F0FF 		li	a0,-1
 1124              	.LVL88:
 114:src/tcb.cpp   **** 
 1125              		.loc 1 114 1
 1126 05c4 67800000 		ret
 1127              		.cfi_endproc
GAS LISTING /tmp/ccSvzbZj.s 			page 30


 1128              	.LFE114:
 1130              		.align	2
 1131              		.globl	_ZN3TCB5sleepEm
 1133              	_ZN3TCB5sleepEm:
 1134              	.LFB115:
 116:src/tcb.cpp   ****     if(!running->status.getRunning())return -1;
 1135              		.loc 1 116 27 is_stmt 1
 1136              		.cfi_startproc
 1137              	.LVL89:
 117:src/tcb.cpp   **** 
 1138              		.loc 1 117 5
 117:src/tcb.cpp   **** 
 1139              		.loc 1 117 18 is_stmt 0
 1140 05c8 97050000 		ld	a1,.LANCHOR0
 1140      83B50500 
 1141              	.LVL90:
 1142              	.LBB178:
 1143              	.LBB179:
  91:src/../h/tcb.hpp ****         bool getReady(){return  READY;}
 1144              		.loc 2 91 28 is_stmt 1
  91:src/../h/tcb.hpp ****         bool getReady(){return  READY;}
 1145              		.loc 2 91 35 is_stmt 0
 1146 05d0 83C79502 		lbu	a5,41(a1)
 1147              	.LVL91:
 1148              	.LBE179:
 1149              	.LBE178:
 117:src/tcb.cpp   **** 
 1150              		.loc 1 117 5
 1151 05d4 63820706 		beqz	a5,.L66
 116:src/tcb.cpp   ****     if(!running->status.getRunning())return -1;
 1152              		.loc 1 116 27
 1153 05d8 130101FF 		addi	sp,sp,-16
 1154              		.cfi_def_cfa_offset 16
 1155 05dc 23341100 		sd	ra,8(sp)
 1156 05e0 23308100 		sd	s0,0(sp)
 1157              		.cfi_offset 1, -8
 1158              		.cfi_offset 8, -16
 1159 05e4 13040101 		addi	s0,sp,16
 1160              		.cfi_def_cfa 8, 0
 1161 05e8 13060500 		mv	a2,a0
 119:src/tcb.cpp   ****         running->status.setSleeping();
 1162              		.loc 1 119 9 is_stmt 1
 1163              	.LVL92:
 1164              	.LBB180:
 1165              	.LBB181:
 100:src/../h/tcb.hpp ****              RUNNING = false;
 1166              		.loc 2 100 14
 100:src/../h/tcb.hpp ****              RUNNING = false;
 1167              		.loc 2 100 22 is_stmt 0
 1168 05ec 23840502 		sb	zero,40(a1)
 101:src/../h/tcb.hpp ****              READY= false;
 1169              		.loc 2 101 14 is_stmt 1
 101:src/../h/tcb.hpp ****              READY= false;
 1170              		.loc 2 101 22 is_stmt 0
 1171 05f0 A3840502 		sb	zero,41(a1)
 102:src/../h/tcb.hpp ****              CREATED= false;
 1172              		.loc 2 102 14 is_stmt 1
GAS LISTING /tmp/ccSvzbZj.s 			page 31


 102:src/../h/tcb.hpp ****              CREATED= false;
 1173              		.loc 2 102 19 is_stmt 0
 1174 05f4 23850502 		sb	zero,42(a1)
 103:src/../h/tcb.hpp ****              WAITING= false;
 1175              		.loc 2 103 14 is_stmt 1
 103:src/../h/tcb.hpp ****              WAITING= false;
 1176              		.loc 2 103 21 is_stmt 0
 1177 05f8 A3850502 		sb	zero,43(a1)
 104:src/../h/tcb.hpp ****              SLEEPING= false;
 1178              		.loc 2 104 14 is_stmt 1
 104:src/../h/tcb.hpp ****              SLEEPING= false;
 1179              		.loc 2 104 21 is_stmt 0
 1180 05fc 23860502 		sb	zero,44(a1)
 1181              		.loc 2 105 14 is_stmt 1
 1182              	.LVL93:
 1183              	.LBE181:
 1184              	.LBE180:
 120:src/tcb.cpp   ****         Riscv::timelist->add(running, tm);
 1185              		.loc 1 120 9
 1186              	.LBB182:
 1187              	.LBB183:
  86:src/../h/tcb.hpp ****         void delSleeping(){SLEEPING= false;}
 1188              		.loc 2 86 28
  86:src/../h/tcb.hpp ****         void delSleeping(){SLEEPING= false;}
 1189              		.loc 2 86 36 is_stmt 0
 1190 0600 93071000 		li	a5,1
 1191 0604 A386F502 		sb	a5,45(a1)
 1192              	.LVL94:
 1193              	.LBE183:
 1194              	.LBE182:
 121:src/tcb.cpp   ****         dispatch();
 1195              		.loc 1 121 9 is_stmt 1
 121:src/tcb.cpp   ****         dispatch();
 1196              		.loc 1 121 29 is_stmt 0
 1197 0608 97070000 		la	a5,_ZN5Riscv8timelistE
 1197      83B70700 
 1198 0610 03B50700 		ld	a0,0(a5)
 1199              	.LVL95:
 1200 0614 97000000 		call	_ZN8TimeList3addEP3TCBm@plt
 1200      E7800000 
 1201              	.LVL96:
 122:src/tcb.cpp   ****         return 0;
 1202              		.loc 1 122 9 is_stmt 1
 122:src/tcb.cpp   ****         return 0;
 1203              		.loc 1 122 17 is_stmt 0
 1204 061c 97000000 		call	_ZN3TCB8dispatchEv
 1204      E7800000 
 1205              	.LVL97:
 123:src/tcb.cpp   **** 
 1206              		.loc 1 123 9 is_stmt 1
 123:src/tcb.cpp   **** 
 1207              		.loc 1 123 16 is_stmt 0
 1208 0624 13050000 		li	a0,0
 125:src/tcb.cpp   **** TCB * TCB::getOutputTh() {
 1209              		.loc 1 125 1
 1210 0628 83308100 		ld	ra,8(sp)
 1211              		.cfi_restore 1
GAS LISTING /tmp/ccSvzbZj.s 			page 32


 1212 062c 03340100 		ld	s0,0(sp)
 1213              		.cfi_restore 8
 1214              		.cfi_def_cfa 2, 16
 1215 0630 13010101 		addi	sp,sp,16
 1216              		.cfi_def_cfa_offset 0
 1217 0634 67800000 		jr	ra
 1218              	.LVL98:
 1219              	.L66:
 117:src/tcb.cpp   **** 
 1220              		.loc 1 117 46
 1221 0638 1305F0FF 		li	a0,-1
 1222              	.LVL99:
 125:src/tcb.cpp   **** TCB * TCB::getOutputTh() {
 1223              		.loc 1 125 1
 1224 063c 67800000 		ret
 1225              		.cfi_endproc
 1226              	.LFE115:
 1228              		.align	2
 1229              		.globl	_ZN3TCB11getOutputThEv
 1231              	_ZN3TCB11getOutputThEv:
 1232              	.LFB116:
 126:src/tcb.cpp   ****     if(outputTh)return outputTh;
 1233              		.loc 1 126 26 is_stmt 1
 1234              		.cfi_startproc
 127:src/tcb.cpp   ****     outputTh= initThreadWithRun(outputThWrapper, nullptr, (uint64*)__mem_alloc(sizeof(uint64) * DEF
 1235              		.loc 1 127 5
 127:src/tcb.cpp   ****     outputTh= initThreadWithRun(outputThWrapper, nullptr, (uint64*)__mem_alloc(sizeof(uint64) * DEF
 1236              		.loc 1 127 16 is_stmt 0
 1237 0640 17050000 		ld	a0,.LANCHOR0+32
 1237      03350500 
 127:src/tcb.cpp   ****     outputTh= initThreadWithRun(outputThWrapper, nullptr, (uint64*)__mem_alloc(sizeof(uint64) * DEF
 1238              		.loc 1 127 5
 1239 0648 63040500 		beqz	a0,.L77
 132:src/tcb.cpp   **** void TCB::outputThWrapper(void *) {
 1240              		.loc 1 132 1
 1241 064c 67800000 		ret
 1242              	.L77:
 126:src/tcb.cpp   ****     if(outputTh)return outputTh;
 1243              		.loc 1 126 26
 1244 0650 130101FF 		addi	sp,sp,-16
 1245              		.cfi_def_cfa_offset 16
 1246 0654 23341100 		sd	ra,8(sp)
 1247 0658 23308100 		sd	s0,0(sp)
 1248              		.cfi_offset 1, -8
 1249              		.cfi_offset 8, -16
 1250 065c 13040101 		addi	s0,sp,16
 1251              		.cfi_def_cfa 8, 0
 128:src/tcb.cpp   ****     outputTh->status.setSystematic();
 1252              		.loc 1 128 5 is_stmt 1
 128:src/tcb.cpp   ****     outputTh->status.setSystematic();
 1253              		.loc 1 128 79 is_stmt 0
 1254 0660 37850000 		li	a0,32768
 1255 0664 97000000 		call	__mem_alloc@plt
 1255      E7800000 
 1256              	.LVL100:
 1257 066c 13060500 		mv	a2,a0
 128:src/tcb.cpp   ****     outputTh->status.setSystematic();
GAS LISTING /tmp/ccSvzbZj.s 			page 33


 1258              		.loc 1 128 32
 1259 0670 93050000 		li	a1,0
 1260 0674 17050000 		lla	a0,_ZN3TCB15outputThWrapperEPv
 1260      13050500 
 1261 067c 97000000 		call	_ZN3TCB17initThreadWithRunEPFvPvES0_Pm
 1261      E7800000 
 1262              	.LVL101:
 128:src/tcb.cpp   ****     outputTh->status.setSystematic();
 1263              		.loc 1 128 13
 1264 0684 97070000 		sd	a0,.LANCHOR0+32,a5
 1264      23B0A700 
 129:src/tcb.cpp   **** 
 1265              		.loc 1 129 5 is_stmt 1
 1266              	.LVL102:
 1267              	.LBB184:
 1268              	.LBB185:
  97:src/../h/tcb.hpp ****         bool getSystematic(){return  SYSTEMATIC;}
 1269              		.loc 2 97 31
  97:src/../h/tcb.hpp ****         bool getSystematic(){return  SYSTEMATIC;}
 1270              		.loc 2 97 41 is_stmt 0
 1271 068c 93071000 		li	a5,1
 1272 0690 A307F502 		sb	a5,47(a0)
 1273              	.LVL103:
 1274              	.LBE185:
 1275              	.LBE184:
 131:src/tcb.cpp   **** }
 1276              		.loc 1 131 5 is_stmt 1
 132:src/tcb.cpp   **** void TCB::outputThWrapper(void *) {
 1277              		.loc 1 132 1 is_stmt 0
 1278 0694 83308100 		ld	ra,8(sp)
 1279              		.cfi_restore 1
 1280 0698 03340100 		ld	s0,0(sp)
 1281              		.cfi_restore 8
 1282              		.cfi_def_cfa 2, 16
 1283 069c 13010101 		addi	sp,sp,16
 1284              		.cfi_def_cfa_offset 0
 1285 06a0 67800000 		jr	ra
 1286              		.cfi_endproc
 1287              	.LFE116:
 1289              		.globl	_ZN3TCB3idSE
 1290              		.globl	_ZN3TCB8outputThE
 1291              		.globl	_ZN3TCB6kernelE
 1292              		.globl	_ZN3TCB4idleE
 1293              		.globl	_ZN3TCB7runningE
 1294              		.globl	_ZN3TCB16timeSliceCounterE
 1295              		.bss
 1296              		.align	3
 1297              		.set	.LANCHOR0,. + 0
 1300              	_ZN3TCB7runningE:
 1301 0000 00000000 		.zero	8
 1301      00000000 
 1304              	_ZN3TCB3idSE:
 1305 0008 00000000 		.zero	4
 1306 000c 00000000 		.zero	4
 1309              	_ZN3TCB6kernelE:
 1310 0010 00000000 		.zero	8
 1310      00000000 
GAS LISTING /tmp/ccSvzbZj.s 			page 34


 1313              	_ZN3TCB4idleE:
 1314 0018 00000000 		.zero	8
 1314      00000000 
 1317              	_ZN3TCB8outputThE:
 1318 0020 00000000 		.zero	8
 1318      00000000 
 1321              	_ZN3TCB16timeSliceCounterE:
 1322 0028 00000000 		.zero	8
 1322      00000000 
 1323              		.text
 1324              	.Letext0:
 1325              		.file 3 "src/../h/../lib/hw.h"
 1326              		.file 4 "src/../h/scheduler.hpp"
 1327              		.file 5 "src/../h/list.hpp"
 1328              		.file 6 "src/../h/syscall_c.hpp"
 1329              		.file 7 "src/../h/_sem.hpp"
 1330              		.file 8 "src/../h/MyWaitList.hpp"
 1331              		.file 9 "src/../h/Buffer.hpp"
 1332              		.file 10 "src/../h/TimeList.hpp"
 1333              		.file 11 "src/../h/riscv.hpp"
 1334              		.file 12 "src/../h/globals.hpp"
 1335              		.file 13 "src/../h/../lib/mem.h"
GAS LISTING /tmp/ccSvzbZj.s 			page 35


DEFINED SYMBOLS
                            *ABS*:0000000000000000 tcb.cpp
     /tmp/ccSvzbZj.s:9      .text:0000000000000000 _ZN3TCB13threadWrapperEv
     /tmp/ccSvzbZj.s:13     .text:0000000000000000 .L0 
     /tmp/ccSvzbZj.s:14     .text:0000000000000000 .L0 
     /tmp/ccSvzbZj.s:15     .text:0000000000000004 .L0 
     /tmp/ccSvzbZj.s:18     .text:000000000000000c .L0 
     /tmp/ccSvzbZj.s:19     .text:000000000000000c .L0 
     /tmp/ccSvzbZj.s:21     .text:0000000000000010 .L0 
     /tmp/ccSvzbZj.s:23     .text:0000000000000010 .L0 
     /tmp/ccSvzbZj.s:24     .text:0000000000000010 .L0 
     /tmp/ccSvzbZj.s:27     .text:0000000000000018 .L0 
     /tmp/ccSvzbZj.s:28     .text:0000000000000018 .L0 
     /tmp/ccSvzbZj.s:31     .text:0000000000000024 .L0 
     /tmp/ccSvzbZj.s:35     .text:000000000000002c .L0 
     /tmp/ccSvzbZj.s:36     .text:000000000000002c .L0 
     /tmp/ccSvzbZj.s:39     .text:0000000000000034 .L0 
     /tmp/ccSvzbZj.s:40     .text:0000000000000038 .L0 
     /tmp/ccSvzbZj.s:42     .text:000000000000003c .L0 
     /tmp/ccSvzbZj.s:43     .text:000000000000003c .L0 
     /tmp/ccSvzbZj.s:45     .text:0000000000000040 .L0 
     /tmp/ccSvzbZj.s:47     .text:0000000000000044 .L0 
     /tmp/ccSvzbZj.s:53     .text:0000000000000044 _ZN3TCB11idleWrapperEPv
     /tmp/ccSvzbZj.s:56     .text:0000000000000044 .L0 
     /tmp/ccSvzbZj.s:57     .text:0000000000000044 .L0 
     /tmp/ccSvzbZj.s:58     .text:0000000000000048 .L0 
     /tmp/ccSvzbZj.s:61     .text:0000000000000050 .L0 
     /tmp/ccSvzbZj.s:62     .text:0000000000000050 .L0 
     /tmp/ccSvzbZj.s:64     .text:0000000000000054 .L0 
     /tmp/ccSvzbZj.s:67     .text:0000000000000054 .L0 
     /tmp/ccSvzbZj.s:68     .text:0000000000000054 .L0 
     /tmp/ccSvzbZj.s:69     .text:0000000000000054 .L0 
     /tmp/ccSvzbZj.s:72     .text:000000000000005c .L0 
     /tmp/ccSvzbZj.s:73     .text:0000000000000060 .L0 
     /tmp/ccSvzbZj.s:79     .text:0000000000000060 _ZN3TCB15outputThWrapperEPv
     /tmp/ccSvzbZj.s:82     .text:0000000000000060 .L0 
     /tmp/ccSvzbZj.s:84     .text:0000000000000060 .L0 
     /tmp/ccSvzbZj.s:86     .text:0000000000000060 .L0 
     /tmp/ccSvzbZj.s:87     .text:0000000000000060 .L0 
     /tmp/ccSvzbZj.s:88     .text:0000000000000060 .L0 
     /tmp/ccSvzbZj.s:89     .text:0000000000000060 .L0 
     /tmp/ccSvzbZj.s:93     .text:0000000000000070 .L0 
     /tmp/ccSvzbZj.s:97     .text:0000000000000078 .L0 
     /tmp/ccSvzbZj.s:98     .text:000000000000007c .L0 
     /tmp/ccSvzbZj.s:101    .text:0000000000000084 .L0 
     /tmp/ccSvzbZj.s:102    .text:0000000000000084 .L0 
     /tmp/ccSvzbZj.s:104    .text:0000000000000088 .L0 
     /tmp/ccSvzbZj.s:109    .text:0000000000000088 .L0 
     /tmp/ccSvzbZj.s:110    .text:0000000000000088 .L0 
     /tmp/ccSvzbZj.s:115    .text:000000000000009c .L0 
     /tmp/ccSvzbZj.s:118    .text:00000000000000a8 .L0 
     /tmp/ccSvzbZj.s:124    .text:00000000000000ac .L0 
     /tmp/ccSvzbZj.s:125    .text:00000000000000ac .L0 
     /tmp/ccSvzbZj.s:126    .text:00000000000000ac .L0 
     /tmp/ccSvzbZj.s:127    .text:00000000000000ac .L0 
     /tmp/ccSvzbZj.s:131    .text:00000000000000bc .L0 
     /tmp/ccSvzbZj.s:135    .text:00000000000000c8 .L0 
GAS LISTING /tmp/ccSvzbZj.s 			page 36


     /tmp/ccSvzbZj.s:141    .text:00000000000000c8 _ZN3TCB17initThreadWithRunEPFvPvES0_Pm
     /tmp/ccSvzbZj.s:144    .text:00000000000000c8 .L0 
     /tmp/ccSvzbZj.s:146    .text:00000000000000c8 .L0 
     /tmp/ccSvzbZj.s:147    .text:00000000000000cc .L0 
     /tmp/ccSvzbZj.s:154    .text:00000000000000e4 .L0 
     /tmp/ccSvzbZj.s:155    .text:00000000000000e4 .L0 
     /tmp/ccSvzbZj.s:156    .text:00000000000000e4 .L0 
     /tmp/ccSvzbZj.s:157    .text:00000000000000e4 .L0 
     /tmp/ccSvzbZj.s:158    .text:00000000000000e4 .L0 
     /tmp/ccSvzbZj.s:159    .text:00000000000000e4 .L0 
     /tmp/ccSvzbZj.s:161    .text:00000000000000e8 .L0 
     /tmp/ccSvzbZj.s:170    .text:00000000000000f4 .L0 
     /tmp/ccSvzbZj.s:171    .text:00000000000000f4 .L0 
     /tmp/ccSvzbZj.s:172    .text:00000000000000f4 .L0 
     /tmp/ccSvzbZj.s:183    .text:0000000000000104 .L0 
     /tmp/ccSvzbZj.s:189    .text:000000000000010c .L0 
     /tmp/ccSvzbZj.s:199    .text:0000000000000124 .L0 
     /tmp/ccSvzbZj.s:203    .text:0000000000000130 .L0 
     /tmp/ccSvzbZj.s:204    .text:0000000000000130 .L0 
     /tmp/ccSvzbZj.s:209    .text:0000000000000144 .L0 
     /tmp/ccSvzbZj.s:214    .text:0000000000000148 .L0 
     /tmp/ccSvzbZj.s:217    .text:0000000000000148 .L0 
     /tmp/ccSvzbZj.s:218    .text:0000000000000148 .L0 
     /tmp/ccSvzbZj.s:219    .text:0000000000000148 .L0 
     /tmp/ccSvzbZj.s:223    .text:0000000000000150 .L0 
     /tmp/ccSvzbZj.s:232    .text:0000000000000160 .L0 
     /tmp/ccSvzbZj.s:233    .text:0000000000000160 .L0 
     /tmp/ccSvzbZj.s:234    .text:0000000000000160 .L0 
     /tmp/ccSvzbZj.s:235    .text:0000000000000160 .L0 
     /tmp/ccSvzbZj.s:236    .text:0000000000000160 .L0 
     /tmp/ccSvzbZj.s:237    .text:0000000000000160 .L0 
     /tmp/ccSvzbZj.s:239    .text:0000000000000164 .L0 
     /tmp/ccSvzbZj.s:243    .text:0000000000000164 .L0 
     /tmp/ccSvzbZj.s:246    .text:0000000000000164 .L0 
     /tmp/ccSvzbZj.s:247    .text:0000000000000164 .L0 
     /tmp/ccSvzbZj.s:248    .text:0000000000000164 .L0 
     /tmp/ccSvzbZj.s:254    .text:000000000000016c .L0 
     /tmp/ccSvzbZj.s:255    .text:000000000000016c .L0 
     /tmp/ccSvzbZj.s:258    .text:0000000000000174 .L0 
     /tmp/ccSvzbZj.s:259    .text:0000000000000174 .L0 
     /tmp/ccSvzbZj.s:261    .text:000000000000017c .L0 
     /tmp/ccSvzbZj.s:263    .text:0000000000000180 .L0 
     /tmp/ccSvzbZj.s:264    .text:0000000000000180 .L0 
     /tmp/ccSvzbZj.s:266    .text:0000000000000184 .L0 
     /tmp/ccSvzbZj.s:269    .text:0000000000000188 .L0 
     /tmp/ccSvzbZj.s:272    .text:000000000000018c .L0 
     /tmp/ccSvzbZj.s:275    .text:0000000000000190 .L0 
     /tmp/ccSvzbZj.s:278    .text:0000000000000194 .L0 
     /tmp/ccSvzbZj.s:280    .text:0000000000000198 .L0 
     /tmp/ccSvzbZj.s:286    .text:0000000000000198 _ZN3TCB5startEv
     /tmp/ccSvzbZj.s:289    .text:0000000000000198 .L0 
     /tmp/ccSvzbZj.s:291    .text:0000000000000198 .L0 
     /tmp/ccSvzbZj.s:294    .text:0000000000000198 .L0 
     /tmp/ccSvzbZj.s:295    .text:0000000000000198 .L0 
     /tmp/ccSvzbZj.s:296    .text:0000000000000198 .L0 
     /tmp/ccSvzbZj.s:301    .text:000000000000019c .L0 
     /tmp/ccSvzbZj.s:303    .text:00000000000001a0 .L0 
GAS LISTING /tmp/ccSvzbZj.s 			page 37


     /tmp/ccSvzbZj.s:304    .text:00000000000001a4 .L0 
     /tmp/ccSvzbZj.s:307    .text:00000000000001ac .L0 
     /tmp/ccSvzbZj.s:308    .text:00000000000001ac .L0 
     /tmp/ccSvzbZj.s:310    .text:00000000000001b0 .L0 
     /tmp/ccSvzbZj.s:315    .text:00000000000001b0 .L0 
     /tmp/ccSvzbZj.s:316    .text:00000000000001b0 .L0 
     /tmp/ccSvzbZj.s:317    .text:00000000000001b0 .L0 
     /tmp/ccSvzbZj.s:319    .text:00000000000001b4 .L0 
     /tmp/ccSvzbZj.s:320    .text:00000000000001b4 .L0 
     /tmp/ccSvzbZj.s:322    .text:00000000000001b8 .L0 
     /tmp/ccSvzbZj.s:323    .text:00000000000001b8 .L0 
     /tmp/ccSvzbZj.s:324    .text:00000000000001b8 .L0 
     /tmp/ccSvzbZj.s:326    .text:00000000000001bc .L0 
     /tmp/ccSvzbZj.s:327    .text:00000000000001bc .L0 
     /tmp/ccSvzbZj.s:329    .text:00000000000001c0 .L0 
     /tmp/ccSvzbZj.s:330    .text:00000000000001c0 .L0 
     /tmp/ccSvzbZj.s:337    .text:00000000000001c4 .L0 
     /tmp/ccSvzbZj.s:338    .text:00000000000001c4 .L0 
     /tmp/ccSvzbZj.s:339    .text:00000000000001c4 .L0 
     /tmp/ccSvzbZj.s:345    .text:00000000000001cc .L0 
     /tmp/ccSvzbZj.s:346    .text:00000000000001cc .L0 
     /tmp/ccSvzbZj.s:349    .text:00000000000001d4 .L0 
     /tmp/ccSvzbZj.s:350    .text:00000000000001d4 .L0 
     /tmp/ccSvzbZj.s:352    .text:00000000000001d8 .L0 
     /tmp/ccSvzbZj.s:353    .text:00000000000001dc .L0 
     /tmp/ccSvzbZj.s:355    .text:00000000000001e0 .L0 
     /tmp/ccSvzbZj.s:356    .text:00000000000001e0 .L0 
     /tmp/ccSvzbZj.s:358    .text:00000000000001e4 .L0 
     /tmp/ccSvzbZj.s:363    .text:00000000000001e8 .L0 
     /tmp/ccSvzbZj.s:366    .text:00000000000001ec .L0 
     /tmp/ccSvzbZj.s:367    .text:00000000000001f0 .L0 
     /tmp/ccSvzbZj.s:373    .text:00000000000001f0 _ZN3TCB19initThreadWithNoRunEPFvPvES0_Pm
     /tmp/ccSvzbZj.s:376    .text:00000000000001f0 .L0 
     /tmp/ccSvzbZj.s:378    .text:00000000000001f0 .L0 
     /tmp/ccSvzbZj.s:379    .text:00000000000001f4 .L0 
     /tmp/ccSvzbZj.s:385    .text:0000000000000208 .L0 
     /tmp/ccSvzbZj.s:386    .text:0000000000000208 .L0 
     /tmp/ccSvzbZj.s:387    .text:0000000000000208 .L0 
     /tmp/ccSvzbZj.s:388    .text:0000000000000208 .L0 
     /tmp/ccSvzbZj.s:389    .text:0000000000000208 .L0 
     /tmp/ccSvzbZj.s:391    .text:000000000000020c .L0 
     /tmp/ccSvzbZj.s:399    .text:0000000000000218 .L0 
     /tmp/ccSvzbZj.s:400    .text:0000000000000218 .L0 
     /tmp/ccSvzbZj.s:401    .text:0000000000000218 .L0 
     /tmp/ccSvzbZj.s:410    .text:0000000000000224 .L0 
     /tmp/ccSvzbZj.s:416    .text:000000000000022c .L0 
     /tmp/ccSvzbZj.s:427    .text:0000000000000248 .L0 
     /tmp/ccSvzbZj.s:431    .text:0000000000000254 .L0 
     /tmp/ccSvzbZj.s:432    .text:0000000000000254 .L0 
     /tmp/ccSvzbZj.s:437    .text:0000000000000268 .L0 
     /tmp/ccSvzbZj.s:442    .text:000000000000026c .L0 
     /tmp/ccSvzbZj.s:443    .text:000000000000026c .L0 
     /tmp/ccSvzbZj.s:444    .text:000000000000026c .L0 
     /tmp/ccSvzbZj.s:450    .text:0000000000000274 .L0 
     /tmp/ccSvzbZj.s:451    .text:0000000000000274 .L0 
     /tmp/ccSvzbZj.s:455    .text:000000000000027c .L0 
     /tmp/ccSvzbZj.s:462    .text:000000000000028c .L0 
GAS LISTING /tmp/ccSvzbZj.s 			page 38


     /tmp/ccSvzbZj.s:463    .text:0000000000000290 .L0 
     /tmp/ccSvzbZj.s:465    .text:0000000000000294 .L0 
     /tmp/ccSvzbZj.s:466    .text:0000000000000294 .L0 
     /tmp/ccSvzbZj.s:468    .text:0000000000000298 .L0 
     /tmp/ccSvzbZj.s:470    .text:000000000000029c .L0 
     /tmp/ccSvzbZj.s:473    .text:00000000000002a0 .L0 
     /tmp/ccSvzbZj.s:476    .text:00000000000002a4 .L0 
     /tmp/ccSvzbZj.s:478    .text:00000000000002a8 .L0 
     /tmp/ccSvzbZj.s:484    .text:00000000000002a8 _ZN3TCB9getKernelEv
     /tmp/ccSvzbZj.s:487    .text:00000000000002a8 .L0 
     /tmp/ccSvzbZj.s:488    .text:00000000000002a8 .L0 
     /tmp/ccSvzbZj.s:489    .text:00000000000002a8 .L0 
     /tmp/ccSvzbZj.s:490    .text:00000000000002a8 .L0 
     /tmp/ccSvzbZj.s:492    .text:00000000000002b0 .L0 
     /tmp/ccSvzbZj.s:494    .text:00000000000002b4 .L0 
     /tmp/ccSvzbZj.s:497    .text:00000000000002b8 .L0 
     /tmp/ccSvzbZj.s:498    .text:00000000000002bc .L0 
     /tmp/ccSvzbZj.s:501    .text:00000000000002c4 .L0 
     /tmp/ccSvzbZj.s:502    .text:00000000000002c4 .L0 
     /tmp/ccSvzbZj.s:504    .text:00000000000002c8 .L0 
     /tmp/ccSvzbZj.s:509    .text:00000000000002c8 .L0 
     /tmp/ccSvzbZj.s:510    .text:00000000000002c8 .L0 
     /tmp/ccSvzbZj.s:511    .text:00000000000002c8 .L0 
     /tmp/ccSvzbZj.s:521    .text:00000000000002d4 .L0 
     /tmp/ccSvzbZj.s:531    .text:00000000000002ec .L0 
     /tmp/ccSvzbZj.s:532    .text:00000000000002ec .L0 
     /tmp/ccSvzbZj.s:534    .text:00000000000002f0 .L0 
     /tmp/ccSvzbZj.s:535    .text:00000000000002f0 .L0 
     /tmp/ccSvzbZj.s:537    .text:00000000000002f4 .L0 
     /tmp/ccSvzbZj.s:538    .text:00000000000002f4 .L0 
     /tmp/ccSvzbZj.s:540    .text:00000000000002f8 .L0 
     /tmp/ccSvzbZj.s:541    .text:00000000000002f8 .L0 
     /tmp/ccSvzbZj.s:546    .text:000000000000030c .L0 
     /tmp/ccSvzbZj.s:548    .text:0000000000000310 .L0 
     /tmp/ccSvzbZj.s:549    .text:0000000000000310 .L0 
     /tmp/ccSvzbZj.s:552    .text:0000000000000318 .L0 
     /tmp/ccSvzbZj.s:553    .text:0000000000000318 .L0 
     /tmp/ccSvzbZj.s:559    .text:0000000000000320 .L0 
     /tmp/ccSvzbZj.s:560    .text:0000000000000320 .L0 
     /tmp/ccSvzbZj.s:561    .text:0000000000000320 .L0 
     /tmp/ccSvzbZj.s:562    .text:0000000000000320 .L0 
     /tmp/ccSvzbZj.s:563    .text:0000000000000320 .L0 
     /tmp/ccSvzbZj.s:564    .text:0000000000000320 .L0 
     /tmp/ccSvzbZj.s:567    .text:0000000000000320 .L0 
     /tmp/ccSvzbZj.s:570    .text:0000000000000320 .L0 
     /tmp/ccSvzbZj.s:571    .text:0000000000000320 .L0 
     /tmp/ccSvzbZj.s:572    .text:0000000000000320 .L0 
     /tmp/ccSvzbZj.s:580    .text:0000000000000328 .L0 
     /tmp/ccSvzbZj.s:585    .text:000000000000032c .L0 
     /tmp/ccSvzbZj.s:586    .text:000000000000032c .L0 
     /tmp/ccSvzbZj.s:587    .text:000000000000032c .L0 
     /tmp/ccSvzbZj.s:592    .text:0000000000000330 .L0 
     /tmp/ccSvzbZj.s:593    .text:0000000000000330 .L0 
     /tmp/ccSvzbZj.s:595    .text:0000000000000334 .L0 
     /tmp/ccSvzbZj.s:596    .text:0000000000000334 .L0 
     /tmp/ccSvzbZj.s:597    .text:0000000000000338 .L0 
     /tmp/ccSvzbZj.s:599    .text:000000000000033c .L0 
GAS LISTING /tmp/ccSvzbZj.s 			page 39


     /tmp/ccSvzbZj.s:600    .text:000000000000033c .L0 
     /tmp/ccSvzbZj.s:602    .text:0000000000000340 .L0 
     /tmp/ccSvzbZj.s:604    .text:0000000000000344 .L0 
     /tmp/ccSvzbZj.s:610    .text:0000000000000344 _ZN3TCB8dispatchEv
     /tmp/ccSvzbZj.s:613    .text:0000000000000344 .L0 
     /tmp/ccSvzbZj.s:614    .text:0000000000000344 .L0 
     /tmp/ccSvzbZj.s:615    .text:0000000000000348 .L0 
     /tmp/ccSvzbZj.s:620    .text:0000000000000358 .L0 
     /tmp/ccSvzbZj.s:621    .text:0000000000000358 .L0 
     /tmp/ccSvzbZj.s:622    .text:0000000000000358 .L0 
     /tmp/ccSvzbZj.s:623    .text:0000000000000358 .L0 
     /tmp/ccSvzbZj.s:625    .text:000000000000035c .L0 
     /tmp/ccSvzbZj.s:627    .text:000000000000035c .L0 
     /tmp/ccSvzbZj.s:628    .text:000000000000035c .L0 
     /tmp/ccSvzbZj.s:633    .text:0000000000000364 .L0 
     /tmp/ccSvzbZj.s:634    .text:0000000000000364 .L0 
     /tmp/ccSvzbZj.s:635    .text:0000000000000364 .L0 
     /tmp/ccSvzbZj.s:640    .text:0000000000000368 .L0 
     /tmp/ccSvzbZj.s:643    .text:000000000000036c .L0 
     /tmp/ccSvzbZj.s:644    .text:000000000000036c .L0 
     /tmp/ccSvzbZj.s:647    .text:0000000000000374 .L0 
     /tmp/ccSvzbZj.s:649    .text:000000000000037c .L0 
     /tmp/ccSvzbZj.s:654    .text:0000000000000380 .L0 
     /tmp/ccSvzbZj.s:655    .text:0000000000000380 .L0 
     /tmp/ccSvzbZj.s:656    .text:0000000000000380 .L0 
     /tmp/ccSvzbZj.s:658    .text:0000000000000384 .L0 
     /tmp/ccSvzbZj.s:659    .text:0000000000000384 .L0 
     /tmp/ccSvzbZj.s:660    .text:0000000000000384 .L0 
     /tmp/ccSvzbZj.s:662    .text:0000000000000388 .L0 
     /tmp/ccSvzbZj.s:663    .text:0000000000000388 .L0 
     /tmp/ccSvzbZj.s:665    .text:000000000000038c .L0 
     /tmp/ccSvzbZj.s:666    .text:000000000000038c .L0 
     /tmp/ccSvzbZj.s:668    .text:0000000000000390 .L0 
     /tmp/ccSvzbZj.s:669    .text:0000000000000390 .L0 
     /tmp/ccSvzbZj.s:676    .text:0000000000000394 .L0 
     /tmp/ccSvzbZj.s:677    .text:0000000000000394 .L0 
     /tmp/ccSvzbZj.s:678    .text:0000000000000394 .L0 
     /tmp/ccSvzbZj.s:685    .text:000000000000039c .L0 
     /tmp/ccSvzbZj.s:686    .text:000000000000039c .L0 
     /tmp/ccSvzbZj.s:694    .text:00000000000003a8 .L0 
     /tmp/ccSvzbZj.s:695    .text:00000000000003a8 .L0 
     /tmp/ccSvzbZj.s:699    .text:00000000000003b4 .L0 
     /tmp/ccSvzbZj.s:700    .text:00000000000003b4 .L0 
     /tmp/ccSvzbZj.s:702    .text:00000000000003b8 .L0 
     /tmp/ccSvzbZj.s:707    .text:00000000000003c8 .L0 
     /tmp/ccSvzbZj.s:708    .text:00000000000003cc .L0 
     /tmp/ccSvzbZj.s:709    .text:00000000000003cc .L0 
     /tmp/ccSvzbZj.s:711    .text:00000000000003d0 .L0 
     /tmp/ccSvzbZj.s:712    .text:00000000000003d0 .L0 
     /tmp/ccSvzbZj.s:714    .text:00000000000003d4 .L0 
     /tmp/ccSvzbZj.s:717    .text:00000000000003d8 .L0 
     /tmp/ccSvzbZj.s:719    .text:00000000000003dc .L0 
     /tmp/ccSvzbZj.s:723    .text:00000000000003e0 .L0 
     /tmp/ccSvzbZj.s:727    .text:00000000000003e0 .L0 
     /tmp/ccSvzbZj.s:728    .text:00000000000003e0 .L0 
     /tmp/ccSvzbZj.s:729    .text:00000000000003e0 .L0 
     /tmp/ccSvzbZj.s:731    .text:00000000000003e4 .L0 
GAS LISTING /tmp/ccSvzbZj.s 			page 40


     /tmp/ccSvzbZj.s:732    .text:00000000000003e4 .L0 
     /tmp/ccSvzbZj.s:734    .text:00000000000003e8 .L0 
     /tmp/ccSvzbZj.s:735    .text:00000000000003e8 .L0 
     /tmp/ccSvzbZj.s:736    .text:00000000000003e8 .L0 
     /tmp/ccSvzbZj.s:738    .text:00000000000003ec .L0 
     /tmp/ccSvzbZj.s:739    .text:00000000000003ec .L0 
     /tmp/ccSvzbZj.s:741    .text:00000000000003f0 .L0 
     /tmp/ccSvzbZj.s:742    .text:00000000000003f0 .L0 
     /tmp/ccSvzbZj.s:749    .text:00000000000003f4 .L0 
     /tmp/ccSvzbZj.s:750    .text:00000000000003f4 .L0 
     /tmp/ccSvzbZj.s:751    .text:00000000000003f4 .L0 
     /tmp/ccSvzbZj.s:757    .text:00000000000003fc .L0 
     /tmp/ccSvzbZj.s:758    .text:00000000000003fc .L0 
     /tmp/ccSvzbZj.s:764    .text:000000000000040c .L0 
     /tmp/ccSvzbZj.s:765    .text:000000000000040c .L0 
     /tmp/ccSvzbZj.s:769    .text:0000000000000420 .L0 
     /tmp/ccSvzbZj.s:775    .text:0000000000000420 _ZN3TCB7getIdleEv
     /tmp/ccSvzbZj.s:778    .text:0000000000000420 .L0 
     /tmp/ccSvzbZj.s:779    .text:0000000000000420 .L0 
     /tmp/ccSvzbZj.s:780    .text:0000000000000420 .L0 
     /tmp/ccSvzbZj.s:781    .text:0000000000000420 .L0 
     /tmp/ccSvzbZj.s:783    .text:0000000000000428 .L0 
     /tmp/ccSvzbZj.s:785    .text:000000000000042c .L0 
     /tmp/ccSvzbZj.s:786    .text:000000000000042c .L0 
     /tmp/ccSvzbZj.s:790    .text:0000000000000438 .L0 
     /tmp/ccSvzbZj.s:791    .text:000000000000043c .L0 
     /tmp/ccSvzbZj.s:794    .text:0000000000000444 .L0 
     /tmp/ccSvzbZj.s:795    .text:0000000000000444 .L0 
     /tmp/ccSvzbZj.s:797    .text:0000000000000448 .L0 
     /tmp/ccSvzbZj.s:799    .text:0000000000000448 .L0 
     /tmp/ccSvzbZj.s:800    .text:0000000000000448 .L0 
     /tmp/ccSvzbZj.s:805    .text:0000000000000458 .L0 
     /tmp/ccSvzbZj.s:810    .text:000000000000046c .L0 
     /tmp/ccSvzbZj.s:815    .text:0000000000000474 .L0 
     /tmp/ccSvzbZj.s:816    .text:0000000000000474 .L0 
     /tmp/ccSvzbZj.s:817    .text:0000000000000474 .L0 
     /tmp/ccSvzbZj.s:819    .text:0000000000000478 .L0 
     /tmp/ccSvzbZj.s:820    .text:0000000000000478 .L0 
     /tmp/ccSvzbZj.s:822    .text:000000000000047c .L0 
     /tmp/ccSvzbZj.s:823    .text:000000000000047c .L0 
     /tmp/ccSvzbZj.s:825    .text:0000000000000480 .L0 
     /tmp/ccSvzbZj.s:826    .text:0000000000000480 .L0 
     /tmp/ccSvzbZj.s:828    .text:0000000000000484 .L0 
     /tmp/ccSvzbZj.s:829    .text:0000000000000484 .L0 
     /tmp/ccSvzbZj.s:831    .text:0000000000000488 .L0 
     /tmp/ccSvzbZj.s:832    .text:0000000000000488 .L0 
     /tmp/ccSvzbZj.s:839    .text:000000000000048c .L0 
     /tmp/ccSvzbZj.s:840    .text:000000000000048c .L0 
     /tmp/ccSvzbZj.s:841    .text:000000000000048c .L0 
     /tmp/ccSvzbZj.s:849    .text:0000000000000494 .L0 
     /tmp/ccSvzbZj.s:850    .text:0000000000000494 .L0 
     /tmp/ccSvzbZj.s:851    .text:0000000000000494 .L0 
     /tmp/ccSvzbZj.s:856    .text:0000000000000498 .L0 
     /tmp/ccSvzbZj.s:857    .text:0000000000000498 .L0 
     /tmp/ccSvzbZj.s:859    .text:00000000000004a4 .L0 
     /tmp/ccSvzbZj.s:861    .text:00000000000004a8 .L0 
     /tmp/ccSvzbZj.s:862    .text:00000000000004a8 .L0 
GAS LISTING /tmp/ccSvzbZj.s 			page 41


     /tmp/ccSvzbZj.s:864    .text:00000000000004ac .L0 
     /tmp/ccSvzbZj.s:866    .text:00000000000004b0 .L0 
     /tmp/ccSvzbZj.s:872    .text:00000000000004b0 _ZN3TCB4exitEv
     /tmp/ccSvzbZj.s:875    .text:00000000000004b0 .L0 
     /tmp/ccSvzbZj.s:876    .text:00000000000004b0 .L0 
     /tmp/ccSvzbZj.s:877    .text:00000000000004b0 .L0 
     /tmp/ccSvzbZj.s:878    .text:00000000000004b0 .L0 
     /tmp/ccSvzbZj.s:883    .text:00000000000004b8 .L0 
     /tmp/ccSvzbZj.s:884    .text:00000000000004b8 .L0 
     /tmp/ccSvzbZj.s:889    .text:00000000000004bc .L0 
     /tmp/ccSvzbZj.s:891    .text:00000000000004c0 .L0 
     /tmp/ccSvzbZj.s:892    .text:00000000000004c4 .L0 
     /tmp/ccSvzbZj.s:895    .text:00000000000004cc .L0 
     /tmp/ccSvzbZj.s:896    .text:00000000000004cc .L0 
     /tmp/ccSvzbZj.s:898    .text:00000000000004d0 .L0 
     /tmp/ccSvzbZj.s:903    .text:00000000000004d0 .L0 
     /tmp/ccSvzbZj.s:904    .text:00000000000004d0 .L0 
     /tmp/ccSvzbZj.s:905    .text:00000000000004d0 .L0 
     /tmp/ccSvzbZj.s:906    .text:00000000000004d0 .L0 
     /tmp/ccSvzbZj.s:908    .text:00000000000004d4 .L0 
     /tmp/ccSvzbZj.s:909    .text:00000000000004d4 .L0 
     /tmp/ccSvzbZj.s:911    .text:00000000000004d8 .L0 
     /tmp/ccSvzbZj.s:912    .text:00000000000004d8 .L0 
     /tmp/ccSvzbZj.s:914    .text:00000000000004dc .L0 
     /tmp/ccSvzbZj.s:915    .text:00000000000004dc .L0 
     /tmp/ccSvzbZj.s:917    .text:00000000000004e0 .L0 
     /tmp/ccSvzbZj.s:918    .text:00000000000004e0 .L0 
     /tmp/ccSvzbZj.s:925    .text:00000000000004e4 .L0 
     /tmp/ccSvzbZj.s:926    .text:00000000000004e4 .L0 
     /tmp/ccSvzbZj.s:927    .text:00000000000004e4 .L0 
     /tmp/ccSvzbZj.s:933    .text:00000000000004ec .L0 
     /tmp/ccSvzbZj.s:934    .text:00000000000004ec .L0 
     /tmp/ccSvzbZj.s:937    .text:00000000000004f4 .L0 
     /tmp/ccSvzbZj.s:938    .text:00000000000004f4 .L0 
     /tmp/ccSvzbZj.s:940    .text:00000000000004f8 .L0 
     /tmp/ccSvzbZj.s:941    .text:00000000000004fc .L0 
     /tmp/ccSvzbZj.s:943    .text:0000000000000500 .L0 
     /tmp/ccSvzbZj.s:944    .text:0000000000000500 .L0 
     /tmp/ccSvzbZj.s:946    .text:0000000000000504 .L0 
     /tmp/ccSvzbZj.s:950    .text:0000000000000508 .L0 
     /tmp/ccSvzbZj.s:952    .text:000000000000050c .L0 
     /tmp/ccSvzbZj.s:953    .text:0000000000000510 .L0 
     /tmp/ccSvzbZj.s:959    .text:0000000000000510 _ZN3TCB4waitEv
     /tmp/ccSvzbZj.s:962    .text:0000000000000510 .L0 
     /tmp/ccSvzbZj.s:963    .text:0000000000000510 .L0 
     /tmp/ccSvzbZj.s:964    .text:0000000000000510 .L0 
     /tmp/ccSvzbZj.s:965    .text:0000000000000510 .L0 
     /tmp/ccSvzbZj.s:970    .text:0000000000000518 .L0 
     /tmp/ccSvzbZj.s:971    .text:0000000000000518 .L0 
     /tmp/ccSvzbZj.s:976    .text:000000000000051c .L0 
     /tmp/ccSvzbZj.s:978    .text:0000000000000520 .L0 
     /tmp/ccSvzbZj.s:979    .text:0000000000000524 .L0 
     /tmp/ccSvzbZj.s:982    .text:000000000000052c .L0 
     /tmp/ccSvzbZj.s:983    .text:000000000000052c .L0 
     /tmp/ccSvzbZj.s:985    .text:0000000000000530 .L0 
     /tmp/ccSvzbZj.s:990    .text:0000000000000530 .L0 
     /tmp/ccSvzbZj.s:991    .text:0000000000000530 .L0 
GAS LISTING /tmp/ccSvzbZj.s 			page 42


     /tmp/ccSvzbZj.s:992    .text:0000000000000530 .L0 
     /tmp/ccSvzbZj.s:994    .text:0000000000000534 .L0 
     /tmp/ccSvzbZj.s:995    .text:0000000000000534 .L0 
     /tmp/ccSvzbZj.s:997    .text:0000000000000538 .L0 
     /tmp/ccSvzbZj.s:998    .text:0000000000000538 .L0 
     /tmp/ccSvzbZj.s:1000   .text:000000000000053c .L0 
     /tmp/ccSvzbZj.s:1001   .text:000000000000053c .L0 
     /tmp/ccSvzbZj.s:1003   .text:0000000000000540 .L0 
     /tmp/ccSvzbZj.s:1004   .text:0000000000000540 .L0 
     /tmp/ccSvzbZj.s:1005   .text:0000000000000540 .L0 
     /tmp/ccSvzbZj.s:1012   .text:0000000000000544 .L0 
     /tmp/ccSvzbZj.s:1013   .text:0000000000000544 .L0 
     /tmp/ccSvzbZj.s:1014   .text:0000000000000544 .L0 
     /tmp/ccSvzbZj.s:1020   .text:000000000000054c .L0 
     /tmp/ccSvzbZj.s:1021   .text:000000000000054c .L0 
     /tmp/ccSvzbZj.s:1024   .text:0000000000000554 .L0 
     /tmp/ccSvzbZj.s:1025   .text:0000000000000554 .L0 
     /tmp/ccSvzbZj.s:1027   .text:0000000000000558 .L0 
     /tmp/ccSvzbZj.s:1028   .text:000000000000055c .L0 
     /tmp/ccSvzbZj.s:1030   .text:0000000000000560 .L0 
     /tmp/ccSvzbZj.s:1031   .text:0000000000000560 .L0 
     /tmp/ccSvzbZj.s:1033   .text:0000000000000564 .L0 
     /tmp/ccSvzbZj.s:1037   .text:0000000000000568 .L0 
     /tmp/ccSvzbZj.s:1039   .text:000000000000056c .L0 
     /tmp/ccSvzbZj.s:1040   .text:0000000000000570 .L0 
     /tmp/ccSvzbZj.s:1046   .text:0000000000000570 _ZN3TCB14releaseWaitingEv
     /tmp/ccSvzbZj.s:1049   .text:0000000000000570 .L0 
     /tmp/ccSvzbZj.s:1051   .text:0000000000000570 .L0 
     /tmp/ccSvzbZj.s:1054   .text:0000000000000570 .L0 
     /tmp/ccSvzbZj.s:1055   .text:0000000000000570 .L0 
     /tmp/ccSvzbZj.s:1056   .text:0000000000000570 .L0 
     /tmp/ccSvzbZj.s:1061   .text:0000000000000574 .L0 
     /tmp/ccSvzbZj.s:1063   .text:0000000000000578 .L0 
     /tmp/ccSvzbZj.s:1064   .text:000000000000057c .L0 
     /tmp/ccSvzbZj.s:1067   .text:0000000000000584 .L0 
     /tmp/ccSvzbZj.s:1068   .text:0000000000000584 .L0 
     /tmp/ccSvzbZj.s:1070   .text:0000000000000588 .L0 
     /tmp/ccSvzbZj.s:1075   .text:0000000000000588 .L0 
     /tmp/ccSvzbZj.s:1076   .text:0000000000000588 .L0 
     /tmp/ccSvzbZj.s:1077   .text:0000000000000588 .L0 
     /tmp/ccSvzbZj.s:1079   .text:000000000000058c .L0 
     /tmp/ccSvzbZj.s:1080   .text:000000000000058c .L0 
     /tmp/ccSvzbZj.s:1082   .text:0000000000000590 .L0 
     /tmp/ccSvzbZj.s:1083   .text:0000000000000590 .L0 
     /tmp/ccSvzbZj.s:1084   .text:0000000000000590 .L0 
     /tmp/ccSvzbZj.s:1086   .text:0000000000000594 .L0 
     /tmp/ccSvzbZj.s:1087   .text:0000000000000594 .L0 
     /tmp/ccSvzbZj.s:1089   .text:0000000000000598 .L0 
     /tmp/ccSvzbZj.s:1090   .text:0000000000000598 .L0 
     /tmp/ccSvzbZj.s:1097   .text:000000000000059c .L0 
     /tmp/ccSvzbZj.s:1098   .text:000000000000059c .L0 
     /tmp/ccSvzbZj.s:1099   .text:000000000000059c .L0 
     /tmp/ccSvzbZj.s:1105   .text:00000000000005a4 .L0 
     /tmp/ccSvzbZj.s:1106   .text:00000000000005a4 .L0 
     /tmp/ccSvzbZj.s:1109   .text:00000000000005ac .L0 
     /tmp/ccSvzbZj.s:1110   .text:00000000000005ac .L0 
     /tmp/ccSvzbZj.s:1112   .text:00000000000005b0 .L0 
GAS LISTING /tmp/ccSvzbZj.s 			page 43


     /tmp/ccSvzbZj.s:1113   .text:00000000000005b4 .L0 
     /tmp/ccSvzbZj.s:1115   .text:00000000000005b8 .L0 
     /tmp/ccSvzbZj.s:1116   .text:00000000000005b8 .L0 
     /tmp/ccSvzbZj.s:1118   .text:00000000000005bc .L0 
     /tmp/ccSvzbZj.s:1123   .text:00000000000005c0 .L0 
     /tmp/ccSvzbZj.s:1126   .text:00000000000005c4 .L0 
     /tmp/ccSvzbZj.s:1127   .text:00000000000005c8 .L0 
     /tmp/ccSvzbZj.s:1133   .text:00000000000005c8 _ZN3TCB5sleepEm
     /tmp/ccSvzbZj.s:1136   .text:00000000000005c8 .L0 
     /tmp/ccSvzbZj.s:1138   .text:00000000000005c8 .L0 
     /tmp/ccSvzbZj.s:1139   .text:00000000000005c8 .L0 
     /tmp/ccSvzbZj.s:1140   .text:00000000000005c8 .L0 
     /tmp/ccSvzbZj.s:1145   .text:00000000000005d0 .L0 
     /tmp/ccSvzbZj.s:1146   .text:00000000000005d0 .L0 
     /tmp/ccSvzbZj.s:1151   .text:00000000000005d4 .L0 
     /tmp/ccSvzbZj.s:1153   .text:00000000000005d8 .L0 
     /tmp/ccSvzbZj.s:1154   .text:00000000000005dc .L0 
     /tmp/ccSvzbZj.s:1157   .text:00000000000005e4 .L0 
     /tmp/ccSvzbZj.s:1158   .text:00000000000005e4 .L0 
     /tmp/ccSvzbZj.s:1160   .text:00000000000005e8 .L0 
     /tmp/ccSvzbZj.s:1166   .text:00000000000005ec .L0 
     /tmp/ccSvzbZj.s:1167   .text:00000000000005ec .L0 
     /tmp/ccSvzbZj.s:1168   .text:00000000000005ec .L0 
     /tmp/ccSvzbZj.s:1170   .text:00000000000005f0 .L0 
     /tmp/ccSvzbZj.s:1171   .text:00000000000005f0 .L0 
     /tmp/ccSvzbZj.s:1173   .text:00000000000005f4 .L0 
     /tmp/ccSvzbZj.s:1174   .text:00000000000005f4 .L0 
     /tmp/ccSvzbZj.s:1176   .text:00000000000005f8 .L0 
     /tmp/ccSvzbZj.s:1177   .text:00000000000005f8 .L0 
     /tmp/ccSvzbZj.s:1179   .text:00000000000005fc .L0 
     /tmp/ccSvzbZj.s:1180   .text:00000000000005fc .L0 
     /tmp/ccSvzbZj.s:1185   .text:0000000000000600 .L0 
     /tmp/ccSvzbZj.s:1188   .text:0000000000000600 .L0 
     /tmp/ccSvzbZj.s:1189   .text:0000000000000600 .L0 
     /tmp/ccSvzbZj.s:1190   .text:0000000000000600 .L0 
     /tmp/ccSvzbZj.s:1196   .text:0000000000000608 .L0 
     /tmp/ccSvzbZj.s:1197   .text:0000000000000608 .L0 
     /tmp/ccSvzbZj.s:1203   .text:000000000000061c .L0 
     /tmp/ccSvzbZj.s:1204   .text:000000000000061c .L0 
     /tmp/ccSvzbZj.s:1207   .text:0000000000000624 .L0 
     /tmp/ccSvzbZj.s:1208   .text:0000000000000624 .L0 
     /tmp/ccSvzbZj.s:1210   .text:0000000000000628 .L0 
     /tmp/ccSvzbZj.s:1211   .text:000000000000062c .L0 
     /tmp/ccSvzbZj.s:1213   .text:0000000000000630 .L0 
     /tmp/ccSvzbZj.s:1214   .text:0000000000000630 .L0 
     /tmp/ccSvzbZj.s:1216   .text:0000000000000634 .L0 
     /tmp/ccSvzbZj.s:1221   .text:0000000000000638 .L0 
     /tmp/ccSvzbZj.s:1224   .text:000000000000063c .L0 
     /tmp/ccSvzbZj.s:1225   .text:0000000000000640 .L0 
     /tmp/ccSvzbZj.s:1231   .text:0000000000000640 _ZN3TCB11getOutputThEv
     /tmp/ccSvzbZj.s:1234   .text:0000000000000640 .L0 
     /tmp/ccSvzbZj.s:1235   .text:0000000000000640 .L0 
     /tmp/ccSvzbZj.s:1236   .text:0000000000000640 .L0 
     /tmp/ccSvzbZj.s:1237   .text:0000000000000640 .L0 
     /tmp/ccSvzbZj.s:1239   .text:0000000000000648 .L0 
     /tmp/ccSvzbZj.s:1241   .text:000000000000064c .L0 
     /tmp/ccSvzbZj.s:1244   .text:0000000000000650 .L0 
GAS LISTING /tmp/ccSvzbZj.s 			page 44


     /tmp/ccSvzbZj.s:1245   .text:0000000000000654 .L0 
     /tmp/ccSvzbZj.s:1248   .text:000000000000065c .L0 
     /tmp/ccSvzbZj.s:1249   .text:000000000000065c .L0 
     /tmp/ccSvzbZj.s:1251   .text:0000000000000660 .L0 
     /tmp/ccSvzbZj.s:1253   .text:0000000000000660 .L0 
     /tmp/ccSvzbZj.s:1254   .text:0000000000000660 .L0 
     /tmp/ccSvzbZj.s:1259   .text:0000000000000670 .L0 
     /tmp/ccSvzbZj.s:1264   .text:0000000000000684 .L0 
     /tmp/ccSvzbZj.s:1269   .text:000000000000068c .L0 
     /tmp/ccSvzbZj.s:1270   .text:000000000000068c .L0 
     /tmp/ccSvzbZj.s:1271   .text:000000000000068c .L0 
     /tmp/ccSvzbZj.s:1277   .text:0000000000000694 .L0 
     /tmp/ccSvzbZj.s:1278   .text:0000000000000694 .L0 
     /tmp/ccSvzbZj.s:1279   .text:0000000000000698 .L0 
     /tmp/ccSvzbZj.s:1281   .text:000000000000069c .L0 
     /tmp/ccSvzbZj.s:1282   .text:000000000000069c .L0 
     /tmp/ccSvzbZj.s:1284   .text:00000000000006a0 .L0 
     /tmp/ccSvzbZj.s:1286   .text:00000000000006a4 .L0 
     /tmp/ccSvzbZj.s:1304   .bss:0000000000000008 _ZN3TCB3idSE
     /tmp/ccSvzbZj.s:1317   .bss:0000000000000020 _ZN3TCB8outputThE
     /tmp/ccSvzbZj.s:1309   .bss:0000000000000010 _ZN3TCB6kernelE
     /tmp/ccSvzbZj.s:1313   .bss:0000000000000018 _ZN3TCB4idleE
     /tmp/ccSvzbZj.s:1300   .bss:0000000000000000 _ZN3TCB7runningE
     /tmp/ccSvzbZj.s:1321   .bss:0000000000000028 _ZN3TCB16timeSliceCounterE
     /tmp/ccSvzbZj.s:1297   .bss:0000000000000000 .LANCHOR0
     /tmp/ccSvzbZj.s:1336   .text:00000000000006a4 .L0 
     /tmp/ccSvzbZj.s:28     .text:0000000000000018 .L0 
     /tmp/ccSvzbZj.s:89     .text:0000000000000060 .L0 
     /tmp/ccSvzbZj.s:110    .text:0000000000000088 .L0 
     /tmp/ccSvzbZj.s:115    .text:000000000000009c .L0 
     /tmp/ccSvzbZj.s:127    .text:00000000000000ac .L0 
     /tmp/ccSvzbZj.s:204    .text:0000000000000130 .L0 
     /tmp/ccSvzbZj.s:223    .text:0000000000000150 .L0 
     /tmp/ccSvzbZj.s:432    .text:0000000000000254 .L0 
     /tmp/ccSvzbZj.s:455    .text:000000000000027c .L0 
     /tmp/ccSvzbZj.s:490    .text:00000000000002a8 .L0 
     /tmp/ccSvzbZj.s:541    .text:00000000000002f8 .L0 
     /tmp/ccSvzbZj.s:628    .text:000000000000035c .L0 
     /tmp/ccSvzbZj.s:647    .text:0000000000000374 .L0 
     /tmp/ccSvzbZj.s:686    .text:000000000000039c .L0 
     /tmp/ccSvzbZj.s:765    .text:000000000000040c .L0 
     /tmp/ccSvzbZj.s:781    .text:0000000000000420 .L0 
     /tmp/ccSvzbZj.s:786    .text:000000000000042c .L0 
     /tmp/ccSvzbZj.s:806    .text:000000000000045c .L0 
     /tmp/ccSvzbZj.s:810    .text:000000000000046c .L0 
     /tmp/ccSvzbZj.s:857    .text:0000000000000498 .L0 
     /tmp/ccSvzbZj.s:878    .text:00000000000004b0 .L0 
     /tmp/ccSvzbZj.s:965    .text:0000000000000510 .L0 
     /tmp/ccSvzbZj.s:1140   .text:00000000000005c8 .L0 
     /tmp/ccSvzbZj.s:1197   .text:0000000000000608 .L0 
     /tmp/ccSvzbZj.s:1237   .text:0000000000000640 .L0 
     /tmp/ccSvzbZj.s:1260   .text:0000000000000674 .L0 
     /tmp/ccSvzbZj.s:1264   .text:0000000000000684 .L0 
     /tmp/ccSvzbZj.s:65     .text:0000000000000054 .L4
     /tmp/ccSvzbZj.s:83     .text:0000000000000060 .L10
     /tmp/ccSvzbZj.s:119    .text:00000000000000ac .L7
     /tmp/ccSvzbZj.s:105    .text:0000000000000088 .L11
GAS LISTING /tmp/ccSvzbZj.s 			page 45


     /tmp/ccSvzbZj.s:361    .text:00000000000001e8 .L16
     /tmp/ccSvzbZj.s:495    .text:00000000000002b8 .L29
     /tmp/ccSvzbZj.s:722    .text:00000000000003e0 .L35
     /tmp/ccSvzbZj.s:762    .text:000000000000040c .L32
     /tmp/ccSvzbZj.s:641    .text:000000000000036c .L31
     /tmp/ccSvzbZj.s:681    .text:000000000000039c .L33
     /tmp/ccSvzbZj.s:788    .text:0000000000000438 .L42
     /tmp/ccSvzbZj.s:948    .text:0000000000000508 .L45
     /tmp/ccSvzbZj.s:1035   .text:0000000000000568 .L52
     /tmp/ccSvzbZj.s:1121   .text:00000000000005c0 .L59
     /tmp/ccSvzbZj.s:1219   .text:0000000000000638 .L66
     /tmp/ccSvzbZj.s:1242   .text:0000000000000650 .L77
     /tmp/ccSvzbZj.s:5040   .debug_abbrev:0000000000000000 .Ldebug_abbrev0
     /tmp/ccSvzbZj.s:7636   .debug_str:00000000000010f3 .LASF341
     /tmp/ccSvzbZj.s:7304   .debug_str:0000000000000669 .LASF342
     /tmp/ccSvzbZj.s:7382   .debug_str:000000000000091f .LASF343
     /tmp/ccSvzbZj.s:5      .text:0000000000000000 .Ltext0
     /tmp/ccSvzbZj.s:1324   .text:00000000000006a4 .Letext0
     /tmp/ccSvzbZj.s:7086   .debug_line:0000000000000000 .Ldebug_line0
     /tmp/ccSvzbZj.s:7306   .debug_str:0000000000000675 .LASF0
     /tmp/ccSvzbZj.s:7354   .debug_str:0000000000000827 .LASF1
     /tmp/ccSvzbZj.s:7518   .debug_str:0000000000000d61 .LASF2
     /tmp/ccSvzbZj.s:7530   .debug_str:0000000000000dc3 .LASF4
     /tmp/ccSvzbZj.s:7322   .debug_str:0000000000000714 .LASF3
     /tmp/ccSvzbZj.s:7110   .debug_str:00000000000000d4 .LASF5
     /tmp/ccSvzbZj.s:7478   .debug_str:0000000000000c1d .LASF6
     /tmp/ccSvzbZj.s:7464   .debug_str:0000000000000ba5 .LASF7
     /tmp/ccSvzbZj.s:7340   .debug_str:00000000000007a6 .LASF8
     /tmp/ccSvzbZj.s:7258   .debug_str:0000000000000537 .LASF9
     /tmp/ccSvzbZj.s:7274   .debug_str:000000000000059a .LASF10
     /tmp/ccSvzbZj.s:7170   .debug_str:00000000000002bd .LASF11
     /tmp/ccSvzbZj.s:7246   .debug_str:00000000000004f3 .LASF12
     /tmp/ccSvzbZj.s:7196   .debug_str:000000000000036f .LASF13
     /tmp/ccSvzbZj.s:7168   .debug_str:00000000000002ad .LASF14
     /tmp/ccSvzbZj.s:7594   .debug_str:0000000000000faf .LASF15
     /tmp/ccSvzbZj.s:7228   .debug_str:000000000000044c .LASF16
     /tmp/ccSvzbZj.s:7574   .debug_str:0000000000000ef8 .LASF17
     /tmp/ccSvzbZj.s:7256   .debug_str:000000000000052d .LASF18
     /tmp/ccSvzbZj.s:7608   .debug_str:000000000000100d .LASF126
     /tmp/ccSvzbZj.s:7754   .debug_str:00000000000015c0 .LASF344
     /tmp/ccSvzbZj.s:7296   .debug_str:0000000000000617 .LASF345
     /tmp/ccSvzbZj.s:7696   .debug_str:00000000000013bd .LASF19
     /tmp/ccSvzbZj.s:7682   .debug_str:0000000000001328 .LASF241
     /tmp/ccSvzbZj.s:7586   .debug_str:0000000000000f7d .LASF20
     /tmp/ccSvzbZj.s:7424   .debug_str:0000000000000a92 .LASF21
     /tmp/ccSvzbZj.s:7244   .debug_str:00000000000004e8 .LASF22
     /tmp/ccSvzbZj.s:7412   .debug_str:0000000000000a3e .LASF23
     /tmp/ccSvzbZj.s:7576   .debug_str:0000000000000f0e .LASF28
     /tmp/ccSvzbZj.s:7240   .debug_str:00000000000004c3 .LASF25
     /tmp/ccSvzbZj.s:7520   .debug_str:0000000000000d6f .LASF244
     /tmp/ccSvzbZj.s:7506   .debug_str:0000000000000cfe .LASF245
     /tmp/ccSvzbZj.s:7352   .debug_str:0000000000000822 .LASF24
     /tmp/ccSvzbZj.s:7532   .debug_str:0000000000000dca .LASF26
     /tmp/ccSvzbZj.s:7350   .debug_str:0000000000000819 .LASF27
     /tmp/ccSvzbZj.s:7154   .debug_str:0000000000000234 .LASF29
     /tmp/ccSvzbZj.s:7374   .debug_str:00000000000008e5 .LASF30
     /tmp/ccSvzbZj.s:7230   .debug_str:0000000000000462 .LASF31
GAS LISTING /tmp/ccSvzbZj.s 			page 46


     /tmp/ccSvzbZj.s:7456   .debug_str:0000000000000b7d .LASF32
     /tmp/ccSvzbZj.s:7700   .debug_str:00000000000013d7 .LASF33
     /tmp/ccSvzbZj.s:7270   .debug_str:000000000000057f .LASF34
     /tmp/ccSvzbZj.s:7106   .debug_str:00000000000000aa .LASF35
     /tmp/ccSvzbZj.s:7782   .debug_str:00000000000016be .LASF36
     /tmp/ccSvzbZj.s:7758   .debug_str:00000000000015db .LASF37
     /tmp/ccSvzbZj.s:7556   .debug_str:0000000000000e99 .LASF38
     /tmp/ccSvzbZj.s:7338   .debug_str:0000000000000789 .LASF39
     /tmp/ccSvzbZj.s:7494   .debug_str:0000000000000c9a .LASF40
     /tmp/ccSvzbZj.s:7100   .debug_str:000000000000005c .LASF41
     /tmp/ccSvzbZj.s:7604   .debug_str:0000000000000ffa .LASF42
     /tmp/ccSvzbZj.s:7750   .debug_str:00000000000015b3 .LASF43
     /tmp/ccSvzbZj.s:7150   .debug_str:000000000000021d .LASF44
     /tmp/ccSvzbZj.s:7558   .debug_str:0000000000000ea4 .LASF45
     /tmp/ccSvzbZj.s:7610   .debug_str:0000000000001021 .LASF46
     /tmp/ccSvzbZj.s:7482   .debug_str:0000000000000c2d .LASF47
     /tmp/ccSvzbZj.s:7770   .debug_str:0000000000001671 .LASF48
     /tmp/ccSvzbZj.s:7178   .debug_str:00000000000002fa .LASF49
     /tmp/ccSvzbZj.s:7268   .debug_str:000000000000057a .LASF50
     /tmp/ccSvzbZj.s:7408   .debug_str:0000000000000a0c .LASF51
     /tmp/ccSvzbZj.s:7766   .debug_str:0000000000001649 .LASF53
     /tmp/ccSvzbZj.s:7564   .debug_str:0000000000000ec8 .LASF55
     /tmp/ccSvzbZj.s:7096   .debug_str:000000000000003a .LASF52
     /tmp/ccSvzbZj.s:7726   .debug_str:00000000000014af .LASF136
     /tmp/ccSvzbZj.s:7142   .debug_str:00000000000001d7 .LASF54
     /tmp/ccSvzbZj.s:7446   .debug_str:0000000000000b2d .LASF56
     /tmp/ccSvzbZj.s:7524   .debug_str:0000000000000d99 .LASF57
     /tmp/ccSvzbZj.s:7656   .debug_str:000000000000125a .LASF58
     /tmp/ccSvzbZj.s:7092   .debug_str:000000000000002a .LASF59
     /tmp/ccSvzbZj.s:7588   .debug_str:0000000000000f82 .LASF60
     /tmp/ccSvzbZj.s:7648   .debug_str:0000000000001201 .LASF61
     /tmp/ccSvzbZj.s:7416   .debug_str:0000000000000a53 .LASF62
     /tmp/ccSvzbZj.s:7134   .debug_str:0000000000000198 .LASF63
     /tmp/ccSvzbZj.s:7400   .debug_str:00000000000009b7 .LASF64
     /tmp/ccSvzbZj.s:7264   .debug_str:000000000000055e .LASF65
     /tmp/ccSvzbZj.s:7666   .debug_str:00000000000012c9 .LASF66
     /tmp/ccSvzbZj.s:7720   .debug_str:000000000000148d .LASF67
     /tmp/ccSvzbZj.s:7162   .debug_str:0000000000000276 .LASF68
     /tmp/ccSvzbZj.s:7592   .debug_str:0000000000000fa4 .LASF69
     /tmp/ccSvzbZj.s:7652   .debug_str:0000000000001226 .LASF70
     /tmp/ccSvzbZj.s:7444   .debug_str:0000000000000b22 .LASF71
     /tmp/ccSvzbZj.s:7346   .debug_str:00000000000007e6 .LASF72
     /tmp/ccSvzbZj.s:7702   .debug_str:00000000000013f5 .LASF73
     /tmp/ccSvzbZj.s:7138   .debug_str:00000000000001b2 .LASF74
     /tmp/ccSvzbZj.s:7632   .debug_str:00000000000010d1 .LASF75
     /tmp/ccSvzbZj.s:7436   .debug_str:0000000000000ad3 .LASF76
     /tmp/ccSvzbZj.s:7560   .debug_str:0000000000000eac .LASF77
     /tmp/ccSvzbZj.s:7646   .debug_str:00000000000011e3 .LASF78
     /tmp/ccSvzbZj.s:7294   .debug_str:000000000000060f .LASF79
     /tmp/ccSvzbZj.s:7248   .debug_str:0000000000000502 .LASF80
     /tmp/ccSvzbZj.s:7388   .debug_str:0000000000000957 .LASF81
     /tmp/ccSvzbZj.s:7584   .debug_str:0000000000000f64 .LASF82
     /tmp/ccSvzbZj.s:7422   .debug_str:0000000000000a86 .LASF83
     /tmp/ccSvzbZj.s:7324   .debug_str:0000000000000726 .LASF84
     /tmp/ccSvzbZj.s:7262   .debug_str:0000000000000553 .LASF85
     /tmp/ccSvzbZj.s:7742   .debug_str:0000000000001548 .LASF86
     /tmp/ccSvzbZj.s:7512   .debug_str:0000000000000d32 .LASF87
GAS LISTING /tmp/ccSvzbZj.s 			page 47


     /tmp/ccSvzbZj.s:7144   .debug_str:00000000000001e3 .LASF88
     /tmp/ccSvzbZj.s:7206   .debug_str:00000000000003cc .LASF89
     /tmp/ccSvzbZj.s:7308   .debug_str:0000000000000682 .LASF90
     /tmp/ccSvzbZj.s:7638   .debug_str:00000000000011b7 .LASF91
     /tmp/ccSvzbZj.s:7712   .debug_str:0000000000001445 .LASF92
     /tmp/ccSvzbZj.s:7148   .debug_str:0000000000000211 .LASF93
     /tmp/ccSvzbZj.s:7116   .debug_str:00000000000000ef .LASF94
     /tmp/ccSvzbZj.s:7668   .debug_str:00000000000012e3 .LASF95
     /tmp/ccSvzbZj.s:7692   .debug_str:000000000000139d .LASF96
     /tmp/ccSvzbZj.s:7450   .debug_str:0000000000000b55 .LASF97
     /tmp/ccSvzbZj.s:7176   .debug_str:00000000000002da .LASF98
     /tmp/ccSvzbZj.s:7126   .debug_str:000000000000014c .LASF99
     /tmp/ccSvzbZj.s:7522   .debug_str:0000000000000d79 .LASF100
     /tmp/ccSvzbZj.s:7724   .debug_str:00000000000014a8 .LASF101
     /tmp/ccSvzbZj.s:7508   .debug_str:0000000000000d15 .LASF102
     /tmp/ccSvzbZj.s:7526   .debug_str:0000000000000da5 .LASF346
     /tmp/ccSvzbZj.s:7484   .debug_str:0000000000000c35 .LASF103
     /tmp/ccSvzbZj.s:7104   .debug_str:000000000000009e .LASF104
     /tmp/ccSvzbZj.s:7760   .debug_str:00000000000015f6 .LASF105
     /tmp/ccSvzbZj.s:7318   .debug_str:00000000000006df .LASF106
     /tmp/ccSvzbZj.s:7510   .debug_str:0000000000000d2d .LASF347
     /tmp/ccSvzbZj.s:7398   .debug_str:00000000000009a3 .LASF107
     /tmp/ccSvzbZj.s:7762   .debug_str:0000000000001608 .LASF108
     /tmp/ccSvzbZj.s:7254   .debug_str:0000000000000525 .LASF109
     /tmp/ccSvzbZj.s:7250   .debug_str:000000000000051b .LASF110
     /tmp/ccSvzbZj.s:7756   .debug_str:00000000000015d4 .LASF111
     /tmp/ccSvzbZj.s:7480   .debug_str:0000000000000c24 .LASF112
     /tmp/ccSvzbZj.s:7606   .debug_str:0000000000001002 .LASF113
     /tmp/ccSvzbZj.s:7600   .debug_str:0000000000000fca .LASF114
     /tmp/ccSvzbZj.s:7360   .debug_str:0000000000000850 .LASF115
     /tmp/ccSvzbZj.s:7492   .debug_str:0000000000000c82 .LASF116
     /tmp/ccSvzbZj.s:7098   .debug_str:000000000000004a .LASF118
     /tmp/ccSvzbZj.s:7164   .debug_str:0000000000000293 .LASF117
     /tmp/ccSvzbZj.s:7406   .debug_str:00000000000009f8 .LASF119
     /tmp/ccSvzbZj.s:7542   .debug_str:0000000000000e38 .LASF120
     /tmp/ccSvzbZj.s:7684   .debug_str:000000000000132d .LASF121
     /tmp/ccSvzbZj.s:7752   .debug_str:00000000000015ba .LASF122
     /tmp/ccSvzbZj.s:7698   .debug_str:00000000000013c7 .LASF123
     /tmp/ccSvzbZj.s:7458   .debug_str:0000000000000b89 .LASF124
     /tmp/ccSvzbZj.s:7380   .debug_str:0000000000000912 .LASF125
     /tmp/ccSvzbZj.s:7730   .debug_str:00000000000014cb .LASF127
     /tmp/ccSvzbZj.s:7744   .debug_str:0000000000001565 .LASF128
     /tmp/ccSvzbZj.s:7180   .debug_str:0000000000000303 .LASF129
     /tmp/ccSvzbZj.s:7094   .debug_str:0000000000000035 .LASF130
     /tmp/ccSvzbZj.s:7566   .debug_str:0000000000000edb .LASF131
     /tmp/ccSvzbZj.s:7662   .debug_str:00000000000012ab .LASF132
     /tmp/ccSvzbZj.s:7694   .debug_str:00000000000013b6 .LASF133
     /tmp/ccSvzbZj.s:7644   .debug_str:00000000000011d9 .LASF134
     /tmp/ccSvzbZj.s:7202   .debug_str:00000000000003b0 .LASF135
     /tmp/ccSvzbZj.s:7102   .debug_str:0000000000000076 .LASF137
     /tmp/ccSvzbZj.s:7546   .debug_str:0000000000000e4d .LASF138
     /tmp/ccSvzbZj.s:7216   .debug_str:000000000000041d .LASF141
     /tmp/ccSvzbZj.s:7334   .debug_str:000000000000076e .LASF143
     /tmp/ccSvzbZj.s:7232   .debug_str:000000000000047e .LASF139
     /tmp/ccSvzbZj.s:7198   .debug_str:000000000000037f .LASF140
     /tmp/ccSvzbZj.s:7152   .debug_str:0000000000000226 .LASF142
     /tmp/ccSvzbZj.s:7362   .debug_str:000000000000085d .LASF144
GAS LISTING /tmp/ccSvzbZj.s 			page 48


     /tmp/ccSvzbZj.s:7356   .debug_str:000000000000083a .LASF145
     /tmp/ccSvzbZj.s:7404   .debug_str:00000000000009dc .LASF146
     /tmp/ccSvzbZj.s:7358   .debug_str:000000000000084a .LASF147
     /tmp/ccSvzbZj.s:7630   .debug_str:00000000000010c1 .LASF148
     /tmp/ccSvzbZj.s:7570   .debug_str:0000000000000eea .LASF149
     /tmp/ccSvzbZj.s:7332   .debug_str:000000000000075f .LASF151
     /tmp/ccSvzbZj.s:7218   .debug_str:0000000000000426 .LASF150
     /tmp/ccSvzbZj.s:7272   .debug_str:000000000000058b .LASF152
     /tmp/ccSvzbZj.s:7578   .debug_str:0000000000000f21 .LASF153
     /tmp/ccSvzbZj.s:7342   .debug_str:00000000000007b9 .LASF154
     /tmp/ccSvzbZj.s:7224   .debug_str:0000000000000438 .LASF155
     /tmp/ccSvzbZj.s:7372   .debug_str:00000000000008cc .LASF156
     /tmp/ccSvzbZj.s:7124   .debug_str:0000000000000145 .LASF157
     /tmp/ccSvzbZj.s:7746   .debug_str:000000000000157b .LASF158
     /tmp/ccSvzbZj.s:7670   .debug_str:00000000000012eb .LASF159
     /tmp/ccSvzbZj.s:7562   .debug_str:0000000000000eb8 .LASF160
     /tmp/ccSvzbZj.s:7502   .debug_str:0000000000000ce4 .LASF161
     /tmp/ccSvzbZj.s:7736   .debug_str:0000000000001516 .LASF162
     /tmp/ccSvzbZj.s:7590   .debug_str:0000000000000f9f .LASF163
     /tmp/ccSvzbZj.s:7284   .debug_str:00000000000005cf .LASF164
     /tmp/ccSvzbZj.s:7620   .debug_str:0000000000001077 .LASF165
     /tmp/ccSvzbZj.s:7236   .debug_str:00000000000004a5 .LASF166
     /tmp/ccSvzbZj.s:7122   .debug_str:000000000000013f .LASF167
     /tmp/ccSvzbZj.s:7430   .debug_str:0000000000000ab5 .LASF168
     /tmp/ccSvzbZj.s:7414   .debug_str:0000000000000a43 .LASF169
     /tmp/ccSvzbZj.s:7598   .debug_str:0000000000000fc3 .LASF170
     /tmp/ccSvzbZj.s:7784   .debug_str:00000000000016c8 .LASF171
     /tmp/ccSvzbZj.s:7538   .debug_str:0000000000000e08 .LASF172
     /tmp/ccSvzbZj.s:7226   .debug_str:0000000000000446 .LASF173
     /tmp/ccSvzbZj.s:7386   .debug_str:000000000000094a .LASF174
     /tmp/ccSvzbZj.s:7778   .debug_str:00000000000016a7 .LASF175
     /tmp/ccSvzbZj.s:7242   .debug_str:00000000000004da .LASF176
     /tmp/ccSvzbZj.s:7396   .debug_str:000000000000099c .LASF177
     /tmp/ccSvzbZj.s:7688   .debug_str:0000000000001371 .LASF178
     /tmp/ccSvzbZj.s:7208   .debug_str:00000000000003d7 .LASF179
     /tmp/ccSvzbZj.s:7716   .debug_str:000000000000146e .LASF180
     /tmp/ccSvzbZj.s:7172   .debug_str:00000000000002cc .LASF181
     /tmp/ccSvzbZj.s:7378   .debug_str:00000000000008f2 .LASF182
     /tmp/ccSvzbZj.s:7370   .debug_str:00000000000008b0 .LASF183
     /tmp/ccSvzbZj.s:7090   .debug_str:000000000000000d .LASF216
     /tmp/ccSvzbZj.s:7516   .debug_str:0000000000000d4d .LASF184
     /tmp/ccSvzbZj.s:7554   .debug_str:0000000000000e84 .LASF185
     /tmp/ccSvzbZj.s:7706   .debug_str:0000000000001410 .LASF186
     /tmp/ccSvzbZj.s:7650   .debug_str:000000000000120c .LASF187
     /tmp/ccSvzbZj.s:7540   .debug_str:0000000000000e19 .LASF188
     /tmp/ccSvzbZj.s:7288   .debug_str:00000000000005e9 .LASF189
     /tmp/ccSvzbZj.s:7704   .debug_str:0000000000001400 .LASF190
     /tmp/ccSvzbZj.s:7302   .debug_str:0000000000000658 .LASF191
     /tmp/ccSvzbZj.s:7642   .debug_str:00000000000011c9 .LASF192
     /tmp/ccSvzbZj.s:7452   .debug_str:0000000000000b63 .LASF193
     /tmp/ccSvzbZj.s:7108   .debug_str:00000000000000cb .LASF194
     /tmp/ccSvzbZj.s:7624   .debug_str:000000000000108a .LASF195
     /tmp/ccSvzbZj.s:7192   .debug_str:0000000000000342 .LASF348
     /tmp/ccSvzbZj.s:7466   .debug_str:0000000000000bb8 .LASF196
     /tmp/ccSvzbZj.s:7348   .debug_str:0000000000000803 .LASF197
     /tmp/ccSvzbZj.s:7140   .debug_str:00000000000001cf .LASF198
     /tmp/ccSvzbZj.s:7664   .debug_str:00000000000012b3 .LASF199
GAS LISTING /tmp/ccSvzbZj.s 			page 49


     /tmp/ccSvzbZj.s:7442   .debug_str:0000000000000b1a .LASF200
     /tmp/ccSvzbZj.s:7654   .debug_str:0000000000001243 .LASF201
     /tmp/ccSvzbZj.s:7220   .debug_str:000000000000042b .LASF202
     /tmp/ccSvzbZj.s:7710   .debug_str:000000000000142e .LASF203
     /tmp/ccSvzbZj.s:7580   .debug_str:0000000000000f30 .LASF204
     /tmp/ccSvzbZj.s:7156   .debug_str:0000000000000251 .LASF205
     /tmp/ccSvzbZj.s:7184   .debug_str:0000000000000319 .LASF206
     /tmp/ccSvzbZj.s:7432   .debug_str:0000000000000ac6 .LASF207
     /tmp/ccSvzbZj.s:7640   .debug_str:00000000000011c2 .LASF208
     /tmp/ccSvzbZj.s:7376   .debug_str:00000000000008ed .LASF209
     /tmp/ccSvzbZj.s:7616   .debug_str:0000000000001060 .LASF210
     /tmp/ccSvzbZj.s:7568   .debug_str:0000000000000ee1 .LASF211
     /tmp/ccSvzbZj.s:7114   .debug_str:00000000000000e6 .LASF213
     /tmp/ccSvzbZj.s:7468   .debug_str:0000000000000bc0 .LASF212
     /tmp/ccSvzbZj.s:7392   .debug_str:0000000000000975 .LASF214
     /tmp/ccSvzbZj.s:7366   .debug_str:000000000000088e .LASF215
     /tmp/ccSvzbZj.s:7194   .debug_str:0000000000000354 .LASF217
     /tmp/ccSvzbZj.s:7714   .debug_str:0000000000001462 .LASF218
     /tmp/ccSvzbZj.s:7674   .debug_str:0000000000001300 .LASF219
     /tmp/ccSvzbZj.s:7286   .debug_str:00000000000005d7 .LASF220
     /tmp/ccSvzbZj.s:7448   .debug_str:0000000000000b4b .LASF221
     /tmp/ccSvzbZj.s:7130   .debug_str:0000000000000160 .LASF222
     /tmp/ccSvzbZj.s:7298   .debug_str:000000000000062f .LASF223
     /tmp/ccSvzbZj.s:7514   .debug_str:0000000000000d3b .LASF224
     /tmp/ccSvzbZj.s:7364   .debug_str:0000000000000876 .LASF225
     /tmp/ccSvzbZj.s:7222   .debug_str:0000000000000433 .LASF226
     /tmp/ccSvzbZj.s:7158   .debug_str:0000000000000258 .LASF227
     /tmp/ccSvzbZj.s:7572   .debug_str:0000000000000eef .LASF228
     /tmp/ccSvzbZj.s:7498   .debug_str:0000000000000caa .LASF229
     /tmp/ccSvzbZj.s:7718   .debug_str:0000000000001476 .LASF230
     /tmp/ccSvzbZj.s:7740   .debug_str:000000000000153f .LASF231
     /tmp/ccSvzbZj.s:7238   .debug_str:00000000000004ab .LASF232
     /tmp/ccSvzbZj.s:7434   .debug_str:0000000000000acb .LASF233
     /tmp/ccSvzbZj.s:7426   .debug_str:0000000000000a97 .LASF234
     /tmp/ccSvzbZj.s:7160   .debug_str:000000000000026c .LASF235
     /tmp/ccSvzbZj.s:7214   .debug_str:0000000000000404 .LASF236
     /tmp/ccSvzbZj.s:7544   .debug_str:0000000000000e44 .LASF237
     /tmp/ccSvzbZj.s:7626   .debug_str:000000000000109a .LASF238
     /tmp/ccSvzbZj.s:7772   .debug_str:0000000000001679 .LASF239
     /tmp/ccSvzbZj.s:7200   .debug_str:0000000000000397 .LASF240
     /tmp/ccSvzbZj.s:7738   .debug_str:000000000000151c .LASF242
     /tmp/ccSvzbZj.s:7132   .debug_str:0000000000000171 .LASF243
     /tmp/ccSvzbZj.s:7748   .debug_str:000000000000158c .LASF246
     /tmp/ccSvzbZj.s:7410   .debug_str:0000000000000a17 .LASF247
     /tmp/ccSvzbZj.s:7582   .debug_str:0000000000000f37 .LASF248
     /tmp/ccSvzbZj.s:7490   .debug_str:0000000000000c56 .LASF249
     /tmp/ccSvzbZj.s:7476   .debug_str:0000000000000bef .LASF250
     /tmp/ccSvzbZj.s:7734   .debug_str:00000000000014e5 .LASF251
     /tmp/ccSvzbZj.s:7614   .debug_str:0000000000001035 .LASF252
     /tmp/ccSvzbZj.s:7686   .debug_str:0000000000001344 .LASF253
     /tmp/ccSvzbZj.s:7658   .debug_str:0000000000001278 .LASF254
     /tmp/ccSvzbZj.s:7128   .debug_str:000000000000015a .LASF255
     /tmp/ccSvzbZj.s:7290   .debug_str:00000000000005f1 .LASF256
     /tmp/ccSvzbZj.s:7300   .debug_str:0000000000000640 .LASF257
     /tmp/ccSvzbZj.s:7314   .debug_str:00000000000006b9 .LASF258
     /tmp/ccSvzbZj.s:7234   .debug_str:000000000000048a .LASF259
     /tmp/ccSvzbZj.s:7418   .debug_str:0000000000000a70 .LASF260
GAS LISTING /tmp/ccSvzbZj.s 			page 50


     /tmp/ccSvzbZj.s:7690   .debug_str:0000000000001383 .LASF261
     /tmp/ccSvzbZj.s:7678   .debug_str:0000000000001315 .LASF262
     /tmp/ccSvzbZj.s:7504   .debug_str:0000000000000ce9 .LASF263
     /tmp/ccSvzbZj.s:7550   .debug_str:0000000000000e6a .LASF264
     /tmp/ccSvzbZj.s:7440   .debug_str:0000000000000b05 .LASF265
     /tmp/ccSvzbZj.s:7188   .debug_str:0000000000000325 .LASF266
     /tmp/ccSvzbZj.s:7488   .debug_str:0000000000000c43 .LASF267
     /tmp/ccSvzbZj.s:7428   .debug_str:0000000000000aae .LASF268
     /tmp/ccSvzbZj.s:7344   .debug_str:00000000000007d3 .LASF269
     /tmp/ccSvzbZj.s:7728   .debug_str:00000000000014c3 .LASF270
     /tmp/ccSvzbZj.s:7534   .debug_str:0000000000000de1 .LASF271
     /tmp/ccSvzbZj.s:7336   .debug_str:0000000000000781 .LASF272
     /tmp/ccSvzbZj.s:7438   .debug_str:0000000000000af1 .LASF273
     /tmp/ccSvzbZj.s:7368   .debug_str:00000000000008a8 .LASF274
     /tmp/ccSvzbZj.s:7146   .debug_str:00000000000001fd .LASF275
     /tmp/ccSvzbZj.s:7774   .debug_str:000000000000168d .LASF276
     /tmp/ccSvzbZj.s:7312   .debug_str:00000000000006a5 .LASF277
     /tmp/ccSvzbZj.s:7496   .debug_str:0000000000000ca3 .LASF278
     /tmp/ccSvzbZj.s:7536   .debug_str:0000000000000df5 .LASF279
     /tmp/ccSvzbZj.s:7462   .debug_str:0000000000000b9e .LASF280
     /tmp/ccSvzbZj.s:7266   .debug_str:0000000000000567 .LASF281
     /tmp/ccSvzbZj.s:7186   .debug_str:000000000000031f .LASF282
     /tmp/ccSvzbZj.s:7618   .debug_str:0000000000001065 .LASF283
     /tmp/ccSvzbZj.s:7310   .debug_str:000000000000069f .LASF284
     /tmp/ccSvzbZj.s:7212   .debug_str:00000000000003f2 .LASF285
     /tmp/ccSvzbZj.s:7088   .debug_str:0000000000000000 .LASF286
     /tmp/ccSvzbZj.s:7602   .debug_str:0000000000000fe0 .LASF287
     /tmp/ccSvzbZj.s:7112   .debug_str:00000000000000db .LASF288
     /tmp/ccSvzbZj.s:7316   .debug_str:00000000000006c7 .LASF289
     /tmp/ccSvzbZj.s:7676   .debug_str:000000000000130a .LASF290
     /tmp/ccSvzbZj.s:7764   .debug_str:0000000000001631 .LASF291
     /tmp/ccSvzbZj.s:7708   .debug_str:0000000000001424 .LASF292
     /tmp/ccSvzbZj.s:7190   .debug_str:000000000000032c .LASF293
     /tmp/ccSvzbZj.s:7454   .debug_str:0000000000000b73 .LASF294
     /tmp/ccSvzbZj.s:7118   .debug_str:000000000000010d .LASF295
     /tmp/ccSvzbZj.s:7672   .debug_str:00000000000012f1 .LASF296
     /tmp/ccSvzbZj.s:7120   .debug_str:0000000000000123 .LASF297
     /tmp/ccSvzbZj.s:7680   .debug_str:000000000000131e .LASF298
     /tmp/ccSvzbZj.s:7634   .debug_str:00000000000010dd .LASF299
     /tmp/ccSvzbZj.s:7660   .debug_str:00000000000012a2 .LASF300
     /tmp/ccSvzbZj.s:7328   .debug_str:0000000000000750 .LASF301
     /tmp/ccSvzbZj.s:7486   .debug_str:0000000000000c3a .LASF302
     /tmp/ccSvzbZj.s:7470   .debug_str:0000000000000bc5 .LASF303
     /tmp/ccSvzbZj.s:7500   .debug_str:0000000000000cc2 .LASF304
     /tmp/ccSvzbZj.s:7780   .debug_str:00000000000016b4 .LASF305
     /tmp/ccSvzbZj.s:7276   .debug_str:00000000000005a8 .LASF306
     /tmp/ccSvzbZj.s:7280   .debug_str:00000000000005bd .LASF307
     /tmp/ccSvzbZj.s:7612   .debug_str:0000000000001027 .LASF308
     /tmp/ccSvzbZj.s:7260   .debug_str:0000000000000547 .LASF309
     /tmp/ccSvzbZj.s:7210   .debug_str:00000000000003e2 .LASF310
     /tmp/ccSvzbZj.s:7628   .debug_str:00000000000010b2 .LASF311
     /tmp/ccSvzbZj.s:7204   .debug_str:00000000000003be .LASF312
     /tmp/ccSvzbZj.s:7278   .debug_str:00000000000005b1 .LASF313
     /tmp/ccSvzbZj.s:7174   .debug_str:00000000000002d1 .LASF314
     /tmp/ccSvzbZj.s:7182   .debug_str:000000000000030f .LASF315
     /tmp/ccSvzbZj.s:7420   .debug_str:0000000000000a7d .LASF316
     /tmp/ccSvzbZj.s:7528   .debug_str:0000000000000db8 .LASF317
GAS LISTING /tmp/ccSvzbZj.s 			page 51


     /tmp/ccSvzbZj.s:7402   .debug_str:00000000000009d1 .LASF318
     /tmp/ccSvzbZj.s:7330   .debug_str:000000000000075a .LASF319
     /tmp/ccSvzbZj.s:7282   .debug_str:00000000000005ca .LASF320
     /tmp/ccSvzbZj.s:7622   .debug_str:0000000000001081 .LASF321
     /tmp/ccSvzbZj.s:7596   .debug_str:0000000000000fbb .LASF322
     /tmp/ccSvzbZj.s:7394   .debug_str:0000000000000994 .LASF323
     /tmp/ccSvzbZj.s:7460   .debug_str:0000000000000b95 .LASF324
     /tmp/ccSvzbZj.s:7768   .debug_str:0000000000001656 .LASF325
     /tmp/ccSvzbZj.s:7552   .debug_str:0000000000000e73 .LASF326
     /tmp/ccSvzbZj.s:7320   .debug_str:0000000000000706 .LASF327
     /tmp/ccSvzbZj.s:7722   .debug_str:0000000000001498 .LASF328
     /tmp/ccSvzbZj.s:7776   .debug_str:0000000000001695 .LASF329
     /tmp/ccSvzbZj.s:7472   .debug_str:0000000000000bda .LASF330
     /tmp/ccSvzbZj.s:80     .text:0000000000000060 .LFB117
     /tmp/ccSvzbZj.s:136    .text:00000000000000c8 .LFE117
     /tmp/ccSvzbZj.s:107    .text:0000000000000088 .LBB101
     /tmp/ccSvzbZj.s:120    .text:00000000000000ac .LBE101
     /tmp/ccSvzbZj.s:7474   .debug_str:0000000000000be7 .LASF331
     /tmp/ccSvzbZj.s:113    .text:000000000000009c .LVL4
     /tmp/ccSvzbZj.s:1232   .text:0000000000000640 .LFB116
     /tmp/ccSvzbZj.s:1287   .text:00000000000006a4 .LFE116
     /tmp/ccSvzbZj.s:1267   .text:000000000000068c .LBB184
     /tmp/ccSvzbZj.s:1275   .text:0000000000000694 .LBE184
     /tmp/ccSvzbZj.s:6457   .debug_loc:0000000000000000 .LLST54
     /tmp/ccSvzbZj.s:1256   .text:000000000000066c .LVL100
     /tmp/ccSvzbZj.s:1262   .text:0000000000000684 .LVL101
     /tmp/ccSvzbZj.s:1134   .text:00000000000005c8 .LFB115
     /tmp/ccSvzbZj.s:1226   .text:0000000000000640 .LFE115
     /tmp/ccSvzbZj.s:6466   .debug_loc:0000000000000025 .LLST50
     /tmp/ccSvzbZj.s:1142   .text:00000000000005d0 .LBB178
     /tmp/ccSvzbZj.s:1149   .text:00000000000005d4 .LBE178
     /tmp/ccSvzbZj.s:6495   .debug_loc:000000000000009a .LLST51
     /tmp/ccSvzbZj.s:1164   .text:00000000000005ec .LBB180
     /tmp/ccSvzbZj.s:1184   .text:0000000000000600 .LBE180
     /tmp/ccSvzbZj.s:6504   .debug_loc:00000000000000bf .LLST52
     /tmp/ccSvzbZj.s:1186   .text:0000000000000600 .LBB182
     /tmp/ccSvzbZj.s:1194   .text:0000000000000608 .LBE182
     /tmp/ccSvzbZj.s:6513   .debug_loc:00000000000000e4 .LLST53
     /tmp/ccSvzbZj.s:1201   .text:000000000000061c .LVL96
     /tmp/ccSvzbZj.s:1205   .text:0000000000000624 .LVL97
     /tmp/ccSvzbZj.s:1047   .text:0000000000000570 .LFB114
     /tmp/ccSvzbZj.s:1128   .text:00000000000005c8 .LFE114
     /tmp/ccSvzbZj.s:7252   .debug_str:0000000000000520 .LASF332
     /tmp/ccSvzbZj.s:6522   .debug_loc:0000000000000109 .LLST46
     /tmp/ccSvzbZj.s:1052   .text:0000000000000570 .LBB172
     /tmp/ccSvzbZj.s:1059   .text:0000000000000574 .LBE172
     /tmp/ccSvzbZj.s:6547   .debug_loc:000000000000016b .LLST47
     /tmp/ccSvzbZj.s:1073   .text:0000000000000588 .LBB174
     /tmp/ccSvzbZj.s:1093   .text:000000000000059c .LBE174
     /tmp/ccSvzbZj.s:6556   .debug_loc:0000000000000190 .LLST48
     /tmp/ccSvzbZj.s:1095   .text:000000000000059c .LBB176
     /tmp/ccSvzbZj.s:1103   .text:00000000000005a4 .LBE176
     /tmp/ccSvzbZj.s:6565   .debug_loc:00000000000001b5 .LLST49
     /tmp/ccSvzbZj.s:1107   .text:00000000000005ac .LVL86
     /tmp/ccSvzbZj.s:960    .text:0000000000000510 .LFB113
     /tmp/ccSvzbZj.s:1041   .text:0000000000000570 .LFE113
     /tmp/ccSvzbZj.s:967    .text:0000000000000518 .LBB166
GAS LISTING /tmp/ccSvzbZj.s 			page 52


     /tmp/ccSvzbZj.s:974    .text:000000000000051c .LBE166
     /tmp/ccSvzbZj.s:6574   .debug_loc:00000000000001da .LLST43
     /tmp/ccSvzbZj.s:988    .text:0000000000000530 .LBB168
     /tmp/ccSvzbZj.s:1008   .text:0000000000000544 .LBE168
     /tmp/ccSvzbZj.s:6583   .debug_loc:00000000000001ff .LLST44
     /tmp/ccSvzbZj.s:1010   .text:0000000000000544 .LBB170
     /tmp/ccSvzbZj.s:1018   .text:000000000000054c .LBE170
     /tmp/ccSvzbZj.s:6592   .debug_loc:0000000000000224 .LLST45
     /tmp/ccSvzbZj.s:1022   .text:0000000000000554 .LVL80
     /tmp/ccSvzbZj.s:873    .text:00000000000004b0 .LFB112
     /tmp/ccSvzbZj.s:954    .text:0000000000000510 .LFE112
     /tmp/ccSvzbZj.s:880    .text:00000000000004b8 .LBB160
     /tmp/ccSvzbZj.s:887    .text:00000000000004bc .LBE160
     /tmp/ccSvzbZj.s:6601   .debug_loc:0000000000000249 .LLST40
     /tmp/ccSvzbZj.s:901    .text:00000000000004d0 .LBB162
     /tmp/ccSvzbZj.s:921    .text:00000000000004e4 .LBE162
     /tmp/ccSvzbZj.s:6610   .debug_loc:000000000000026e .LLST41
     /tmp/ccSvzbZj.s:923    .text:00000000000004e4 .LBB164
     /tmp/ccSvzbZj.s:931    .text:00000000000004ec .LBE164
     /tmp/ccSvzbZj.s:6619   .debug_loc:0000000000000293 .LLST42
     /tmp/ccSvzbZj.s:935    .text:00000000000004f4 .LVL74
     /tmp/ccSvzbZj.s:54     .text:0000000000000044 .LFB111
     /tmp/ccSvzbZj.s:74     .text:0000000000000060 .LFE111
     /tmp/ccSvzbZj.s:70     .text:000000000000005c .LVL3
     /tmp/ccSvzbZj.s:776    .text:0000000000000420 .LFB110
     /tmp/ccSvzbZj.s:867    .text:00000000000004b0 .LFE110
     /tmp/ccSvzbZj.s:813    .text:0000000000000474 .LBB154
     /tmp/ccSvzbZj.s:835    .text:000000000000048c .LBE154
     /tmp/ccSvzbZj.s:6628   .debug_loc:00000000000002b8 .LLST37
     /tmp/ccSvzbZj.s:837    .text:000000000000048c .LBB156
     /tmp/ccSvzbZj.s:845    .text:0000000000000494 .LBE156
     /tmp/ccSvzbZj.s:6637   .debug_loc:00000000000002dd .LLST38
     /tmp/ccSvzbZj.s:847    .text:0000000000000494 .LBB158
     /tmp/ccSvzbZj.s:854    .text:0000000000000498 .LBE158
     /tmp/ccSvzbZj.s:6646   .debug_loc:0000000000000302 .LLST39
     /tmp/ccSvzbZj.s:802    .text:0000000000000454 .LVL63
     /tmp/ccSvzbZj.s:808    .text:000000000000046c .LVL64
     /tmp/ccSvzbZj.s:10     .text:0000000000000000 .LFB109
     /tmp/ccSvzbZj.s:48     .text:0000000000000044 .LFE109
     /tmp/ccSvzbZj.s:25     .text:0000000000000018 .LVL0
     /tmp/ccSvzbZj.s:37     .text:0000000000000034 .LVL2
     /tmp/ccSvzbZj.s:611    .text:0000000000000344 .LFB108
     /tmp/ccSvzbZj.s:770    .text:0000000000000420 .LFE108
     /tmp/ccSvzbZj.s:6655   .debug_loc:0000000000000327 .LLST31
     /tmp/ccSvzbZj.s:631    .text:0000000000000364 .LBB142
     /tmp/ccSvzbZj.s:638    .text:0000000000000368 .LBE142
     /tmp/ccSvzbZj.s:6666   .debug_loc:000000000000035d .LLST32
     /tmp/ccSvzbZj.s:652    .text:0000000000000380 .LBB144
     /tmp/ccSvzbZj.s:672    .text:0000000000000394 .LBE144
     /tmp/ccSvzbZj.s:6675   .debug_loc:0000000000000382 .LLST33
     /tmp/ccSvzbZj.s:674    .text:0000000000000394 .LBB146
     /tmp/ccSvzbZj.s:683    .text:000000000000039c .LBE146
     /tmp/ccSvzbZj.s:6684   .debug_loc:00000000000003a7 .LLST34
     /tmp/ccSvzbZj.s:689    .text:00000000000003a8 .LBB148
     /tmp/ccSvzbZj.s:693    .text:00000000000003a8 .LBE148
     /tmp/ccSvzbZj.s:725    .text:00000000000003e0 .LBB150
     /tmp/ccSvzbZj.s:745    .text:00000000000003f4 .LBE150
GAS LISTING /tmp/ccSvzbZj.s 			page 53


     /tmp/ccSvzbZj.s:6693   .debug_loc:00000000000003cc .LLST35
     /tmp/ccSvzbZj.s:747    .text:00000000000003f4 .LBB152
     /tmp/ccSvzbZj.s:755    .text:00000000000003fc .LBE152
     /tmp/ccSvzbZj.s:6702   .debug_loc:00000000000003f1 .LLST36
     /tmp/ccSvzbZj.s:645    .text:0000000000000374 .LVL51
     /tmp/ccSvzbZj.s:697    .text:00000000000003b4 .LVL56
     /tmp/ccSvzbZj.s:705    .text:00000000000003c8 .LVL57
     /tmp/ccSvzbZj.s:760    .text:0000000000000408 .LVL62
     /tmp/ccSvzbZj.s:485    .text:00000000000002a8 .LFB107
     /tmp/ccSvzbZj.s:605    .text:0000000000000344 .LFE107
     /tmp/ccSvzbZj.s:507    .text:00000000000002c8 .LBB130
     /tmp/ccSvzbZj.s:515    .text:00000000000002d4 .LBE130
     /tmp/ccSvzbZj.s:6711   .debug_loc:0000000000000416 .LLST26
     /tmp/ccSvzbZj.s:513    .text:00000000000002d4 .LVL43
     /tmp/ccSvzbZj.s:516    .text:00000000000002d4 .LBB132
     /tmp/ccSvzbZj.s:7072   .debug_ranges:0000000000000000 .Ldebug_ranges0
     /tmp/ccSvzbZj.s:6720   .debug_loc:000000000000043b .LLST27
     /tmp/ccSvzbZj.s:518    .text:00000000000002d4 .LBB134
     /tmp/ccSvzbZj.s:529    .text:00000000000002ec .LBE134
     /tmp/ccSvzbZj.s:6727   .debug_loc:000000000000045e .LLST28
     /tmp/ccSvzbZj.s:568    .text:0000000000000320 .LBB136
     /tmp/ccSvzbZj.s:576    .text:0000000000000328 .LBE136
     /tmp/ccSvzbZj.s:6736   .debug_loc:0000000000000483 .LLST29
     /tmp/ccSvzbZj.s:583    .text:000000000000032c .LBB140
     /tmp/ccSvzbZj.s:590    .text:0000000000000330 .LBE140
     /tmp/ccSvzbZj.s:6745   .debug_loc:00000000000004a8 .LLST30
     /tmp/ccSvzbZj.s:374    .text:00000000000001f0 .LFB106
     /tmp/ccSvzbZj.s:479    .text:00000000000002a8 .LFE106
     /tmp/ccSvzbZj.s:6754   .debug_loc:00000000000004cd .LLST16
     /tmp/ccSvzbZj.s:6770   .debug_loc:0000000000000517 .LLST17
     /tmp/ccSvzbZj.s:6786   .debug_loc:0000000000000561 .LLST18
     /tmp/ccSvzbZj.s:397    .text:0000000000000218 .LBB122
     /tmp/ccSvzbZj.s:406    .text:0000000000000224 .LBE122
     /tmp/ccSvzbZj.s:6802   .debug_loc:00000000000005ab .LLST19
     /tmp/ccSvzbZj.s:404    .text:0000000000000224 .LVL33
     /tmp/ccSvzbZj.s:407    .text:0000000000000224 .LBB124
     /tmp/ccSvzbZj.s:460    .text:000000000000028c .LBE124
     /tmp/ccSvzbZj.s:6811   .debug_loc:00000000000005d0 .LLST20
     /tmp/ccSvzbZj.s:6823   .debug_loc:0000000000000607 .LLST21
     /tmp/ccSvzbZj.s:6830   .debug_loc:000000000000062a .LLST22
     /tmp/ccSvzbZj.s:6837   .debug_loc:000000000000064d .LLST23
     /tmp/ccSvzbZj.s:413    .text:000000000000022c .LBB126
     /tmp/ccSvzbZj.s:425    .text:0000000000000248 .LBE126
     /tmp/ccSvzbZj.s:6844   .debug_loc:0000000000000670 .LLST24
     /tmp/ccSvzbZj.s:440    .text:000000000000026c .LBB128
     /tmp/ccSvzbZj.s:448    .text:0000000000000274 .LBE128
     /tmp/ccSvzbZj.s:6853   .debug_loc:0000000000000695 .LLST25
     /tmp/ccSvzbZj.s:287    .text:0000000000000198 .LFB105
     /tmp/ccSvzbZj.s:368    .text:00000000000001f0 .LFE105
     /tmp/ccSvzbZj.s:6862   .debug_loc:00000000000006ba .LLST12
     /tmp/ccSvzbZj.s:292    .text:0000000000000198 .LBB116
     /tmp/ccSvzbZj.s:299    .text:000000000000019c .LBE116
     /tmp/ccSvzbZj.s:6887   .debug_loc:000000000000071c .LLST13
     /tmp/ccSvzbZj.s:313    .text:00000000000001b0 .LBB118
     /tmp/ccSvzbZj.s:333    .text:00000000000001c4 .LBE118
     /tmp/ccSvzbZj.s:6896   .debug_loc:0000000000000741 .LLST14
     /tmp/ccSvzbZj.s:335    .text:00000000000001c4 .LBB120
GAS LISTING /tmp/ccSvzbZj.s 			page 54


     /tmp/ccSvzbZj.s:343    .text:00000000000001cc .LBE120
     /tmp/ccSvzbZj.s:6905   .debug_loc:0000000000000766 .LLST15
     /tmp/ccSvzbZj.s:347    .text:00000000000001d4 .LVL27
     /tmp/ccSvzbZj.s:142    .text:00000000000000c8 .LFB104
     /tmp/ccSvzbZj.s:281    .text:0000000000000198 .LFE104
     /tmp/ccSvzbZj.s:6914   .debug_loc:000000000000078b .LLST0
     /tmp/ccSvzbZj.s:6932   .debug_loc:00000000000007d7 .LLST1
     /tmp/ccSvzbZj.s:6950   .debug_loc:0000000000000823 .LLST2
     /tmp/ccSvzbZj.s:6979   .debug_loc:000000000000089a .LLST3
     /tmp/ccSvzbZj.s:167    .text:00000000000000f4 .LBB104
     /tmp/ccSvzbZj.s:179    .text:0000000000000104 .LBE104
     /tmp/ccSvzbZj.s:6990   .debug_loc:00000000000008d0 .LLST4
     /tmp/ccSvzbZj.s:175    .text:0000000000000100 .LVL8
     /tmp/ccSvzbZj.s:180    .text:0000000000000104 .LBB106
     /tmp/ccSvzbZj.s:6999   .debug_loc:00000000000008f5 .LLST5
     /tmp/ccSvzbZj.s:7011   .debug_loc:000000000000092c .LLST6
     /tmp/ccSvzbZj.s:7018   .debug_loc:000000000000094f .LLST7
     /tmp/ccSvzbZj.s:7025   .debug_loc:0000000000000972 .LLST8
     /tmp/ccSvzbZj.s:186    .text:000000000000010c .LBB108
     /tmp/ccSvzbZj.s:197    .text:0000000000000124 .LBE108
     /tmp/ccSvzbZj.s:7032   .debug_loc:0000000000000995 .LLST9
     /tmp/ccSvzbZj.s:230    .text:0000000000000160 .LBB112
     /tmp/ccSvzbZj.s:242    .text:0000000000000164 .LBE112
     /tmp/ccSvzbZj.s:7041   .debug_loc:00000000000009ba .LLST10
     /tmp/ccSvzbZj.s:244    .text:0000000000000164 .LBB114
     /tmp/ccSvzbZj.s:252    .text:000000000000016c .LBE114
     /tmp/ccSvzbZj.s:7050   .debug_loc:00000000000009df .LLST11
     /tmp/ccSvzbZj.s:256    .text:0000000000000174 .LVL17
     /tmp/ccSvzbZj.s:7326   .debug_str:0000000000000744 .LASF333
     /tmp/ccSvzbZj.s:7390   .debug_str:000000000000095f .LASF334
     /tmp/ccSvzbZj.s:7292   .debug_str:00000000000005fc .LASF335
     /tmp/ccSvzbZj.s:7548   .debug_str:0000000000000e5e .LASF336
     /tmp/ccSvzbZj.s:7732   .debug_str:00000000000014d0 .LASF337
     /tmp/ccSvzbZj.s:7166   .debug_str:000000000000029d .LASF338
     /tmp/ccSvzbZj.s:7136   .debug_str:00000000000001a1 .LASF339
     /tmp/ccSvzbZj.s:7384   .debug_str:000000000000093e .LASF340
     /tmp/ccSvzbZj.s:1266   .text:000000000000068c .LVL102
     /tmp/ccSvzbZj.s:1273   .text:0000000000000694 .LVL103
     /tmp/ccSvzbZj.s:1137   .text:00000000000005c8 .LVL89
     /tmp/ccSvzbZj.s:1199   .text:0000000000000614 .LVL95
     /tmp/ccSvzbZj.s:1218   .text:0000000000000638 .LVL98
     /tmp/ccSvzbZj.s:1222   .text:000000000000063c .LVL99
     /tmp/ccSvzbZj.s:1141   .text:00000000000005d0 .LVL90
     /tmp/ccSvzbZj.s:1147   .text:00000000000005d4 .LVL91
     /tmp/ccSvzbZj.s:1163   .text:00000000000005ec .LVL92
     /tmp/ccSvzbZj.s:1182   .text:0000000000000600 .LVL93
     /tmp/ccSvzbZj.s:1192   .text:0000000000000608 .LVL94
     /tmp/ccSvzbZj.s:1050   .text:0000000000000570 .LVL81
     /tmp/ccSvzbZj.s:1120   .text:00000000000005c0 .LVL87
     /tmp/ccSvzbZj.s:1124   .text:00000000000005c4 .LVL88
     /tmp/ccSvzbZj.s:1057   .text:0000000000000574 .LVL82
     /tmp/ccSvzbZj.s:1072   .text:0000000000000588 .LVL83
     /tmp/ccSvzbZj.s:1091   .text:000000000000059c .LVL84
     /tmp/ccSvzbZj.s:1101   .text:00000000000005a4 .LVL85
     /tmp/ccSvzbZj.s:966    .text:0000000000000518 .LVL75
     /tmp/ccSvzbZj.s:972    .text:000000000000051c .LVL76
     /tmp/ccSvzbZj.s:987    .text:0000000000000530 .LVL77
GAS LISTING /tmp/ccSvzbZj.s 			page 55


     /tmp/ccSvzbZj.s:1006   .text:0000000000000544 .LVL78
     /tmp/ccSvzbZj.s:1016   .text:000000000000054c .LVL79
     /tmp/ccSvzbZj.s:879    .text:00000000000004b8 .LVL69
     /tmp/ccSvzbZj.s:885    .text:00000000000004bc .LVL70
     /tmp/ccSvzbZj.s:900    .text:00000000000004d0 .LVL71
     /tmp/ccSvzbZj.s:919    .text:00000000000004e4 .LVL72
     /tmp/ccSvzbZj.s:929    .text:00000000000004ec .LVL73
     /tmp/ccSvzbZj.s:812    .text:0000000000000474 .LVL65
     /tmp/ccSvzbZj.s:833    .text:000000000000048c .LVL66
     /tmp/ccSvzbZj.s:843    .text:0000000000000494 .LVL67
     /tmp/ccSvzbZj.s:852    .text:0000000000000498 .LVL68
     /tmp/ccSvzbZj.s:629    .text:0000000000000364 .LVL49
     /tmp/ccSvzbZj.s:715    .text:00000000000003d4 .LVL58
     /tmp/ccSvzbZj.s:721    .text:00000000000003e0 .LVL59
     /tmp/ccSvzbZj.s:636    .text:0000000000000368 .LVL50
     /tmp/ccSvzbZj.s:651    .text:0000000000000380 .LVL52
     /tmp/ccSvzbZj.s:670    .text:0000000000000394 .LVL53
     /tmp/ccSvzbZj.s:680    .text:000000000000039c .LVL54
     /tmp/ccSvzbZj.s:743    .text:00000000000003f4 .LVL60
     /tmp/ccSvzbZj.s:753    .text:00000000000003fc .LVL61
     /tmp/ccSvzbZj.s:506    .text:00000000000002c8 .LVL42
     /tmp/ccSvzbZj.s:574    .text:0000000000000328 .LVL46
     /tmp/ccSvzbZj.s:527    .text:00000000000002ec .LVL44
     /tmp/ccSvzbZj.s:556    .text:0000000000000320 .LVL45
     /tmp/ccSvzbZj.s:582    .text:000000000000032c .LVL47
     /tmp/ccSvzbZj.s:588    .text:0000000000000330 .LVL48
     /tmp/ccSvzbZj.s:377    .text:00000000000001f0 .LVL30
     /tmp/ccSvzbZj.s:402    .text:000000000000021c .LVL32
     /tmp/ccSvzbZj.s:474    .text:00000000000002a0 .LVL41
     /tmp/ccSvzbZj.s:471    .text:000000000000029c .LVL40
     /tmp/ccSvzbZj.s:453    .text:000000000000027c .LVL38
     /tmp/ccSvzbZj.s:396    .text:0000000000000218 .LVL31
     /tmp/ccSvzbZj.s:458    .text:000000000000028c .LVL39
     /tmp/ccSvzbZj.s:412    .text:000000000000022c .LVL34
     /tmp/ccSvzbZj.s:423    .text:0000000000000248 .LVL35
     /tmp/ccSvzbZj.s:439    .text:000000000000026c .LVL36
     /tmp/ccSvzbZj.s:446    .text:0000000000000274 .LVL37
     /tmp/ccSvzbZj.s:290    .text:0000000000000198 .LVL22
     /tmp/ccSvzbZj.s:360    .text:00000000000001e8 .LVL28
     /tmp/ccSvzbZj.s:364    .text:00000000000001ec .LVL29
     /tmp/ccSvzbZj.s:297    .text:000000000000019c .LVL23
     /tmp/ccSvzbZj.s:312    .text:00000000000001b0 .LVL24
     /tmp/ccSvzbZj.s:331    .text:00000000000001c4 .LVL25
     /tmp/ccSvzbZj.s:341    .text:00000000000001cc .LVL26
     /tmp/ccSvzbZj.s:145    .text:00000000000000c8 .LVL5
     /tmp/ccSvzbZj.s:173    .text:00000000000000f8 .LVL7
     /tmp/ccSvzbZj.s:276    .text:0000000000000190 .LVL21
     /tmp/ccSvzbZj.s:273    .text:000000000000018c .LVL20
     /tmp/ccSvzbZj.s:221    .text:0000000000000150 .LVL13
     /tmp/ccSvzbZj.s:270    .text:0000000000000188 .LVL19
     /tmp/ccSvzbZj.s:226    .text:0000000000000160 .LVL14
     /tmp/ccSvzbZj.s:267    .text:0000000000000184 .LVL18
     /tmp/ccSvzbZj.s:166    .text:00000000000000f4 .LVL6
     /tmp/ccSvzbZj.s:177    .text:0000000000000104 .LVL9
     /tmp/ccSvzbZj.s:185    .text:000000000000010c .LVL10
     /tmp/ccSvzbZj.s:195    .text:0000000000000124 .LVL11
     /tmp/ccSvzbZj.s:240    .text:0000000000000164 .LVL15
GAS LISTING /tmp/ccSvzbZj.s 			page 56


     /tmp/ccSvzbZj.s:250    .text:000000000000016c .LVL16
     /tmp/ccSvzbZj.s:1337   .debug_info:0000000000000000 .Ldebug_info0
     /tmp/ccSvzbZj.s:213    .text:0000000000000148 .LBE106
     /tmp/ccSvzbZj.s:215    .text:0000000000000148 .LBB111
     /tmp/ccSvzbZj.s:228    .text:0000000000000160 .LBE111
     /tmp/ccSvzbZj.s:558    .text:0000000000000320 .LBE132
     /tmp/ccSvzbZj.s:565    .text:0000000000000320 .LBB139
     /tmp/ccSvzbZj.s:578    .text:0000000000000328 .LBE139

UNDEFINED SYMBOLS
_ZN5Riscv10popSppSpieEv
_Z11thread_exitv
_Z15thread_dispatchv
CONSOLE_STATUS
_ZN5Riscv9bufferOutE
_ZN7_Buffer3getEv
CONSOLE_TX_DATA
__mem_alloc
_ZN9Scheduler3putEP3TCB
_ZN9Scheduler3getEv
_ZN5Riscv9Rest_PrivEb
_ZN3TCB13contextSwitchEPNS_7ContextES1_
_ZN5Riscv8timelistE
_ZN8TimeList3addEP3TCBm
