GAS LISTING /tmp/ccwe2ZCF.s 			page 1


   1              		.file	"tcb.cpp"
   2              		.option pic
   3              		.option norelax
   4              		.text
   5              	.Ltext0:
   6              		.align	2
   7              		.globl	_ZN3TCB13threadWrapperEv
   9              	_ZN3TCB13threadWrapperEv:
  10              	.LFB115:
  11              		.file 1 "src/tcb.cpp"
   1:src/tcb.cpp   **** //
   2:src/tcb.cpp   **** // Created by os on 7/30/22.
   3:src/tcb.cpp   **** //
   4:src/tcb.cpp   **** 
   5:src/tcb.cpp   **** #include "../h/tcb.hpp"
   6:src/tcb.cpp   **** #include "../h/riscv.hpp"
   7:src/tcb.cpp   **** #include "../h/globals.hpp"
   8:src/tcb.cpp   **** 
   9:src/tcb.cpp   **** uint64 TCB::timeSliceCounter=0;
  10:src/tcb.cpp   **** TCB *TCB::running= nullptr;
  11:src/tcb.cpp   **** 
  12:src/tcb.cpp   **** int TCB::idS=0;
  13:src/tcb.cpp   **** TCB *TCB::initThreadWithRun(Body body,void*arg,uint64*stack) {
  14:src/tcb.cpp   ****     TCB*tcb= new TCB(body,arg,stack);
  15:src/tcb.cpp   ****     tcb->status.delAll();
  16:src/tcb.cpp   ****     tcb->status.setReady();
  17:src/tcb.cpp   ****     Scheduler::put(tcb);
  18:src/tcb.cpp   ****     return tcb;
  19:src/tcb.cpp   **** }
  20:src/tcb.cpp   **** int TCB::start() {
  21:src/tcb.cpp   **** 
  22:src/tcb.cpp   ****     if(!status.getCreated()) return -1;
  23:src/tcb.cpp   ****     status.delAll();
  24:src/tcb.cpp   ****     status.setReady();
  25:src/tcb.cpp   ****     Scheduler::put(this);
  26:src/tcb.cpp   ****     return 0;
  27:src/tcb.cpp   **** }
  28:src/tcb.cpp   **** TCB* TCB::initThreadWithNoRun(Body body, void *arg, uint64 *stack) {
  29:src/tcb.cpp   ****     return new TCB(body,arg,stack);
  30:src/tcb.cpp   **** }
  31:src/tcb.cpp   **** 
  32:src/tcb.cpp   **** void TCB::dispatch(){
  33:src/tcb.cpp   **** 
  34:src/tcb.cpp   ****     TCB* old= running;
  35:src/tcb.cpp   ****     if(old->status.getRunning()) {
  36:src/tcb.cpp   ****         old->status.delAll();
  37:src/tcb.cpp   ****         old->status.setReady();
  38:src/tcb.cpp   ****         Scheduler::put(old);
  39:src/tcb.cpp   ****     }
  40:src/tcb.cpp   ****     running = Scheduler::get();
  41:src/tcb.cpp   ****     if(running){
  42:src/tcb.cpp   ****         running->status.delAll();
  43:src/tcb.cpp   ****         running->status.setRunning();
  44:src/tcb.cpp   ****     }else{
  45:src/tcb.cpp   ****         running=Idle::getIdle();
  46:src/tcb.cpp   ****     }
  47:src/tcb.cpp   ****     Riscv::Rest_Priv(TCB::running->status.getSystematic());
GAS LISTING /tmp/ccwe2ZCF.s 			page 2


  48:src/tcb.cpp   ****     TCB::contextSwitch(&old->context, &running->context);
  49:src/tcb.cpp   **** }
  50:src/tcb.cpp   **** 
  51:src/tcb.cpp   **** void TCB::threadWrapper() {
  12              		.loc 1 51 27
  13              		.cfi_startproc
  14 0000 130101FF 		addi	sp,sp,-16
  15              		.cfi_def_cfa_offset 16
  16 0004 23341100 		sd	ra,8(sp)
  17 0008 23308100 		sd	s0,0(sp)
  18              		.cfi_offset 1, -8
  19              		.cfi_offset 8, -16
  20 000c 13040101 		addi	s0,sp,16
  21              		.cfi_def_cfa 8, 0
  52:src/tcb.cpp   **** 
  53:src/tcb.cpp   ****     Riscv::popSppSpie();
  22              		.loc 1 53 5
  23              		.loc 1 53 22 is_stmt 0
  24 0010 97000000 		call	_ZN5Riscv10popSppSpieEv@plt
  24      E7800000 
  25              	.LVL0:
  54:src/tcb.cpp   ****     running->body(running->arg);
  26              		.loc 1 54 5 is_stmt 1
  27              		.loc 1 54 14 is_stmt 0
  28 0018 97070000 		ld	a5,.LANCHOR0
  28      83B70700 
  29 0020 03B78700 		ld	a4,8(a5)
  30              		.loc 1 54 18
  31 0024 03B50703 		ld	a0,48(a5)
  32 0028 E7000700 		jalr	a4
  33              	.LVL1:
  55:src/tcb.cpp   ****     thread_exit();
  34              		.loc 1 55 5 is_stmt 1
  35              		.loc 1 55 16 is_stmt 0
  36 002c 97000000 		call	_Z11thread_exitv@plt
  36      E7800000 
  37              	.LVL2:
  56:src/tcb.cpp   **** }
  38              		.loc 1 56 1
  39 0034 83308100 		ld	ra,8(sp)
  40              		.cfi_restore 1
  41 0038 03340100 		ld	s0,0(sp)
  42              		.cfi_restore 8
  43              		.cfi_def_cfa 2, 16
  44 003c 13010101 		addi	sp,sp,16
  45              		.cfi_def_cfa_offset 0
  46 0040 67800000 		jr	ra
  47              		.cfi_endproc
  48              	.LFE115:
  50              		.align	2
  51              		.globl	_ZN3TCB17initThreadWithRunEPFvPvES0_Pm
  53              	_ZN3TCB17initThreadWithRunEPFvPvES0_Pm:
  54              	.LFB111:
  13:src/tcb.cpp   ****     TCB*tcb= new TCB(body,arg,stack);
  55              		.loc 1 13 62 is_stmt 1
  56              		.cfi_startproc
  57              	.LVL3:
GAS LISTING /tmp/ccwe2ZCF.s 			page 3


  58 0044 130101FD 		addi	sp,sp,-48
  59              		.cfi_def_cfa_offset 48
  60 0048 23341102 		sd	ra,40(sp)
  61 004c 23308102 		sd	s0,32(sp)
  62 0050 233C9100 		sd	s1,24(sp)
  63 0054 23382101 		sd	s2,16(sp)
  64 0058 23343101 		sd	s3,8(sp)
  65 005c 23304101 		sd	s4,0(sp)
  66              		.cfi_offset 1, -8
  67              		.cfi_offset 8, -16
  68              		.cfi_offset 9, -24
  69              		.cfi_offset 18, -32
  70              		.cfi_offset 19, -40
  71              		.cfi_offset 20, -48
  72 0060 13040103 		addi	s0,sp,48
  73              		.cfi_def_cfa 8, 0
  74 0064 130A0500 		mv	s4,a0
  75 0068 93890500 		mv	s3,a1
  76 006c 13090600 		mv	s2,a2
  14:src/tcb.cpp   ****     tcb->status.delAll();
  77              		.loc 1 14 5
  78              	.LVL4:
  79              	.LBB78:
  80              	.LBB79:
  81              		.file 2 "src/../h/tcb.hpp"
   1:src/../h/tcb.hpp **** //
   2:src/../h/tcb.hpp **** // Created by os on 7/30/22.
   3:src/../h/tcb.hpp **** //
   4:src/../h/tcb.hpp **** 
   5:src/../h/tcb.hpp **** #ifndef OSPROJECT_TCB_HPP
   6:src/../h/tcb.hpp **** #define OSPROJECT_TCB_HPP
   7:src/../h/tcb.hpp **** 
   8:src/../h/tcb.hpp **** #include "../lib/hw.h"
   9:src/../h/tcb.hpp **** #include "scheduler.hpp"
  10:src/../h/tcb.hpp **** 
  11:src/../h/tcb.hpp **** class TCB{
  12:src/../h/tcb.hpp **** 
  13:src/../h/tcb.hpp **** public:
  14:src/../h/tcb.hpp ****     ~TCB(){delete[] stack;}
  15:src/../h/tcb.hpp ****     using Body = void (*)(void*);
  16:src/../h/tcb.hpp ****     static TCB *initThreadWithRun(Body body,void *arg,uint64*stack);
  17:src/../h/tcb.hpp ****     static TCB *initThreadWithNoRun(Body body , void*arg,uint64*stack);
  18:src/../h/tcb.hpp ****     static TCB* running;
  19:src/../h/tcb.hpp ****     bool isFinished(){return status.getFinished();}
  20:src/../h/tcb.hpp ****     uint64 getTimeSlice(){return timeSlice;}
  21:src/../h/tcb.hpp ****     int start();
  22:src/../h/tcb.hpp ****     int getID(){return myId;}
  23:src/../h/tcb.hpp ****     void *operator new(size_t size) { return __mem_alloc(size); }
  82              		.loc 2 23 39
  83              		.loc 2 23 57 is_stmt 0
  84 0070 13050004 		li	a0,64
  85              	.LVL5:
  86 0074 97000000 		call	__mem_alloc@plt
  86      E7800000 
  87              	.LVL6:
  88 007c 93040500 		mv	s1,a0
  89              	.LVL7:
GAS LISTING /tmp/ccwe2ZCF.s 			page 4


  90              	.LBE79:
  91              	.LBE78:
  92              	.LBB80:
  93              	.LBB81:
  24:src/../h/tcb.hpp ****     void operator delete(void *ptr) { __mem_free(ptr); }
  25:src/../h/tcb.hpp **** protected:
  26:src/../h/tcb.hpp ****     static int idS;
  27:src/../h/tcb.hpp ****     int myId;
  28:src/../h/tcb.hpp ****     explicit TCB(Body body,void *arg, uint64 *stack):
  29:src/../h/tcb.hpp ****     body(body),
  30:src/../h/tcb.hpp ****     stack(stack),
  31:src/../h/tcb.hpp ****     arg(arg),
  32:src/../h/tcb.hpp ****     timeSlice(DEFAULT_TIME_SLICE)
  94              		.loc 2 32 33
  95 0080 23344501 		sd	s4,8(a0)
  96 0084 23382501 		sd	s2,16(a0)
  97              	.LVL8:
  98              	.LBB82:
  99              	.LBB83:
  33:src/../h/tcb.hpp ****     {
  34:src/../h/tcb.hpp ****         myId=idS++;
  35:src/../h/tcb.hpp ****         status.setCreated();
  36:src/../h/tcb.hpp ****         context={(uint64) &threadWrapper,
  37:src/../h/tcb.hpp ****                  (uint64) &stack[DEFAULT_STACK_SIZE]};
  38:src/../h/tcb.hpp ****     }
  39:src/../h/tcb.hpp **** 
  40:src/../h/tcb.hpp ****     explicit TCB(){
  41:src/../h/tcb.hpp ****         body= nullptr;
  42:src/../h/tcb.hpp ****         stack= nullptr;
  43:src/../h/tcb.hpp ****         arg= nullptr;
  44:src/../h/tcb.hpp ****         myId=idS++;
  45:src/../h/tcb.hpp ****         timeSlice=DEFAULT_TIME_SLICE;
  46:src/../h/tcb.hpp ****         context = {0, 0};
  47:src/../h/tcb.hpp ****         status.delAll();
  48:src/../h/tcb.hpp ****         status.setRunning();
  49:src/../h/tcb.hpp ****     }
  50:src/../h/tcb.hpp **** 
  51:src/../h/tcb.hpp ****     struct Context
  52:src/../h/tcb.hpp ****     {
  53:src/../h/tcb.hpp ****         uint64 ra;
  54:src/../h/tcb.hpp ****         uint64 sp;
  55:src/../h/tcb.hpp ****     };
  56:src/../h/tcb.hpp ****     struct Status{
 100              		.loc 2 56 12
 101 0088 23040502 		sb	zero,40(a0)
 102 008c A3040502 		sb	zero,41(a0)
 103 0090 23060502 		sb	zero,44(a0)
 104 0094 A3060502 		sb	zero,45(a0)
 105 0098 23070502 		sb	zero,46(a0)
 106 009c A3070502 		sb	zero,47(a0)
 107              	.LVL9:
 108              	.LBE83:
 109              	.LBE82:
  32:src/../h/tcb.hpp ****     {
 110              		.loc 2 32 33
 111 00a0 23383503 		sd	s3,48(a0)
 112 00a4 93072000 		li	a5,2
GAS LISTING /tmp/ccwe2ZCF.s 			page 5


 113 00a8 233CF502 		sd	a5,56(a0)
  34:src/../h/tcb.hpp ****         status.setCreated();
 114              		.loc 2 34 9 is_stmt 1
  34:src/../h/tcb.hpp ****         status.setCreated();
 115              		.loc 2 34 17 is_stmt 0
 116 00ac 17070000 		lla	a4,.LANCHOR0
 116      13070700 
 117 00b4 83278700 		lw	a5,8(a4)
 118 00b8 9B861700 		addiw	a3,a5,1
 119 00bc 2324D700 		sw	a3,8(a4)
  34:src/../h/tcb.hpp ****         status.setCreated();
 120              		.loc 2 34 13
 121 00c0 2320F500 		sw	a5,0(a0)
  35:src/../h/tcb.hpp ****         context={(uint64) &threadWrapper,
 122              		.loc 2 35 9 is_stmt 1
 123              	.LVL10:
 124              	.LBE81:
 125              	.LBE80:
  57:src/../h/tcb.hpp ****         bool FINISHED= false;
  58:src/../h/tcb.hpp ****         bool RUNNING = false;
  59:src/../h/tcb.hpp ****         bool READY= false;
  60:src/../h/tcb.hpp ****         bool CREATED= false;
  61:src/../h/tcb.hpp ****         bool WAITING= false;
  62:src/../h/tcb.hpp ****         bool SLEEPING= false;
  63:src/../h/tcb.hpp ****         bool IDLE= false;
  64:src/../h/tcb.hpp ****         bool SYSTEMATIC= false;
  65:src/../h/tcb.hpp ****     public:
  66:src/../h/tcb.hpp ****         void* operator new(size_t size){return __mem_alloc(size);}
  67:src/../h/tcb.hpp ****         void operator delete (void* ptr){ __mem_free(ptr);}
  68:src/../h/tcb.hpp ****         void setFinished(){FINISHED=true;}
  69:src/../h/tcb.hpp ****         void delFinished(){FINISHED= false;}
  70:src/../h/tcb.hpp ****         void setRunning(){RUNNING=true;}
  71:src/../h/tcb.hpp ****         void delRunning(){RUNNING= false;}
  72:src/../h/tcb.hpp ****         void setReady(){READY=true;}
  73:src/../h/tcb.hpp ****         void delReady(){READY= false;}
  74:src/../h/tcb.hpp ****         void setCreated(){CREATED=true;}
 126              		.loc 2 74 27
 127              	.LBB85:
 128              	.LBB84:
  36:src/../h/tcb.hpp ****                  (uint64) &stack[DEFAULT_STACK_SIZE]};
 129              		.loc 2 36 9
  37:src/../h/tcb.hpp ****     }
 130              		.loc 2 37 27 is_stmt 0
 131 00c4 37860000 		li	a2,32768
 132 00c8 3309C900 		add	s2,s2,a2
 133              	.LVL11:
  36:src/../h/tcb.hpp ****                  (uint64) &stack[DEFAULT_STACK_SIZE]};
 134              		.loc 2 36 16
 135 00cc 97070000 		lla	a5,_ZN3TCB13threadWrapperEv
 135      93870700 
 136 00d4 233CF500 		sd	a5,24(a0)
 137 00d8 23302503 		sd	s2,32(a0)
 138              	.LVL12:
 139              	.LBE84:
 140              	.LBE85:
  15:src/tcb.cpp   ****     tcb->status.setReady();
 141              		.loc 1 15 5 is_stmt 1
GAS LISTING /tmp/ccwe2ZCF.s 			page 6


 142              	.LBB86:
 143              	.LBB87:
  75:src/../h/tcb.hpp ****         void delCreated(){CREATED= false;}
  76:src/../h/tcb.hpp ****         void setWaiting(){WAITING=true;}
  77:src/../h/tcb.hpp ****         void delWaiting(){WAITING= false;}
  78:src/../h/tcb.hpp ****         void setSleeping(){SLEEPING=true;}
  79:src/../h/tcb.hpp ****         void delSleeping(){SLEEPING= false;}
  80:src/../h/tcb.hpp ****         void setIdle(){IDLE=true;}
  81:src/../h/tcb.hpp ****         void delIdle(){IDLE= false;}
  82:src/../h/tcb.hpp ****         bool getFinished(){ return FINISHED;}
  83:src/../h/tcb.hpp ****         bool getRunning(){ return RUNNING;}
  84:src/../h/tcb.hpp ****         bool getReady(){return  READY;}
  85:src/../h/tcb.hpp ****         bool getCreated(){return CREATED;}
  86:src/../h/tcb.hpp ****         bool getWaiting(){return WAITING;}
  87:src/../h/tcb.hpp ****         bool getSleeping(){return SLEEPING;}
  88:src/../h/tcb.hpp ****         bool getIdle(){return IDLE;}
  89:src/../h/tcb.hpp ****         void setSystematic(){ SYSTEMATIC= true;}
  90:src/../h/tcb.hpp ****         bool getSystematic(){return  SYSTEMATIC;}
  91:src/../h/tcb.hpp ****         void delAll(){
  92:src/../h/tcb.hpp ****              FINISHED= false;
 144              		.loc 2 92 14
  93:src/../h/tcb.hpp ****              RUNNING = false;
 145              		.loc 2 93 14
  94:src/../h/tcb.hpp ****              READY= false;
 146              		.loc 2 94 14
  95:src/../h/tcb.hpp ****              CREATED= false;
 147              		.loc 2 95 14
 148              		.loc 2 95 21 is_stmt 0
 149 00dc A3050502 		sb	zero,43(a0)
  96:src/../h/tcb.hpp ****              WAITING= false;
 150              		.loc 2 96 14 is_stmt 1
  97:src/../h/tcb.hpp ****              SLEEPING= false;
 151              		.loc 2 97 14
 152              	.LVL13:
 153              	.LBE87:
 154              	.LBE86:
  16:src/tcb.cpp   ****     Scheduler::put(tcb);
 155              		.loc 1 16 5
 156              	.LBB88:
 157              	.LBB89:
  72:src/../h/tcb.hpp ****         void delReady(){READY= false;}
 158              		.loc 2 72 25
  72:src/../h/tcb.hpp ****         void delReady(){READY= false;}
 159              		.loc 2 72 30 is_stmt 0
 160 00e0 93071000 		li	a5,1
 161 00e4 2305F502 		sb	a5,42(a0)
 162              	.LVL14:
 163              	.LBE89:
 164              	.LBE88:
  17:src/tcb.cpp   ****     return tcb;
 165              		.loc 1 17 5 is_stmt 1
  17:src/tcb.cpp   ****     return tcb;
 166              		.loc 1 17 19 is_stmt 0
 167 00e8 97000000 		call	_ZN9Scheduler3putEP3TCB@plt
 167      E7800000 
 168              	.LVL15:
  18:src/tcb.cpp   **** }
GAS LISTING /tmp/ccwe2ZCF.s 			page 7


 169              		.loc 1 18 5 is_stmt 1
  19:src/tcb.cpp   **** int TCB::start() {
 170              		.loc 1 19 1 is_stmt 0
 171 00f0 13850400 		mv	a0,s1
 172 00f4 83308102 		ld	ra,40(sp)
 173              		.cfi_restore 1
 174 00f8 03340102 		ld	s0,32(sp)
 175              		.cfi_restore 8
 176              		.cfi_def_cfa 2, 48
 177 00fc 83348101 		ld	s1,24(sp)
 178              		.cfi_restore 9
 179              	.LVL16:
 180 0100 03390101 		ld	s2,16(sp)
 181              		.cfi_restore 18
 182              	.LVL17:
 183 0104 83398100 		ld	s3,8(sp)
 184              		.cfi_restore 19
 185              	.LVL18:
 186 0108 033A0100 		ld	s4,0(sp)
 187              		.cfi_restore 20
 188              	.LVL19:
 189 010c 13010103 		addi	sp,sp,48
 190              		.cfi_def_cfa_offset 0
 191 0110 67800000 		jr	ra
 192              		.cfi_endproc
 193              	.LFE111:
 195              		.align	2
 196              		.globl	_ZN3TCB5startEv
 198              	_ZN3TCB5startEv:
 199              	.LFB112:
  20:src/tcb.cpp   **** 
 200              		.loc 1 20 18 is_stmt 1
 201              		.cfi_startproc
 202              	.LVL20:
  22:src/tcb.cpp   ****     status.delAll();
 203              		.loc 1 22 5
 204              	.LBB90:
 205              	.LBB91:
  85:src/../h/tcb.hpp ****         bool getWaiting(){return WAITING;}
 206              		.loc 2 85 27
  85:src/../h/tcb.hpp ****         bool getWaiting(){return WAITING;}
 207              		.loc 2 85 34 is_stmt 0
 208 0114 8347B502 		lbu	a5,43(a0)
 209              	.LVL21:
 210              	.LBE91:
 211              	.LBE90:
  22:src/tcb.cpp   ****     status.delAll();
 212              		.loc 1 22 5
 213 0118 63860704 		beqz	a5,.L7
  20:src/tcb.cpp   **** 
 214              		.loc 1 20 18
 215 011c 130101FF 		addi	sp,sp,-16
 216              		.cfi_def_cfa_offset 16
 217 0120 23341100 		sd	ra,8(sp)
 218 0124 23308100 		sd	s0,0(sp)
 219              		.cfi_offset 1, -8
 220              		.cfi_offset 8, -16
GAS LISTING /tmp/ccwe2ZCF.s 			page 8


 221 0128 13040101 		addi	s0,sp,16
 222              		.cfi_def_cfa 8, 0
  23:src/tcb.cpp   ****     status.setReady();
 223              		.loc 1 23 5 is_stmt 1
 224              	.LVL22:
 225              	.LBB92:
 226              	.LBB93:
  92:src/../h/tcb.hpp ****              RUNNING = false;
 227              		.loc 2 92 14
  92:src/../h/tcb.hpp ****              RUNNING = false;
 228              		.loc 2 92 22 is_stmt 0
 229 012c 23040502 		sb	zero,40(a0)
  93:src/../h/tcb.hpp ****              READY= false;
 230              		.loc 2 93 14 is_stmt 1
  93:src/../h/tcb.hpp ****              READY= false;
 231              		.loc 2 93 22 is_stmt 0
 232 0130 A3040502 		sb	zero,41(a0)
  94:src/../h/tcb.hpp ****              CREATED= false;
 233              		.loc 2 94 14 is_stmt 1
  95:src/../h/tcb.hpp ****              WAITING= false;
 234              		.loc 2 95 14
  95:src/../h/tcb.hpp ****              WAITING= false;
 235              		.loc 2 95 21 is_stmt 0
 236 0134 A3050502 		sb	zero,43(a0)
  96:src/../h/tcb.hpp ****              SLEEPING= false;
 237              		.loc 2 96 14 is_stmt 1
  96:src/../h/tcb.hpp ****              SLEEPING= false;
 238              		.loc 2 96 21 is_stmt 0
 239 0138 23060502 		sb	zero,44(a0)
 240              		.loc 2 97 14 is_stmt 1
 241              		.loc 2 97 22 is_stmt 0
 242 013c A3060502 		sb	zero,45(a0)
 243              	.LVL23:
 244              	.LBE93:
 245              	.LBE92:
  24:src/tcb.cpp   ****     Scheduler::put(this);
 246              		.loc 1 24 5 is_stmt 1
 247              	.LBB94:
 248              	.LBB95:
  72:src/../h/tcb.hpp ****         void delReady(){READY= false;}
 249              		.loc 2 72 25
  72:src/../h/tcb.hpp ****         void delReady(){READY= false;}
 250              		.loc 2 72 30 is_stmt 0
 251 0140 93071000 		li	a5,1
 252 0144 2305F502 		sb	a5,42(a0)
 253              	.LVL24:
 254              	.LBE95:
 255              	.LBE94:
  25:src/tcb.cpp   ****     return 0;
 256              		.loc 1 25 5 is_stmt 1
  25:src/tcb.cpp   ****     return 0;
 257              		.loc 1 25 19 is_stmt 0
 258 0148 97000000 		call	_ZN9Scheduler3putEP3TCB@plt
 258      E7800000 
 259              	.LVL25:
  26:src/tcb.cpp   **** }
 260              		.loc 1 26 5 is_stmt 1
GAS LISTING /tmp/ccwe2ZCF.s 			page 9


  26:src/tcb.cpp   **** }
 261              		.loc 1 26 12 is_stmt 0
 262 0150 13050000 		li	a0,0
  27:src/tcb.cpp   **** TCB* TCB::initThreadWithNoRun(Body body, void *arg, uint64 *stack) {
 263              		.loc 1 27 1
 264 0154 83308100 		ld	ra,8(sp)
 265              		.cfi_restore 1
 266 0158 03340100 		ld	s0,0(sp)
 267              		.cfi_restore 8
 268              		.cfi_def_cfa 2, 16
 269 015c 13010101 		addi	sp,sp,16
 270              		.cfi_def_cfa_offset 0
 271 0160 67800000 		jr	ra
 272              	.LVL26:
 273              	.L7:
  22:src/tcb.cpp   ****     status.delAll();
 274              		.loc 1 22 38
 275 0164 1305F0FF 		li	a0,-1
 276              	.LVL27:
  27:src/tcb.cpp   **** TCB* TCB::initThreadWithNoRun(Body body, void *arg, uint64 *stack) {
 277              		.loc 1 27 1
 278 0168 67800000 		ret
 279              		.cfi_endproc
 280              	.LFE112:
 282              		.align	2
 283              		.globl	_ZN3TCB19initThreadWithNoRunEPFvPvES0_Pm
 285              	_ZN3TCB19initThreadWithNoRunEPFvPvES0_Pm:
 286              	.LFB113:
  28:src/tcb.cpp   ****     return new TCB(body,arg,stack);
 287              		.loc 1 28 68 is_stmt 1
 288              		.cfi_startproc
 289              	.LVL28:
 290 016c 130101FD 		addi	sp,sp,-48
 291              		.cfi_def_cfa_offset 48
 292 0170 23341102 		sd	ra,40(sp)
 293 0174 23308102 		sd	s0,32(sp)
 294 0178 233C9100 		sd	s1,24(sp)
 295 017c 23382101 		sd	s2,16(sp)
 296 0180 23343101 		sd	s3,8(sp)
 297              		.cfi_offset 1, -8
 298              		.cfi_offset 8, -16
 299              		.cfi_offset 9, -24
 300              		.cfi_offset 18, -32
 301              		.cfi_offset 19, -40
 302 0184 13040103 		addi	s0,sp,48
 303              		.cfi_def_cfa 8, 0
 304 0188 93090500 		mv	s3,a0
 305 018c 13890500 		mv	s2,a1
 306 0190 93040600 		mv	s1,a2
  29:src/tcb.cpp   **** }
 307              		.loc 1 29 5
 308              	.LVL29:
 309              	.LBB96:
 310              	.LBB97:
  23:src/../h/tcb.hpp ****     void operator delete(void *ptr) { __mem_free(ptr); }
 311              		.loc 2 23 39
  23:src/../h/tcb.hpp ****     void operator delete(void *ptr) { __mem_free(ptr); }
GAS LISTING /tmp/ccwe2ZCF.s 			page 10


 312              		.loc 2 23 57 is_stmt 0
 313 0194 13050004 		li	a0,64
 314              	.LVL30:
 315 0198 97000000 		call	__mem_alloc@plt
 315      E7800000 
 316              	.LVL31:
 317              	.LBE97:
 318              	.LBE96:
 319              	.LBB98:
 320              	.LBB99:
  32:src/../h/tcb.hpp ****     {
 321              		.loc 2 32 33
 322 01a0 23343501 		sd	s3,8(a0)
 323 01a4 23389500 		sd	s1,16(a0)
 324              	.LVL32:
 325              	.LBB100:
 326              	.LBB101:
  56:src/../h/tcb.hpp ****         bool FINISHED= false;
 327              		.loc 2 56 12
 328 01a8 23040502 		sb	zero,40(a0)
 329 01ac A3040502 		sb	zero,41(a0)
 330 01b0 23050502 		sb	zero,42(a0)
 331 01b4 23060502 		sb	zero,44(a0)
 332 01b8 A3060502 		sb	zero,45(a0)
 333 01bc 23070502 		sb	zero,46(a0)
 334 01c0 A3070502 		sb	zero,47(a0)
 335              	.LVL33:
 336              	.LBE101:
 337              	.LBE100:
  32:src/../h/tcb.hpp ****     {
 338              		.loc 2 32 33
 339 01c4 23382503 		sd	s2,48(a0)
 340 01c8 13072000 		li	a4,2
 341 01cc 233CE502 		sd	a4,56(a0)
  34:src/../h/tcb.hpp ****         status.setCreated();
 342              		.loc 2 34 9 is_stmt 1
  34:src/../h/tcb.hpp ****         status.setCreated();
 343              		.loc 2 34 17 is_stmt 0
 344 01d0 97060000 		lla	a3,.LANCHOR0
 344      93860600 
 345 01d8 03A78600 		lw	a4,8(a3)
 346 01dc 1B061700 		addiw	a2,a4,1
 347 01e0 23A4C600 		sw	a2,8(a3)
  34:src/../h/tcb.hpp ****         status.setCreated();
 348              		.loc 2 34 13
 349 01e4 2320E500 		sw	a4,0(a0)
  35:src/../h/tcb.hpp ****         context={(uint64) &threadWrapper,
 350              		.loc 2 35 9 is_stmt 1
 351              	.LVL34:
 352              	.LBB102:
 353              	.LBB103:
  74:src/../h/tcb.hpp ****         void delCreated(){CREATED= false;}
 354              		.loc 2 74 27
  74:src/../h/tcb.hpp ****         void delCreated(){CREATED= false;}
 355              		.loc 2 74 34 is_stmt 0
 356 01e8 13071000 		li	a4,1
 357 01ec A305E502 		sb	a4,43(a0)
GAS LISTING /tmp/ccwe2ZCF.s 			page 11


 358              	.LVL35:
 359              	.LBE103:
 360              	.LBE102:
  36:src/../h/tcb.hpp ****                  (uint64) &stack[DEFAULT_STACK_SIZE]};
 361              		.loc 2 36 9 is_stmt 1
  37:src/../h/tcb.hpp ****     }
 362              		.loc 2 37 27 is_stmt 0
 363 01f0 37860000 		li	a2,32768
 364 01f4 B384C400 		add	s1,s1,a2
 365              	.LVL36:
  36:src/../h/tcb.hpp ****                  (uint64) &stack[DEFAULT_STACK_SIZE]};
 366              		.loc 2 36 16
 367 01f8 17070000 		lla	a4,_ZN3TCB13threadWrapperEv
 367      13070700 
 368 0200 233CE500 		sd	a4,24(a0)
 369 0204 23309502 		sd	s1,32(a0)
 370              	.LVL37:
 371              	.LBE99:
 372              	.LBE98:
  30:src/tcb.cpp   **** 
 373              		.loc 1 30 1
 374 0208 83308102 		ld	ra,40(sp)
 375              		.cfi_restore 1
 376 020c 03340102 		ld	s0,32(sp)
 377              		.cfi_restore 8
 378              		.cfi_def_cfa 2, 48
 379 0210 83348101 		ld	s1,24(sp)
 380              		.cfi_restore 9
 381 0214 03390101 		ld	s2,16(sp)
 382              		.cfi_restore 18
 383              	.LVL38:
 384 0218 83398100 		ld	s3,8(sp)
 385              		.cfi_restore 19
 386              	.LVL39:
 387 021c 13010103 		addi	sp,sp,48
 388              		.cfi_def_cfa_offset 0
 389 0220 67800000 		jr	ra
 390              		.cfi_endproc
 391              	.LFE113:
 393              		.align	2
 394              		.globl	_ZN3TCB8dispatchEv
 396              	_ZN3TCB8dispatchEv:
 397              	.LFB114:
  32:src/tcb.cpp   **** 
 398              		.loc 1 32 21 is_stmt 1
 399              		.cfi_startproc
 400 0224 130101FE 		addi	sp,sp,-32
 401              		.cfi_def_cfa_offset 32
 402 0228 233C1100 		sd	ra,24(sp)
 403 022c 23388100 		sd	s0,16(sp)
 404 0230 23349100 		sd	s1,8(sp)
 405 0234 23302101 		sd	s2,0(sp)
 406              		.cfi_offset 1, -8
 407              		.cfi_offset 8, -16
 408              		.cfi_offset 9, -24
 409              		.cfi_offset 18, -32
 410 0238 13040102 		addi	s0,sp,32
GAS LISTING /tmp/ccwe2ZCF.s 			page 12


 411              		.cfi_def_cfa 8, 0
  34:src/tcb.cpp   ****     if(old->status.getRunning()) {
 412              		.loc 1 34 5
  34:src/tcb.cpp   ****     if(old->status.getRunning()) {
 413              		.loc 1 34 10 is_stmt 0
 414 023c 97040000 		ld	s1,.LANCHOR0
 414      83B40400 
 415              	.LVL40:
  35:src/tcb.cpp   ****         old->status.delAll();
 416              		.loc 1 35 5 is_stmt 1
 417              	.LBB104:
 418              	.LBB105:
  83:src/../h/tcb.hpp ****         bool getReady(){return  READY;}
 419              		.loc 2 83 28
  83:src/../h/tcb.hpp ****         bool getReady(){return  READY;}
 420              		.loc 2 83 35 is_stmt 0
 421 0244 83C79402 		lbu	a5,41(s1)
 422              	.LVL41:
 423              	.LBE105:
 424              	.LBE104:
  35:src/tcb.cpp   ****         old->status.delAll();
 425              		.loc 1 35 5
 426 0248 639C0706 		bnez	a5,.L19
 427              	.L15:
  40:src/tcb.cpp   ****     if(running){
 428              		.loc 1 40 5 is_stmt 1
  40:src/tcb.cpp   ****     if(running){
 429              		.loc 1 40 29 is_stmt 0
 430 024c 97000000 		call	_ZN9Scheduler3getEv@plt
 430      E7800000 
 431              	.LVL42:
  40:src/tcb.cpp   ****     if(running){
 432              		.loc 1 40 13
 433 0254 97070000 		sd	a0,.LANCHOR0,a5
 433      23B0A700 
  41:src/tcb.cpp   ****         running->status.delAll();
 434              		.loc 1 41 5 is_stmt 1
 435 025c 63080508 		beqz	a0,.L16
  42:src/tcb.cpp   ****         running->status.setRunning();
 436              		.loc 1 42 9
 437              	.LVL43:
 438              	.LBB106:
 439              	.LBB107:
  92:src/../h/tcb.hpp ****              RUNNING = false;
 440              		.loc 2 92 14
  92:src/../h/tcb.hpp ****              RUNNING = false;
 441              		.loc 2 92 22 is_stmt 0
 442 0260 23040502 		sb	zero,40(a0)
  93:src/../h/tcb.hpp ****              READY= false;
 443              		.loc 2 93 14 is_stmt 1
  94:src/../h/tcb.hpp ****              CREATED= false;
 444              		.loc 2 94 14
  94:src/../h/tcb.hpp ****              CREATED= false;
 445              		.loc 2 94 19 is_stmt 0
 446 0264 23050502 		sb	zero,42(a0)
  95:src/../h/tcb.hpp ****              WAITING= false;
 447              		.loc 2 95 14 is_stmt 1
GAS LISTING /tmp/ccwe2ZCF.s 			page 13


  95:src/../h/tcb.hpp ****              WAITING= false;
 448              		.loc 2 95 21 is_stmt 0
 449 0268 A3050502 		sb	zero,43(a0)
  96:src/../h/tcb.hpp ****              SLEEPING= false;
 450              		.loc 2 96 14 is_stmt 1
  96:src/../h/tcb.hpp ****              SLEEPING= false;
 451              		.loc 2 96 21 is_stmt 0
 452 026c 23060502 		sb	zero,44(a0)
 453              		.loc 2 97 14 is_stmt 1
 454              		.loc 2 97 22 is_stmt 0
 455 0270 A3060502 		sb	zero,45(a0)
 456              	.LVL44:
 457              	.LBE107:
 458              	.LBE106:
  43:src/tcb.cpp   ****     }else{
 459              		.loc 1 43 9 is_stmt 1
 460              	.LBB108:
 461              	.LBB109:
  70:src/../h/tcb.hpp ****         void delRunning(){RUNNING= false;}
 462              		.loc 2 70 27
  70:src/../h/tcb.hpp ****         void delRunning(){RUNNING= false;}
 463              		.loc 2 70 34 is_stmt 0
 464 0274 93071000 		li	a5,1
 465 0278 A304F502 		sb	a5,41(a0)
 466              	.LVL45:
 467              	.L17:
 468              	.LBE109:
 469              	.LBE108:
  47:src/tcb.cpp   ****     TCB::contextSwitch(&old->context, &running->context);
 470              		.loc 1 47 5 is_stmt 1
  47:src/tcb.cpp   ****     TCB::contextSwitch(&old->context, &running->context);
 471              		.loc 1 47 36 is_stmt 0
 472 027c 17090000 		lla	s2,.LANCHOR0
 472      13090900 
 473 0284 83370900 		ld	a5,0(s2)
 474              	.LVL46:
 475              	.LBB110:
 476              	.LBB111:
  90:src/../h/tcb.hpp ****         void delAll(){
 477              		.loc 2 90 30 is_stmt 1
 478              	.LBE111:
 479              	.LBE110:
  47:src/tcb.cpp   ****     TCB::contextSwitch(&old->context, &running->context);
 480              		.loc 1 47 21 is_stmt 0
 481 0288 03C5F702 		lbu	a0,47(a5)
 482 028c 97000000 		call	_ZN5Riscv9Rest_PrivEb@plt
 482      E7800000 
 483              	.LVL47:
  48:src/tcb.cpp   **** }
 484              		.loc 1 48 5 is_stmt 1
  48:src/tcb.cpp   **** }
 485              		.loc 1 48 49 is_stmt 0
 486 0294 83350900 		ld	a1,0(s2)
  48:src/tcb.cpp   **** }
 487              		.loc 1 48 23
 488 0298 93858501 		addi	a1,a1,24
 489 029c 13858401 		addi	a0,s1,24
GAS LISTING /tmp/ccwe2ZCF.s 			page 14


 490 02a0 97000000 		call	_ZN3TCB13contextSwitchEPNS_7ContextES1_@plt
 490      E7800000 
 491              	.LVL48:
  49:src/tcb.cpp   **** 
 492              		.loc 1 49 1
 493 02a8 83308101 		ld	ra,24(sp)
 494              		.cfi_remember_state
 495              		.cfi_restore 1
 496 02ac 03340101 		ld	s0,16(sp)
 497              		.cfi_restore 8
 498              		.cfi_def_cfa 2, 32
 499 02b0 83348100 		ld	s1,8(sp)
 500              		.cfi_restore 9
 501              	.LVL49:
 502 02b4 03390100 		ld	s2,0(sp)
 503              		.cfi_restore 18
 504 02b8 13010102 		addi	sp,sp,32
 505              		.cfi_def_cfa_offset 0
 506 02bc 67800000 		jr	ra
 507              	.LVL50:
 508              	.L19:
 509              		.cfi_restore_state
  36:src/tcb.cpp   ****         old->status.setReady();
 510              		.loc 1 36 9 is_stmt 1
 511              	.LBB112:
 512              	.LBB113:
  92:src/../h/tcb.hpp ****              RUNNING = false;
 513              		.loc 2 92 14
  92:src/../h/tcb.hpp ****              RUNNING = false;
 514              		.loc 2 92 22 is_stmt 0
 515 02c0 23840402 		sb	zero,40(s1)
  93:src/../h/tcb.hpp ****              READY= false;
 516              		.loc 2 93 14 is_stmt 1
  93:src/../h/tcb.hpp ****              READY= false;
 517              		.loc 2 93 22 is_stmt 0
 518 02c4 A3840402 		sb	zero,41(s1)
  94:src/../h/tcb.hpp ****              CREATED= false;
 519              		.loc 2 94 14 is_stmt 1
  95:src/../h/tcb.hpp ****              WAITING= false;
 520              		.loc 2 95 14
  95:src/../h/tcb.hpp ****              WAITING= false;
 521              		.loc 2 95 21 is_stmt 0
 522 02c8 A3850402 		sb	zero,43(s1)
  96:src/../h/tcb.hpp ****              SLEEPING= false;
 523              		.loc 2 96 14 is_stmt 1
  96:src/../h/tcb.hpp ****              SLEEPING= false;
 524              		.loc 2 96 21 is_stmt 0
 525 02cc 23860402 		sb	zero,44(s1)
 526              		.loc 2 97 14 is_stmt 1
 527              		.loc 2 97 22 is_stmt 0
 528 02d0 A3860402 		sb	zero,45(s1)
 529              	.LVL51:
 530              	.LBE113:
 531              	.LBE112:
  37:src/tcb.cpp   ****         Scheduler::put(old);
 532              		.loc 1 37 9 is_stmt 1
 533              	.LBB114:
GAS LISTING /tmp/ccwe2ZCF.s 			page 15


 534              	.LBB115:
  72:src/../h/tcb.hpp ****         void delReady(){READY= false;}
 535              		.loc 2 72 25
  72:src/../h/tcb.hpp ****         void delReady(){READY= false;}
 536              		.loc 2 72 30 is_stmt 0
 537 02d4 93071000 		li	a5,1
 538 02d8 2385F402 		sb	a5,42(s1)
 539              	.LVL52:
 540              	.LBE115:
 541              	.LBE114:
  38:src/tcb.cpp   ****     }
 542              		.loc 1 38 9 is_stmt 1
  38:src/tcb.cpp   ****     }
 543              		.loc 1 38 23 is_stmt 0
 544 02dc 13850400 		mv	a0,s1
 545 02e0 97000000 		call	_ZN9Scheduler3putEP3TCB@plt
 545      E7800000 
 546              	.LVL53:
 547 02e8 6FF05FF6 		j	.L15
 548              	.L16:
  45:src/tcb.cpp   ****     }
 549              		.loc 1 45 9 is_stmt 1
  45:src/tcb.cpp   ****     }
 550              		.loc 1 45 30 is_stmt 0
 551 02ec 97000000 		call	_ZN4Idle7getIdleEv@plt
 551      E7800000 
 552              	.LVL54:
  45:src/tcb.cpp   ****     }
 553              		.loc 1 45 16
 554 02f4 97070000 		sd	a0,.LANCHOR0,a5
 554      23B0A700 
 555 02fc 6FF01FF8 		j	.L17
 556              		.cfi_endproc
 557              	.LFE114:
 559              		.align	2
 560              		.globl	_ZN3TCB4exitEv
 562              	_ZN3TCB4exitEv:
 563              	.LFB116:
  57:src/tcb.cpp   **** 
  58:src/tcb.cpp   **** int TCB::exit() {
 564              		.loc 1 58 17 is_stmt 1
 565              		.cfi_startproc
  59:src/tcb.cpp   ****     if(!running->status.getRunning())return -1;
 566              		.loc 1 59 5
 567              		.loc 1 59 18 is_stmt 0
 568 0300 97070000 		ld	a5,.LANCHOR0
 568      83B70700 
 569              	.LVL55:
 570              	.LBB116:
 571              	.LBB117:
  83:src/../h/tcb.hpp ****         bool getReady(){return  READY;}
 572              		.loc 2 83 28 is_stmt 1
  83:src/../h/tcb.hpp ****         bool getReady(){return  READY;}
 573              		.loc 2 83 35 is_stmt 0
 574 0308 03C79702 		lbu	a4,41(a5)
 575              	.LVL56:
 576              	.LBE117:
GAS LISTING /tmp/ccwe2ZCF.s 			page 16


 577              	.LBE116:
 578              		.loc 1 59 5
 579 030c 63060704 		beqz	a4,.L22
  58:src/tcb.cpp   ****     if(!running->status.getRunning())return -1;
 580              		.loc 1 58 17
 581 0310 130101FF 		addi	sp,sp,-16
 582              		.cfi_def_cfa_offset 16
 583 0314 23341100 		sd	ra,8(sp)
 584 0318 23308100 		sd	s0,0(sp)
 585              		.cfi_offset 1, -8
 586              		.cfi_offset 8, -16
 587 031c 13040101 		addi	s0,sp,16
 588              		.cfi_def_cfa 8, 0
  60:src/tcb.cpp   ****     running->status.delAll();
 589              		.loc 1 60 5 is_stmt 1
 590              	.LVL57:
 591              	.LBB118:
 592              	.LBB119:
  92:src/../h/tcb.hpp ****              RUNNING = false;
 593              		.loc 2 92 14
  93:src/../h/tcb.hpp ****              READY= false;
 594              		.loc 2 93 14
  93:src/../h/tcb.hpp ****              READY= false;
 595              		.loc 2 93 22 is_stmt 0
 596 0320 A3840702 		sb	zero,41(a5)
  94:src/../h/tcb.hpp ****              CREATED= false;
 597              		.loc 2 94 14 is_stmt 1
  94:src/../h/tcb.hpp ****              CREATED= false;
 598              		.loc 2 94 19 is_stmt 0
 599 0324 23850702 		sb	zero,42(a5)
  95:src/../h/tcb.hpp ****              WAITING= false;
 600              		.loc 2 95 14 is_stmt 1
  95:src/../h/tcb.hpp ****              WAITING= false;
 601              		.loc 2 95 21 is_stmt 0
 602 0328 A3850702 		sb	zero,43(a5)
  96:src/../h/tcb.hpp ****              SLEEPING= false;
 603              		.loc 2 96 14 is_stmt 1
  96:src/../h/tcb.hpp ****              SLEEPING= false;
 604              		.loc 2 96 21 is_stmt 0
 605 032c 23860702 		sb	zero,44(a5)
 606              		.loc 2 97 14 is_stmt 1
 607              		.loc 2 97 22 is_stmt 0
 608 0330 A3860702 		sb	zero,45(a5)
 609              	.LVL58:
 610              	.LBE119:
 611              	.LBE118:
  61:src/tcb.cpp   ****     running->status.setFinished();
 612              		.loc 1 61 5 is_stmt 1
 613              	.LBB120:
 614              	.LBB121:
  68:src/../h/tcb.hpp ****         void delFinished(){FINISHED= false;}
 615              		.loc 2 68 28
  68:src/../h/tcb.hpp ****         void delFinished(){FINISHED= false;}
 616              		.loc 2 68 36 is_stmt 0
 617 0334 13071000 		li	a4,1
 618 0338 2384E702 		sb	a4,40(a5)
 619              	.LVL59:
GAS LISTING /tmp/ccwe2ZCF.s 			page 17


 620              	.LBE121:
 621              	.LBE120:
  62:src/tcb.cpp   ****     dispatch();
 622              		.loc 1 62 5 is_stmt 1
 623              		.loc 1 62 13 is_stmt 0
 624 033c 97000000 		call	_ZN3TCB8dispatchEv
 624      E7800000 
 625              	.LVL60:
  63:src/tcb.cpp   ****     return 0;
 626              		.loc 1 63 5 is_stmt 1
 627              		.loc 1 63 12 is_stmt 0
 628 0344 13050000 		li	a0,0
  64:src/tcb.cpp   **** }
 629              		.loc 1 64 1
 630 0348 83308100 		ld	ra,8(sp)
 631              		.cfi_restore 1
 632 034c 03340100 		ld	s0,0(sp)
 633              		.cfi_restore 8
 634              		.cfi_def_cfa 2, 16
 635 0350 13010101 		addi	sp,sp,16
 636              		.cfi_def_cfa_offset 0
 637 0354 67800000 		jr	ra
 638              	.L22:
  59:src/tcb.cpp   ****     running->status.delAll();
 639              		.loc 1 59 46
 640 0358 1305F0FF 		li	a0,-1
 641              		.loc 1 64 1
 642 035c 67800000 		ret
 643              		.cfi_endproc
 644              	.LFE116:
 646              		.align	2
 647              		.globl	_ZN3TCB4waitEv
 649              	_ZN3TCB4waitEv:
 650              	.LFB117:
  65:src/tcb.cpp   **** 
  66:src/tcb.cpp   **** int TCB::wait() {
 651              		.loc 1 66 17 is_stmt 1
 652              		.cfi_startproc
  67:src/tcb.cpp   ****     if(!running->status.getRunning())return -1;
 653              		.loc 1 67 5
 654              		.loc 1 67 18 is_stmt 0
 655 0360 97070000 		ld	a5,.LANCHOR0
 655      83B70700 
 656              	.LVL61:
 657              	.LBB122:
 658              	.LBB123:
  83:src/../h/tcb.hpp ****         bool getReady(){return  READY;}
 659              		.loc 2 83 28 is_stmt 1
  83:src/../h/tcb.hpp ****         bool getReady(){return  READY;}
 660              		.loc 2 83 35 is_stmt 0
 661 0368 03C79702 		lbu	a4,41(a5)
 662              	.LVL62:
 663              	.LBE123:
 664              	.LBE122:
 665              		.loc 1 67 5
 666 036c 63060704 		beqz	a4,.L29
  66:src/tcb.cpp   ****     if(!running->status.getRunning())return -1;
GAS LISTING /tmp/ccwe2ZCF.s 			page 18


 667              		.loc 1 66 17
 668 0370 130101FF 		addi	sp,sp,-16
 669              		.cfi_def_cfa_offset 16
 670 0374 23341100 		sd	ra,8(sp)
 671 0378 23308100 		sd	s0,0(sp)
 672              		.cfi_offset 1, -8
 673              		.cfi_offset 8, -16
 674 037c 13040101 		addi	s0,sp,16
 675              		.cfi_def_cfa 8, 0
  68:src/tcb.cpp   ****     running->status.delAll();
 676              		.loc 1 68 5 is_stmt 1
 677              	.LVL63:
 678              	.LBB124:
 679              	.LBB125:
  92:src/../h/tcb.hpp ****              RUNNING = false;
 680              		.loc 2 92 14
  92:src/../h/tcb.hpp ****              RUNNING = false;
 681              		.loc 2 92 22 is_stmt 0
 682 0380 23840702 		sb	zero,40(a5)
  93:src/../h/tcb.hpp ****              READY= false;
 683              		.loc 2 93 14 is_stmt 1
  93:src/../h/tcb.hpp ****              READY= false;
 684              		.loc 2 93 22 is_stmt 0
 685 0384 A3840702 		sb	zero,41(a5)
  94:src/../h/tcb.hpp ****              CREATED= false;
 686              		.loc 2 94 14 is_stmt 1
  94:src/../h/tcb.hpp ****              CREATED= false;
 687              		.loc 2 94 19 is_stmt 0
 688 0388 23850702 		sb	zero,42(a5)
  95:src/../h/tcb.hpp ****              WAITING= false;
 689              		.loc 2 95 14 is_stmt 1
  95:src/../h/tcb.hpp ****              WAITING= false;
 690              		.loc 2 95 21 is_stmt 0
 691 038c A3850702 		sb	zero,43(a5)
  96:src/../h/tcb.hpp ****              SLEEPING= false;
 692              		.loc 2 96 14 is_stmt 1
 693              		.loc 2 97 14
 694              		.loc 2 97 22 is_stmt 0
 695 0390 A3860702 		sb	zero,45(a5)
 696              	.LVL64:
 697              	.LBE125:
 698              	.LBE124:
  69:src/tcb.cpp   ****     running->status.setWaiting();
 699              		.loc 1 69 5 is_stmt 1
 700              	.LBB126:
 701              	.LBB127:
  76:src/../h/tcb.hpp ****         void delWaiting(){WAITING= false;}
 702              		.loc 2 76 27
  76:src/../h/tcb.hpp ****         void delWaiting(){WAITING= false;}
 703              		.loc 2 76 34 is_stmt 0
 704 0394 13071000 		li	a4,1
 705 0398 2386E702 		sb	a4,44(a5)
 706              	.LVL65:
 707              	.LBE127:
 708              	.LBE126:
  70:src/tcb.cpp   ****     dispatch();
 709              		.loc 1 70 5 is_stmt 1
GAS LISTING /tmp/ccwe2ZCF.s 			page 19


 710              		.loc 1 70 13 is_stmt 0
 711 039c 97000000 		call	_ZN3TCB8dispatchEv
 711      E7800000 
 712              	.LVL66:
  71:src/tcb.cpp   ****     return 0;
 713              		.loc 1 71 5 is_stmt 1
 714              		.loc 1 71 12 is_stmt 0
 715 03a4 13050000 		li	a0,0
  72:src/tcb.cpp   **** }
 716              		.loc 1 72 1
 717 03a8 83308100 		ld	ra,8(sp)
 718              		.cfi_restore 1
 719 03ac 03340100 		ld	s0,0(sp)
 720              		.cfi_restore 8
 721              		.cfi_def_cfa 2, 16
 722 03b0 13010101 		addi	sp,sp,16
 723              		.cfi_def_cfa_offset 0
 724 03b4 67800000 		jr	ra
 725              	.L29:
  67:src/tcb.cpp   ****     running->status.delAll();
 726              		.loc 1 67 46
 727 03b8 1305F0FF 		li	a0,-1
 728              		.loc 1 72 1
 729 03bc 67800000 		ret
 730              		.cfi_endproc
 731              	.LFE117:
 733              		.align	2
 734              		.globl	_ZN3TCB6siganlEv
 736              	_ZN3TCB6siganlEv:
 737              	.LFB118:
  73:src/tcb.cpp   **** int TCB::siganl() {
 738              		.loc 1 73 19 is_stmt 1
 739              		.cfi_startproc
 740              	.LVL67:
  74:src/tcb.cpp   ****     if(!status.getWaiting())return -1;
 741              		.loc 1 74 5
 742              	.LBB128:
 743              	.LBB129:
  86:src/../h/tcb.hpp ****         bool getSleeping(){return SLEEPING;}
 744              		.loc 2 86 27
  86:src/../h/tcb.hpp ****         bool getSleeping(){return SLEEPING;}
 745              		.loc 2 86 34 is_stmt 0
 746 03c0 8347C502 		lbu	a5,44(a0)
 747              	.LVL68:
 748              	.LBE129:
 749              	.LBE128:
 750              		.loc 1 74 5
 751 03c4 63860704 		beqz	a5,.L36
  73:src/tcb.cpp   **** int TCB::siganl() {
 752              		.loc 1 73 19
 753 03c8 130101FF 		addi	sp,sp,-16
 754              		.cfi_def_cfa_offset 16
 755 03cc 23341100 		sd	ra,8(sp)
 756 03d0 23308100 		sd	s0,0(sp)
 757              		.cfi_offset 1, -8
 758              		.cfi_offset 8, -16
 759 03d4 13040101 		addi	s0,sp,16
GAS LISTING /tmp/ccwe2ZCF.s 			page 20


 760              		.cfi_def_cfa 8, 0
  75:src/tcb.cpp   ****     status.delAll();
 761              		.loc 1 75 5 is_stmt 1
 762              	.LVL69:
 763              	.LBB130:
 764              	.LBB131:
  92:src/../h/tcb.hpp ****              RUNNING = false;
 765              		.loc 2 92 14
  92:src/../h/tcb.hpp ****              RUNNING = false;
 766              		.loc 2 92 22 is_stmt 0
 767 03d8 23040502 		sb	zero,40(a0)
  93:src/../h/tcb.hpp ****              READY= false;
 768              		.loc 2 93 14 is_stmt 1
  93:src/../h/tcb.hpp ****              READY= false;
 769              		.loc 2 93 22 is_stmt 0
 770 03dc A3040502 		sb	zero,41(a0)
  94:src/../h/tcb.hpp ****              CREATED= false;
 771              		.loc 2 94 14 is_stmt 1
  95:src/../h/tcb.hpp ****              WAITING= false;
 772              		.loc 2 95 14
  95:src/../h/tcb.hpp ****              WAITING= false;
 773              		.loc 2 95 21 is_stmt 0
 774 03e0 A3050502 		sb	zero,43(a0)
  96:src/../h/tcb.hpp ****              SLEEPING= false;
 775              		.loc 2 96 14 is_stmt 1
  96:src/../h/tcb.hpp ****              SLEEPING= false;
 776              		.loc 2 96 21 is_stmt 0
 777 03e4 23060502 		sb	zero,44(a0)
 778              		.loc 2 97 14 is_stmt 1
 779              		.loc 2 97 22 is_stmt 0
 780 03e8 A3060502 		sb	zero,45(a0)
 781              	.LVL70:
 782              	.LBE131:
 783              	.LBE130:
  76:src/tcb.cpp   ****     status.setReady();
 784              		.loc 1 76 5 is_stmt 1
 785              	.LBB132:
 786              	.LBB133:
  72:src/../h/tcb.hpp ****         void delReady(){READY= false;}
 787              		.loc 2 72 25
  72:src/../h/tcb.hpp ****         void delReady(){READY= false;}
 788              		.loc 2 72 30 is_stmt 0
 789 03ec 93071000 		li	a5,1
 790 03f0 2305F502 		sb	a5,42(a0)
 791              	.LVL71:
 792              	.LBE133:
 793              	.LBE132:
  77:src/tcb.cpp   ****     Scheduler::put(this);
 794              		.loc 1 77 5 is_stmt 1
 795              		.loc 1 77 19 is_stmt 0
 796 03f4 97000000 		call	_ZN9Scheduler3putEP3TCB@plt
 796      E7800000 
 797              	.LVL72:
  78:src/tcb.cpp   ****     return 0;
 798              		.loc 1 78 5 is_stmt 1
 799              		.loc 1 78 12 is_stmt 0
 800 03fc 13050000 		li	a0,0
GAS LISTING /tmp/ccwe2ZCF.s 			page 21


  79:src/tcb.cpp   **** }
 801              		.loc 1 79 1
 802 0400 83308100 		ld	ra,8(sp)
 803              		.cfi_restore 1
 804 0404 03340100 		ld	s0,0(sp)
 805              		.cfi_restore 8
 806              		.cfi_def_cfa 2, 16
 807 0408 13010101 		addi	sp,sp,16
 808              		.cfi_def_cfa_offset 0
 809 040c 67800000 		jr	ra
 810              	.LVL73:
 811              	.L36:
  74:src/tcb.cpp   ****     status.delAll();
 812              		.loc 1 74 37
 813 0410 1305F0FF 		li	a0,-1
 814              	.LVL74:
 815              		.loc 1 79 1
 816 0414 67800000 		ret
 817              		.cfi_endproc
 818              	.LFE118:
 820              		.align	2
 821              		.globl	_ZN3TCB5sleepEm
 823              	_ZN3TCB5sleepEm:
 824              	.LFB119:
  80:src/tcb.cpp   **** 
  81:src/tcb.cpp   **** int TCB::sleep(time_t tm) {
 825              		.loc 1 81 27 is_stmt 1
 826              		.cfi_startproc
 827              	.LVL75:
  82:src/tcb.cpp   ****     if(!running->status.getRunning())return -1;
 828              		.loc 1 82 5
 829              		.loc 1 82 18 is_stmt 0
 830 0418 97050000 		ld	a1,.LANCHOR0
 830      83B50500 
 831              	.LVL76:
 832              	.LBB134:
 833              	.LBB135:
  83:src/../h/tcb.hpp ****         bool getReady(){return  READY;}
 834              		.loc 2 83 28 is_stmt 1
  83:src/../h/tcb.hpp ****         bool getReady(){return  READY;}
 835              		.loc 2 83 35 is_stmt 0
 836 0420 83C79502 		lbu	a5,41(a1)
 837              	.LVL77:
 838              	.LBE135:
 839              	.LBE134:
 840              		.loc 1 82 5
 841 0424 63820706 		beqz	a5,.L43
  81:src/tcb.cpp   ****     if(!running->status.getRunning())return -1;
 842              		.loc 1 81 27
 843 0428 130101FF 		addi	sp,sp,-16
 844              		.cfi_def_cfa_offset 16
 845 042c 23341100 		sd	ra,8(sp)
 846 0430 23308100 		sd	s0,0(sp)
 847              		.cfi_offset 1, -8
 848              		.cfi_offset 8, -16
 849 0434 13040101 		addi	s0,sp,16
 850              		.cfi_def_cfa 8, 0
GAS LISTING /tmp/ccwe2ZCF.s 			page 22


 851 0438 13060500 		mv	a2,a0
  83:src/tcb.cpp   **** 
  84:src/tcb.cpp   ****         running->status.delAll();
 852              		.loc 1 84 9 is_stmt 1
 853              	.LVL78:
 854              	.LBB136:
 855              	.LBB137:
  92:src/../h/tcb.hpp ****              RUNNING = false;
 856              		.loc 2 92 14
  92:src/../h/tcb.hpp ****              RUNNING = false;
 857              		.loc 2 92 22 is_stmt 0
 858 043c 23840502 		sb	zero,40(a1)
  93:src/../h/tcb.hpp ****              READY= false;
 859              		.loc 2 93 14 is_stmt 1
  93:src/../h/tcb.hpp ****              READY= false;
 860              		.loc 2 93 22 is_stmt 0
 861 0440 A3840502 		sb	zero,41(a1)
  94:src/../h/tcb.hpp ****              CREATED= false;
 862              		.loc 2 94 14 is_stmt 1
  94:src/../h/tcb.hpp ****              CREATED= false;
 863              		.loc 2 94 19 is_stmt 0
 864 0444 23850502 		sb	zero,42(a1)
  95:src/../h/tcb.hpp ****              WAITING= false;
 865              		.loc 2 95 14 is_stmt 1
  95:src/../h/tcb.hpp ****              WAITING= false;
 866              		.loc 2 95 21 is_stmt 0
 867 0448 A3850502 		sb	zero,43(a1)
  96:src/../h/tcb.hpp ****              SLEEPING= false;
 868              		.loc 2 96 14 is_stmt 1
  96:src/../h/tcb.hpp ****              SLEEPING= false;
 869              		.loc 2 96 21 is_stmt 0
 870 044c 23860502 		sb	zero,44(a1)
 871              		.loc 2 97 14 is_stmt 1
 872              	.LVL79:
 873              	.LBE137:
 874              	.LBE136:
  85:src/tcb.cpp   ****         running->status.setSleeping();
 875              		.loc 1 85 9
 876              	.LBB138:
 877              	.LBB139:
  78:src/../h/tcb.hpp ****         void delSleeping(){SLEEPING= false;}
 878              		.loc 2 78 28
  78:src/../h/tcb.hpp ****         void delSleeping(){SLEEPING= false;}
 879              		.loc 2 78 36 is_stmt 0
 880 0450 93071000 		li	a5,1
 881 0454 A386F502 		sb	a5,45(a1)
 882              	.LVL80:
 883              	.LBE139:
 884              	.LBE138:
  86:src/tcb.cpp   ****     StruLisBuf::timelist->add(running, tm);
 885              		.loc 1 86 5 is_stmt 1
 886              		.loc 1 86 30 is_stmt 0
 887 0458 97070000 		la	a5,_ZN10StruLisBuf8timelistE
 887      83B70700 
 888 0460 03B50700 		ld	a0,0(a5)
 889              	.LVL81:
 890 0464 97000000 		call	_ZN8TimeList3addEP3TCBm@plt
GAS LISTING /tmp/ccwe2ZCF.s 			page 23


 890      E7800000 
 891              	.LVL82:
  87:src/tcb.cpp   ****         dispatch();
 892              		.loc 1 87 9 is_stmt 1
 893              		.loc 1 87 17 is_stmt 0
 894 046c 97000000 		call	_ZN3TCB8dispatchEv
 894      E7800000 
 895              	.LVL83:
  88:src/tcb.cpp   ****         return 0;
 896              		.loc 1 88 9 is_stmt 1
 897              		.loc 1 88 16 is_stmt 0
 898 0474 13050000 		li	a0,0
  89:src/tcb.cpp   **** 
  90:src/tcb.cpp   **** }
 899              		.loc 1 90 1
 900 0478 83308100 		ld	ra,8(sp)
 901              		.cfi_restore 1
 902 047c 03340100 		ld	s0,0(sp)
 903              		.cfi_restore 8
 904              		.cfi_def_cfa 2, 16
 905 0480 13010101 		addi	sp,sp,16
 906              		.cfi_def_cfa_offset 0
 907 0484 67800000 		jr	ra
 908              	.LVL84:
 909              	.L43:
  82:src/tcb.cpp   **** 
 910              		.loc 1 82 46
 911 0488 1305F0FF 		li	a0,-1
 912              	.LVL85:
 913              		.loc 1 90 1
 914 048c 67800000 		ret
 915              		.cfi_endproc
 916              	.LFE119:
 918              		.align	2
 919              		.globl	_ZN3TCB6wakeUpEv
 921              	_ZN3TCB6wakeUpEv:
 922              	.LFB120:
  91:src/tcb.cpp   **** int TCB::wakeUp() {
 923              		.loc 1 91 19 is_stmt 1
 924              		.cfi_startproc
 925              	.LVL86:
  92:src/tcb.cpp   ****     {
 926              		.loc 1 92 5
  93:src/tcb.cpp   ****         if(!status.getSleeping())return -1;
 927              		.loc 1 93 9
 928              	.LBB140:
 929              	.LBB141:
  87:src/../h/tcb.hpp ****         bool getIdle(){return IDLE;}
 930              		.loc 2 87 28
  87:src/../h/tcb.hpp ****         bool getIdle(){return IDLE;}
 931              		.loc 2 87 35 is_stmt 0
 932 0490 8347D502 		lbu	a5,45(a0)
 933              	.LVL87:
 934              	.LBE141:
 935              	.LBE140:
 936              		.loc 1 93 9
 937 0494 63860704 		beqz	a5,.L50
GAS LISTING /tmp/ccwe2ZCF.s 			page 24


  91:src/tcb.cpp   ****     {
 938              		.loc 1 91 19
 939 0498 130101FF 		addi	sp,sp,-16
 940              		.cfi_def_cfa_offset 16
 941 049c 23341100 		sd	ra,8(sp)
 942 04a0 23308100 		sd	s0,0(sp)
 943              		.cfi_offset 1, -8
 944              		.cfi_offset 8, -16
 945 04a4 13040101 		addi	s0,sp,16
 946              		.cfi_def_cfa 8, 0
  94:src/tcb.cpp   ****         status.delAll();
 947              		.loc 1 94 9 is_stmt 1
 948              	.LVL88:
 949              	.LBB142:
 950              	.LBB143:
  92:src/../h/tcb.hpp ****              RUNNING = false;
 951              		.loc 2 92 14
  92:src/../h/tcb.hpp ****              RUNNING = false;
 952              		.loc 2 92 22 is_stmt 0
 953 04a8 23040502 		sb	zero,40(a0)
  93:src/../h/tcb.hpp ****              READY= false;
 954              		.loc 2 93 14 is_stmt 1
  93:src/../h/tcb.hpp ****              READY= false;
 955              		.loc 2 93 22 is_stmt 0
 956 04ac A3040502 		sb	zero,41(a0)
  94:src/../h/tcb.hpp ****              CREATED= false;
 957              		.loc 2 94 14 is_stmt 1
  95:src/../h/tcb.hpp ****              WAITING= false;
 958              		.loc 2 95 14
  95:src/../h/tcb.hpp ****              WAITING= false;
 959              		.loc 2 95 21 is_stmt 0
 960 04b0 A3050502 		sb	zero,43(a0)
  96:src/../h/tcb.hpp ****              SLEEPING= false;
 961              		.loc 2 96 14 is_stmt 1
  96:src/../h/tcb.hpp ****              SLEEPING= false;
 962              		.loc 2 96 21 is_stmt 0
 963 04b4 23060502 		sb	zero,44(a0)
 964              		.loc 2 97 14 is_stmt 1
 965              		.loc 2 97 22 is_stmt 0
 966 04b8 A3060502 		sb	zero,45(a0)
 967              	.LVL89:
 968              	.LBE143:
 969              	.LBE142:
  95:src/tcb.cpp   ****         status.setReady();
 970              		.loc 1 95 9 is_stmt 1
 971              	.LBB144:
 972              	.LBB145:
  72:src/../h/tcb.hpp ****         void delReady(){READY= false;}
 973              		.loc 2 72 25
  72:src/../h/tcb.hpp ****         void delReady(){READY= false;}
 974              		.loc 2 72 30 is_stmt 0
 975 04bc 93071000 		li	a5,1
 976 04c0 2305F502 		sb	a5,42(a0)
 977              	.LVL90:
 978              	.LBE145:
 979              	.LBE144:
  96:src/tcb.cpp   ****         Scheduler::put(this);
GAS LISTING /tmp/ccwe2ZCF.s 			page 25


 980              		.loc 1 96 9 is_stmt 1
 981              		.loc 1 96 23 is_stmt 0
 982 04c4 97000000 		call	_ZN9Scheduler3putEP3TCB@plt
 982      E7800000 
 983              	.LVL91:
  97:src/tcb.cpp   ****         return 0;
 984              		.loc 1 97 9 is_stmt 1
 985              		.loc 1 97 16 is_stmt 0
 986 04cc 13050000 		li	a0,0
  98:src/tcb.cpp   ****     }
  99:src/tcb.cpp   **** }
 987              		.loc 1 99 1
 988 04d0 83308100 		ld	ra,8(sp)
 989              		.cfi_restore 1
 990 04d4 03340100 		ld	s0,0(sp)
 991              		.cfi_restore 8
 992              		.cfi_def_cfa 2, 16
 993 04d8 13010101 		addi	sp,sp,16
 994              		.cfi_def_cfa_offset 0
 995 04dc 67800000 		jr	ra
 996              	.LVL92:
 997              	.L50:
  93:src/tcb.cpp   ****         status.delAll();
 998              		.loc 1 93 42
 999 04e0 1305F0FF 		li	a0,-1
 1000              	.LVL93:
 1001              		.loc 1 99 1
 1002 04e4 67800000 		ret
 1003              		.cfi_endproc
 1004              	.LFE120:
 1006              		.globl	_ZN3TCB3idSE
 1007              		.globl	_ZN3TCB7runningE
 1008              		.globl	_ZN3TCB16timeSliceCounterE
 1009              		.bss
 1010              		.align	3
 1011              		.set	.LANCHOR0,. + 0
 1014              	_ZN3TCB7runningE:
 1015 0000 00000000 		.zero	8
 1015      00000000 
 1018              	_ZN3TCB3idSE:
 1019 0008 00000000 		.zero	4
 1020 000c 00000000 		.zero	4
 1023              	_ZN3TCB16timeSliceCounterE:
 1024 0010 00000000 		.zero	8
 1024      00000000 
 1025              		.text
 1026              	.Letext0:
 1027              		.file 3 "src/../h/../lib/hw.h"
 1028              		.file 4 "src/../h/scheduler.hpp"
 1029              		.file 5 "src/../h/TimeList.hpp"
 1030              		.file 6 "src/../h/list.hpp"
 1031              		.file 7 "src/../h/riscv.hpp"
 1032              		.file 8 "src/../h/globals.hpp"
 1033              		.file 9 "src/../h/syscall_c.hpp"
 1034              		.file 10 "src/../h/../lib/mem.h"
GAS LISTING /tmp/ccwe2ZCF.s 			page 26

