GAS LISTING /tmp/cclQ52mq.s 			page 1


   1              		.file	"Thread.cpp"
   2              		.option pic
   3              		.option norelax
   4              		.text
   5              	.Ltext0:
   6              		.section	.text._ZN6Thread3runEv,"axG",@progbits,_ZN6Thread3runEv,comdat
   7              		.align	2
   8              		.weak	_ZN6Thread3runEv
  10              	_ZN6Thread3runEv:
  11              	.LFB0:
  12              		.file 1 "src/../h/syscall_cpp.hpp"
   1:src/../h/syscall_cpp.hpp **** //
   2:src/../h/syscall_cpp.hpp **** // Created by os on 7/20/22.
   3:src/../h/syscall_cpp.hpp **** //
   4:src/../h/syscall_cpp.hpp **** 
   5:src/../h/syscall_cpp.hpp **** #ifndef OSPROJECT_SYSCALL_CPP_HPP
   6:src/../h/syscall_cpp.hpp **** #define OSPROJECT_SYSCALL_CPP_HPP
   7:src/../h/syscall_cpp.hpp **** #include "syscall_c.hpp"
   8:src/../h/syscall_cpp.hpp **** void *operator new(size_t);
   9:src/../h/syscall_cpp.hpp **** void operator delete(void*);
  10:src/../h/syscall_cpp.hpp **** class Thread {
  11:src/../h/syscall_cpp.hpp **** public:
  12:src/../h/syscall_cpp.hpp ****     Thread (void (*body)(void*), void* arg);
  13:src/../h/syscall_cpp.hpp ****     virtual ~Thread ();
  14:src/../h/syscall_cpp.hpp ****     int start ();
  15:src/../h/syscall_cpp.hpp ****     static void dispatch ();
  16:src/../h/syscall_cpp.hpp ****     static int sleep (time_t);
  17:src/../h/syscall_cpp.hpp ****     static  void ThreadWrapper(void*);
  18:src/../h/syscall_cpp.hpp **** 
  19:src/../h/syscall_cpp.hpp **** protected:
  20:src/../h/syscall_cpp.hpp ****     Thread();
  21:src/../h/syscall_cpp.hpp ****     virtual void run () {}
  13              		.loc 1 21 18
  14              		.cfi_startproc
  15              	.LVL0:
  16 0000 130101FF 		addi	sp,sp,-16
  17              		.cfi_def_cfa_offset 16
  18 0004 23348100 		sd	s0,8(sp)
  19              		.cfi_offset 8, -8
  20 0008 13040101 		addi	s0,sp,16
  21              		.cfi_def_cfa 8, 0
  22              		.loc 1 21 26 is_stmt 0
  23 000c 03348100 		ld	s0,8(sp)
  24              		.cfi_restore 8
  25              		.cfi_def_cfa 2, 16
  26 0010 13010101 		addi	sp,sp,16
  27              		.cfi_def_cfa_offset 0
  28 0014 67800000 		jr	ra
  29              		.cfi_endproc
  30              	.LFE0:
  32              		.text
  33              		.align	2
  34              		.globl	_ZN6Thread13ThreadWrapperEPv
  36              	_ZN6Thread13ThreadWrapperEPv:
  37              	.LFB12:
  38              		.file 2 "src/Thread.cpp"
   1:src/Thread.cpp **** //
GAS LISTING /tmp/cclQ52mq.s 			page 2


   2:src/Thread.cpp **** // Created by os on 8/16/22.
   3:src/Thread.cpp **** //
   4:src/Thread.cpp **** 
   5:src/Thread.cpp **** #include "../h/syscall_cpp.hpp"
   6:src/Thread.cpp **** 
   7:src/Thread.cpp **** Thread::Thread(void (*body)(void *), void *args) {
   8:src/Thread.cpp ****     thread_prepare(&myHandle,body,args);
   9:src/Thread.cpp **** }
  10:src/Thread.cpp **** 
  11:src/Thread.cpp **** Thread::~Thread()  {
  12:src/Thread.cpp **** 
  13:src/Thread.cpp ****     thread_delete(myHandle);
  14:src/Thread.cpp **** 
  15:src/Thread.cpp **** }
  16:src/Thread.cpp **** 
  17:src/Thread.cpp **** int Thread::start() {
  18:src/Thread.cpp ****     return thread_start(myHandle);
  19:src/Thread.cpp **** }
  20:src/Thread.cpp **** void Thread::dispatch() {
  21:src/Thread.cpp ****     thread_dispatch();
  22:src/Thread.cpp **** }
  23:src/Thread.cpp **** int Thread::sleep(time_t time) {
  24:src/Thread.cpp ****     return  time_sleep(time);
  25:src/Thread.cpp **** }
  26:src/Thread.cpp **** void Thread::ThreadWrapper(void * ptr) {
  39              		.loc 2 26 40 is_stmt 1
  40              		.cfi_startproc
  41              	.LVL1:
  42 0000 130101FF 		addi	sp,sp,-16
  43              		.cfi_def_cfa_offset 16
  44 0004 23341100 		sd	ra,8(sp)
  45 0008 23308100 		sd	s0,0(sp)
  46              		.cfi_offset 1, -8
  47              		.cfi_offset 8, -16
  48 000c 13040101 		addi	s0,sp,16
  49              		.cfi_def_cfa 8, 0
  27:src/Thread.cpp ****     ((Thread*)ptr)->run();
  50              		.loc 2 27 5
  51              		.loc 2 27 25 is_stmt 0
  52 0010 83370500 		ld	a5,0(a0)
  53 0014 83B70701 		ld	a5,16(a5)
  54              		.loc 2 27 24
  55 0018 E7800700 		jalr	a5
  56              	.LVL2:
  28:src/Thread.cpp **** }
  57              		.loc 2 28 1
  58 001c 83308100 		ld	ra,8(sp)
  59              		.cfi_restore 1
  60 0020 03340100 		ld	s0,0(sp)
  61              		.cfi_restore 8
  62              		.cfi_def_cfa 2, 16
  63 0024 13010101 		addi	sp,sp,16
  64              		.cfi_def_cfa_offset 0
  65 0028 67800000 		jr	ra
  66              		.cfi_endproc
  67              	.LFE12:
  69              		.align	2
GAS LISTING /tmp/cclQ52mq.s 			page 3


  70              		.globl	_ZN6ThreadD2Ev
  72              	_ZN6ThreadD2Ev:
  73              	.LFB6:
  11:src/Thread.cpp **** 
  74              		.loc 2 11 1 is_stmt 1
  75              		.cfi_startproc
  76              		.cfi_personality 0x9b,DW.ref.__gxx_personality_v0
  77              		.cfi_lsda 0x1b,.LLSDA6
  78              	.LVL3:
  79 002c 130101FF 		addi	sp,sp,-16
  80              		.cfi_def_cfa_offset 16
  81 0030 23341100 		sd	ra,8(sp)
  82 0034 23308100 		sd	s0,0(sp)
  83              		.cfi_offset 1, -8
  84              		.cfi_offset 8, -16
  85 0038 13040101 		addi	s0,sp,16
  86              		.cfi_def_cfa 8, 0
  87              	.LBB2:
  11:src/Thread.cpp **** 
  88              		.loc 2 11 17 is_stmt 0
  89 003c 97070000 		lla	a5,_ZTV6Thread+16
  89      93870700 
  90 0044 2330F500 		sd	a5,0(a0)
  13:src/Thread.cpp **** 
  91              		.loc 2 13 5 is_stmt 1
  13:src/Thread.cpp **** 
  92              		.loc 2 13 18 is_stmt 0
  93 0048 03358500 		ld	a0,8(a0)
  94              	.LVL4:
  95 004c 97000000 		call	_Z13thread_deleteP3TCB@plt
  95      E7800000 
  96              	.LVL5:
  97              	.LBE2:
  15:src/Thread.cpp **** 
  98              		.loc 2 15 1
  99 0054 83308100 		ld	ra,8(sp)
 100              		.cfi_restore 1
 101 0058 03340100 		ld	s0,0(sp)
 102              		.cfi_restore 8
 103              		.cfi_def_cfa 2, 16
 104 005c 13010101 		addi	sp,sp,16
 105              		.cfi_def_cfa_offset 0
 106 0060 67800000 		jr	ra
 107              		.cfi_endproc
 108              	.LFE6:
 109              		.globl	__gxx_personality_v0
 110              		.section	.gcc_except_table,"a",@progbits
 111              	.LLSDA6:
 112 0000 FF       		.byte	0xff
 113 0001 FF       		.byte	0xff
 114 0002 03       		.byte	0x3
 115 0003 00       		.byte	0
 116              		.text
 118              		.globl	_ZN6ThreadD1Ev
 119              		.set	_ZN6ThreadD1Ev,_ZN6ThreadD2Ev
 120              		.align	2
 121              		.globl	_ZN6ThreadD0Ev
GAS LISTING /tmp/cclQ52mq.s 			page 4


 123              	_ZN6ThreadD0Ev:
 124              	.LFB8:
  11:src/Thread.cpp **** 
 125              		.loc 2 11 1 is_stmt 1
 126              		.cfi_startproc
 127              	.LVL6:
 128 0064 130101FE 		addi	sp,sp,-32
 129              		.cfi_def_cfa_offset 32
 130 0068 233C1100 		sd	ra,24(sp)
 131 006c 23388100 		sd	s0,16(sp)
 132 0070 23349100 		sd	s1,8(sp)
 133              		.cfi_offset 1, -8
 134              		.cfi_offset 8, -16
 135              		.cfi_offset 9, -24
 136 0074 13040102 		addi	s0,sp,32
 137              		.cfi_def_cfa 8, 0
 138 0078 93040500 		mv	s1,a0
  15:src/Thread.cpp **** 
 139              		.loc 2 15 1 is_stmt 0
 140 007c 97000000 		call	_ZN6ThreadD1Ev
 140      E7800000 
 141              	.LVL7:
 142 0084 13850400 		mv	a0,s1
 143 0088 97000000 		call	_ZdlPv@plt
 143      E7800000 
 144              	.LVL8:
 145 0090 83308101 		ld	ra,24(sp)
 146              		.cfi_restore 1
 147 0094 03340101 		ld	s0,16(sp)
 148              		.cfi_restore 8
 149              		.cfi_def_cfa 2, 32
 150 0098 83348100 		ld	s1,8(sp)
 151              		.cfi_restore 9
 152              	.LVL9:
 153 009c 13010102 		addi	sp,sp,32
 154              		.cfi_def_cfa_offset 0
 155 00a0 67800000 		jr	ra
 156              		.cfi_endproc
 157              	.LFE8:
 159              		.align	2
 160              		.globl	_ZN6ThreadC2EPFvPvES0_
 162              	_ZN6ThreadC2EPFvPvES0_:
 163              	.LFB3:
   7:src/Thread.cpp ****     thread_prepare(&myHandle,body,args);
 164              		.loc 2 7 1 is_stmt 1
 165              		.cfi_startproc
 166              	.LVL10:
 167 00a4 130101FF 		addi	sp,sp,-16
 168              		.cfi_def_cfa_offset 16
 169 00a8 23341100 		sd	ra,8(sp)
 170 00ac 23308100 		sd	s0,0(sp)
 171              		.cfi_offset 1, -8
 172              		.cfi_offset 8, -16
 173 00b0 13040101 		addi	s0,sp,16
 174              		.cfi_def_cfa 8, 0
 175              	.LBB3:
   7:src/Thread.cpp ****     thread_prepare(&myHandle,body,args);
GAS LISTING /tmp/cclQ52mq.s 			page 5


 176              		.loc 2 7 48 is_stmt 0
 177 00b4 97070000 		lla	a5,_ZTV6Thread+16
 177      93870700 
 178 00bc 2330F500 		sd	a5,0(a0)
   8:src/Thread.cpp **** }
 179              		.loc 2 8 5 is_stmt 1
   8:src/Thread.cpp **** }
 180              		.loc 2 8 19 is_stmt 0
 181 00c0 13058500 		addi	a0,a0,8
 182              	.LVL11:
 183 00c4 97000000 		call	_Z14thread_preparePP3TCBPFvPvES2_@plt
 183      E7800000 
 184              	.LVL12:
 185              	.LBE3:
   9:src/Thread.cpp **** 
 186              		.loc 2 9 1
 187 00cc 83308100 		ld	ra,8(sp)
 188              		.cfi_restore 1
 189 00d0 03340100 		ld	s0,0(sp)
 190              		.cfi_restore 8
 191              		.cfi_def_cfa 2, 16
 192 00d4 13010101 		addi	sp,sp,16
 193              		.cfi_def_cfa_offset 0
 194 00d8 67800000 		jr	ra
 195              		.cfi_endproc
 196              	.LFE3:
 198              		.globl	_ZN6ThreadC1EPFvPvES0_
 199              		.set	_ZN6ThreadC1EPFvPvES0_,_ZN6ThreadC2EPFvPvES0_
 200              		.align	2
 201              		.globl	_ZN6Thread5startEv
 203              	_ZN6Thread5startEv:
 204              	.LFB9:
  17:src/Thread.cpp ****     return thread_start(myHandle);
 205              		.loc 2 17 21 is_stmt 1
 206              		.cfi_startproc
 207              	.LVL13:
 208 00dc 130101FF 		addi	sp,sp,-16
 209              		.cfi_def_cfa_offset 16
 210 00e0 23341100 		sd	ra,8(sp)
 211 00e4 23308100 		sd	s0,0(sp)
 212              		.cfi_offset 1, -8
 213              		.cfi_offset 8, -16
 214 00e8 13040101 		addi	s0,sp,16
 215              		.cfi_def_cfa 8, 0
  18:src/Thread.cpp **** }
 216              		.loc 2 18 5
  18:src/Thread.cpp **** }
 217              		.loc 2 18 24 is_stmt 0
 218 00ec 03358500 		ld	a0,8(a0)
 219              	.LVL14:
 220 00f0 97000000 		call	_Z12thread_startP3TCB@plt
 220      E7800000 
 221              	.LVL15:
  19:src/Thread.cpp **** void Thread::dispatch() {
 222              		.loc 2 19 1
 223 00f8 83308100 		ld	ra,8(sp)
 224              		.cfi_restore 1
GAS LISTING /tmp/cclQ52mq.s 			page 6


 225 00fc 03340100 		ld	s0,0(sp)
 226              		.cfi_restore 8
 227              		.cfi_def_cfa 2, 16
 228 0100 13010101 		addi	sp,sp,16
 229              		.cfi_def_cfa_offset 0
 230 0104 67800000 		jr	ra
 231              		.cfi_endproc
 232              	.LFE9:
 234              		.align	2
 235              		.globl	_ZN6Thread8dispatchEv
 237              	_ZN6Thread8dispatchEv:
 238              	.LFB10:
  20:src/Thread.cpp ****     thread_dispatch();
 239              		.loc 2 20 25 is_stmt 1
 240              		.cfi_startproc
 241 0108 130101FF 		addi	sp,sp,-16
 242              		.cfi_def_cfa_offset 16
 243 010c 23341100 		sd	ra,8(sp)
 244 0110 23308100 		sd	s0,0(sp)
 245              		.cfi_offset 1, -8
 246              		.cfi_offset 8, -16
 247 0114 13040101 		addi	s0,sp,16
 248              		.cfi_def_cfa 8, 0
  21:src/Thread.cpp **** }
 249              		.loc 2 21 5
  21:src/Thread.cpp **** }
 250              		.loc 2 21 20 is_stmt 0
 251 0118 97000000 		call	_Z15thread_dispatchv@plt
 251      E7800000 
 252              	.LVL16:
  22:src/Thread.cpp **** int Thread::sleep(time_t time) {
 253              		.loc 2 22 1
 254 0120 83308100 		ld	ra,8(sp)
 255              		.cfi_restore 1
 256 0124 03340100 		ld	s0,0(sp)
 257              		.cfi_restore 8
 258              		.cfi_def_cfa 2, 16
 259 0128 13010101 		addi	sp,sp,16
 260              		.cfi_def_cfa_offset 0
 261 012c 67800000 		jr	ra
 262              		.cfi_endproc
 263              	.LFE10:
 265              		.align	2
 266              		.globl	_ZN6Thread5sleepEm
 268              	_ZN6Thread5sleepEm:
 269              	.LFB11:
  23:src/Thread.cpp ****     return  time_sleep(time);
 270              		.loc 2 23 32 is_stmt 1
 271              		.cfi_startproc
 272              	.LVL17:
 273 0130 130101FF 		addi	sp,sp,-16
 274              		.cfi_def_cfa_offset 16
 275 0134 23341100 		sd	ra,8(sp)
 276 0138 23308100 		sd	s0,0(sp)
 277              		.cfi_offset 1, -8
 278              		.cfi_offset 8, -16
 279 013c 13040101 		addi	s0,sp,16
GAS LISTING /tmp/cclQ52mq.s 			page 7


 280              		.cfi_def_cfa 8, 0
  24:src/Thread.cpp **** }
 281              		.loc 2 24 5
  24:src/Thread.cpp **** }
 282              		.loc 2 24 23 is_stmt 0
 283 0140 97000000 		call	_Z10time_sleepm@plt
 283      E7800000 
 284              	.LVL18:
  25:src/Thread.cpp **** void Thread::ThreadWrapper(void * ptr) {
 285              		.loc 2 25 1
 286 0148 83308100 		ld	ra,8(sp)
 287              		.cfi_restore 1
 288 014c 03340100 		ld	s0,0(sp)
 289              		.cfi_restore 8
 290              		.cfi_def_cfa 2, 16
 291 0150 13010101 		addi	sp,sp,16
 292              		.cfi_def_cfa_offset 0
 293 0154 67800000 		jr	ra
 294              		.cfi_endproc
 295              	.LFE11:
 297              		.align	2
 298              		.globl	_ZN6ThreadC2Ev
 300              	_ZN6ThreadC2Ev:
 301              	.LFB14:
  29:src/Thread.cpp **** Thread::Thread() {
 302              		.loc 2 29 1 is_stmt 1
 303              		.cfi_startproc
 304              	.LVL19:
 305 0158 130101FF 		addi	sp,sp,-16
 306              		.cfi_def_cfa_offset 16
 307 015c 23341100 		sd	ra,8(sp)
 308 0160 23308100 		sd	s0,0(sp)
 309              		.cfi_offset 1, -8
 310              		.cfi_offset 8, -16
 311 0164 13040101 		addi	s0,sp,16
 312              		.cfi_def_cfa 8, 0
 313              	.LBB4:
 314              		.loc 2 29 16 is_stmt 0
 315 0168 97070000 		lla	a5,_ZTV6Thread+16
 315      93870700 
 316 0170 2330F500 		sd	a5,0(a0)
  30:src/Thread.cpp ****     thread_prepare(&myHandle,Thread::ThreadWrapper,this);
 317              		.loc 2 30 5 is_stmt 1
 318              		.loc 2 30 19 is_stmt 0
 319 0174 13060500 		mv	a2,a0
 320 0178 97050000 		lla	a1,_ZN6Thread13ThreadWrapperEPv
 320      93850500 
 321 0180 13058500 		addi	a0,a0,8
 322              	.LVL20:
 323 0184 97000000 		call	_Z14thread_preparePP3TCBPFvPvES2_@plt
 323      E7800000 
 324              	.LVL21:
 325              	.LBE4:
  31:src/Thread.cpp **** }...
 326              		.loc 2 31 1
 327 018c 83308100 		ld	ra,8(sp)
 328              		.cfi_restore 1
GAS LISTING /tmp/cclQ52mq.s 			page 8


 329 0190 03340100 		ld	s0,0(sp)
 330              		.cfi_restore 8
 331              		.cfi_def_cfa 2, 16
 332 0194 13010101 		addi	sp,sp,16
 333              		.cfi_def_cfa_offset 0
 334 0198 67800000 		jr	ra
 335              		.cfi_endproc
 336              	.LFE14:
 338              		.globl	_ZN6ThreadC1Ev
 339              		.set	_ZN6ThreadC1Ev,_ZN6ThreadC2Ev
 340              		.weak	_ZTV6Thread
 341              		.section	.data.rel.ro.local._ZTV6Thread,"awG",@progbits,_ZTV6Thread,comdat
 342              		.align	3
 345              	_ZTV6Thread:
 346 0000 00000000 		.dword	0
 346      00000000 
 347 0008 00000000 		.dword	0
 347      00000000 
 348 0010 00000000 		.dword	_ZN6ThreadD1Ev
 348      00000000 
 349 0018 00000000 		.dword	_ZN6ThreadD0Ev
 349      00000000 
 350 0020 00000000 		.dword	_ZN6Thread3runEv
 350      00000000 
 351              		.text
 352              	.Letext0:
 353              		.file 3 "src/../h/../lib/hw.h"
 354              		.file 4 "src/../h/syscall_c.hpp"
 1981              		.align	3
 1984              	DW.ref.__gxx_personality_v0:
 1985 0000 00000000 		.dword	__gxx_personality_v0
 1985      00000000 
 1986              		.ident	"GCC: (Ubuntu 9.4.0-1ubuntu1~20.04) 9.4.0"
 1987              		.section	.note.GNU-stack,"",@progbits
GAS LISTING /tmp/cclQ52mq.s 			page 9

