GAS LISTING /tmp/cclQ52mq.s 			page 1


   1              		.file	"Thread.cpp"
   2              		.option pic
   3              		.option norelax
   4              		.text
   5              	.Ltext0:
   6              		.section	.text._ZN6Thread3runEv,"axG",@progbits,_ZN6Thread3runEv,comdat
   7              		.align	2
   8              		.weak	_ZN6Thread3runEv
  10              	_ZN6Thread3runEv:
  11              	.LFB0:
  12              		.file 1 "src/../h/syscall_cpp.hpp"
   1:src/../h/syscall_cpp.hpp **** //
   2:src/../h/syscall_cpp.hpp **** // Created by os on 7/20/22.
   3:src/../h/syscall_cpp.hpp **** //
   4:src/../h/syscall_cpp.hpp **** 
   5:src/../h/syscall_cpp.hpp **** #ifndef OSPROJECT_SYSCALL_CPP_HPP
   6:src/../h/syscall_cpp.hpp **** #define OSPROJECT_SYSCALL_CPP_HPP
   7:src/../h/syscall_cpp.hpp **** #include "syscall_c.hpp"
   8:src/../h/syscall_cpp.hpp **** void *operator new(size_t);
   9:src/../h/syscall_cpp.hpp **** void operator delete(void*);
  10:src/../h/syscall_cpp.hpp **** class Thread {
  11:src/../h/syscall_cpp.hpp **** public:
  12:src/../h/syscall_cpp.hpp ****     Thread (void (*body)(void*), void* arg);
  13:src/../h/syscall_cpp.hpp ****     virtual ~Thread ();
  14:src/../h/syscall_cpp.hpp ****     int start ();
  15:src/../h/syscall_cpp.hpp ****     static void dispatch ();
  16:src/../h/syscall_cpp.hpp ****     static int sleep (time_t);
  17:src/../h/syscall_cpp.hpp ****     static  void ThreadWrapper(void*);
  18:src/../h/syscall_cpp.hpp **** 
  19:src/../h/syscall_cpp.hpp **** protected:
  20:src/../h/syscall_cpp.hpp ****     Thread();
  21:src/../h/syscall_cpp.hpp ****     virtual void run () {}
  13              		.loc 1 21 18
  14              		.cfi_startproc
  15              	.LVL0:
  16 0000 130101FF 		addi	sp,sp,-16
  17              		.cfi_def_cfa_offset 16
  18 0004 23348100 		sd	s0,8(sp)
  19              		.cfi_offset 8, -8
  20 0008 13040101 		addi	s0,sp,16
  21              		.cfi_def_cfa 8, 0
  22              		.loc 1 21 26 is_stmt 0
  23 000c 03348100 		ld	s0,8(sp)
  24              		.cfi_restore 8
  25              		.cfi_def_cfa 2, 16
  26 0010 13010101 		addi	sp,sp,16
  27              		.cfi_def_cfa_offset 0
  28 0014 67800000 		jr	ra
  29              		.cfi_endproc
  30              	.LFE0:
  32              		.text
  33              		.align	2
  34              		.globl	_ZN6Thread13ThreadWrapperEPv
  36              	_ZN6Thread13ThreadWrapperEPv:
  37              	.LFB12:
  38              		.file 2 "src/Thread.cpp"
   1:src/Thread.cpp **** //
GAS LISTING /tmp/cclQ52mq.s 			page 2


   2:src/Thread.cpp **** // Created by os on 8/16/22.
   3:src/Thread.cpp **** //
   4:src/Thread.cpp **** 
   5:src/Thread.cpp **** #include "../h/syscall_cpp.hpp"
   6:src/Thread.cpp **** 
   7:src/Thread.cpp **** Thread::Thread(void (*body)(void *), void *args) {
   8:src/Thread.cpp ****     thread_prepare(&myHandle,body,args);
   9:src/Thread.cpp **** }
  10:src/Thread.cpp **** 
  11:src/Thread.cpp **** Thread::~Thread()  {
  12:src/Thread.cpp **** 
  13:src/Thread.cpp ****     thread_delete(myHandle);
  14:src/Thread.cpp **** 
  15:src/Thread.cpp **** }
  16:src/Thread.cpp **** 
  17:src/Thread.cpp **** int Thread::start() {
  18:src/Thread.cpp ****     return thread_start(myHandle);
  19:src/Thread.cpp **** }
  20:src/Thread.cpp **** void Thread::dispatch() {
  21:src/Thread.cpp ****     thread_dispatch();
  22:src/Thread.cpp **** }
  23:src/Thread.cpp **** int Thread::sleep(time_t time) {
  24:src/Thread.cpp ****     return  time_sleep(time);
  25:src/Thread.cpp **** }
  26:src/Thread.cpp **** void Thread::ThreadWrapper(void * ptr) {
  39              		.loc 2 26 40 is_stmt 1
  40              		.cfi_startproc
  41              	.LVL1:
  42 0000 130101FF 		addi	sp,sp,-16
  43              		.cfi_def_cfa_offset 16
  44 0004 23341100 		sd	ra,8(sp)
  45 0008 23308100 		sd	s0,0(sp)
  46              		.cfi_offset 1, -8
  47              		.cfi_offset 8, -16
  48 000c 13040101 		addi	s0,sp,16
  49              		.cfi_def_cfa 8, 0
  27:src/Thread.cpp ****     ((Thread*)ptr)->run();
  50              		.loc 2 27 5
  51              		.loc 2 27 25 is_stmt 0
  52 0010 83370500 		ld	a5,0(a0)
  53 0014 83B70701 		ld	a5,16(a5)
  54              		.loc 2 27 24
  55 0018 E7800700 		jalr	a5
  56              	.LVL2:
  28:src/Thread.cpp **** }
  57              		.loc 2 28 1
  58 001c 83308100 		ld	ra,8(sp)
  59              		.cfi_restore 1
  60 0020 03340100 		ld	s0,0(sp)
  61              		.cfi_restore 8
  62              		.cfi_def_cfa 2, 16
  63 0024 13010101 		addi	sp,sp,16
  64              		.cfi_def_cfa_offset 0
  65 0028 67800000 		jr	ra
  66              		.cfi_endproc
  67              	.LFE12:
  69              		.align	2
GAS LISTING /tmp/cclQ52mq.s 			page 3


  70              		.globl	_ZN6ThreadD2Ev
  72              	_ZN6ThreadD2Ev:
  73              	.LFB6:
  11:src/Thread.cpp **** 
  74              		.loc 2 11 1 is_stmt 1
  75              		.cfi_startproc
  76              		.cfi_personality 0x9b,DW.ref.__gxx_personality_v0
  77              		.cfi_lsda 0x1b,.LLSDA6
  78              	.LVL3:
  79 002c 130101FF 		addi	sp,sp,-16
  80              		.cfi_def_cfa_offset 16
  81 0030 23341100 		sd	ra,8(sp)
  82 0034 23308100 		sd	s0,0(sp)
  83              		.cfi_offset 1, -8
  84              		.cfi_offset 8, -16
  85 0038 13040101 		addi	s0,sp,16
  86              		.cfi_def_cfa 8, 0
  87              	.LBB2:
  11:src/Thread.cpp **** 
  88              		.loc 2 11 17 is_stmt 0
  89 003c 97070000 		lla	a5,_ZTV6Thread+16
  89      93870700 
  90 0044 2330F500 		sd	a5,0(a0)
  13:src/Thread.cpp **** 
  91              		.loc 2 13 5 is_stmt 1
  13:src/Thread.cpp **** 
  92              		.loc 2 13 18 is_stmt 0
  93 0048 03358500 		ld	a0,8(a0)
  94              	.LVL4:
  95 004c 97000000 		call	_Z13thread_deleteP3TCB@plt
  95      E7800000 
  96              	.LVL5:
  97              	.LBE2:
  15:src/Thread.cpp **** 
  98              		.loc 2 15 1
  99 0054 83308100 		ld	ra,8(sp)
 100              		.cfi_restore 1
 101 0058 03340100 		ld	s0,0(sp)
 102              		.cfi_restore 8
 103              		.cfi_def_cfa 2, 16
 104 005c 13010101 		addi	sp,sp,16
 105              		.cfi_def_cfa_offset 0
 106 0060 67800000 		jr	ra
 107              		.cfi_endproc
 108              	.LFE6:
 109              		.globl	__gxx_personality_v0
 110              		.section	.gcc_except_table,"a",@progbits
 111              	.LLSDA6:
 112 0000 FF       		.byte	0xff
 113 0001 FF       		.byte	0xff
 114 0002 03       		.byte	0x3
 115 0003 00       		.byte	0
 116              		.text
 118              		.globl	_ZN6ThreadD1Ev
 119              		.set	_ZN6ThreadD1Ev,_ZN6ThreadD2Ev
 120              		.align	2
 121              		.globl	_ZN6ThreadD0Ev
GAS LISTING /tmp/cclQ52mq.s 			page 4


 123              	_ZN6ThreadD0Ev:
 124              	.LFB8:
  11:src/Thread.cpp **** 
 125              		.loc 2 11 1 is_stmt 1
 126              		.cfi_startproc
 127              	.LVL6:
 128 0064 130101FE 		addi	sp,sp,-32
 129              		.cfi_def_cfa_offset 32
 130 0068 233C1100 		sd	ra,24(sp)
 131 006c 23388100 		sd	s0,16(sp)
 132 0070 23349100 		sd	s1,8(sp)
 133              		.cfi_offset 1, -8
 134              		.cfi_offset 8, -16
 135              		.cfi_offset 9, -24
 136 0074 13040102 		addi	s0,sp,32
 137              		.cfi_def_cfa 8, 0
 138 0078 93040500 		mv	s1,a0
  15:src/Thread.cpp **** 
 139              		.loc 2 15 1 is_stmt 0
 140 007c 97000000 		call	_ZN6ThreadD1Ev
 140      E7800000 
 141              	.LVL7:
 142 0084 13850400 		mv	a0,s1
 143 0088 97000000 		call	_ZdlPv@plt
 143      E7800000 
 144              	.LVL8:
 145 0090 83308101 		ld	ra,24(sp)
 146              		.cfi_restore 1
 147 0094 03340101 		ld	s0,16(sp)
 148              		.cfi_restore 8
 149              		.cfi_def_cfa 2, 32
 150 0098 83348100 		ld	s1,8(sp)
 151              		.cfi_restore 9
 152              	.LVL9:
 153 009c 13010102 		addi	sp,sp,32
 154              		.cfi_def_cfa_offset 0
 155 00a0 67800000 		jr	ra
 156              		.cfi_endproc
 157              	.LFE8:
 159              		.align	2
 160              		.globl	_ZN6ThreadC2EPFvPvES0_
 162              	_ZN6ThreadC2EPFvPvES0_:
 163              	.LFB3:
   7:src/Thread.cpp ****     thread_prepare(&myHandle,body,args);
 164              		.loc 2 7 1 is_stmt 1
 165              		.cfi_startproc
 166              	.LVL10:
 167 00a4 130101FF 		addi	sp,sp,-16
 168              		.cfi_def_cfa_offset 16
 169 00a8 23341100 		sd	ra,8(sp)
 170 00ac 23308100 		sd	s0,0(sp)
 171              		.cfi_offset 1, -8
 172              		.cfi_offset 8, -16
 173 00b0 13040101 		addi	s0,sp,16
 174              		.cfi_def_cfa 8, 0
 175              	.LBB3:
   7:src/Thread.cpp ****     thread_prepare(&myHandle,body,args);
GAS LISTING /tmp/cclQ52mq.s 			page 5


 176              		.loc 2 7 48 is_stmt 0
 177 00b4 97070000 		lla	a5,_ZTV6Thread+16
 177      93870700 
 178 00bc 2330F500 		sd	a5,0(a0)
   8:src/Thread.cpp **** }
 179              		.loc 2 8 5 is_stmt 1
   8:src/Thread.cpp **** }
 180              		.loc 2 8 19 is_stmt 0
 181 00c0 13058500 		addi	a0,a0,8
 182              	.LVL11:
 183 00c4 97000000 		call	_Z14thread_preparePP3TCBPFvPvES2_@plt
 183      E7800000 
 184              	.LVL12:
 185              	.LBE3:
   9:src/Thread.cpp **** 
 186              		.loc 2 9 1
 187 00cc 83308100 		ld	ra,8(sp)
 188              		.cfi_restore 1
 189 00d0 03340100 		ld	s0,0(sp)
 190              		.cfi_restore 8
 191              		.cfi_def_cfa 2, 16
 192 00d4 13010101 		addi	sp,sp,16
 193              		.cfi_def_cfa_offset 0
 194 00d8 67800000 		jr	ra
 195              		.cfi_endproc
 196              	.LFE3:
 198              		.globl	_ZN6ThreadC1EPFvPvES0_
 199              		.set	_ZN6ThreadC1EPFvPvES0_,_ZN6ThreadC2EPFvPvES0_
 200              		.align	2
 201              		.globl	_ZN6Thread5startEv
 203              	_ZN6Thread5startEv:
 204              	.LFB9:
  17:src/Thread.cpp ****     return thread_start(myHandle);
 205              		.loc 2 17 21 is_stmt 1
 206              		.cfi_startproc
 207              	.LVL13:
 208 00dc 130101FF 		addi	sp,sp,-16
 209              		.cfi_def_cfa_offset 16
 210 00e0 23341100 		sd	ra,8(sp)
 211 00e4 23308100 		sd	s0,0(sp)
 212              		.cfi_offset 1, -8
 213              		.cfi_offset 8, -16
 214 00e8 13040101 		addi	s0,sp,16
 215              		.cfi_def_cfa 8, 0
  18:src/Thread.cpp **** }
 216              		.loc 2 18 5
  18:src/Thread.cpp **** }
 217              		.loc 2 18 24 is_stmt 0
 218 00ec 03358500 		ld	a0,8(a0)
 219              	.LVL14:
 220 00f0 97000000 		call	_Z12thread_startP3TCB@plt
 220      E7800000 
 221              	.LVL15:
  19:src/Thread.cpp **** void Thread::dispatch() {
 222              		.loc 2 19 1
 223 00f8 83308100 		ld	ra,8(sp)
 224              		.cfi_restore 1
GAS LISTING /tmp/cclQ52mq.s 			page 6


 225 00fc 03340100 		ld	s0,0(sp)
 226              		.cfi_restore 8
 227              		.cfi_def_cfa 2, 16
 228 0100 13010101 		addi	sp,sp,16
 229              		.cfi_def_cfa_offset 0
 230 0104 67800000 		jr	ra
 231              		.cfi_endproc
 232              	.LFE9:
 234              		.align	2
 235              		.globl	_ZN6Thread8dispatchEv
 237              	_ZN6Thread8dispatchEv:
 238              	.LFB10:
  20:src/Thread.cpp ****     thread_dispatch();
 239              		.loc 2 20 25 is_stmt 1
 240              		.cfi_startproc
 241 0108 130101FF 		addi	sp,sp,-16
 242              		.cfi_def_cfa_offset 16
 243 010c 23341100 		sd	ra,8(sp)
 244 0110 23308100 		sd	s0,0(sp)
 245              		.cfi_offset 1, -8
 246              		.cfi_offset 8, -16
 247 0114 13040101 		addi	s0,sp,16
 248              		.cfi_def_cfa 8, 0
  21:src/Thread.cpp **** }
 249              		.loc 2 21 5
  21:src/Thread.cpp **** }
 250              		.loc 2 21 20 is_stmt 0
 251 0118 97000000 		call	_Z15thread_dispatchv@plt
 251      E7800000 
 252              	.LVL16:
  22:src/Thread.cpp **** int Thread::sleep(time_t time) {
 253              		.loc 2 22 1
 254 0120 83308100 		ld	ra,8(sp)
 255              		.cfi_restore 1
 256 0124 03340100 		ld	s0,0(sp)
 257              		.cfi_restore 8
 258              		.cfi_def_cfa 2, 16
 259 0128 13010101 		addi	sp,sp,16
 260              		.cfi_def_cfa_offset 0
 261 012c 67800000 		jr	ra
 262              		.cfi_endproc
 263              	.LFE10:
 265              		.align	2
 266              		.globl	_ZN6Thread5sleepEm
 268              	_ZN6Thread5sleepEm:
 269              	.LFB11:
  23:src/Thread.cpp ****     return  time_sleep(time);
 270              		.loc 2 23 32 is_stmt 1
 271              		.cfi_startproc
 272              	.LVL17:
 273 0130 130101FF 		addi	sp,sp,-16
 274              		.cfi_def_cfa_offset 16
 275 0134 23341100 		sd	ra,8(sp)
 276 0138 23308100 		sd	s0,0(sp)
 277              		.cfi_offset 1, -8
 278              		.cfi_offset 8, -16
 279 013c 13040101 		addi	s0,sp,16
GAS LISTING /tmp/cclQ52mq.s 			page 7


 280              		.cfi_def_cfa 8, 0
  24:src/Thread.cpp **** }
 281              		.loc 2 24 5
  24:src/Thread.cpp **** }
 282              		.loc 2 24 23 is_stmt 0
 283 0140 97000000 		call	_Z10time_sleepm@plt
 283      E7800000 
 284              	.LVL18:
  25:src/Thread.cpp **** void Thread::ThreadWrapper(void * ptr) {
 285              		.loc 2 25 1
 286 0148 83308100 		ld	ra,8(sp)
 287              		.cfi_restore 1
 288 014c 03340100 		ld	s0,0(sp)
 289              		.cfi_restore 8
 290              		.cfi_def_cfa 2, 16
 291 0150 13010101 		addi	sp,sp,16
 292              		.cfi_def_cfa_offset 0
 293 0154 67800000 		jr	ra
 294              		.cfi_endproc
 295              	.LFE11:
 297              		.align	2
 298              		.globl	_ZN6ThreadC2Ev
 300              	_ZN6ThreadC2Ev:
 301              	.LFB14:
  29:src/Thread.cpp **** Thread::Thread() {
 302              		.loc 2 29 1 is_stmt 1
 303              		.cfi_startproc
 304              	.LVL19:
 305 0158 130101FF 		addi	sp,sp,-16
 306              		.cfi_def_cfa_offset 16
 307 015c 23341100 		sd	ra,8(sp)
 308 0160 23308100 		sd	s0,0(sp)
 309              		.cfi_offset 1, -8
 310              		.cfi_offset 8, -16
 311 0164 13040101 		addi	s0,sp,16
 312              		.cfi_def_cfa 8, 0
 313              	.LBB4:
 314              		.loc 2 29 16 is_stmt 0
 315 0168 97070000 		lla	a5,_ZTV6Thread+16
 315      93870700 
 316 0170 2330F500 		sd	a5,0(a0)
  30:src/Thread.cpp ****     thread_prepare(&myHandle,Thread::ThreadWrapper,this);
 317              		.loc 2 30 5 is_stmt 1
 318              		.loc 2 30 19 is_stmt 0
 319 0174 13060500 		mv	a2,a0
 320 0178 97050000 		lla	a1,_ZN6Thread13ThreadWrapperEPv
 320      93850500 
 321 0180 13058500 		addi	a0,a0,8
 322              	.LVL20:
 323 0184 97000000 		call	_Z14thread_preparePP3TCBPFvPvES2_@plt
 323      E7800000 
 324              	.LVL21:
 325              	.LBE4:
  31:src/Thread.cpp **** }...
 326              		.loc 2 31 1
 327 018c 83308100 		ld	ra,8(sp)
 328              		.cfi_restore 1
GAS LISTING /tmp/cclQ52mq.s 			page 8


 329 0190 03340100 		ld	s0,0(sp)
 330              		.cfi_restore 8
 331              		.cfi_def_cfa 2, 16
 332 0194 13010101 		addi	sp,sp,16
 333              		.cfi_def_cfa_offset 0
 334 0198 67800000 		jr	ra
 335              		.cfi_endproc
 336              	.LFE14:
 338              		.globl	_ZN6ThreadC1Ev
 339              		.set	_ZN6ThreadC1Ev,_ZN6ThreadC2Ev
 340              		.weak	_ZTV6Thread
 341              		.section	.data.rel.ro.local._ZTV6Thread,"awG",@progbits,_ZTV6Thread,comdat
 342              		.align	3
 345              	_ZTV6Thread:
 346 0000 00000000 		.dword	0
 346      00000000 
 347 0008 00000000 		.dword	0
 347      00000000 
 348 0010 00000000 		.dword	_ZN6ThreadD1Ev
 348      00000000 
 349 0018 00000000 		.dword	_ZN6ThreadD0Ev
 349      00000000 
 350 0020 00000000 		.dword	_ZN6Thread3runEv
 350      00000000 
 351              		.text
 352              	.Letext0:
 353              		.file 3 "src/../h/../lib/hw.h"
 354              		.file 4 "src/../h/syscall_c.hpp"
 1981              		.align	3
 1984              	DW.ref.__gxx_personality_v0:
 1985 0000 00000000 		.dword	__gxx_personality_v0
 1985      00000000 
 1986              		.ident	"GCC: (Ubuntu 9.4.0-1ubuntu1~20.04) 9.4.0"
 1987              		.section	.note.GNU-stack,"",@progbits
GAS LISTING /tmp/cclQ52mq.s 			page 9


DEFINED SYMBOLS
                            *ABS*:0000000000000000 Thread.cpp
     /tmp/cclQ52mq.s:10     .text._ZN6Thread3runEv:0000000000000000 _ZN6Thread3runEv
     /tmp/cclQ52mq.s:14     .text._ZN6Thread3runEv:0000000000000000 .L0 
     /tmp/cclQ52mq.s:16     .text._ZN6Thread3runEv:0000000000000000 .L0 
     /tmp/cclQ52mq.s:17     .text._ZN6Thread3runEv:0000000000000004 .L0 
     /tmp/cclQ52mq.s:19     .text._ZN6Thread3runEv:0000000000000008 .L0 
     /tmp/cclQ52mq.s:21     .text._ZN6Thread3runEv:000000000000000c .L0 
     /tmp/cclQ52mq.s:23     .text._ZN6Thread3runEv:000000000000000c .L0 
     /tmp/cclQ52mq.s:24     .text._ZN6Thread3runEv:0000000000000010 .L0 
     /tmp/cclQ52mq.s:25     .text._ZN6Thread3runEv:0000000000000010 .L0 
     /tmp/cclQ52mq.s:27     .text._ZN6Thread3runEv:0000000000000014 .L0 
     /tmp/cclQ52mq.s:29     .text._ZN6Thread3runEv:0000000000000018 .L0 
     /tmp/cclQ52mq.s:36     .text:0000000000000000 _ZN6Thread13ThreadWrapperEPv
     /tmp/cclQ52mq.s:40     .text:0000000000000000 .L0 
     /tmp/cclQ52mq.s:42     .text:0000000000000000 .L0 
     /tmp/cclQ52mq.s:43     .text:0000000000000004 .L0 
     /tmp/cclQ52mq.s:46     .text:000000000000000c .L0 
     /tmp/cclQ52mq.s:47     .text:000000000000000c .L0 
     /tmp/cclQ52mq.s:49     .text:0000000000000010 .L0 
     /tmp/cclQ52mq.s:51     .text:0000000000000010 .L0 
     /tmp/cclQ52mq.s:52     .text:0000000000000010 .L0 
     /tmp/cclQ52mq.s:55     .text:0000000000000018 .L0 
     /tmp/cclQ52mq.s:58     .text:000000000000001c .L0 
     /tmp/cclQ52mq.s:59     .text:0000000000000020 .L0 
     /tmp/cclQ52mq.s:61     .text:0000000000000024 .L0 
     /tmp/cclQ52mq.s:62     .text:0000000000000024 .L0 
     /tmp/cclQ52mq.s:64     .text:0000000000000028 .L0 
     /tmp/cclQ52mq.s:66     .text:000000000000002c .L0 
     /tmp/cclQ52mq.s:72     .text:000000000000002c _ZN6ThreadD2Ev
     /tmp/cclQ52mq.s:75     .text:000000000000002c .L0 
     /tmp/cclQ52mq.s:1984   .data.rel.local.DW.ref.__gxx_personality_v0:0000000000000000 DW.ref.__gxx_personality_v0
     /tmp/cclQ52mq.s:79     .text:000000000000002c .L0 
     /tmp/cclQ52mq.s:80     .text:0000000000000030 .L0 
     /tmp/cclQ52mq.s:83     .text:0000000000000038 .L0 
     /tmp/cclQ52mq.s:84     .text:0000000000000038 .L0 
     /tmp/cclQ52mq.s:86     .text:000000000000003c .L0 
     /tmp/cclQ52mq.s:345    .data.rel.ro.local._ZTV6Thread:0000000000000000 _ZTV6Thread
     /tmp/cclQ52mq.s:89     .text:000000000000003c .L0 
     /tmp/cclQ52mq.s:92     .text:0000000000000048 .L0 
     /tmp/cclQ52mq.s:93     .text:0000000000000048 .L0 
     /tmp/cclQ52mq.s:99     .text:0000000000000054 .L0 
     /tmp/cclQ52mq.s:100    .text:0000000000000058 .L0 
     /tmp/cclQ52mq.s:102    .text:000000000000005c .L0 
     /tmp/cclQ52mq.s:103    .text:000000000000005c .L0 
     /tmp/cclQ52mq.s:105    .text:0000000000000060 .L0 
     /tmp/cclQ52mq.s:107    .text:0000000000000064 .L0 
     /tmp/cclQ52mq.s:72     .text:000000000000002c _ZN6ThreadD1Ev
     /tmp/cclQ52mq.s:123    .text:0000000000000064 _ZN6ThreadD0Ev
     /tmp/cclQ52mq.s:126    .text:0000000000000064 .L0 
     /tmp/cclQ52mq.s:128    .text:0000000000000064 .L0 
     /tmp/cclQ52mq.s:129    .text:0000000000000068 .L0 
     /tmp/cclQ52mq.s:133    .text:0000000000000074 .L0 
     /tmp/cclQ52mq.s:134    .text:0000000000000074 .L0 
     /tmp/cclQ52mq.s:135    .text:0000000000000074 .L0 
     /tmp/cclQ52mq.s:137    .text:0000000000000078 .L0 
     /tmp/cclQ52mq.s:140    .text:000000000000007c .L0 
GAS LISTING /tmp/cclQ52mq.s 			page 10


     /tmp/cclQ52mq.s:146    .text:0000000000000094 .L0 
     /tmp/cclQ52mq.s:148    .text:0000000000000098 .L0 
     /tmp/cclQ52mq.s:149    .text:0000000000000098 .L0 
     /tmp/cclQ52mq.s:151    .text:000000000000009c .L0 
     /tmp/cclQ52mq.s:154    .text:00000000000000a0 .L0 
     /tmp/cclQ52mq.s:156    .text:00000000000000a4 .L0 
     /tmp/cclQ52mq.s:162    .text:00000000000000a4 _ZN6ThreadC2EPFvPvES0_
     /tmp/cclQ52mq.s:165    .text:00000000000000a4 .L0 
     /tmp/cclQ52mq.s:167    .text:00000000000000a4 .L0 
     /tmp/cclQ52mq.s:168    .text:00000000000000a8 .L0 
     /tmp/cclQ52mq.s:171    .text:00000000000000b0 .L0 
     /tmp/cclQ52mq.s:172    .text:00000000000000b0 .L0 
     /tmp/cclQ52mq.s:174    .text:00000000000000b4 .L0 
     /tmp/cclQ52mq.s:177    .text:00000000000000b4 .L0 
     /tmp/cclQ52mq.s:180    .text:00000000000000c0 .L0 
     /tmp/cclQ52mq.s:181    .text:00000000000000c0 .L0 
     /tmp/cclQ52mq.s:187    .text:00000000000000cc .L0 
     /tmp/cclQ52mq.s:188    .text:00000000000000d0 .L0 
     /tmp/cclQ52mq.s:190    .text:00000000000000d4 .L0 
     /tmp/cclQ52mq.s:191    .text:00000000000000d4 .L0 
     /tmp/cclQ52mq.s:193    .text:00000000000000d8 .L0 
     /tmp/cclQ52mq.s:195    .text:00000000000000dc .L0 
     /tmp/cclQ52mq.s:162    .text:00000000000000a4 _ZN6ThreadC1EPFvPvES0_
     /tmp/cclQ52mq.s:203    .text:00000000000000dc _ZN6Thread5startEv
     /tmp/cclQ52mq.s:206    .text:00000000000000dc .L0 
     /tmp/cclQ52mq.s:208    .text:00000000000000dc .L0 
     /tmp/cclQ52mq.s:209    .text:00000000000000e0 .L0 
     /tmp/cclQ52mq.s:212    .text:00000000000000e8 .L0 
     /tmp/cclQ52mq.s:213    .text:00000000000000e8 .L0 
     /tmp/cclQ52mq.s:215    .text:00000000000000ec .L0 
     /tmp/cclQ52mq.s:217    .text:00000000000000ec .L0 
     /tmp/cclQ52mq.s:218    .text:00000000000000ec .L0 
     /tmp/cclQ52mq.s:223    .text:00000000000000f8 .L0 
     /tmp/cclQ52mq.s:224    .text:00000000000000fc .L0 
     /tmp/cclQ52mq.s:226    .text:0000000000000100 .L0 
     /tmp/cclQ52mq.s:227    .text:0000000000000100 .L0 
     /tmp/cclQ52mq.s:229    .text:0000000000000104 .L0 
     /tmp/cclQ52mq.s:231    .text:0000000000000108 .L0 
     /tmp/cclQ52mq.s:237    .text:0000000000000108 _ZN6Thread8dispatchEv
     /tmp/cclQ52mq.s:240    .text:0000000000000108 .L0 
     /tmp/cclQ52mq.s:241    .text:0000000000000108 .L0 
     /tmp/cclQ52mq.s:242    .text:000000000000010c .L0 
     /tmp/cclQ52mq.s:245    .text:0000000000000114 .L0 
     /tmp/cclQ52mq.s:246    .text:0000000000000114 .L0 
     /tmp/cclQ52mq.s:248    .text:0000000000000118 .L0 
     /tmp/cclQ52mq.s:250    .text:0000000000000118 .L0 
     /tmp/cclQ52mq.s:251    .text:0000000000000118 .L0 
     /tmp/cclQ52mq.s:254    .text:0000000000000120 .L0 
     /tmp/cclQ52mq.s:255    .text:0000000000000124 .L0 
     /tmp/cclQ52mq.s:257    .text:0000000000000128 .L0 
     /tmp/cclQ52mq.s:258    .text:0000000000000128 .L0 
     /tmp/cclQ52mq.s:260    .text:000000000000012c .L0 
     /tmp/cclQ52mq.s:262    .text:0000000000000130 .L0 
     /tmp/cclQ52mq.s:268    .text:0000000000000130 _ZN6Thread5sleepEm
     /tmp/cclQ52mq.s:271    .text:0000000000000130 .L0 
     /tmp/cclQ52mq.s:273    .text:0000000000000130 .L0 
     /tmp/cclQ52mq.s:274    .text:0000000000000134 .L0 
GAS LISTING /tmp/cclQ52mq.s 			page 11


     /tmp/cclQ52mq.s:277    .text:000000000000013c .L0 
     /tmp/cclQ52mq.s:278    .text:000000000000013c .L0 
     /tmp/cclQ52mq.s:280    .text:0000000000000140 .L0 
     /tmp/cclQ52mq.s:282    .text:0000000000000140 .L0 
     /tmp/cclQ52mq.s:283    .text:0000000000000140 .L0 
     /tmp/cclQ52mq.s:286    .text:0000000000000148 .L0 
     /tmp/cclQ52mq.s:287    .text:000000000000014c .L0 
     /tmp/cclQ52mq.s:289    .text:0000000000000150 .L0 
     /tmp/cclQ52mq.s:290    .text:0000000000000150 .L0 
     /tmp/cclQ52mq.s:292    .text:0000000000000154 .L0 
     /tmp/cclQ52mq.s:294    .text:0000000000000158 .L0 
     /tmp/cclQ52mq.s:300    .text:0000000000000158 _ZN6ThreadC2Ev
     /tmp/cclQ52mq.s:303    .text:0000000000000158 .L0 
     /tmp/cclQ52mq.s:305    .text:0000000000000158 .L0 
     /tmp/cclQ52mq.s:306    .text:000000000000015c .L0 
     /tmp/cclQ52mq.s:309    .text:0000000000000164 .L0 
     /tmp/cclQ52mq.s:310    .text:0000000000000164 .L0 
     /tmp/cclQ52mq.s:312    .text:0000000000000168 .L0 
     /tmp/cclQ52mq.s:315    .text:0000000000000168 .L0 
     /tmp/cclQ52mq.s:318    .text:0000000000000174 .L0 
     /tmp/cclQ52mq.s:319    .text:0000000000000174 .L0 
     /tmp/cclQ52mq.s:327    .text:000000000000018c .L0 
     /tmp/cclQ52mq.s:328    .text:0000000000000190 .L0 
     /tmp/cclQ52mq.s:330    .text:0000000000000194 .L0 
     /tmp/cclQ52mq.s:331    .text:0000000000000194 .L0 
     /tmp/cclQ52mq.s:333    .text:0000000000000198 .L0 
     /tmp/cclQ52mq.s:335    .text:000000000000019c .L0 
     /tmp/cclQ52mq.s:300    .text:0000000000000158 _ZN6ThreadC1Ev
     /tmp/cclQ52mq.s:32     .text._ZN6Thread3runEv:0000000000000018 .L0 
     /tmp/cclQ52mq.s:355    .text:000000000000019c .L0 
     /tmp/cclQ52mq.s:89     .text:000000000000003c .L0 
     /tmp/cclQ52mq.s:177    .text:00000000000000b4 .L0 
     /tmp/cclQ52mq.s:315    .text:0000000000000168 .L0 
     /tmp/cclQ52mq.s:320    .text:0000000000000178 .L0 
     /tmp/cclQ52mq.s:985    .debug_abbrev:0000000000000000 .Ldebug_abbrev0
     /tmp/cclQ52mq.s:1914   .debug_str:00000000000001d7 .LASF46
     /tmp/cclQ52mq.s:1894   .debug_str:0000000000000134 .LASF47
     /tmp/cclQ52mq.s:1946   .debug_str:000000000000034e .LASF48
     /tmp/cclQ52mq.s:1844   .debug_ranges:0000000000000000 .Ldebug_ranges0
     /tmp/cclQ52mq.s:1852   .debug_line:0000000000000000 .Ldebug_line0
     /tmp/cclQ52mq.s:1920   .debug_str:00000000000002af .LASF0
     /tmp/cclQ52mq.s:1902   .debug_str:0000000000000179 .LASF1
     /tmp/cclQ52mq.s:1910   .debug_str:00000000000001b6 .LASF2
     /tmp/cclQ52mq.s:1868   .debug_str:0000000000000063 .LASF4
     /tmp/cclQ52mq.s:1900   .debug_str:0000000000000167 .LASF3
     /tmp/cclQ52mq.s:1860   .debug_str:0000000000000029 .LASF5
     /tmp/cclQ52mq.s:1930   .debug_str:00000000000002e6 .LASF6
     /tmp/cclQ52mq.s:1858   .debug_str:0000000000000016 .LASF7
     /tmp/cclQ52mq.s:1888   .debug_str:000000000000010b .LASF8
     /tmp/cclQ52mq.s:1932   .debug_str:00000000000002ed .LASF9
     /tmp/cclQ52mq.s:1866   .debug_str:0000000000000055 .LASF10
     /tmp/cclQ52mq.s:1976   .debug_str:000000000000043b .LASF11
     /tmp/cclQ52mq.s:1890   .debug_str:000000000000011e .LASF12
     /tmp/cclQ52mq.s:1964   .debug_str:00000000000003e7 .LASF13
     /tmp/cclQ52mq.s:1942   .debug_str:000000000000032e .LASF14
     /tmp/cclQ52mq.s:1904   .debug_str:000000000000018c .LASF15
     /tmp/cclQ52mq.s:1878   .debug_str:00000000000000a1 .LASF16
GAS LISTING /tmp/cclQ52mq.s 			page 12


     /tmp/cclQ52mq.s:1936   .debug_str:0000000000000302 .LASF17
     /tmp/cclQ52mq.s:1938   .debug_str:0000000000000318 .LASF18
     /tmp/cclQ52mq.s:1928   .debug_str:00000000000002e1 .LASF19
     /tmp/cclQ52mq.s:1892   .debug_str:000000000000012d .LASF20
     /tmp/cclQ52mq.s:1960   .debug_str:00000000000003c6 .LASF49
     /tmp/cclQ52mq.s:1854   .debug_str:0000000000000000 .LASF50
     /tmp/cclQ52mq.s:1882   .debug_str:00000000000000ce .LASF22
     /tmp/cclQ52mq.s:1906   .debug_str:0000000000000198 .LASF51
     /tmp/cclQ52mq.s:1918   .debug_str:00000000000002a0 .LASF52
     /tmp/cclQ52mq.s:1922   .debug_str:00000000000002bc .LASF53
     /tmp/cclQ52mq.s:1874   .debug_str:000000000000007f .LASF54
     /tmp/cclQ52mq.s:1856   .debug_str:000000000000000d .LASF55
     /tmp/cclQ52mq.s:1896   .debug_str:0000000000000143 .LASF56
     /tmp/cclQ52mq.s:1968   .debug_str:00000000000003fe .LASF21
     /tmp/cclQ52mq.s:1912   .debug_str:00000000000001c4 .LASF23
     /tmp/cclQ52mq.s:1898   .debug_str:0000000000000159 .LASF57
     /tmp/cclQ52mq.s:1974   .debug_str:000000000000041e .LASF58
     /tmp/cclQ52mq.s:1972   .debug_str:000000000000040f .LASF24
     /tmp/cclQ52mq.s:1886   .debug_str:00000000000000fa .LASF59
     /tmp/cclQ52mq.s:1948   .debug_str:000000000000036d .LASF60
     /tmp/cclQ52mq.s:1872   .debug_str:000000000000006f .LASF61
     /tmp/cclQ52mq.s:1870   .debug_str:000000000000006a .LASF26
     /tmp/cclQ52mq.s:1924   .debug_str:00000000000002c2 .LASF28
     /tmp/cclQ52mq.s:301    .text:0000000000000158 .LFB14
     /tmp/cclQ52mq.s:336    .text:000000000000019c .LFE14
     /tmp/cclQ52mq.s:1689   .debug_loc:0000000000000000 .LLST8
     /tmp/cclQ52mq.s:324    .text:000000000000018c .LVL21
     /tmp/cclQ52mq.s:37     .text:0000000000000000 .LFB12
     /tmp/cclQ52mq.s:67     .text:000000000000002c .LFE12
     /tmp/cclQ52mq.s:1707   .debug_loc:000000000000004c .LLST0
     /tmp/cclQ52mq.s:56     .text:000000000000001c .LVL2
     /tmp/cclQ52mq.s:269    .text:0000000000000130 .LFB11
     /tmp/cclQ52mq.s:295    .text:0000000000000158 .LFE11
     /tmp/cclQ52mq.s:1934   .debug_str:00000000000002fd .LASF25
     /tmp/cclQ52mq.s:1721   .debug_loc:0000000000000085 .LLST7
     /tmp/cclQ52mq.s:284    .text:0000000000000148 .LVL18
     /tmp/cclQ52mq.s:238    .text:0000000000000108 .LFB10
     /tmp/cclQ52mq.s:263    .text:0000000000000130 .LFE10
     /tmp/cclQ52mq.s:252    .text:0000000000000120 .LVL16
     /tmp/cclQ52mq.s:204    .text:00000000000000dc .LFB9
     /tmp/cclQ52mq.s:232    .text:0000000000000108 .LFE9
     /tmp/cclQ52mq.s:1735   .debug_loc:00000000000000be .LLST6
     /tmp/cclQ52mq.s:221    .text:00000000000000f8 .LVL15
     /tmp/cclQ52mq.s:1954   .debug_str:000000000000039d .LASF27
     /tmp/cclQ52mq.s:1876   .debug_str:0000000000000092 .LASF29
     /tmp/cclQ52mq.s:124    .text:0000000000000064 .LFB8
     /tmp/cclQ52mq.s:157    .text:00000000000000a4 .LFE8
     /tmp/cclQ52mq.s:1749   .debug_loc:00000000000000f7 .LLST2
     /tmp/cclQ52mq.s:141    .text:0000000000000084 .LVL7
     /tmp/cclQ52mq.s:144    .text:0000000000000090 .LVL8
     /tmp/cclQ52mq.s:1958   .debug_str:00000000000003b7 .LASF30
     /tmp/cclQ52mq.s:73     .text:000000000000002c .LFB6
     /tmp/cclQ52mq.s:108    .text:0000000000000064 .LFE6
     /tmp/cclQ52mq.s:1767   .debug_loc:0000000000000143 .LLST1
     /tmp/cclQ52mq.s:96     .text:0000000000000054 .LVL5
     /tmp/cclQ52mq.s:1916   .debug_str:000000000000029b .LASF31
     /tmp/cclQ52mq.s:1952   .debug_str:0000000000000398 .LASF32
GAS LISTING /tmp/cclQ52mq.s 			page 13


     /tmp/cclQ52mq.s:1862   .debug_str:0000000000000030 .LASF33
     /tmp/cclQ52mq.s:163    .text:00000000000000a4 .LFB3
     /tmp/cclQ52mq.s:196    .text:00000000000000dc .LFE3
     /tmp/cclQ52mq.s:1781   .debug_loc:000000000000017c .LLST3
     /tmp/cclQ52mq.s:1801   .debug_loc:00000000000001ca .LLST4
     /tmp/cclQ52mq.s:1815   .debug_loc:0000000000000203 .LLST5
     /tmp/cclQ52mq.s:184    .text:00000000000000cc .LVL12
     /tmp/cclQ52mq.s:11     .text._ZN6Thread3runEv:0000000000000000 .LFB0
     /tmp/cclQ52mq.s:30     .text._ZN6Thread3runEv:0000000000000018 .LFE0
     /tmp/cclQ52mq.s:1950   .debug_str:0000000000000376 .LASF34
     /tmp/cclQ52mq.s:1962   .debug_str:00000000000003d8 .LASF36
     /tmp/cclQ52mq.s:1956   .debug_str:00000000000003a7 .LASF35
     /tmp/cclQ52mq.s:1970   .debug_str:0000000000000404 .LASF37
     /tmp/cclQ52mq.s:1884   .debug_str:00000000000000e5 .LASF38
     /tmp/cclQ52mq.s:1944   .debug_str:000000000000033e .LASF39
     /tmp/cclQ52mq.s:1908   .debug_str:00000000000001a0 .LASF40
     /tmp/cclQ52mq.s:1940   .debug_str:0000000000000321 .LASF41
     /tmp/cclQ52mq.s:1966   .debug_str:00000000000003f7 .LASF42
     /tmp/cclQ52mq.s:1926   .debug_str:00000000000002d1 .LASF43
     /tmp/cclQ52mq.s:1880   .debug_str:00000000000000b7 .LASF44
     /tmp/cclQ52mq.s:1864   .debug_str:0000000000000047 .LASF45
     /tmp/cclQ52mq.s:304    .text:0000000000000158 .LVL19
     /tmp/cclQ52mq.s:322    .text:0000000000000184 .LVL20
     /tmp/cclQ52mq.s:41     .text:0000000000000000 .LVL1
     /tmp/cclQ52mq.s:272    .text:0000000000000130 .LVL17
     /tmp/cclQ52mq.s:207    .text:00000000000000dc .LVL13
     /tmp/cclQ52mq.s:219    .text:00000000000000f0 .LVL14
     /tmp/cclQ52mq.s:127    .text:0000000000000064 .LVL6
     /tmp/cclQ52mq.s:152    .text:000000000000009c .LVL9
     /tmp/cclQ52mq.s:78     .text:000000000000002c .LVL3
     /tmp/cclQ52mq.s:94     .text:000000000000004c .LVL4
     /tmp/cclQ52mq.s:166    .text:00000000000000a4 .LVL10
     /tmp/cclQ52mq.s:182    .text:00000000000000c4 .LVL11
     /tmp/cclQ52mq.s:356    .debug_info:0000000000000000 .Ldebug_info0
     /tmp/cclQ52mq.s:5      .text:0000000000000000 .Ltext0
     /tmp/cclQ52mq.s:352    .text:000000000000019c .Letext0
     /tmp/cclQ52mq.s:111    .gcc_except_table:0000000000000000 .LLSDA6

UNDEFINED SYMBOLS
_Z13thread_deleteP3TCB
__gxx_personality_v0
_ZdlPv
_Z14thread_preparePP3TCBPFvPvES2_
_Z12thread_startP3TCB
_Z15thread_dispatchv
_Z10time_sleepm
