GAS LISTING /tmp/cc5MQEmu.s 			page 1


   1              		.file	"TimeList.cpp"
   2              		.option pic
   3              		.option norelax
   4              		.text
   5              	.Ltext0:
   6              		.align	2
   7              		.globl	_ZN8TimeList4sizeEv
   9              	_ZN8TimeList4sizeEv:
  10              	.LFB66:
  11              		.file 1 "src/TimeList.cpp"
   1:src/TimeList.cpp **** //
   2:src/TimeList.cpp **** // Created by os on 8/5/22.
   3:src/TimeList.cpp **** //
   4:src/TimeList.cpp **** #include "../h/TimeList.hpp"
   5:src/TimeList.cpp **** #include "../test/printing.hpp"
   6:src/TimeList.cpp **** time_t TimeList::currentTime = 0;
   7:src/TimeList.cpp **** 
   8:src/TimeList.cpp **** time_t TimeList::currentTimePassed = 0;
   9:src/TimeList.cpp **** 
  10:src/TimeList.cpp **** int TimeList::size() {
  12              		.loc 1 10 22
  13              		.cfi_startproc
  14              	.LVL0:
  15 0000 130101FF 		addi	sp,sp,-16
  16              		.cfi_def_cfa_offset 16
  17 0004 23348100 		sd	s0,8(sp)
  18              		.cfi_offset 8, -8
  19 0008 13040101 		addi	s0,sp,16
  20              		.cfi_def_cfa 8, 0
  11:src/TimeList.cpp ****      return list_Time.size();
  21              		.loc 1 11 6
  12:src/TimeList.cpp **** }
  22              		.loc 1 12 1 is_stmt 0
  23 000c 03250501 		lw	a0,16(a0)
  24              	.LVL1:
  25 0010 03348100 		ld	s0,8(sp)
  26              		.cfi_restore 8
  27              		.cfi_def_cfa 2, 16
  28 0014 13010101 		addi	sp,sp,16
  29              		.cfi_def_cfa_offset 0
  30 0018 67800000 		jr	ra
  31              		.cfi_endproc
  32              	.LFE66:
  34              		.align	2
  35              		.globl	_ZN8TimeList3addEP3TCBm
  37              	_ZN8TimeList3addEP3TCBm:
  38              	.LFB67:
  13:src/TimeList.cpp **** void TimeList::add(TCB *tcb, time_t time) {
  39              		.loc 1 13 43 is_stmt 1
  40              		.cfi_startproc
  41              	.LVL2:
  42 001c 130101FD 		addi	sp,sp,-48
  43              		.cfi_def_cfa_offset 48
  44 0020 23341102 		sd	ra,40(sp)
  45 0024 23308102 		sd	s0,32(sp)
  46 0028 233C9100 		sd	s1,24(sp)
  47 002c 23382101 		sd	s2,16(sp)
GAS LISTING /tmp/cc5MQEmu.s 			page 2


  48 0030 23343101 		sd	s3,8(sp)
  49 0034 23304101 		sd	s4,0(sp)
  50              		.cfi_offset 1, -8
  51              		.cfi_offset 8, -16
  52              		.cfi_offset 9, -24
  53              		.cfi_offset 18, -32
  54              		.cfi_offset 19, -40
  55              		.cfi_offset 20, -48
  56 0038 13040103 		addi	s0,sp,48
  57              		.cfi_def_cfa 8, 0
  58 003c 13090500 		mv	s2,a0
  59 0040 138A0500 		mv	s4,a1
  14:src/TimeList.cpp ****     time+=currentTime;
  60              		.loc 1 14 5
  61              		.loc 1 14 9 is_stmt 0
  62 0044 97040000 		ld	s1,.LANCHOR0
  62      83B40400 
  63 004c B3049600 		add	s1,a2,s1
  64              	.LVL3:
  15:src/TimeList.cpp ****     ElemTime * elem = new ElemTime(tcb,time);
  65              		.loc 1 15 5 is_stmt 1
  66              	.LBB87:
  67              	.LBB88:
  68              		.file 2 "src/../h/TimeList.hpp"
   1:src/../h/TimeList.hpp **** //
   2:src/../h/TimeList.hpp **** // Created by os on 8/5/22.
   3:src/../h/TimeList.hpp **** //
   4:src/../h/TimeList.hpp **** 
   5:src/../h/TimeList.hpp **** #ifndef OSPROJECT_TIMELIST_HPP
   6:src/../h/TimeList.hpp **** #define OSPROJECT_TIMELIST_HPP
   7:src/../h/TimeList.hpp **** #include "tcb.hpp"
   8:src/../h/TimeList.hpp **** 
   9:src/../h/TimeList.hpp **** class TimeList{
  10:src/../h/TimeList.hpp **** public:
  11:src/../h/TimeList.hpp ****     struct ElemTime{
  12:src/../h/TimeList.hpp ****         TCB*tcb = nullptr;
  13:src/../h/TimeList.hpp ****         time_t time;
  14:src/../h/TimeList.hpp ****         ElemTime(TCB*tcbToAdd,time_t timeToAdd){
  15:src/../h/TimeList.hpp ****             tcb = tcbToAdd;
  16:src/../h/TimeList.hpp ****             time=timeToAdd;
  17:src/../h/TimeList.hpp ****         }
  18:src/../h/TimeList.hpp ****         void* operator new (size_t size){return __mem_alloc(size);}
  69              		.loc 2 18 42
  70              		.loc 2 18 60 is_stmt 0
  71 0050 13050001 		li	a0,16
  72              	.LVL4:
  73 0054 97000000 		call	__mem_alloc@plt
  73      E7800000 
  74              	.LVL5:
  75 005c 93090500 		mv	s3,a0
  76              	.LVL6:
  77              	.LBE88:
  78              	.LBE87:
  79              	.LBB89:
  80              	.LBB90:
  15:src/../h/TimeList.hpp ****             time=timeToAdd;
  81              		.loc 2 15 13 is_stmt 1
GAS LISTING /tmp/cc5MQEmu.s 			page 3


  15:src/../h/TimeList.hpp ****             time=timeToAdd;
  82              		.loc 2 15 17 is_stmt 0
  83 0060 23304501 		sd	s4,0(a0)
  16:src/../h/TimeList.hpp ****         }
  84              		.loc 2 16 13 is_stmt 1
  16:src/../h/TimeList.hpp ****         }
  85              		.loc 2 16 17 is_stmt 0
  86 0064 23349500 		sd	s1,8(a0)
  87              	.LVL7:
  88              	.LBE90:
  89              	.LBE89:
  16:src/TimeList.cpp ****     list_Time.add_by_time(elem);
  90              		.loc 1 16 5 is_stmt 1
  91              	.LBB91:
  92              	.LBB92:
  93              		.file 3 "src/../h/list.hpp"
   1:src/../h/list.hpp **** //
   2:src/../h/list.hpp **** // Created by marko on 20.4.22..
   3:src/../h/list.hpp **** //
   4:src/../h/list.hpp **** 
   5:src/../h/list.hpp **** #ifndef OS1_VEZBE07_RISCV_CONTEXT_SWITCH_1_SYNCHRONOUS_LIST_HPP
   6:src/../h/list.hpp **** #define OS1_VEZBE07_RISCV_CONTEXT_SWITCH_1_SYNCHRONOUS_LIST_HPP
   7:src/../h/list.hpp **** #include "../lib/mem.h"
   8:src/../h/list.hpp **** template<typename T>
   9:src/../h/list.hpp **** class List
  10:src/../h/list.hpp **** {
  11:src/../h/list.hpp **** private:
  12:src/../h/list.hpp ****     struct Elem
  13:src/../h/list.hpp ****     {
  14:src/../h/list.hpp ****         T *data;
  15:src/../h/list.hpp ****         Elem *next;
  16:src/../h/list.hpp **** 
  17:src/../h/list.hpp ****         Elem(T *data, Elem *next) : data(data), next(next) {}
  18:src/../h/list.hpp ****         void *operator new (size_t size){return __mem_alloc(size);}
  19:src/../h/list.hpp ****         void operator delete (void * ptr){ __mem_free(ptr);}
  20:src/../h/list.hpp ****     };
  21:src/../h/list.hpp **** 
  22:src/../h/list.hpp ****     Elem *head, *tail;
  23:src/../h/list.hpp ****     unsigned sizeofList=0;
  24:src/../h/list.hpp **** public:
  25:src/../h/list.hpp ****     List() : head(0), tail(0) {
  26:src/../h/list.hpp ****         sizeofList=0;
  27:src/../h/list.hpp ****     }
  28:src/../h/list.hpp **** 
  29:src/../h/list.hpp ****     List(const List<T> &) = delete;
  30:src/../h/list.hpp **** 
  31:src/../h/list.hpp ****     List<T> &operator=(const List<T> &) = delete;
  32:src/../h/list.hpp ****     unsigned size() const {return sizeofList;}
  33:src/../h/list.hpp ****     void addFirst(T *data)
  34:src/../h/list.hpp ****     {
  35:src/../h/list.hpp ****         Elem *elem = new Elem(data, head);
  36:src/../h/list.hpp ****         head = elem;
  37:src/../h/list.hpp ****         if (!tail) { tail = head; }
  38:src/../h/list.hpp ****         sizeofList++;
  39:src/../h/list.hpp ****     }
  40:src/../h/list.hpp **** 
  41:src/../h/list.hpp ****     void addLast(T *data)
GAS LISTING /tmp/cc5MQEmu.s 			page 4


  42:src/../h/list.hpp ****     {
  43:src/../h/list.hpp ****         Elem *elem = new Elem(data, 0);
  44:src/../h/list.hpp ****         if (tail)
  45:src/../h/list.hpp ****         {
  46:src/../h/list.hpp ****             tail->next = elem;
  47:src/../h/list.hpp ****             tail = elem;
  48:src/../h/list.hpp ****         } else
  49:src/../h/list.hpp ****         {
  50:src/../h/list.hpp ****             head = tail = elem;
  51:src/../h/list.hpp ****         }
  52:src/../h/list.hpp ****         sizeofList++;
  53:src/../h/list.hpp ****     }
  54:src/../h/list.hpp **** 
  55:src/../h/list.hpp ****     T *removeFirst()
  56:src/../h/list.hpp ****     {
  57:src/../h/list.hpp ****         if (!head) { return 0; }
  58:src/../h/list.hpp **** 
  59:src/../h/list.hpp ****         Elem *elem = head;
  60:src/../h/list.hpp ****         head = head->next;
  61:src/../h/list.hpp ****         if (!head) { tail = 0; }
  62:src/../h/list.hpp ****         sizeofList--;
  63:src/../h/list.hpp ****         T *ret = elem->data;
  64:src/../h/list.hpp ****         delete elem;
  65:src/../h/list.hpp ****         return ret;
  66:src/../h/list.hpp ****     }
  67:src/../h/list.hpp ****     void add_by_time(T*el1){
  68:src/../h/list.hpp ****         Elem* cur=head;
  94              		.loc 3 68 15 is_stmt 0
  95 0068 83340900 		ld	s1,0(s2)
  96              	.LVL8:
  97              	.LBB93:
  69:src/../h/list.hpp ****         Elem* mid= nullptr;
  70:src/../h/list.hpp ****             if(!cur || el1->time<=cur->data->time){ addFirst(el1);
  98              		.loc 3 70 13
  99 006c 638A0400 		beqz	s1,.L4
 100              		.loc 3 70 29
 101 0070 83378500 		ld	a5,8(a0)
 102              		.loc 3 70 40
 103 0074 03B70400 		ld	a4,0(s1)
 104              		.loc 3 70 46
 105 0078 03378700 		ld	a4,8(a4)
 106              		.loc 3 70 21
 107 007c 636EF704 		bgtu	a5,a4,.L15
 108              	.L4:
 109              	.LVL9:
 110              	.LBB94:
 111              	.LBB95:
 112              	.LBB96:
 113              	.LBB97:
  18:src/../h/list.hpp ****         void operator delete (void * ptr){ __mem_free(ptr);}
 114              		.loc 3 18 60
 115 0080 13050001 		li	a0,16
 116              	.LVL10:
 117 0084 97000000 		call	__mem_alloc@plt
 117      E7800000 
 118              	.LVL11:
 119              	.LBE97:
GAS LISTING /tmp/cc5MQEmu.s 			page 5


 120              	.LBE96:
  35:src/../h/list.hpp ****         head = elem;
 121              		.loc 3 35 22
 122 008c 83370900 		ld	a5,0(s2)
 123              	.LVL12:
 124              	.LBB98:
 125              	.LBB99:
  17:src/../h/list.hpp ****         void *operator new (size_t size){return __mem_alloc(size);}
 126              		.loc 3 17 58
 127 0090 23303501 		sd	s3,0(a0)
 128 0094 2334F500 		sd	a5,8(a0)
 129              	.LVL13:
 130              	.LBE99:
 131              	.LBE98:
  36:src/../h/list.hpp ****         if (!tail) { tail = head; }
 132              		.loc 3 36 9
 133 0098 2330A900 		sd	a0,0(s2)
  37:src/../h/list.hpp ****         sizeofList++;
 134              		.loc 3 37 14
 135 009c 83378900 		ld	a5,8(s2)
  37:src/../h/list.hpp ****         sizeofList++;
 136              		.loc 3 37 9
 137 00a0 63880702 		beqz	a5,.L17
 138              	.L6:
  38:src/../h/list.hpp ****     }
 139              		.loc 3 38 9
 140 00a4 83270901 		lw	a5,16(s2)
 141 00a8 9B871700 		addiw	a5,a5,1
 142 00ac 2328F900 		sw	a5,16(s2)
 143              	.LVL14:
 144              	.L3:
 145              	.LBE95:
 146              	.LBE94:
 147              	.LBE93:
 148              	.LBE92:
 149              	.LBE91:
  17:src/TimeList.cpp **** 
  18:src/TimeList.cpp **** 
  19:src/TimeList.cpp **** }
 150              		.loc 1 19 1
 151 00b0 83308102 		ld	ra,40(sp)
 152              		.cfi_remember_state
 153              		.cfi_restore 1
 154 00b4 03340102 		ld	s0,32(sp)
 155              		.cfi_restore 8
 156              		.cfi_def_cfa 2, 48
 157 00b8 83348101 		ld	s1,24(sp)
 158              		.cfi_restore 9
 159 00bc 03390101 		ld	s2,16(sp)
 160              		.cfi_restore 18
 161              	.LVL15:
 162 00c0 83398100 		ld	s3,8(sp)
 163              		.cfi_restore 19
 164              	.LVL16:
 165 00c4 033A0100 		ld	s4,0(sp)
 166              		.cfi_restore 20
 167 00c8 13010103 		addi	sp,sp,48
GAS LISTING /tmp/cc5MQEmu.s 			page 6


 168              		.cfi_def_cfa_offset 0
 169 00cc 67800000 		jr	ra
 170              	.LVL17:
 171              	.L17:
 172              		.cfi_restore_state
 173              	.LBB130:
 174              	.LBB128:
 175              	.LBB125:
 176              	.LBB101:
 177              	.LBB100:
  37:src/../h/list.hpp ****         sizeofList++;
 178              		.loc 3 37 22
 179 00d0 2334A900 		sd	a0,8(s2)
 180 00d4 6FF01FFD 		j	.L6
 181              	.LVL18:
 182              	.L15:
 183              	.LBE100:
 184              	.LBE101:
 185              	.LBE125:
  69:src/../h/list.hpp ****             if(!cur || el1->time<=cur->data->time){ addFirst(el1);
 186              		.loc 3 69 15
 187 00d8 130A0000 		li	s4,0
 188              	.LVL19:
 189              	.L5:
 190              	.LBB126:
 191              	.LBB102:
  71:src/../h/list.hpp **** 
  72:src/../h/list.hpp ****             }//ako cur == null ili je cur vreme manje =  od nase vreme
  73:src/../h/list.hpp ****             else {
  74:src/../h/list.hpp ****                 while (cur && cur->data->time <= el1->time) {
 192              		.loc 3 74 28 is_stmt 1
 193 00dc 638E0400 		beqz	s1,.L8
 194              		.loc 3 74 36 is_stmt 0
 195 00e0 03B70400 		ld	a4,0(s1)
 196              		.loc 3 74 42
 197 00e4 03378700 		ld	a4,8(a4)
 198              		.loc 3 74 28
 199 00e8 63E8E700 		bltu	a5,a4,.L8
 200              	.LVL20:
  75:src/../h/list.hpp ****                     mid = cur;
 201              		.loc 3 75 21
 202 00ec 138A0400 		mv	s4,s1
  76:src/../h/list.hpp ****                     cur = cur->next;
 203              		.loc 3 76 21
 204 00f0 83B48400 		ld	s1,8(s1)
 205              	.LVL21:
  74:src/../h/list.hpp ****                     mid = cur;
 206              		.loc 3 74 17
 207 00f4 6FF09FFE 		j	.L5
 208              	.L8:
 209              	.LBB103:
  77:src/../h/list.hpp ****                 }
  78:src/../h/list.hpp ****                 if (mid == tail && !cur) { // ako smo veci od svih u listi
 210              		.loc 3 78 28
 211 00f8 03378900 		ld	a4,8(s2)
 212              		.loc 3 78 17
 213 00fc 63084703 		beq	a4,s4,.L18
GAS LISTING /tmp/cc5MQEmu.s 			page 7


 214              	.L9:
 215              	.LBB104:
  79:src/../h/list.hpp ****                     addLast(el1);
  80:src/../h/list.hpp ****                 } else if (cur == tail && cur->data->time == el1->time) { //ako smo jednaki sa tail
 216              		.loc 3 80 24
 217 0100 6388E406 		beq	s1,a4,.L19
 218              	.L12:
 219              	.LVL22:
 220              	.LBB105:
 221              	.LBB106:
 222              	.LBB107:
  18:src/../h/list.hpp ****         void operator delete (void * ptr){ __mem_free(ptr);}
 223              		.loc 3 18 60
 224 0104 13050001 		li	a0,16
 225              	.LVL23:
 226 0108 97000000 		call	__mem_alloc@plt
 226      E7800000 
 227              	.LVL24:
 228              	.LBE107:
 229              	.LBE106:
 230              	.LBB108:
 231              	.LBB109:
  17:src/../h/list.hpp ****         void *operator new (size_t size){return __mem_alloc(size);}
 232              		.loc 3 17 58
 233 0110 23303501 		sd	s3,0(a0)
 234              	.LVL25:
 235              	.LBE109:
 236              	.LBE108:
  81:src/../h/list.hpp ****                     addLast(el1);
  82:src/../h/list.hpp ****                 } else {   //sredina
  83:src/../h/list.hpp ****                     Elem *ins = new Elem(el1, 0);
  84:src/../h/list.hpp ****                     mid->next = ins;
 237              		.loc 3 84 21
 238 0114 2334AA00 		sd	a0,8(s4)
  85:src/../h/list.hpp ****                     ins->next = cur;
 239              		.loc 3 85 21
 240 0118 23349500 		sd	s1,8(a0)
  86:src/../h/list.hpp ****                     sizeofList++;
 241              		.loc 3 86 21
 242 011c 83270901 		lw	a5,16(s2)
 243 0120 9B871700 		addiw	a5,a5,1
 244 0124 2328F900 		sw	a5,16(s2)
 245              	.LVL26:
 246              	.LBE105:
 247              	.LBE104:
 248              	.LBE103:
 249              	.LBE102:
 250              	.LBE126:
 251              	.LBE128:
 252              	.LBE130:
 253              		.loc 1 19 1
 254 0128 6FF09FF8 		j	.L3
 255              	.LVL27:
 256              	.L18:
 257              	.LBB131:
 258              	.LBB129:
 259              	.LBB127:
GAS LISTING /tmp/cc5MQEmu.s 			page 8


 260              	.LBB124:
 261              	.LBB123:
  78:src/../h/list.hpp ****                     addLast(el1);
 262              		.loc 3 78 33
 263 012c E39A04FC 		bnez	s1,.L9
 264              	.LVL28:
 265              	.LBB116:
 266              	.LBB117:
 267              	.LBB118:
 268              	.LBB119:
  18:src/../h/list.hpp ****         void operator delete (void * ptr){ __mem_free(ptr);}
 269              		.loc 3 18 60
 270 0130 13050001 		li	a0,16
 271              	.LVL29:
 272 0134 97000000 		call	__mem_alloc@plt
 272      E7800000 
 273              	.LVL30:
 274              	.LBE119:
 275              	.LBE118:
 276              	.LBB120:
 277              	.LBB121:
  17:src/../h/list.hpp ****         void *operator new (size_t size){return __mem_alloc(size);}
 278              		.loc 3 17 58
 279 013c 23303501 		sd	s3,0(a0)
 280 0140 23340500 		sd	zero,8(a0)
 281              	.LVL31:
 282              	.LBE121:
 283              	.LBE120:
  44:src/../h/list.hpp ****         {
 284              		.loc 3 44 13
 285 0144 83378900 		ld	a5,8(s2)
  44:src/../h/list.hpp ****         {
 286              		.loc 3 44 9
 287 0148 638E0700 		beqz	a5,.L10
  46:src/../h/list.hpp ****             tail = elem;
 288              		.loc 3 46 13
 289 014c 23B4A700 		sd	a0,8(a5)
  47:src/../h/list.hpp ****         } else
 290              		.loc 3 47 13
 291 0150 2334A900 		sd	a0,8(s2)
 292              	.L11:
  52:src/../h/list.hpp ****     }
 293              		.loc 3 52 9
 294 0154 83270901 		lw	a5,16(s2)
 295 0158 9B871700 		addiw	a5,a5,1
 296 015c 2328F900 		sw	a5,16(s2)
  53:src/../h/list.hpp **** 
 297              		.loc 3 53 5
 298 0160 6FF01FF5 		j	.L3
 299              	.L10:
  50:src/../h/list.hpp ****         }
 300              		.loc 3 50 13
 301 0164 2334A900 		sd	a0,8(s2)
 302 0168 2330A900 		sd	a0,0(s2)
 303 016c 6FF09FFE 		j	.L11
 304              	.LVL32:
 305              	.L19:
GAS LISTING /tmp/cc5MQEmu.s 			page 9


 306              	.LBE117:
 307              	.LBE116:
 308              	.LBB122:
  80:src/../h/list.hpp ****                     addLast(el1);
 309              		.loc 3 80 48
 310 0170 03B70400 		ld	a4,0(s1)
  80:src/../h/list.hpp ****                     addLast(el1);
 311              		.loc 3 80 54
 312 0174 03378700 		ld	a4,8(a4)
  80:src/../h/list.hpp ****                     addLast(el1);
 313              		.loc 3 80 40
 314 0178 E396E7F8 		bne	a5,a4,.L12
 315              	.LVL33:
 316              	.LBB110:
 317              	.LBB111:
 318              	.LBB112:
 319              	.LBB113:
  18:src/../h/list.hpp ****         void operator delete (void * ptr){ __mem_free(ptr);}
 320              		.loc 3 18 60
 321 017c 13050001 		li	a0,16
 322              	.LVL34:
 323 0180 97000000 		call	__mem_alloc@plt
 323      E7800000 
 324              	.LVL35:
 325              	.LBE113:
 326              	.LBE112:
 327              	.LBB114:
 328              	.LBB115:
  17:src/../h/list.hpp ****         void *operator new (size_t size){return __mem_alloc(size);}
 329              		.loc 3 17 58
 330 0188 23303501 		sd	s3,0(a0)
 331 018c 23340500 		sd	zero,8(a0)
 332              	.LVL36:
 333              	.LBE115:
 334              	.LBE114:
  44:src/../h/list.hpp ****         {
 335              		.loc 3 44 13
 336 0190 83378900 		ld	a5,8(s2)
  44:src/../h/list.hpp ****         {
 337              		.loc 3 44 9
 338 0194 638E0700 		beqz	a5,.L13
  46:src/../h/list.hpp ****             tail = elem;
 339              		.loc 3 46 13
 340 0198 23B4A700 		sd	a0,8(a5)
  47:src/../h/list.hpp ****         } else
 341              		.loc 3 47 13
 342 019c 2334A900 		sd	a0,8(s2)
 343              	.L14:
  52:src/../h/list.hpp ****     }
 344              		.loc 3 52 9
 345 01a0 83270901 		lw	a5,16(s2)
 346 01a4 9B871700 		addiw	a5,a5,1
 347 01a8 2328F900 		sw	a5,16(s2)
  53:src/../h/list.hpp **** 
 348              		.loc 3 53 5
 349 01ac 6FF05FF0 		j	.L3
 350              	.L13:
GAS LISTING /tmp/cc5MQEmu.s 			page 10


  50:src/../h/list.hpp ****         }
 351              		.loc 3 50 13
 352 01b0 2334A900 		sd	a0,8(s2)
 353 01b4 2330A900 		sd	a0,0(s2)
 354 01b8 6FF09FFE 		j	.L14
 355              	.LBE111:
 356              	.LBE110:
 357              	.LBE122:
 358              	.LBE123:
 359              	.LBE124:
 360              	.LBE127:
 361              	.LBE129:
 362              	.LBE131:
 363              		.cfi_endproc
 364              	.LFE67:
 366              		.align	2
 367              		.globl	_ZN8TimeList8finishedEv
 369              	_ZN8TimeList8finishedEv:
 370              	.LFB68:
  20:src/TimeList.cpp **** bool TimeList::finished() {
 371              		.loc 1 20 27 is_stmt 1
 372              		.cfi_startproc
 373              	.LVL37:
 374 01bc 130101FF 		addi	sp,sp,-16
 375              		.cfi_def_cfa_offset 16
 376 01c0 23348100 		sd	s0,8(sp)
 377              		.cfi_offset 8, -8
 378 01c4 13040101 		addi	s0,sp,16
 379              		.cfi_def_cfa 8, 0
  21:src/TimeList.cpp ****     ElemTime * elem =  list_Time.peekFirst();
 380              		.loc 1 21 5
 381              	.LVL38:
 382              	.LBB132:
 383              	.LBB133:
  87:src/../h/list.hpp ****                 }
  88:src/../h/list.hpp ****             }
  89:src/../h/list.hpp **** 
  90:src/../h/list.hpp ****         }
  91:src/../h/list.hpp **** 
  92:src/../h/list.hpp **** 
  93:src/../h/list.hpp ****     T *peekFirst()
  94:src/../h/list.hpp ****     {
  95:src/../h/list.hpp ****         if (!head||sizeofList==0) { return 0; }
 384              		.loc 3 95 14 is_stmt 0
 385 01c8 83370500 		ld	a5,0(a0)
 386              		.loc 3 95 9
 387 01cc 63880700 		beqz	a5,.L21
 388              		.loc 3 95 20
 389 01d0 03270501 		lw	a4,16(a0)
 390              		.loc 3 95 18
 391 01d4 63040702 		beqz	a4,.L23
  96:src/../h/list.hpp ****         return head->data;
 392              		.loc 3 96 22
 393 01d8 83B70700 		ld	a5,0(a5)
 394              	.L21:
 395              	.LVL39:
 396              	.LBE133:
GAS LISTING /tmp/cc5MQEmu.s 			page 11


 397              	.LBE132:
  22:src/TimeList.cpp ****     return (list_Time.size() > 0 &&
 398              		.loc 1 22 5 is_stmt 1
 399              	.LBB135:
 400              	.LBB136:
  32:src/../h/list.hpp ****     void addFirst(T *data)
 401              		.loc 3 32 35 is_stmt 0
 402 01dc 03270501 		lw	a4,16(a0)
 403              	.LVL40:
 404              	.LBE136:
 405              	.LBE135:
 406              		.loc 1 22 34
 407 01e0 63020702 		beqz	a4,.L24
  23:src/TimeList.cpp ****             elem->time <= currentTime);
 408              		.loc 1 23 19 discriminator 1
 409 01e4 03B78700 		ld	a4,8(a5)
 410              		.loc 1 23 24 discriminator 1
 411 01e8 97070000 		ld	a5,.LANCHOR0
 411      83B70700 
 412              	.LVL41:
  22:src/TimeList.cpp ****     return (list_Time.size() > 0 &&
 413              		.loc 1 22 34 discriminator 1
 414 01f0 63F2E702 		bleu	a4,a5,.L25
  22:src/TimeList.cpp ****     return (list_Time.size() > 0 &&
 415              		.loc 1 22 34
 416 01f4 13050000 		li	a0,0
 417              	.LVL42:
 418 01f8 6F000001 		j	.L22
 419              	.LVL43:
 420              	.L23:
 421              	.LBB137:
 422              	.LBB134:
  95:src/../h/list.hpp ****         return head->data;
 423              		.loc 3 95 44
 424 01fc 93070000 		li	a5,0
 425 0200 6FF0DFFD 		j	.L21
 426              	.LVL44:
 427              	.L24:
 428              	.LBE134:
 429              	.LBE137:
  22:src/TimeList.cpp ****             elem->time <= currentTime);
 430              		.loc 1 22 34
 431 0204 13050000 		li	a0,0
 432              	.LVL45:
 433              	.L22:
  24:src/TimeList.cpp **** }
 434              		.loc 1 24 1
 435 0208 03348100 		ld	s0,8(sp)
 436              		.cfi_remember_state
 437              		.cfi_restore 8
 438              		.cfi_def_cfa 2, 16
 439 020c 13010101 		addi	sp,sp,16
 440              		.cfi_def_cfa_offset 0
 441 0210 67800000 		jr	ra
 442              	.LVL46:
 443              	.L25:
 444              		.cfi_restore_state
GAS LISTING /tmp/cc5MQEmu.s 			page 12


  22:src/TimeList.cpp ****             elem->time <= currentTime);
 445              		.loc 1 22 34
 446 0214 13051000 		li	a0,1
 447              	.LVL47:
 448 0218 6FF01FFF 		j	.L22
 449              		.cfi_endproc
 450              	.LFE68:
 452              		.align	2
 453              		.globl	_ZN8TimeList7isEmptyEv
 455              	_ZN8TimeList7isEmptyEv:
 456              	.LFB69:
  25:src/TimeList.cpp **** bool TimeList::isEmpty() {
 457              		.loc 1 25 26 is_stmt 1
 458              		.cfi_startproc
 459              	.LVL48:
 460 021c 130101FF 		addi	sp,sp,-16
 461              		.cfi_def_cfa_offset 16
 462 0220 23348100 		sd	s0,8(sp)
 463              		.cfi_offset 8, -8
 464 0224 13040101 		addi	s0,sp,16
 465              		.cfi_def_cfa 8, 0
  26:src/TimeList.cpp ****     if(list_Time.size()<=0)return true;
 466              		.loc 1 26 5
 467              	.LVL49:
 468              	.LBB138:
 469              	.LBB139:
  32:src/../h/list.hpp ****     void addFirst(T *data)
 470              		.loc 3 32 35 is_stmt 0
 471 0228 83270501 		lw	a5,16(a0)
 472              	.LVL50:
 473              	.LBE139:
 474              	.LBE138:
 475              		.loc 1 26 5
 476 022c 639A0700 		bnez	a5,.L29
 477              		.loc 1 26 35
 478 0230 13051000 		li	a0,1
 479              	.LVL51:
 480              	.L28:
  27:src/TimeList.cpp ****     else
  28:src/TimeList.cpp ****         return false;
  29:src/TimeList.cpp **** }
 481              		.loc 1 29 1
 482 0234 03348100 		ld	s0,8(sp)
 483              		.cfi_remember_state
 484              		.cfi_restore 8
 485              		.cfi_def_cfa 2, 16
 486 0238 13010101 		addi	sp,sp,16
 487              		.cfi_def_cfa_offset 0
 488 023c 67800000 		jr	ra
 489              	.LVL52:
 490              	.L29:
 491              		.cfi_restore_state
  28:src/TimeList.cpp **** }
 492              		.loc 1 28 16
 493 0240 13050000 		li	a0,0
 494              	.LVL53:
 495 0244 6FF01FFF 		j	.L28
GAS LISTING /tmp/cc5MQEmu.s 			page 13


 496              		.cfi_endproc
 497              	.LFE69:
 499              		.align	2
 500              		.globl	_ZN8TimeList8popFrontEv
 502              	_ZN8TimeList8popFrontEv:
 503              	.LFB70:
  30:src/TimeList.cpp **** 
  31:src/TimeList.cpp **** TCB* TimeList::popFront() {
 504              		.loc 1 31 27 is_stmt 1
 505              		.cfi_startproc
 506              	.LVL54:
 507 0248 130101FE 		addi	sp,sp,-32
 508              		.cfi_def_cfa_offset 32
 509 024c 233C1100 		sd	ra,24(sp)
 510 0250 23388100 		sd	s0,16(sp)
 511 0254 23349100 		sd	s1,8(sp)
 512              		.cfi_offset 1, -8
 513              		.cfi_offset 8, -16
 514              		.cfi_offset 9, -24
 515 0258 13040102 		addi	s0,sp,32
 516              		.cfi_def_cfa 8, 0
 517 025c 93070500 		mv	a5,a0
  32:src/TimeList.cpp ****     return list_Time.removeFirst()->tcb;
 518              		.loc 1 32 5
 519              	.LVL55:
 520              	.LBB144:
 521              	.LBB145:
  57:src/../h/list.hpp **** 
 522              		.loc 3 57 14 is_stmt 0
 523 0260 03350500 		ld	a0,0(a0)
 524              	.LVL56:
  57:src/../h/list.hpp **** 
 525              		.loc 3 57 9
 526 0264 63040504 		beqz	a0,.L34
 527              	.LVL57:
  60:src/../h/list.hpp ****         if (!head) { tail = 0; }
 528              		.loc 3 60 22
 529 0268 03378500 		ld	a4,8(a0)
  60:src/../h/list.hpp ****         if (!head) { tail = 0; }
 530              		.loc 3 60 9
 531 026c 23B0E700 		sd	a4,0(a5)
  61:src/../h/list.hpp ****         sizeofList--;
 532              		.loc 3 61 9
 533 0270 630A0702 		beqz	a4,.L36
 534              	.L33:
  62:src/../h/list.hpp ****         T *ret = elem->data;
 535              		.loc 3 62 9
 536 0274 03A70701 		lw	a4,16(a5)
 537 0278 1B07F7FF 		addiw	a4,a4,-1
 538 027c 23A8E700 		sw	a4,16(a5)
  63:src/../h/list.hpp ****         delete elem;
 539              		.loc 3 63 12
 540 0280 83340500 		ld	s1,0(a0)
 541              	.LVL58:
 542              	.LBB146:
 543              	.LBB147:
  19:src/../h/list.hpp ****     };
GAS LISTING /tmp/cc5MQEmu.s 			page 14


 544              		.loc 3 19 54
 545 0284 97000000 		call	__mem_free@plt
 545      E7800000 
 546              	.LVL59:
 547              	.L32:
 548              	.LBE147:
 549              	.LBE146:
 550              	.LBE145:
 551              	.LBE144:
  33:src/TimeList.cpp **** }
 552              		.loc 1 33 1
 553 028c 03B50400 		ld	a0,0(s1)
 554 0290 83308101 		ld	ra,24(sp)
 555              		.cfi_remember_state
 556              		.cfi_restore 1
 557 0294 03340101 		ld	s0,16(sp)
 558              		.cfi_restore 8
 559              		.cfi_def_cfa 2, 32
 560 0298 83348100 		ld	s1,8(sp)
 561              		.cfi_restore 9
 562 029c 13010102 		addi	sp,sp,32
 563              		.cfi_def_cfa_offset 0
 564 02a0 67800000 		jr	ra
 565              	.LVL60:
 566              	.L36:
 567              		.cfi_restore_state
 568              	.LBB149:
 569              	.LBB148:
  61:src/../h/list.hpp ****         sizeofList--;
 570              		.loc 3 61 22
 571 02a4 23B40700 		sd	zero,8(a5)
 572 02a8 6FF0DFFC 		j	.L33
 573              	.LVL61:
 574              	.L34:
  57:src/../h/list.hpp **** 
 575              		.loc 3 57 29
 576 02ac 93040500 		mv	s1,a0
 577 02b0 6FF0DFFD 		j	.L32
 578              	.LBE148:
 579              	.LBE149:
 580              		.cfi_endproc
 581              	.LFE70:
 583              		.align	2
 584              		.globl	_ZN8TimeList7popBackEv
 586              	_ZN8TimeList7popBackEv:
 587              	.LFB71:
  34:src/TimeList.cpp **** TCB* TimeList::popBack() {
 588              		.loc 1 34 26 is_stmt 1
 589              		.cfi_startproc
 590              	.LVL62:
 591 02b4 130101FE 		addi	sp,sp,-32
 592              		.cfi_def_cfa_offset 32
 593 02b8 233C1100 		sd	ra,24(sp)
 594 02bc 23388100 		sd	s0,16(sp)
 595 02c0 23349100 		sd	s1,8(sp)
 596 02c4 23302101 		sd	s2,0(sp)
 597              		.cfi_offset 1, -8
GAS LISTING /tmp/cc5MQEmu.s 			page 15


 598              		.cfi_offset 8, -16
 599              		.cfi_offset 9, -24
 600              		.cfi_offset 18, -32
 601 02c8 13040102 		addi	s0,sp,32
 602              		.cfi_def_cfa 8, 0
 603 02cc 13090500 		mv	s2,a0
  35:src/TimeList.cpp ****     if(isEmpty())return nullptr;
 604              		.loc 1 35 5
 605              		.loc 1 35 15 is_stmt 0
 606 02d0 97000000 		call	_ZN8TimeList7isEmptyEv
 606      E7800000 
 607              	.LVL63:
 608              		.loc 1 35 5
 609 02d8 631E0506 		bnez	a0,.L45
  36:src/TimeList.cpp ****     return list_Time.removeLast()->tcb;
 610              		.loc 1 36 5 is_stmt 1
 611              		.loc 1 36 32 is_stmt 0
 612 02dc 93060900 		mv	a3,s2
 613              	.LVL64:
 614              	.LBB155:
 615              	.LBB156:
  97:src/../h/list.hpp ****     }
  98:src/../h/list.hpp ****         bool tickCheck(time_t currenttime){
  99:src/../h/list.hpp ****             if(!head)return false;
 100:src/../h/list.hpp ****             if(head->data->time<=currenttime)return true;
 101:src/../h/list.hpp ****             else
 102:src/../h/list.hpp ****                 return false;
 103:src/../h/list.hpp ****         }
 104:src/../h/list.hpp ****     T *removeLast()
 105:src/../h/list.hpp ****     {
 106:src/../h/list.hpp ****         if (!head) { return 0; }
 616              		.loc 3 106 14
 617 02e0 83340900 		ld	s1,0(s2)
 618              		.loc 3 106 9
 619 02e4 63860404 		beqz	s1,.L39
 107:src/../h/list.hpp **** 
 108:src/../h/list.hpp ****         Elem *prev = 0;
 620              		.loc 3 108 15
 621 02e8 93070000 		li	a5,0
 622              	.L41:
 623              	.LVL65:
 624              	.LBB157:
 109:src/../h/list.hpp ****         for (Elem *curr = head; curr && curr != tail; curr = curr->next)
 625              		.loc 3 109 38 is_stmt 1
 626 02ec 638C0400 		beqz	s1,.L40
 627              		.loc 3 109 49 is_stmt 0
 628 02f0 03B78600 		ld	a4,8(a3)
 629              		.loc 3 109 38
 630 02f4 6388E400 		beq	s1,a4,.L40
 631              	.LVL66:
 632              		.loc 3 109 9 is_stmt 1
 110:src/../h/list.hpp ****         {
 111:src/../h/list.hpp ****             prev = curr;
 633              		.loc 3 111 13 is_stmt 0
 634 02f8 93870400 		mv	a5,s1
 109:src/../h/list.hpp ****         for (Elem *curr = head; curr && curr != tail; curr = curr->next)
 635              		.loc 3 109 9
GAS LISTING /tmp/cc5MQEmu.s 			page 16


 636 02fc 83B48400 		ld	s1,8(s1)
 637              	.LVL67:
 638 0300 6FF0DFFE 		j	.L41
 639              	.LVL68:
 640              	.L40:
 641              	.LBE157:
 112:src/../h/list.hpp ****         }
 113:src/../h/list.hpp **** 
 114:src/../h/list.hpp ****         Elem *elem = tail;
 642              		.loc 3 114 15
 643 0304 03358900 		ld	a0,8(s2)
 644              	.LVL69:
 115:src/../h/list.hpp ****         if (prev) { prev->next = 0; }
 645              		.loc 3 115 9
 646 0308 63820704 		beqz	a5,.L42
 647              		.loc 3 115 21
 648 030c 23B40700 		sd	zero,8(a5)
 649              	.L43:
 116:src/../h/list.hpp ****         else { head = 0; }
 117:src/../h/list.hpp ****         tail = prev;
 650              		.loc 3 117 9
 651 0310 2334F900 		sd	a5,8(s2)
 118:src/../h/list.hpp **** 
 119:src/../h/list.hpp ****         T *ret = elem->data;
 652              		.loc 3 119 12
 653 0314 83340500 		ld	s1,0(a0)
 654              	.LVL70:
 120:src/../h/list.hpp ****         delete elem;
 655              		.loc 3 120 9
 656 0318 63060500 		beqz	a0,.L44
 657              	.LVL71:
 658              	.LBB158:
 659              	.LBB159:
  19:src/../h/list.hpp ****     };
 660              		.loc 3 19 54
 661 031c 97000000 		call	__mem_free@plt
 661      E7800000 
 662              	.LVL72:
 663              	.L44:
 664              	.LBE159:
 665              	.LBE158:
 121:src/../h/list.hpp ****         sizeofList--;
 666              		.loc 3 121 9
 667 0324 83270901 		lw	a5,16(s2)
 668 0328 9B87F7FF 		addiw	a5,a5,-1
 669 032c 2328F900 		sw	a5,16(s2)
 670              	.LVL73:
 671              	.L39:
 672              	.LBE156:
 673              	.LBE155:
 674              		.loc 1 36 36
 675 0330 03B50400 		ld	a0,0(s1)
 676              	.L37:
  37:src/TimeList.cpp **** }
 677              		.loc 1 37 1
 678 0334 83308101 		ld	ra,24(sp)
 679              		.cfi_remember_state
GAS LISTING /tmp/cc5MQEmu.s 			page 17


 680              		.cfi_restore 1
 681 0338 03340101 		ld	s0,16(sp)
 682              		.cfi_restore 8
 683              		.cfi_def_cfa 2, 32
 684 033c 83348100 		ld	s1,8(sp)
 685              		.cfi_restore 9
 686 0340 03390100 		ld	s2,0(sp)
 687              		.cfi_restore 18
 688              	.LVL74:
 689 0344 13010102 		addi	sp,sp,32
 690              		.cfi_def_cfa_offset 0
 691 0348 67800000 		jr	ra
 692              	.LVL75:
 693              	.L42:
 694              		.cfi_restore_state
 695              	.LBB161:
 696              	.LBB160:
 116:src/../h/list.hpp ****         tail = prev;
 697              		.loc 3 116 16
 698 034c 23300900 		sd	zero,0(s2)
 699 0350 6FF01FFC 		j	.L43
 700              	.LVL76:
 701              	.L45:
 702              	.LBE160:
 703              	.LBE161:
  35:src/TimeList.cpp ****     return list_Time.removeLast()->tcb;
 704              		.loc 1 35 25
 705 0354 13050000 		li	a0,0
 706 0358 6FF0DFFD 		j	.L37
 707              		.cfi_endproc
 708              	.LFE71:
 710              		.align	2
 711              		.globl	_ZN8TimeList9PeekFrontEv
 713              	_ZN8TimeList9PeekFrontEv:
 714              	.LFB72:
  38:src/TimeList.cpp **** TCB* TimeList::PeekFront() {
 715              		.loc 1 38 28 is_stmt 1
 716              		.cfi_startproc
 717              	.LVL77:
 718 035c 130101FE 		addi	sp,sp,-32
 719              		.cfi_def_cfa_offset 32
 720 0360 233C1100 		sd	ra,24(sp)
 721 0364 23388100 		sd	s0,16(sp)
 722 0368 23349100 		sd	s1,8(sp)
 723              		.cfi_offset 1, -8
 724              		.cfi_offset 8, -16
 725              		.cfi_offset 9, -24
 726 036c 13040102 		addi	s0,sp,32
 727              		.cfi_def_cfa 8, 0
 728 0370 93040500 		mv	s1,a0
  39:src/TimeList.cpp ****     if(isEmpty())return nullptr;
 729              		.loc 1 39 5
 730              		.loc 1 39 15 is_stmt 0
 731 0374 97000000 		call	_ZN8TimeList7isEmptyEv
 731      E7800000 
 732              	.LVL78:
 733              		.loc 1 39 5
GAS LISTING /tmp/cc5MQEmu.s 			page 18


 734 037c 631C0502 		bnez	a0,.L50
  40:src/TimeList.cpp ****     return list_Time.peekFirst()->tcb;
 735              		.loc 1 40 5 is_stmt 1
 736              	.LVL79:
 737              	.LBB162:
 738              	.LBB163:
  95:src/../h/list.hpp ****         return head->data;
 739              		.loc 3 95 14 is_stmt 0
 740 0380 83B70400 		ld	a5,0(s1)
  95:src/../h/list.hpp ****         return head->data;
 741              		.loc 3 95 9
 742 0384 63880700 		beqz	a5,.L49
  95:src/../h/list.hpp ****         return head->data;
 743              		.loc 3 95 20
 744 0388 03A70401 		lw	a4,16(s1)
  95:src/../h/list.hpp ****         return head->data;
 745              		.loc 3 95 18
 746 038c 63000702 		beqz	a4,.L51
  96:src/../h/list.hpp ****     }
 747              		.loc 3 96 22
 748 0390 83B70700 		ld	a5,0(a5)
 749              	.L49:
 750              	.LVL80:
 751              	.LBE163:
 752              	.LBE162:
 753              		.loc 1 40 35
 754 0394 03B50700 		ld	a0,0(a5)
 755              	.L47:
  41:src/TimeList.cpp **** }
 756              		.loc 1 41 1
 757 0398 83308101 		ld	ra,24(sp)
 758              		.cfi_remember_state
 759              		.cfi_restore 1
 760 039c 03340101 		ld	s0,16(sp)
 761              		.cfi_restore 8
 762              		.cfi_def_cfa 2, 32
 763 03a0 83348100 		ld	s1,8(sp)
 764              		.cfi_restore 9
 765              	.LVL81:
 766 03a4 13010102 		addi	sp,sp,32
 767              		.cfi_def_cfa_offset 0
 768 03a8 67800000 		jr	ra
 769              	.LVL82:
 770              	.L51:
 771              		.cfi_restore_state
 772              	.LBB165:
 773              	.LBB164:
  95:src/../h/list.hpp ****         return head->data;
 774              		.loc 3 95 44
 775 03ac 93070000 		li	a5,0
 776 03b0 6FF05FFE 		j	.L49
 777              	.LVL83:
 778              	.L50:
 779              	.LBE164:
 780              	.LBE165:
  39:src/TimeList.cpp ****     return list_Time.peekFirst()->tcb;
 781              		.loc 1 39 25
GAS LISTING /tmp/cc5MQEmu.s 			page 19


 782 03b4 13050000 		li	a0,0
 783 03b8 6FF01FFE 		j	.L47
 784              		.cfi_endproc
 785              	.LFE72:
 787              		.align	2
 788              		.globl	_ZN8TimeList8PeekLastEv
 790              	_ZN8TimeList8PeekLastEv:
 791              	.LFB73:
  42:src/TimeList.cpp **** TCB* TimeList::PeekLast() {
 792              		.loc 1 42 27 is_stmt 1
 793              		.cfi_startproc
 794              	.LVL84:
 795 03bc 130101FE 		addi	sp,sp,-32
 796              		.cfi_def_cfa_offset 32
 797 03c0 233C1100 		sd	ra,24(sp)
 798 03c4 23388100 		sd	s0,16(sp)
 799 03c8 23349100 		sd	s1,8(sp)
 800              		.cfi_offset 1, -8
 801              		.cfi_offset 8, -16
 802              		.cfi_offset 9, -24
 803 03cc 13040102 		addi	s0,sp,32
 804              		.cfi_def_cfa 8, 0
 805 03d0 93040500 		mv	s1,a0
  43:src/TimeList.cpp ****     if(isEmpty())return nullptr;
 806              		.loc 1 43 5
 807              		.loc 1 43 15 is_stmt 0
 808 03d4 97000000 		call	_ZN8TimeList7isEmptyEv
 808      E7800000 
 809              	.LVL85:
 810              		.loc 1 43 5
 811 03dc 63140502 		bnez	a0,.L56
  44:src/TimeList.cpp ****     return  list_Time.peekLast()->tcb;
 812              		.loc 1 44 5 is_stmt 1
 813              	.LVL86:
 814              	.LBB166:
 815              	.LBB167:
 122:src/../h/list.hpp ****         return ret;
 123:src/../h/list.hpp ****     }
 124:src/../h/list.hpp **** 
 125:src/../h/list.hpp ****     T *peekLast()
 126:src/../h/list.hpp ****     {
 127:src/../h/list.hpp ****         if (!tail) { return 0; }
 816              		.loc 3 127 14 is_stmt 0
 817 03e0 83B78400 		ld	a5,8(s1)
 818              		.loc 3 127 9
 819 03e4 63840700 		beqz	a5,.L55
 128:src/../h/list.hpp ****         return tail->data;
 820              		.loc 3 128 22
 821 03e8 83B70700 		ld	a5,0(a5)
 822              	.L55:
 823              	.LVL87:
 824              	.LBE167:
 825              	.LBE166:
 826              		.loc 1 44 35
 827 03ec 03B50700 		ld	a0,0(a5)
 828              	.L53:
  45:src/TimeList.cpp **** }
GAS LISTING /tmp/cc5MQEmu.s 			page 20


 829              		.loc 1 45 1
 830 03f0 83308101 		ld	ra,24(sp)
 831              		.cfi_remember_state
 832              		.cfi_restore 1
 833 03f4 03340101 		ld	s0,16(sp)
 834              		.cfi_restore 8
 835              		.cfi_def_cfa 2, 32
 836 03f8 83348100 		ld	s1,8(sp)
 837              		.cfi_restore 9
 838              	.LVL88:
 839 03fc 13010102 		addi	sp,sp,32
 840              		.cfi_def_cfa_offset 0
 841 0400 67800000 		jr	ra
 842              	.LVL89:
 843              	.L56:
 844              		.cfi_restore_state
  43:src/TimeList.cpp ****     return  list_Time.peekLast()->tcb;
 845              		.loc 1 43 25
 846 0404 13050000 		li	a0,0
 847 0408 6FF09FFE 		j	.L53
 848              		.cfi_endproc
 849              	.LFE73:
 851              		.align	2
 852              		.globl	_ZN8TimeList4tickEv
 854              	_ZN8TimeList4tickEv:
 855              	.LFB74:
  46:src/TimeList.cpp **** 
  47:src/TimeList.cpp **** void TimeList::tick() {
 856              		.loc 1 47 23 is_stmt 1
 857              		.cfi_startproc
 858              	.LVL90:
 859 040c 130101FE 		addi	sp,sp,-32
 860              		.cfi_def_cfa_offset 32
 861 0410 233C1100 		sd	ra,24(sp)
 862 0414 23388100 		sd	s0,16(sp)
 863 0418 23349100 		sd	s1,8(sp)
 864 041c 23302101 		sd	s2,0(sp)
 865              		.cfi_offset 1, -8
 866              		.cfi_offset 8, -16
 867              		.cfi_offset 9, -24
 868              		.cfi_offset 18, -32
 869 0420 13040102 		addi	s0,sp,32
 870              		.cfi_def_cfa 8, 0
 871 0424 93040500 		mv	s1,a0
  48:src/TimeList.cpp ****     currentTimePassed++;
 872              		.loc 1 48 5
 873              		.loc 1 48 22 is_stmt 0
 874 0428 17070000 		lla	a4,.LANCHOR0
 874      13070700 
 875 0430 83378700 		ld	a5,8(a4)
 876 0434 93871700 		addi	a5,a5,1
 877 0438 2334F700 		sd	a5,8(a4)
  49:src/TimeList.cpp ****     if(list_Time.size()==0)currentTime=0;
 878              		.loc 1 49 5 is_stmt 1
 879              	.LVL91:
 880              	.LBB177:
 881              	.LBB178:
GAS LISTING /tmp/cc5MQEmu.s 			page 21


  32:src/../h/list.hpp ****     void addFirst(T *data)
 882              		.loc 3 32 35 is_stmt 0
 883 043c 83270501 		lw	a5,16(a0)
 884              	.LVL92:
 885              	.LBE178:
 886              	.LBE177:
 887              		.loc 1 49 5
 888 0440 63980700 		bnez	a5,.L59
 889              		.loc 1 49 28 is_stmt 1 discriminator 1
 890              		.loc 1 49 39 is_stmt 0 discriminator 1
 891 0444 97070000 		sd	zero,.LANCHOR0,a5
 891      23B00700 
 892 044c 6F004004 		j	.L60
 893              	.L59:
  50:src/TimeList.cpp ****     else currentTime+=1;
 894              		.loc 1 50 10 is_stmt 1
 895              		.loc 1 50 21 is_stmt 0
 896 0450 17070000 		lla	a4,.LANCHOR0
 896      13070700 
 897 0458 83370700 		ld	a5,0(a4)
 898 045c 93871700 		addi	a5,a5,1
 899 0460 2330F700 		sd	a5,0(a4)
 900 0464 6F00C002 		j	.L60
 901              	.LVL93:
 902              	.L67:
 903              	.LBB179:
 904              	.LBB180:
 905              	.LBB181:
  61:src/../h/list.hpp ****         sizeofList--;
 906              		.loc 3 61 22
 907 0468 23B40400 		sd	zero,8(s1)
 908              	.L64:
  62:src/../h/list.hpp ****         T *ret = elem->data;
 909              		.loc 3 62 9
 910 046c 83A70401 		lw	a5,16(s1)
 911 0470 9B87F7FF 		addiw	a5,a5,-1
 912 0474 23A8F400 		sw	a5,16(s1)
  63:src/../h/list.hpp ****         delete elem;
 913              		.loc 3 63 12
 914 0478 03390500 		ld	s2,0(a0)
 915              	.LVL94:
 916              	.LBB182:
 917              	.LBB183:
  19:src/../h/list.hpp ****     };
 918              		.loc 3 19 54
 919 047c 97000000 		call	__mem_free@plt
 919      E7800000 
 920              	.LVL95:
 921              	.L63:
 922              	.LBE183:
 923              	.LBE182:
 924              	.LBE181:
 925              	.LBE180:
  51:src/TimeList.cpp ****     while(list_Time.tickCheck(currentTime)) {
  52:src/TimeList.cpp ****         TCB *tcb = list_Time.removeFirst()->tcb;
  53:src/TimeList.cpp ****         tcb->wakeUp();
 926              		.loc 1 53 9 is_stmt 1
GAS LISTING /tmp/cc5MQEmu.s 			page 22


 927              		.loc 1 53 20 is_stmt 0
 928 0484 03350900 		ld	a0,0(s2)
 929 0488 97000000 		call	_ZN3TCB6wakeUpEv@plt
 929      E7800000 
 930              	.LVL96:
 931              	.L60:
 932              	.LBE179:
  51:src/TimeList.cpp ****     while(list_Time.tickCheck(currentTime)) {
 933              		.loc 1 51 5 is_stmt 1
  51:src/TimeList.cpp ****     while(list_Time.tickCheck(currentTime)) {
 934              		.loc 1 51 30
 935 0490 17070000 		ld	a4,.LANCHOR0
 935      03370700 
 936              	.LVL97:
 937              	.LBB186:
 938              	.LBB187:
  99:src/../h/list.hpp ****             if(head->data->time<=currenttime)return true;
 939              		.loc 3 99 17 is_stmt 0
 940 0498 83B70400 		ld	a5,0(s1)
  99:src/../h/list.hpp ****             if(head->data->time<=currenttime)return true;
 941              		.loc 3 99 13
 942 049c 63880702 		beqz	a5,.L58
 100:src/../h/list.hpp ****             else
 943              		.loc 3 100 22
 944 04a0 83B70700 		ld	a5,0(a5)
 100:src/../h/list.hpp ****             else
 945              		.loc 3 100 28
 946 04a4 83B78700 		ld	a5,8(a5)
 100:src/../h/list.hpp ****             else
 947              		.loc 3 100 13
 948 04a8 6362F702 		bltu	a4,a5,.L58
 949              	.LVL98:
 950              	.LBE187:
 951              	.LBE186:
 952              	.LBB188:
  52:src/TimeList.cpp ****         tcb->wakeUp();
 953              		.loc 1 52 9 is_stmt 1
 954              	.LBB185:
 955              	.LBB184:
  57:src/../h/list.hpp **** 
 956              		.loc 3 57 14 is_stmt 0
 957 04ac 03B50400 		ld	a0,0(s1)
  57:src/../h/list.hpp **** 
 958              		.loc 3 57 9
 959 04b0 630A0500 		beqz	a0,.L65
 960              	.LVL99:
  60:src/../h/list.hpp ****         if (!head) { tail = 0; }
 961              		.loc 3 60 22
 962 04b4 83378500 		ld	a5,8(a0)
  60:src/../h/list.hpp ****         if (!head) { tail = 0; }
 963              		.loc 3 60 9
 964 04b8 23B0F400 		sd	a5,0(s1)
  61:src/../h/list.hpp ****         sizeofList--;
 965              		.loc 3 61 9
 966 04bc E39807FA 		bnez	a5,.L64
 967 04c0 6FF09FFA 		j	.L67
 968              	.LVL100:
GAS LISTING /tmp/cc5MQEmu.s 			page 23


 969              	.L65:
  57:src/../h/list.hpp **** 
 970              		.loc 3 57 29
 971 04c4 13090500 		mv	s2,a0
 972 04c8 6FF0DFFB 		j	.L63
 973              	.LVL101:
 974              	.L58:
 975              	.LBE184:
 976              	.LBE185:
 977              	.LBE188:
  54:src/TimeList.cpp ****     }
  55:src/TimeList.cpp **** }...
 978              		.loc 1 55 1
 979 04cc 83308101 		ld	ra,24(sp)
 980              		.cfi_restore 1
 981 04d0 03340101 		ld	s0,16(sp)
 982              		.cfi_restore 8
 983              		.cfi_def_cfa 2, 32
 984 04d4 83348100 		ld	s1,8(sp)
 985              		.cfi_restore 9
 986              	.LVL102:
 987 04d8 03390100 		ld	s2,0(sp)
 988              		.cfi_restore 18
 989 04dc 13010102 		addi	sp,sp,32
 990              		.cfi_def_cfa_offset 0
 991 04e0 67800000 		jr	ra
 992              		.cfi_endproc
 993              	.LFE74:
 995              		.globl	_ZN8TimeList17currentTimePassedE
 996              		.globl	_ZN8TimeList11currentTimeE
 997              		.bss
 998              		.align	3
 999              		.set	.LANCHOR0,. + 0
 1002              	_ZN8TimeList11currentTimeE:
 1003 0000 00000000 		.zero	8
 1003      00000000 
 1006              	_ZN8TimeList17currentTimePassedE:
 1007 0008 00000000 		.zero	8
 1007      00000000 
 1008              		.text
 1009              	.Letext0:
 1010              		.file 4 "src/../h/../lib/hw.h"
 1011              		.file 5 "src/../h/tcb.hpp"
 1012              		.file 6 "src/../test/../h/syscall_c.hpp"
 1013              		.file 7 "src/../h/../lib/mem.h"
GAS LISTING /tmp/cc5MQEmu.s 			page 24


DEFINED SYMBOLS
                            *ABS*:0000000000000000 TimeList.cpp
     /tmp/cc5MQEmu.s:9      .text:0000000000000000 _ZN8TimeList4sizeEv
     /tmp/cc5MQEmu.s:13     .text:0000000000000000 .L0 
     /tmp/cc5MQEmu.s:15     .text:0000000000000000 .L0 
     /tmp/cc5MQEmu.s:16     .text:0000000000000004 .L0 
     /tmp/cc5MQEmu.s:18     .text:0000000000000008 .L0 
     /tmp/cc5MQEmu.s:20     .text:000000000000000c .L0 
     /tmp/cc5MQEmu.s:22     .text:000000000000000c .L0 
     /tmp/cc5MQEmu.s:23     .text:000000000000000c .L0 
     /tmp/cc5MQEmu.s:26     .text:0000000000000014 .L0 
     /tmp/cc5MQEmu.s:27     .text:0000000000000014 .L0 
     /tmp/cc5MQEmu.s:29     .text:0000000000000018 .L0 
     /tmp/cc5MQEmu.s:31     .text:000000000000001c .L0 
     /tmp/cc5MQEmu.s:37     .text:000000000000001c _ZN8TimeList3addEP3TCBm
     /tmp/cc5MQEmu.s:40     .text:000000000000001c .L0 
     /tmp/cc5MQEmu.s:42     .text:000000000000001c .L0 
     /tmp/cc5MQEmu.s:43     .text:0000000000000020 .L0 
     /tmp/cc5MQEmu.s:50     .text:0000000000000038 .L0 
     /tmp/cc5MQEmu.s:51     .text:0000000000000038 .L0 
     /tmp/cc5MQEmu.s:52     .text:0000000000000038 .L0 
     /tmp/cc5MQEmu.s:53     .text:0000000000000038 .L0 
     /tmp/cc5MQEmu.s:54     .text:0000000000000038 .L0 
     /tmp/cc5MQEmu.s:55     .text:0000000000000038 .L0 
     /tmp/cc5MQEmu.s:57     .text:000000000000003c .L0 
     /tmp/cc5MQEmu.s:61     .text:0000000000000044 .L0 
     /tmp/cc5MQEmu.s:62     .text:0000000000000044 .L0 
     /tmp/cc5MQEmu.s:69     .text:0000000000000050 .L0 
     /tmp/cc5MQEmu.s:70     .text:0000000000000050 .L0 
     /tmp/cc5MQEmu.s:71     .text:0000000000000050 .L0 
     /tmp/cc5MQEmu.s:82     .text:0000000000000060 .L0 
     /tmp/cc5MQEmu.s:83     .text:0000000000000060 .L0 
     /tmp/cc5MQEmu.s:85     .text:0000000000000064 .L0 
     /tmp/cc5MQEmu.s:86     .text:0000000000000064 .L0 
     /tmp/cc5MQEmu.s:94     .text:0000000000000068 .L0 
     /tmp/cc5MQEmu.s:95     .text:0000000000000068 .L0 
     /tmp/cc5MQEmu.s:99     .text:000000000000006c .L0 
     /tmp/cc5MQEmu.s:101    .text:0000000000000070 .L0 
     /tmp/cc5MQEmu.s:103    .text:0000000000000074 .L0 
     /tmp/cc5MQEmu.s:105    .text:0000000000000078 .L0 
     /tmp/cc5MQEmu.s:107    .text:000000000000007c .L0 
     /tmp/cc5MQEmu.s:115    .text:0000000000000080 .L0 
     /tmp/cc5MQEmu.s:122    .text:000000000000008c .L0 
     /tmp/cc5MQEmu.s:127    .text:0000000000000090 .L0 
     /tmp/cc5MQEmu.s:133    .text:0000000000000098 .L0 
     /tmp/cc5MQEmu.s:135    .text:000000000000009c .L0 
     /tmp/cc5MQEmu.s:137    .text:00000000000000a0 .L0 
     /tmp/cc5MQEmu.s:140    .text:00000000000000a4 .L0 
     /tmp/cc5MQEmu.s:151    .text:00000000000000b0 .L0 
     /tmp/cc5MQEmu.s:152    .text:00000000000000b4 .L0 
     /tmp/cc5MQEmu.s:153    .text:00000000000000b4 .L0 
     /tmp/cc5MQEmu.s:155    .text:00000000000000b8 .L0 
     /tmp/cc5MQEmu.s:156    .text:00000000000000b8 .L0 
     /tmp/cc5MQEmu.s:158    .text:00000000000000bc .L0 
     /tmp/cc5MQEmu.s:160    .text:00000000000000c0 .L0 
     /tmp/cc5MQEmu.s:163    .text:00000000000000c4 .L0 
     /tmp/cc5MQEmu.s:166    .text:00000000000000c8 .L0 
GAS LISTING /tmp/cc5MQEmu.s 			page 25


     /tmp/cc5MQEmu.s:168    .text:00000000000000cc .L0 
     /tmp/cc5MQEmu.s:172    .text:00000000000000d0 .L0 
     /tmp/cc5MQEmu.s:179    .text:00000000000000d0 .L0 
     /tmp/cc5MQEmu.s:187    .text:00000000000000d8 .L0 
     /tmp/cc5MQEmu.s:193    .text:00000000000000dc .L0 
     /tmp/cc5MQEmu.s:195    .text:00000000000000e0 .L0 
     /tmp/cc5MQEmu.s:197    .text:00000000000000e4 .L0 
     /tmp/cc5MQEmu.s:199    .text:00000000000000e8 .L0 
     /tmp/cc5MQEmu.s:202    .text:00000000000000ec .L0 
     /tmp/cc5MQEmu.s:204    .text:00000000000000f0 .L0 
     /tmp/cc5MQEmu.s:207    .text:00000000000000f4 .L0 
     /tmp/cc5MQEmu.s:211    .text:00000000000000f8 .L0 
     /tmp/cc5MQEmu.s:213    .text:00000000000000fc .L0 
     /tmp/cc5MQEmu.s:217    .text:0000000000000100 .L0 
     /tmp/cc5MQEmu.s:224    .text:0000000000000104 .L0 
     /tmp/cc5MQEmu.s:233    .text:0000000000000110 .L0 
     /tmp/cc5MQEmu.s:238    .text:0000000000000114 .L0 
     /tmp/cc5MQEmu.s:240    .text:0000000000000118 .L0 
     /tmp/cc5MQEmu.s:242    .text:000000000000011c .L0 
     /tmp/cc5MQEmu.s:254    .text:0000000000000128 .L0 
     /tmp/cc5MQEmu.s:263    .text:000000000000012c .L0 
     /tmp/cc5MQEmu.s:270    .text:0000000000000130 .L0 
     /tmp/cc5MQEmu.s:279    .text:000000000000013c .L0 
     /tmp/cc5MQEmu.s:285    .text:0000000000000144 .L0 
     /tmp/cc5MQEmu.s:287    .text:0000000000000148 .L0 
     /tmp/cc5MQEmu.s:289    .text:000000000000014c .L0 
     /tmp/cc5MQEmu.s:291    .text:0000000000000150 .L0 
     /tmp/cc5MQEmu.s:294    .text:0000000000000154 .L0 
     /tmp/cc5MQEmu.s:298    .text:0000000000000160 .L0 
     /tmp/cc5MQEmu.s:301    .text:0000000000000164 .L0 
     /tmp/cc5MQEmu.s:310    .text:0000000000000170 .L0 
     /tmp/cc5MQEmu.s:312    .text:0000000000000174 .L0 
     /tmp/cc5MQEmu.s:314    .text:0000000000000178 .L0 
     /tmp/cc5MQEmu.s:321    .text:000000000000017c .L0 
     /tmp/cc5MQEmu.s:330    .text:0000000000000188 .L0 
     /tmp/cc5MQEmu.s:336    .text:0000000000000190 .L0 
     /tmp/cc5MQEmu.s:338    .text:0000000000000194 .L0 
     /tmp/cc5MQEmu.s:340    .text:0000000000000198 .L0 
     /tmp/cc5MQEmu.s:342    .text:000000000000019c .L0 
     /tmp/cc5MQEmu.s:345    .text:00000000000001a0 .L0 
     /tmp/cc5MQEmu.s:349    .text:00000000000001ac .L0 
     /tmp/cc5MQEmu.s:352    .text:00000000000001b0 .L0 
     /tmp/cc5MQEmu.s:363    .text:00000000000001bc .L0 
     /tmp/cc5MQEmu.s:369    .text:00000000000001bc _ZN8TimeList8finishedEv
     /tmp/cc5MQEmu.s:372    .text:00000000000001bc .L0 
     /tmp/cc5MQEmu.s:374    .text:00000000000001bc .L0 
     /tmp/cc5MQEmu.s:375    .text:00000000000001c0 .L0 
     /tmp/cc5MQEmu.s:377    .text:00000000000001c4 .L0 
     /tmp/cc5MQEmu.s:379    .text:00000000000001c8 .L0 
     /tmp/cc5MQEmu.s:384    .text:00000000000001c8 .L0 
     /tmp/cc5MQEmu.s:385    .text:00000000000001c8 .L0 
     /tmp/cc5MQEmu.s:387    .text:00000000000001cc .L0 
     /tmp/cc5MQEmu.s:389    .text:00000000000001d0 .L0 
     /tmp/cc5MQEmu.s:391    .text:00000000000001d4 .L0 
     /tmp/cc5MQEmu.s:393    .text:00000000000001d8 .L0 
     /tmp/cc5MQEmu.s:401    .text:00000000000001dc .L0 
     /tmp/cc5MQEmu.s:402    .text:00000000000001dc .L0 
GAS LISTING /tmp/cc5MQEmu.s 			page 26


     /tmp/cc5MQEmu.s:407    .text:00000000000001e0 .L0 
     /tmp/cc5MQEmu.s:409    .text:00000000000001e4 .L0 
     /tmp/cc5MQEmu.s:411    .text:00000000000001e8 .L0 
     /tmp/cc5MQEmu.s:414    .text:00000000000001f0 .L0 
     /tmp/cc5MQEmu.s:416    .text:00000000000001f4 .L0 
     /tmp/cc5MQEmu.s:424    .text:00000000000001fc .L0 
     /tmp/cc5MQEmu.s:431    .text:0000000000000204 .L0 
     /tmp/cc5MQEmu.s:435    .text:0000000000000208 .L0 
     /tmp/cc5MQEmu.s:436    .text:000000000000020c .L0 
     /tmp/cc5MQEmu.s:437    .text:000000000000020c .L0 
     /tmp/cc5MQEmu.s:438    .text:000000000000020c .L0 
     /tmp/cc5MQEmu.s:440    .text:0000000000000210 .L0 
     /tmp/cc5MQEmu.s:444    .text:0000000000000214 .L0 
     /tmp/cc5MQEmu.s:446    .text:0000000000000214 .L0 
     /tmp/cc5MQEmu.s:449    .text:000000000000021c .L0 
     /tmp/cc5MQEmu.s:455    .text:000000000000021c _ZN8TimeList7isEmptyEv
     /tmp/cc5MQEmu.s:458    .text:000000000000021c .L0 
     /tmp/cc5MQEmu.s:460    .text:000000000000021c .L0 
     /tmp/cc5MQEmu.s:461    .text:0000000000000220 .L0 
     /tmp/cc5MQEmu.s:463    .text:0000000000000224 .L0 
     /tmp/cc5MQEmu.s:465    .text:0000000000000228 .L0 
     /tmp/cc5MQEmu.s:470    .text:0000000000000228 .L0 
     /tmp/cc5MQEmu.s:471    .text:0000000000000228 .L0 
     /tmp/cc5MQEmu.s:476    .text:000000000000022c .L0 
     /tmp/cc5MQEmu.s:478    .text:0000000000000230 .L0 
     /tmp/cc5MQEmu.s:482    .text:0000000000000234 .L0 
     /tmp/cc5MQEmu.s:483    .text:0000000000000238 .L0 
     /tmp/cc5MQEmu.s:484    .text:0000000000000238 .L0 
     /tmp/cc5MQEmu.s:485    .text:0000000000000238 .L0 
     /tmp/cc5MQEmu.s:487    .text:000000000000023c .L0 
     /tmp/cc5MQEmu.s:491    .text:0000000000000240 .L0 
     /tmp/cc5MQEmu.s:493    .text:0000000000000240 .L0 
     /tmp/cc5MQEmu.s:496    .text:0000000000000248 .L0 
     /tmp/cc5MQEmu.s:502    .text:0000000000000248 _ZN8TimeList8popFrontEv
     /tmp/cc5MQEmu.s:505    .text:0000000000000248 .L0 
     /tmp/cc5MQEmu.s:507    .text:0000000000000248 .L0 
     /tmp/cc5MQEmu.s:508    .text:000000000000024c .L0 
     /tmp/cc5MQEmu.s:512    .text:0000000000000258 .L0 
     /tmp/cc5MQEmu.s:513    .text:0000000000000258 .L0 
     /tmp/cc5MQEmu.s:514    .text:0000000000000258 .L0 
     /tmp/cc5MQEmu.s:516    .text:000000000000025c .L0 
     /tmp/cc5MQEmu.s:522    .text:0000000000000260 .L0 
     /tmp/cc5MQEmu.s:523    .text:0000000000000260 .L0 
     /tmp/cc5MQEmu.s:526    .text:0000000000000264 .L0 
     /tmp/cc5MQEmu.s:529    .text:0000000000000268 .L0 
     /tmp/cc5MQEmu.s:531    .text:000000000000026c .L0 
     /tmp/cc5MQEmu.s:533    .text:0000000000000270 .L0 
     /tmp/cc5MQEmu.s:536    .text:0000000000000274 .L0 
     /tmp/cc5MQEmu.s:540    .text:0000000000000280 .L0 
     /tmp/cc5MQEmu.s:545    .text:0000000000000284 .L0 
     /tmp/cc5MQEmu.s:553    .text:000000000000028c .L0 
     /tmp/cc5MQEmu.s:555    .text:0000000000000294 .L0 
     /tmp/cc5MQEmu.s:556    .text:0000000000000294 .L0 
     /tmp/cc5MQEmu.s:558    .text:0000000000000298 .L0 
     /tmp/cc5MQEmu.s:559    .text:0000000000000298 .L0 
     /tmp/cc5MQEmu.s:561    .text:000000000000029c .L0 
     /tmp/cc5MQEmu.s:563    .text:00000000000002a0 .L0 
GAS LISTING /tmp/cc5MQEmu.s 			page 27


     /tmp/cc5MQEmu.s:567    .text:00000000000002a4 .L0 
     /tmp/cc5MQEmu.s:571    .text:00000000000002a4 .L0 
     /tmp/cc5MQEmu.s:576    .text:00000000000002ac .L0 
     /tmp/cc5MQEmu.s:580    .text:00000000000002b4 .L0 
     /tmp/cc5MQEmu.s:586    .text:00000000000002b4 _ZN8TimeList7popBackEv
     /tmp/cc5MQEmu.s:589    .text:00000000000002b4 .L0 
     /tmp/cc5MQEmu.s:591    .text:00000000000002b4 .L0 
     /tmp/cc5MQEmu.s:592    .text:00000000000002b8 .L0 
     /tmp/cc5MQEmu.s:597    .text:00000000000002c8 .L0 
     /tmp/cc5MQEmu.s:598    .text:00000000000002c8 .L0 
     /tmp/cc5MQEmu.s:599    .text:00000000000002c8 .L0 
     /tmp/cc5MQEmu.s:600    .text:00000000000002c8 .L0 
     /tmp/cc5MQEmu.s:602    .text:00000000000002cc .L0 
     /tmp/cc5MQEmu.s:605    .text:00000000000002d0 .L0 
     /tmp/cc5MQEmu.s:606    .text:00000000000002d0 .L0 
     /tmp/cc5MQEmu.s:609    .text:00000000000002d8 .L0 
     /tmp/cc5MQEmu.s:611    .text:00000000000002dc .L0 
     /tmp/cc5MQEmu.s:612    .text:00000000000002dc .L0 
     /tmp/cc5MQEmu.s:617    .text:00000000000002e0 .L0 
     /tmp/cc5MQEmu.s:619    .text:00000000000002e4 .L0 
     /tmp/cc5MQEmu.s:621    .text:00000000000002e8 .L0 
     /tmp/cc5MQEmu.s:626    .text:00000000000002ec .L0 
     /tmp/cc5MQEmu.s:628    .text:00000000000002f0 .L0 
     /tmp/cc5MQEmu.s:630    .text:00000000000002f4 .L0 
     /tmp/cc5MQEmu.s:633    .text:00000000000002f8 .L0 
     /tmp/cc5MQEmu.s:634    .text:00000000000002f8 .L0 
     /tmp/cc5MQEmu.s:636    .text:00000000000002fc .L0 
     /tmp/cc5MQEmu.s:643    .text:0000000000000304 .L0 
     /tmp/cc5MQEmu.s:646    .text:0000000000000308 .L0 
     /tmp/cc5MQEmu.s:648    .text:000000000000030c .L0 
     /tmp/cc5MQEmu.s:651    .text:0000000000000310 .L0 
     /tmp/cc5MQEmu.s:653    .text:0000000000000314 .L0 
     /tmp/cc5MQEmu.s:656    .text:0000000000000318 .L0 
     /tmp/cc5MQEmu.s:661    .text:000000000000031c .L0 
     /tmp/cc5MQEmu.s:667    .text:0000000000000324 .L0 
     /tmp/cc5MQEmu.s:675    .text:0000000000000330 .L0 
     /tmp/cc5MQEmu.s:678    .text:0000000000000334 .L0 
     /tmp/cc5MQEmu.s:679    .text:0000000000000338 .L0 
     /tmp/cc5MQEmu.s:680    .text:0000000000000338 .L0 
     /tmp/cc5MQEmu.s:682    .text:000000000000033c .L0 
     /tmp/cc5MQEmu.s:683    .text:000000000000033c .L0 
     /tmp/cc5MQEmu.s:685    .text:0000000000000340 .L0 
     /tmp/cc5MQEmu.s:687    .text:0000000000000344 .L0 
     /tmp/cc5MQEmu.s:690    .text:0000000000000348 .L0 
     /tmp/cc5MQEmu.s:694    .text:000000000000034c .L0 
     /tmp/cc5MQEmu.s:698    .text:000000000000034c .L0 
     /tmp/cc5MQEmu.s:705    .text:0000000000000354 .L0 
     /tmp/cc5MQEmu.s:707    .text:000000000000035c .L0 
     /tmp/cc5MQEmu.s:713    .text:000000000000035c _ZN8TimeList9PeekFrontEv
     /tmp/cc5MQEmu.s:716    .text:000000000000035c .L0 
     /tmp/cc5MQEmu.s:718    .text:000000000000035c .L0 
     /tmp/cc5MQEmu.s:719    .text:0000000000000360 .L0 
     /tmp/cc5MQEmu.s:723    .text:000000000000036c .L0 
     /tmp/cc5MQEmu.s:724    .text:000000000000036c .L0 
     /tmp/cc5MQEmu.s:725    .text:000000000000036c .L0 
     /tmp/cc5MQEmu.s:727    .text:0000000000000370 .L0 
     /tmp/cc5MQEmu.s:730    .text:0000000000000374 .L0 
GAS LISTING /tmp/cc5MQEmu.s 			page 28


     /tmp/cc5MQEmu.s:731    .text:0000000000000374 .L0 
     /tmp/cc5MQEmu.s:734    .text:000000000000037c .L0 
     /tmp/cc5MQEmu.s:739    .text:0000000000000380 .L0 
     /tmp/cc5MQEmu.s:740    .text:0000000000000380 .L0 
     /tmp/cc5MQEmu.s:742    .text:0000000000000384 .L0 
     /tmp/cc5MQEmu.s:744    .text:0000000000000388 .L0 
     /tmp/cc5MQEmu.s:746    .text:000000000000038c .L0 
     /tmp/cc5MQEmu.s:748    .text:0000000000000390 .L0 
     /tmp/cc5MQEmu.s:754    .text:0000000000000394 .L0 
     /tmp/cc5MQEmu.s:757    .text:0000000000000398 .L0 
     /tmp/cc5MQEmu.s:758    .text:000000000000039c .L0 
     /tmp/cc5MQEmu.s:759    .text:000000000000039c .L0 
     /tmp/cc5MQEmu.s:761    .text:00000000000003a0 .L0 
     /tmp/cc5MQEmu.s:762    .text:00000000000003a0 .L0 
     /tmp/cc5MQEmu.s:764    .text:00000000000003a4 .L0 
     /tmp/cc5MQEmu.s:767    .text:00000000000003a8 .L0 
     /tmp/cc5MQEmu.s:771    .text:00000000000003ac .L0 
     /tmp/cc5MQEmu.s:775    .text:00000000000003ac .L0 
     /tmp/cc5MQEmu.s:782    .text:00000000000003b4 .L0 
     /tmp/cc5MQEmu.s:784    .text:00000000000003bc .L0 
     /tmp/cc5MQEmu.s:790    .text:00000000000003bc _ZN8TimeList8PeekLastEv
     /tmp/cc5MQEmu.s:793    .text:00000000000003bc .L0 
     /tmp/cc5MQEmu.s:795    .text:00000000000003bc .L0 
     /tmp/cc5MQEmu.s:796    .text:00000000000003c0 .L0 
     /tmp/cc5MQEmu.s:800    .text:00000000000003cc .L0 
     /tmp/cc5MQEmu.s:801    .text:00000000000003cc .L0 
     /tmp/cc5MQEmu.s:802    .text:00000000000003cc .L0 
     /tmp/cc5MQEmu.s:804    .text:00000000000003d0 .L0 
     /tmp/cc5MQEmu.s:807    .text:00000000000003d4 .L0 
     /tmp/cc5MQEmu.s:808    .text:00000000000003d4 .L0 
     /tmp/cc5MQEmu.s:811    .text:00000000000003dc .L0 
     /tmp/cc5MQEmu.s:816    .text:00000000000003e0 .L0 
     /tmp/cc5MQEmu.s:817    .text:00000000000003e0 .L0 
     /tmp/cc5MQEmu.s:819    .text:00000000000003e4 .L0 
     /tmp/cc5MQEmu.s:821    .text:00000000000003e8 .L0 
     /tmp/cc5MQEmu.s:827    .text:00000000000003ec .L0 
     /tmp/cc5MQEmu.s:830    .text:00000000000003f0 .L0 
     /tmp/cc5MQEmu.s:831    .text:00000000000003f4 .L0 
     /tmp/cc5MQEmu.s:832    .text:00000000000003f4 .L0 
     /tmp/cc5MQEmu.s:834    .text:00000000000003f8 .L0 
     /tmp/cc5MQEmu.s:835    .text:00000000000003f8 .L0 
     /tmp/cc5MQEmu.s:837    .text:00000000000003fc .L0 
     /tmp/cc5MQEmu.s:840    .text:0000000000000400 .L0 
     /tmp/cc5MQEmu.s:844    .text:0000000000000404 .L0 
     /tmp/cc5MQEmu.s:846    .text:0000000000000404 .L0 
     /tmp/cc5MQEmu.s:848    .text:000000000000040c .L0 
     /tmp/cc5MQEmu.s:854    .text:000000000000040c _ZN8TimeList4tickEv
     /tmp/cc5MQEmu.s:857    .text:000000000000040c .L0 
     /tmp/cc5MQEmu.s:859    .text:000000000000040c .L0 
     /tmp/cc5MQEmu.s:860    .text:0000000000000410 .L0 
     /tmp/cc5MQEmu.s:865    .text:0000000000000420 .L0 
     /tmp/cc5MQEmu.s:866    .text:0000000000000420 .L0 
     /tmp/cc5MQEmu.s:867    .text:0000000000000420 .L0 
     /tmp/cc5MQEmu.s:868    .text:0000000000000420 .L0 
     /tmp/cc5MQEmu.s:870    .text:0000000000000424 .L0 
     /tmp/cc5MQEmu.s:873    .text:0000000000000428 .L0 
     /tmp/cc5MQEmu.s:874    .text:0000000000000428 .L0 
GAS LISTING /tmp/cc5MQEmu.s 			page 29


     /tmp/cc5MQEmu.s:882    .text:000000000000043c .L0 
     /tmp/cc5MQEmu.s:883    .text:000000000000043c .L0 
     /tmp/cc5MQEmu.s:888    .text:0000000000000440 .L0 
     /tmp/cc5MQEmu.s:890    .text:0000000000000444 .L0 
     /tmp/cc5MQEmu.s:891    .text:0000000000000444 .L0 
     /tmp/cc5MQEmu.s:895    .text:0000000000000450 .L0 
     /tmp/cc5MQEmu.s:896    .text:0000000000000450 .L0 
     /tmp/cc5MQEmu.s:907    .text:0000000000000468 .L0 
     /tmp/cc5MQEmu.s:910    .text:000000000000046c .L0 
     /tmp/cc5MQEmu.s:914    .text:0000000000000478 .L0 
     /tmp/cc5MQEmu.s:919    .text:000000000000047c .L0 
     /tmp/cc5MQEmu.s:927    .text:0000000000000484 .L0 
     /tmp/cc5MQEmu.s:928    .text:0000000000000484 .L0 
     /tmp/cc5MQEmu.s:934    .text:0000000000000490 .L0 
     /tmp/cc5MQEmu.s:935    .text:0000000000000490 .L0 
     /tmp/cc5MQEmu.s:940    .text:0000000000000498 .L0 
     /tmp/cc5MQEmu.s:942    .text:000000000000049c .L0 
     /tmp/cc5MQEmu.s:944    .text:00000000000004a0 .L0 
     /tmp/cc5MQEmu.s:946    .text:00000000000004a4 .L0 
     /tmp/cc5MQEmu.s:948    .text:00000000000004a8 .L0 
     /tmp/cc5MQEmu.s:956    .text:00000000000004ac .L0 
     /tmp/cc5MQEmu.s:957    .text:00000000000004ac .L0 
     /tmp/cc5MQEmu.s:959    .text:00000000000004b0 .L0 
     /tmp/cc5MQEmu.s:962    .text:00000000000004b4 .L0 
     /tmp/cc5MQEmu.s:964    .text:00000000000004b8 .L0 
     /tmp/cc5MQEmu.s:966    .text:00000000000004bc .L0 
     /tmp/cc5MQEmu.s:971    .text:00000000000004c4 .L0 
     /tmp/cc5MQEmu.s:979    .text:00000000000004cc .L0 
     /tmp/cc5MQEmu.s:980    .text:00000000000004d0 .L0 
     /tmp/cc5MQEmu.s:982    .text:00000000000004d4 .L0 
     /tmp/cc5MQEmu.s:983    .text:00000000000004d4 .L0 
     /tmp/cc5MQEmu.s:985    .text:00000000000004d8 .L0 
     /tmp/cc5MQEmu.s:988    .text:00000000000004dc .L0 
     /tmp/cc5MQEmu.s:990    .text:00000000000004e0 .L0 
     /tmp/cc5MQEmu.s:992    .text:00000000000004e4 .L0 
     /tmp/cc5MQEmu.s:1006   .bss:0000000000000008 _ZN8TimeList17currentTimePassedE
     /tmp/cc5MQEmu.s:1002   .bss:0000000000000000 _ZN8TimeList11currentTimeE
     /tmp/cc5MQEmu.s:999    .bss:0000000000000000 .LANCHOR0
     /tmp/cc5MQEmu.s:1014   .text:00000000000004e4 .L0 
     /tmp/cc5MQEmu.s:62     .text:0000000000000044 .L0 
     /tmp/cc5MQEmu.s:411    .text:00000000000001e8 .L0 
     /tmp/cc5MQEmu.s:874    .text:0000000000000428 .L0 
     /tmp/cc5MQEmu.s:891    .text:0000000000000444 .L0 
     /tmp/cc5MQEmu.s:896    .text:0000000000000450 .L0 
     /tmp/cc5MQEmu.s:935    .text:0000000000000490 .L0 
     /tmp/cc5MQEmu.s:108    .text:0000000000000080 .L4
     /tmp/cc5MQEmu.s:182    .text:00000000000000d8 .L15
     /tmp/cc5MQEmu.s:171    .text:00000000000000d0 .L17
     /tmp/cc5MQEmu.s:138    .text:00000000000000a4 .L6
     /tmp/cc5MQEmu.s:208    .text:00000000000000f8 .L8
     /tmp/cc5MQEmu.s:189    .text:00000000000000dc .L5
     /tmp/cc5MQEmu.s:256    .text:000000000000012c .L18
     /tmp/cc5MQEmu.s:305    .text:0000000000000170 .L19
     /tmp/cc5MQEmu.s:144    .text:00000000000000b0 .L3
     /tmp/cc5MQEmu.s:214    .text:0000000000000100 .L9
     /tmp/cc5MQEmu.s:299    .text:0000000000000164 .L10
     /tmp/cc5MQEmu.s:292    .text:0000000000000154 .L11
GAS LISTING /tmp/cc5MQEmu.s 			page 30


     /tmp/cc5MQEmu.s:218    .text:0000000000000104 .L12
     /tmp/cc5MQEmu.s:350    .text:00000000000001b0 .L13
     /tmp/cc5MQEmu.s:343    .text:00000000000001a0 .L14
     /tmp/cc5MQEmu.s:394    .text:00000000000001dc .L21
     /tmp/cc5MQEmu.s:420    .text:00000000000001fc .L23
     /tmp/cc5MQEmu.s:427    .text:0000000000000204 .L24
     /tmp/cc5MQEmu.s:443    .text:0000000000000214 .L25
     /tmp/cc5MQEmu.s:433    .text:0000000000000208 .L22
     /tmp/cc5MQEmu.s:490    .text:0000000000000240 .L29
     /tmp/cc5MQEmu.s:480    .text:0000000000000234 .L28
     /tmp/cc5MQEmu.s:574    .text:00000000000002ac .L34
     /tmp/cc5MQEmu.s:566    .text:00000000000002a4 .L36
     /tmp/cc5MQEmu.s:534    .text:0000000000000274 .L33
     /tmp/cc5MQEmu.s:547    .text:000000000000028c .L32
     /tmp/cc5MQEmu.s:701    .text:0000000000000354 .L45
     /tmp/cc5MQEmu.s:671    .text:0000000000000330 .L39
     /tmp/cc5MQEmu.s:640    .text:0000000000000304 .L40
     /tmp/cc5MQEmu.s:622    .text:00000000000002ec .L41
     /tmp/cc5MQEmu.s:693    .text:000000000000034c .L42
     /tmp/cc5MQEmu.s:663    .text:0000000000000324 .L44
     /tmp/cc5MQEmu.s:649    .text:0000000000000310 .L43
     /tmp/cc5MQEmu.s:676    .text:0000000000000334 .L37
     /tmp/cc5MQEmu.s:778    .text:00000000000003b4 .L50
     /tmp/cc5MQEmu.s:749    .text:0000000000000394 .L49
     /tmp/cc5MQEmu.s:770    .text:00000000000003ac .L51
     /tmp/cc5MQEmu.s:755    .text:0000000000000398 .L47
     /tmp/cc5MQEmu.s:843    .text:0000000000000404 .L56
     /tmp/cc5MQEmu.s:822    .text:00000000000003ec .L55
     /tmp/cc5MQEmu.s:828    .text:00000000000003f0 .L53
     /tmp/cc5MQEmu.s:893    .text:0000000000000450 .L59
     /tmp/cc5MQEmu.s:931    .text:0000000000000490 .L60
     /tmp/cc5MQEmu.s:974    .text:00000000000004cc .L58
     /tmp/cc5MQEmu.s:969    .text:00000000000004c4 .L65
     /tmp/cc5MQEmu.s:908    .text:000000000000046c .L64
     /tmp/cc5MQEmu.s:902    .text:0000000000000468 .L67
     /tmp/cc5MQEmu.s:921    .text:0000000000000484 .L63
     /tmp/cc5MQEmu.s:3414   .debug_abbrev:0000000000000000 .Ldebug_abbrev0
     /tmp/cc5MQEmu.s:6017   .debug_str:0000000000000a3d .LASF195
     /tmp/cc5MQEmu.s:5779   .debug_str:000000000000022e .LASF196
     /tmp/cc5MQEmu.s:5879   .debug_str:000000000000058b .LASF197
     /tmp/cc5MQEmu.s:5      .text:0000000000000000 .Ltext0
     /tmp/cc5MQEmu.s:1009   .text:00000000000004e4 .Letext0
     /tmp/cc5MQEmu.s:5705   .debug_line:0000000000000000 .Ldebug_line0
     /tmp/cc5MQEmu.s:5829   .debug_str:0000000000000375 .LASF0
     /tmp/cc5MQEmu.s:5855   .debug_str:0000000000000472 .LASF1
     /tmp/cc5MQEmu.s:5957   .debug_str:0000000000000847 .LASF2
     /tmp/cc5MQEmu.s:5965   .debug_str:000000000000088b .LASF4
     /tmp/cc5MQEmu.s:5837   .debug_str:00000000000003cb .LASF3
     /tmp/cc5MQEmu.s:5717   .debug_str:0000000000000054 .LASF5
     /tmp/cc5MQEmu.s:5933   .debug_str:0000000000000798 .LASF6
     /tmp/cc5MQEmu.s:5925   .debug_str:000000000000072b .LASF7
     /tmp/cc5MQEmu.s:5845   .debug_str:000000000000041d .LASF8
     /tmp/cc5MQEmu.s:5809   .debug_str:00000000000002fc .LASF9
     /tmp/cc5MQEmu.s:5819   .debug_str:0000000000000331 .LASF10
     /tmp/cc5MQEmu.s:5755   .debug_str:0000000000000178 .LASF11
     /tmp/cc5MQEmu.s:5801   .debug_str:00000000000002c7 .LASF12
     /tmp/cc5MQEmu.s:5767   .debug_str:00000000000001ca .LASF13
GAS LISTING /tmp/cc5MQEmu.s 			page 31


     /tmp/cc5MQEmu.s:5753   .debug_str:0000000000000168 .LASF14
     /tmp/cc5MQEmu.s:5999   .debug_str:00000000000009a3 .LASF15
     /tmp/cc5MQEmu.s:5789   .debug_str:0000000000000286 .LASF16
     /tmp/cc5MQEmu.s:5989   .debug_str:000000000000091e .LASF17
     /tmp/cc5MQEmu.s:6003   .debug_str:00000000000009c5 .LASF18
     /tmp/cc5MQEmu.s:6093   .debug_str:0000000000000dd0 .LASF19
     /tmp/cc5MQEmu.s:5739   .debug_str:000000000000010a .LASF20
     /tmp/cc5MQEmu.s:5977   .debug_str:00000000000008c8 .LASF21
     /tmp/cc5MQEmu.s:6007   .debug_str:00000000000009d8 .LASF22
     /tmp/cc5MQEmu.s:5935   .debug_str:000000000000079f .LASF23
     /tmp/cc5MQEmu.s:5793   .debug_str:00000000000002a4 .LASF24
     /tmp/cc5MQEmu.s:5761   .debug_str:00000000000001ac .LASF25
     /tmp/cc5MQEmu.s:5815   .debug_str:0000000000000320 .LASF26
     /tmp/cc5MQEmu.s:5891   .debug_str:0000000000000609 .LASF27
     /tmp/cc5MQEmu.s:6103   .debug_str:0000000000000e1e .LASF28
     /tmp/cc5MQEmu.s:5981   .debug_str:00000000000008dc .LASF30
     /tmp/cc5MQEmu.s:5711   .debug_str:0000000000000010 .LASF76
     /tmp/cc5MQEmu.s:6075   .debug_str:0000000000000cef .LASF78
     /tmp/cc5MQEmu.s:5733   .debug_str:00000000000000ed .LASF29
     /tmp/cc5MQEmu.s:5913   .debug_str:00000000000006b7 .LASF31
     /tmp/cc5MQEmu.s:5963   .debug_str:000000000000087f .LASF32
     /tmp/cc5MQEmu.s:6031   .debug_str:0000000000000b87 .LASF33
     /tmp/cc5MQEmu.s:5707   .debug_str:0000000000000000 .LASF34
     /tmp/cc5MQEmu.s:5995   .debug_str:000000000000097b .LASF35
     /tmp/cc5MQEmu.s:6027   .debug_str:0000000000000b5f .LASF36
     /tmp/cc5MQEmu.s:5875   .debug_str:0000000000000561 .LASF37
     /tmp/cc5MQEmu.s:5943   .debug_str:00000000000007d3 .LASF38
     /tmp/cc5MQEmu.s:5889   .debug_str:00000000000005ef .LASF39
     /tmp/cc5MQEmu.s:5813   .debug_str:0000000000000317 .LASF40
     /tmp/cc5MQEmu.s:6039   .debug_str:0000000000000bc2 .LASF41
     /tmp/cc5MQEmu.s:6071   .debug_str:0000000000000cdd .LASF42
     /tmp/cc5MQEmu.s:5749   .debug_str:0000000000000144 .LASF43
     /tmp/cc5MQEmu.s:5997   .debug_str:0000000000000998 .LASF44
     /tmp/cc5MQEmu.s:6029   .debug_str:0000000000000b6a .LASF45
     /tmp/cc5MQEmu.s:5911   .debug_str:00000000000006ac .LASF46
     /tmp/cc5MQEmu.s:5847   .debug_str:0000000000000430 .LASF47
     /tmp/cc5MQEmu.s:6063   .debug_str:0000000000000c92 .LASF48
     /tmp/cc5MQEmu.s:5731   .debug_str:00000000000000d0 .LASF49
     /tmp/cc5MQEmu.s:6015   .debug_str:0000000000000a31 .LASF50
     /tmp/cc5MQEmu.s:5907   .debug_str:000000000000067c .LASF51
     /tmp/cc5MQEmu.s:5979   .debug_str:00000000000008d0 .LASF52
     /tmp/cc5MQEmu.s:6025   .debug_str:0000000000000b41 .LASF53
     /tmp/cc5MQEmu.s:5825   .debug_str:000000000000035c .LASF54
     /tmp/cc5MQEmu.s:5803   .debug_str:00000000000002d6 .LASF55
     /tmp/cc5MQEmu.s:5881   .debug_str:00000000000005aa .LASF56
     /tmp/cc5MQEmu.s:6057   .debug_str:0000000000000c60 .LASF57
     /tmp/cc5MQEmu.s:5899   .debug_str:000000000000064c .LASF58
     /tmp/cc5MQEmu.s:5839   .debug_str:00000000000003dd .LASF60
     /tmp/cc5MQEmu.s:5811   .debug_str:000000000000030c .LASF59
     /tmp/cc5MQEmu.s:6085   .debug_str:0000000000000d65 .LASF61
     /tmp/cc5MQEmu.s:5955   .debug_str:000000000000083e .LASF62
     /tmp/cc5MQEmu.s:5993   .debug_str:0000000000000961 .LASF63
     /tmp/cc5MQEmu.s:5773   .debug_str:0000000000000201 .LASF64
     /tmp/cc5MQEmu.s:5831   .debug_str:0000000000000382 .LASF65
     /tmp/cc5MQEmu.s:6019   .debug_str:0000000000000b01 .LASF66
     /tmp/cc5MQEmu.s:6065   .debug_str:0000000000000c9d .LASF67
     /tmp/cc5MQEmu.s:5737   .debug_str:00000000000000fe .LASF68
GAS LISTING /tmp/cc5MQEmu.s 			page 32


     /tmp/cc5MQEmu.s:5719   .debug_str:000000000000005b .LASF69
     /tmp/cc5MQEmu.s:6041   .debug_str:0000000000000bdc .LASF70
     /tmp/cc5MQEmu.s:6053   .debug_str:0000000000000c40 .LASF71
     /tmp/cc5MQEmu.s:5917   .debug_str:00000000000006df .LASF72
     /tmp/cc5MQEmu.s:5759   .debug_str:000000000000018c .LASF73
     /tmp/cc5MQEmu.s:5723   .debug_str:000000000000008d .LASF74
     /tmp/cc5MQEmu.s:5961   .debug_str:000000000000085f .LASF75
     /tmp/cc5MQEmu.s:6073   .debug_str:0000000000000ce8 .LASF77
     /tmp/cc5MQEmu.s:5951   .debug_str:0000000000000821 .LASF79
     /tmp/cc5MQEmu.s:5967   .debug_str:0000000000000892 .LASF80
     /tmp/cc5MQEmu.s:5715   .debug_str:0000000000000048 .LASF81
     /tmp/cc5MQEmu.s:6099   .debug_str:0000000000000de3 .LASF82
     /tmp/cc5MQEmu.s:5835   .debug_str:00000000000003a4 .LASF83
     /tmp/cc5MQEmu.s:5953   .debug_str:0000000000000839 .LASF198
     /tmp/cc5MQEmu.s:5887   .debug_str:00000000000005db .LASF84
     /tmp/cc5MQEmu.s:6101   .debug_str:0000000000000df5 .LASF85
     /tmp/cc5MQEmu.s:5807   .debug_str:00000000000002f4 .LASF96
     /tmp/cc5MQEmu.s:6005   .debug_str:00000000000009cd .LASF86
     /tmp/cc5MQEmu.s:6001   .debug_str:00000000000009af .LASF88
     /tmp/cc5MQEmu.s:5859   .debug_str:000000000000048b .LASF87
     /tmp/cc5MQEmu.s:5941   .debug_str:00000000000007bb .LASF89
     /tmp/cc5MQEmu.s:6095   .debug_str:0000000000000dd7 .LASF90
     /tmp/cc5MQEmu.s:6059   .debug_str:0000000000000c79 .LASF91
     /tmp/cc5MQEmu.s:6043   .debug_str:0000000000000be4 .LASF92
     /tmp/cc5MQEmu.s:5785   .debug_str:000000000000024c .LASF93
     /tmp/cc5MQEmu.s:5923   .debug_str:000000000000071f .LASF94
     /tmp/cc5MQEmu.s:5877   .debug_str:000000000000057e .LASF95
     /tmp/cc5MQEmu.s:6077   .debug_str:0000000000000d03 .LASF99
     /tmp/cc5MQEmu.s:6087   .debug_str:0000000000000d82 .LASF97
     /tmp/cc5MQEmu.s:5763   .debug_str:00000000000001b5 .LASF98
     /tmp/cc5MQEmu.s:5709   .debug_str:000000000000000b .LASF100
     /tmp/cc5MQEmu.s:6097   .debug_str:0000000000000ddd .LASF101
     /tmp/cc5MQEmu.s:6035   .debug_str:0000000000000bae .LASF102
     /tmp/cc5MQEmu.s:6055   .debug_str:0000000000000c59 .LASF103
     /tmp/cc5MQEmu.s:6023   .debug_str:0000000000000b37 .LASF104
     /tmp/cc5MQEmu.s:5771   .debug_str:00000000000001f3 .LASF105
     /tmp/cc5MQEmu.s:5713   .debug_str:0000000000000020 .LASF106
     /tmp/cc5MQEmu.s:5973   .debug_str:00000000000008ac .LASF107
     /tmp/cc5MQEmu.s:5765   .debug_str:00000000000001c1 .LASF108
     /tmp/cc5MQEmu.s:5843   .debug_str:000000000000040a .LASF110
     /tmp/cc5MQEmu.s:5741   .debug_str:0000000000000113 .LASF109
     /tmp/cc5MQEmu.s:5861   .debug_str:0000000000000498 .LASF111
     /tmp/cc5MQEmu.s:5857   .debug_str:0000000000000485 .LASF112
     /tmp/cc5MQEmu.s:6013   .debug_str:0000000000000a21 .LASF113
     /tmp/cc5MQEmu.s:5983   .debug_str:00000000000008ef .LASF114
     /tmp/cc5MQEmu.s:5841   .debug_str:00000000000003fb .LASF116
     /tmp/cc5MQEmu.s:5781   .debug_str:000000000000023f .LASF115
     /tmp/cc5MQEmu.s:5743   .debug_str:0000000000000121 .LASF117
     /tmp/cc5MQEmu.s:5873   .debug_str:000000000000055a .LASF118
     /tmp/cc5MQEmu.s:5797   .debug_str:00000000000002b1 .LASF119
     /tmp/cc5MQEmu.s:5751   .debug_str:0000000000000161 .LASF120
     /tmp/cc5MQEmu.s:6089   .debug_str:0000000000000d98 .LASF121
     /tmp/cc5MQEmu.s:5949   .debug_str:000000000000081c .LASF122
     /tmp/cc5MQEmu.s:5937   .debug_str:00000000000007a7 .LASF123
     /tmp/cc5MQEmu.s:6033   .debug_str:0000000000000ba5 .LASF124
     /tmp/cc5MQEmu.s:5929   .debug_str:0000000000000765 .LASF125
     /tmp/cc5MQEmu.s:5883   .debug_str:00000000000005b2 .LASF126
GAS LISTING /tmp/cc5MQEmu.s 			page 33


     /tmp/cc5MQEmu.s:6051   .debug_str:0000000000000c26 .LASF127
     /tmp/cc5MQEmu.s:5867   .debug_str:00000000000004f8 .LASF157
     /tmp/cc5MQEmu.s:6067   .debug_str:0000000000000cba .LASF128
     /tmp/cc5MQEmu.s:6045   .debug_str:0000000000000bea .LASF129
     /tmp/cc5MQEmu.s:5823   .debug_str:000000000000034a .LASF130
     /tmp/cc5MQEmu.s:5915   .debug_str:00000000000006d5 .LASF131
     /tmp/cc5MQEmu.s:5729   .debug_str:00000000000000bf .LASF132
     /tmp/cc5MQEmu.s:5827   .debug_str:0000000000000364 .LASF133
     /tmp/cc5MQEmu.s:5909   .debug_str:000000000000069a .LASF134
     /tmp/cc5MQEmu.s:5863   .debug_str:00000000000004b1 .LASF199
     /tmp/cc5MQEmu.s:5795   .debug_str:00000000000002ac .LASF135
     /tmp/cc5MQEmu.s:5721   .debug_str:0000000000000079 .LASF136
     /tmp/cc5MQEmu.s:5987   .debug_str:0000000000000915 .LASF137
     /tmp/cc5MQEmu.s:5947   .debug_str:0000000000000804 .LASF138
     /tmp/cc5MQEmu.s:5783   .debug_str:0000000000000244 .LASF139
     /tmp/cc5MQEmu.s:6069   .debug_str:0000000000000cc6 .LASF140
     /tmp/cc5MQEmu.s:6083   .debug_str:0000000000000d5c .LASF141
     /tmp/cc5MQEmu.s:5871   .debug_str:0000000000000542 .LASF142
     /tmp/cc5MQEmu.s:5905   .debug_str:0000000000000674 .LASF143
     /tmp/cc5MQEmu.s:5903   .debug_str:000000000000065d .LASF144
     /tmp/cc5MQEmu.s:5747   .debug_str:000000000000013a .LASF145
     /tmp/cc5MQEmu.s:5777   .debug_str:0000000000000215 .LASF146
     /tmp/cc5MQEmu.s:5971   .debug_str:00000000000008a3 .LASF147
     /tmp/cc5MQEmu.s:6011   .debug_str:0000000000000a09 .LASF148
     /tmp/cc5MQEmu.s:5853   .debug_str:000000000000046d .LASF149
     /tmp/cc5MQEmu.s:6105   .debug_str:0000000000000e2b .LASF150
     /tmp/cc5MQEmu.s:5769   .debug_str:00000000000001da .LASF151
     /tmp/cc5MQEmu.s:6047   .debug_str:0000000000000bf4 .LASF154
     /tmp/cc5MQEmu.s:5851   .debug_str:0000000000000468 .LASF152
     /tmp/cc5MQEmu.s:5757   .debug_str:0000000000000187 .LASF153
     /tmp/cc5MQEmu.s:5869   .debug_str:0000000000000513 .LASF155
     /tmp/cc5MQEmu.s:5945   .debug_str:00000000000007dc .LASF156
     /tmp/cc5MQEmu.s:5921   .debug_str:00000000000006f6 .LASF158
     /tmp/cc5MQEmu.s:5799   .debug_str:00000000000002c2 .LASF159
     /tmp/cc5MQEmu.s:5901   .debug_str:0000000000000658 .LASF160
     /tmp/cc5MQEmu.s:5939   .debug_str:00000000000007b0 .LASF161
     /tmp/cc5MQEmu.s:5895   .debug_str:000000000000063b .LASF162
     /tmp/cc5MQEmu.s:6081   .debug_str:0000000000000d39 .LASF163
     /tmp/cc5MQEmu.s:5927   .debug_str:000000000000073e .LASF164
     /tmp/cc5MQEmu.s:5959   .debug_str:0000000000000855 .LASF200
     /tmp/cc5MQEmu.s:6091   .debug_str:0000000000000da9 .LASF201
     /tmp/cc5MQEmu.s:5893   .debug_str:0000000000000614 .LASF165
     /tmp/cc5MQEmu.s:6061   .debug_str:0000000000000c89 .LASF166
     /tmp/cc5MQEmu.s:5991   .debug_str:0000000000000934 .LASF167
     /tmp/cc5MQEmu.s:5791   .debug_str:000000000000029c .LASF168
     /tmp/cc5MQEmu.s:6109   .debug_str:0000000000000e49 .LASF169
     /tmp/cc5MQEmu.s:5969   .debug_str:0000000000000897 .LASF170
     /tmp/cc5MQEmu.s:5931   .debug_str:000000000000076a .LASF171
     /tmp/cc5MQEmu.s:5817   .debug_str:0000000000000325 .LASF172
     /tmp/cc5MQEmu.s:6079   .debug_str:0000000000000d08 .LASF173
     /tmp/cc5MQEmu.s:6107   .debug_str:0000000000000e3f .LASF174
     /tmp/cc5MQEmu.s:6009   .debug_str:00000000000009de .LASF175
     /tmp/cc5MQEmu.s:5745   .debug_str:0000000000000130 .LASF176
     /tmp/cc5MQEmu.s:6021   .debug_str:0000000000000b0c .LASF177
     /tmp/cc5MQEmu.s:5975   .debug_str:00000000000008bd .LASF178
     /tmp/cc5MQEmu.s:6049   .debug_str:0000000000000bf9 .LASF179
     /tmp/cc5MQEmu.s:5919   .debug_str:00000000000006ed .LASF180
GAS LISTING /tmp/cc5MQEmu.s 			page 34


     /tmp/cc5MQEmu.s:5787   .debug_str:000000000000025c .LASF181
     /tmp/cc5MQEmu.s:5849   .debug_str:000000000000044d .LASF182
     /tmp/cc5MQEmu.s:5985   .debug_str:00000000000008f4 .LASF183
     /tmp/cc5MQEmu.s:5805   .debug_str:00000000000002ef .LASF184
     /tmp/cc5MQEmu.s:5865   .debug_str:00000000000004c9 .LASF191
     /tmp/cc5MQEmu.s:5735   .debug_str:00000000000000f9 .LASF185
     /tmp/cc5MQEmu.s:5897   .debug_str:0000000000000640 .LASF186
     /tmp/cc5MQEmu.s:5725   .debug_str:000000000000009b .LASF187
     /tmp/cc5MQEmu.s:5833   .debug_str:000000000000039f .LASF188
     /tmp/cc5MQEmu.s:855    .text:000000000000040c .LFB74
     /tmp/cc5MQEmu.s:993    .text:00000000000004e4 .LFE74
     /tmp/cc5MQEmu.s:4681   .debug_loc:0000000000000000 .LLST59
     /tmp/cc5MQEmu.s:5653   .debug_ranges:0000000000000000 .Ldebug_ranges0
     /tmp/cc5MQEmu.s:4699   .debug_loc:000000000000004c .LLST61
     /tmp/cc5MQEmu.s:904    .text:0000000000000468 .LBB180
     /tmp/cc5MQEmu.s:4707   .debug_loc:0000000000000070 .LLST62
     /tmp/cc5MQEmu.s:4718   .debug_loc:00000000000000a6 .LLST63
     /tmp/cc5MQEmu.s:4729   .debug_loc:00000000000000dc .LLST64
     /tmp/cc5MQEmu.s:916    .text:000000000000047c .LBB182
     /tmp/cc5MQEmu.s:923    .text:0000000000000484 .LBE182
     /tmp/cc5MQEmu.s:4736   .debug_loc:00000000000000ff .LLST65
     /tmp/cc5MQEmu.s:920    .text:0000000000000484 .LVL95
     /tmp/cc5MQEmu.s:930    .text:0000000000000490 .LVL96
     /tmp/cc5MQEmu.s:880    .text:000000000000043c .LBB177
     /tmp/cc5MQEmu.s:886    .text:0000000000000440 .LBE177
     /tmp/cc5MQEmu.s:4743   .debug_loc:0000000000000122 .LLST60
     /tmp/cc5MQEmu.s:937    .text:0000000000000498 .LBB186
     /tmp/cc5MQEmu.s:951    .text:00000000000004ac .LBE186
     /tmp/cc5MQEmu.s:4750   .debug_loc:0000000000000145 .LLST66
     /tmp/cc5MQEmu.s:4761   .debug_loc:000000000000017b .LLST67
     /tmp/cc5MQEmu.s:791    .text:00000000000003bc .LFB73
     /tmp/cc5MQEmu.s:849    .text:000000000000040c .LFE73
     /tmp/cc5MQEmu.s:4779   .debug_loc:00000000000001c7 .LLST57
     /tmp/cc5MQEmu.s:814    .text:00000000000003e0 .LBB166
     /tmp/cc5MQEmu.s:825    .text:00000000000003ec .LBE166
     /tmp/cc5MQEmu.s:4801   .debug_loc:0000000000000226 .LLST58
     /tmp/cc5MQEmu.s:809    .text:00000000000003dc .LVL85
     /tmp/cc5MQEmu.s:714    .text:000000000000035c .LFB72
     /tmp/cc5MQEmu.s:785    .text:00000000000003bc .LFE72
     /tmp/cc5MQEmu.s:4808   .debug_loc:0000000000000249 .LLST55
     /tmp/cc5MQEmu.s:737    .text:0000000000000380 .LBB162
     /tmp/cc5MQEmu.s:4830   .debug_loc:00000000000002a8 .LLST56
     /tmp/cc5MQEmu.s:732    .text:000000000000037c .LVL78
     /tmp/cc5MQEmu.s:587    .text:00000000000002b4 .LFB71
     /tmp/cc5MQEmu.s:708    .text:000000000000035c .LFE71
     /tmp/cc5MQEmu.s:4841   .debug_loc:00000000000002de .LLST48
     /tmp/cc5MQEmu.s:614    .text:00000000000002e0 .LBB155
     /tmp/cc5MQEmu.s:4875   .debug_loc:0000000000000376 .LLST49
     /tmp/cc5MQEmu.s:4894   .debug_loc:00000000000003d2 .LLST50
     /tmp/cc5MQEmu.s:4913   .debug_loc:000000000000042e .LLST51
     /tmp/cc5MQEmu.s:4924   .debug_loc:0000000000000464 .LLST52
     /tmp/cc5MQEmu.s:624    .text:00000000000002ec .LBB157
     /tmp/cc5MQEmu.s:641    .text:0000000000000304 .LBE157
     /tmp/cc5MQEmu.s:4931   .debug_loc:0000000000000487 .LLST53
     /tmp/cc5MQEmu.s:658    .text:000000000000031c .LBB158
     /tmp/cc5MQEmu.s:665    .text:0000000000000324 .LBE158
     /tmp/cc5MQEmu.s:4951   .debug_loc:00000000000004e4 .LLST54
GAS LISTING /tmp/cc5MQEmu.s 			page 35


     /tmp/cc5MQEmu.s:662    .text:0000000000000324 .LVL72
     /tmp/cc5MQEmu.s:607    .text:00000000000002d8 .LVL63
     /tmp/cc5MQEmu.s:503    .text:0000000000000248 .LFB70
     /tmp/cc5MQEmu.s:581    .text:00000000000002b4 .LFE70
     /tmp/cc5MQEmu.s:4958   .debug_loc:0000000000000507 .LLST43
     /tmp/cc5MQEmu.s:520    .text:0000000000000260 .LBB144
     /tmp/cc5MQEmu.s:4980   .debug_loc:0000000000000566 .LLST44
     /tmp/cc5MQEmu.s:5002   .debug_loc:00000000000005c5 .LLST45
     /tmp/cc5MQEmu.s:5013   .debug_loc:00000000000005fb .LLST46
     /tmp/cc5MQEmu.s:542    .text:0000000000000284 .LBB146
     /tmp/cc5MQEmu.s:549    .text:000000000000028c .LBE146
     /tmp/cc5MQEmu.s:5020   .debug_loc:000000000000061e .LLST47
     /tmp/cc5MQEmu.s:546    .text:000000000000028c .LVL59
     /tmp/cc5MQEmu.s:456    .text:000000000000021c .LFB69
     /tmp/cc5MQEmu.s:497    .text:0000000000000248 .LFE69
     /tmp/cc5MQEmu.s:5027   .debug_loc:0000000000000641 .LLST41
     /tmp/cc5MQEmu.s:468    .text:0000000000000228 .LBB138
     /tmp/cc5MQEmu.s:474    .text:000000000000022c .LBE138
     /tmp/cc5MQEmu.s:5052   .debug_loc:00000000000006a3 .LLST42
     /tmp/cc5MQEmu.s:370    .text:00000000000001bc .LFB68
     /tmp/cc5MQEmu.s:450    .text:000000000000021c .LFE68
     /tmp/cc5MQEmu.s:5059   .debug_loc:00000000000006c6 .LLST37
     /tmp/cc5MQEmu.s:5095   .debug_loc:0000000000000751 .LLST38
     /tmp/cc5MQEmu.s:382    .text:00000000000001c8 .LBB132
     /tmp/cc5MQEmu.s:5106   .debug_loc:0000000000000787 .LLST39
     /tmp/cc5MQEmu.s:399    .text:00000000000001dc .LBB135
     /tmp/cc5MQEmu.s:405    .text:00000000000001e0 .LBE135
     /tmp/cc5MQEmu.s:5117   .debug_loc:00000000000007bd .LLST40
     /tmp/cc5MQEmu.s:38     .text:000000000000001c .LFB67
     /tmp/cc5MQEmu.s:364    .text:00000000000001bc .LFE67
     /tmp/cc5MQEmu.s:5124   .debug_loc:00000000000007e0 .LLST1
     /tmp/cc5MQEmu.s:5146   .debug_loc:000000000000083f .LLST2
     /tmp/cc5MQEmu.s:5219   .debug_loc:0000000000000958 .LLST3
     /tmp/cc5MQEmu.s:5252   .debug_loc:00000000000009ef .LLST4
     /tmp/cc5MQEmu.s:66     .text:0000000000000050 .LBB87
     /tmp/cc5MQEmu.s:78     .text:0000000000000060 .LBE87
     /tmp/cc5MQEmu.s:5291   .debug_loc:0000000000000aaa .LLST5
     /tmp/cc5MQEmu.s:74     .text:000000000000005c .LVL5
     /tmp/cc5MQEmu.s:79     .text:0000000000000060 .LBB89
     /tmp/cc5MQEmu.s:89     .text:0000000000000068 .LBE89
     /tmp/cc5MQEmu.s:5299   .debug_loc:0000000000000ace .LLST6
     /tmp/cc5MQEmu.s:5306   .debug_loc:0000000000000af1 .LLST7
     /tmp/cc5MQEmu.s:5313   .debug_loc:0000000000000b14 .LLST8
     /tmp/cc5MQEmu.s:91     .text:0000000000000068 .LBB91
     /tmp/cc5MQEmu.s:5320   .debug_loc:0000000000000b37 .LLST9
     /tmp/cc5MQEmu.s:5359   .debug_loc:0000000000000bf2 .LLST10
     /tmp/cc5MQEmu.s:5374   .debug_loc:0000000000000c3b .LLST11
     /tmp/cc5MQEmu.s:5398   .debug_loc:0000000000000cab .LLST12
     /tmp/cc5MQEmu.s:110    .text:0000000000000080 .LBB94
     /tmp/cc5MQEmu.s:5427   .debug_loc:0000000000000d2f .LLST13
     /tmp/cc5MQEmu.s:5442   .debug_loc:0000000000000d78 .LLST14
     /tmp/cc5MQEmu.s:5453   .debug_loc:0000000000000dae .LLST15
     /tmp/cc5MQEmu.s:112    .text:0000000000000080 .LBB96
     /tmp/cc5MQEmu.s:120    .text:000000000000008c .LBE96
     /tmp/cc5MQEmu.s:5464   .debug_loc:0000000000000de4 .LLST16
     /tmp/cc5MQEmu.s:118    .text:000000000000008c .LVL11
     /tmp/cc5MQEmu.s:124    .text:0000000000000090 .LBB98
GAS LISTING /tmp/cc5MQEmu.s 			page 36


     /tmp/cc5MQEmu.s:131    .text:0000000000000098 .LBE98
     /tmp/cc5MQEmu.s:5472   .debug_loc:0000000000000e08 .LLST17
     /tmp/cc5MQEmu.s:5479   .debug_loc:0000000000000e2b .LLST18
     /tmp/cc5MQEmu.s:5486   .debug_loc:0000000000000e4e .LLST19
     /tmp/cc5MQEmu.s:220    .text:0000000000000104 .LBB105
     /tmp/cc5MQEmu.s:246    .text:0000000000000128 .LBE105
     /tmp/cc5MQEmu.s:5493   .debug_loc:0000000000000e71 .LLST20
     /tmp/cc5MQEmu.s:221    .text:0000000000000104 .LBB106
     /tmp/cc5MQEmu.s:229    .text:0000000000000110 .LBE106
     /tmp/cc5MQEmu.s:5500   .debug_loc:0000000000000e94 .LLST21
     /tmp/cc5MQEmu.s:227    .text:0000000000000110 .LVL24
     /tmp/cc5MQEmu.s:230    .text:0000000000000110 .LBB108
     /tmp/cc5MQEmu.s:236    .text:0000000000000114 .LBE108
     /tmp/cc5MQEmu.s:5508   .debug_loc:0000000000000eb8 .LLST22
     /tmp/cc5MQEmu.s:5516   .debug_loc:0000000000000edc .LLST23
     /tmp/cc5MQEmu.s:5523   .debug_loc:0000000000000eff .LLST24
     /tmp/cc5MQEmu.s:316    .text:000000000000017c .LBB110
     /tmp/cc5MQEmu.s:356    .text:00000000000001bc .LBE110
     /tmp/cc5MQEmu.s:5530   .debug_loc:0000000000000f22 .LLST25
     /tmp/cc5MQEmu.s:318    .text:000000000000017c .LBB112
     /tmp/cc5MQEmu.s:326    .text:0000000000000188 .LBE112
     /tmp/cc5MQEmu.s:5541   .debug_loc:0000000000000f58 .LLST26
     /tmp/cc5MQEmu.s:324    .text:0000000000000188 .LVL35
     /tmp/cc5MQEmu.s:327    .text:0000000000000188 .LBB114
     /tmp/cc5MQEmu.s:334    .text:0000000000000190 .LBE114
     /tmp/cc5MQEmu.s:5549   .debug_loc:0000000000000f7c .LLST27
     /tmp/cc5MQEmu.s:5557   .debug_loc:0000000000000fa0 .LLST28
     /tmp/cc5MQEmu.s:5564   .debug_loc:0000000000000fc3 .LLST29
     /tmp/cc5MQEmu.s:265    .text:0000000000000130 .LBB116
     /tmp/cc5MQEmu.s:307    .text:0000000000000170 .LBE116
     /tmp/cc5MQEmu.s:5571   .debug_loc:0000000000000fe6 .LLST30
     /tmp/cc5MQEmu.s:5582   .debug_loc:000000000000101c .LLST31
     /tmp/cc5MQEmu.s:5589   .debug_loc:000000000000103f .LLST32
     /tmp/cc5MQEmu.s:267    .text:0000000000000130 .LBB118
     /tmp/cc5MQEmu.s:275    .text:000000000000013c .LBE118
     /tmp/cc5MQEmu.s:5596   .debug_loc:0000000000001062 .LLST33
     /tmp/cc5MQEmu.s:273    .text:000000000000013c .LVL30
     /tmp/cc5MQEmu.s:276    .text:000000000000013c .LBB120
     /tmp/cc5MQEmu.s:283    .text:0000000000000144 .LBE120
     /tmp/cc5MQEmu.s:5604   .debug_loc:0000000000001086 .LLST34
     /tmp/cc5MQEmu.s:5612   .debug_loc:00000000000010aa .LLST35
     /tmp/cc5MQEmu.s:5619   .debug_loc:00000000000010cd .LLST36
     /tmp/cc5MQEmu.s:10     .text:0000000000000000 .LFB66
     /tmp/cc5MQEmu.s:32     .text:000000000000001c .LFE66
     /tmp/cc5MQEmu.s:5626   .debug_loc:00000000000010f0 .LLST0
     /tmp/cc5MQEmu.s:5775   .debug_str:000000000000020c .LASF189
     /tmp/cc5MQEmu.s:5885   .debug_str:00000000000005d1 .LASF190
     /tmp/cc5MQEmu.s:5727   .debug_str:00000000000000a0 .LASF192
     /tmp/cc5MQEmu.s:5821   .debug_str:000000000000033f .LASF193
     /tmp/cc5MQEmu.s:6037   .debug_str:0000000000000bb6 .LASF194
     /tmp/cc5MQEmu.s:858    .text:000000000000040c .LVL90
     /tmp/cc5MQEmu.s:901    .text:0000000000000468 .LVL93
     /tmp/cc5MQEmu.s:986    .text:00000000000004d8 .LVL102
     /tmp/cc5MQEmu.s:949    .text:00000000000004ac .LVL98
     /tmp/cc5MQEmu.s:973    .text:00000000000004cc .LVL101
     /tmp/cc5MQEmu.s:960    .text:00000000000004b4 .LVL99
     /tmp/cc5MQEmu.s:968    .text:00000000000004c4 .LVL100
GAS LISTING /tmp/cc5MQEmu.s 			page 37


     /tmp/cc5MQEmu.s:915    .text:000000000000047c .LVL94
     /tmp/cc5MQEmu.s:879    .text:000000000000043c .LVL91
     /tmp/cc5MQEmu.s:884    .text:0000000000000440 .LVL92
     /tmp/cc5MQEmu.s:936    .text:0000000000000498 .LVL97
     /tmp/cc5MQEmu.s:794    .text:00000000000003bc .LVL84
     /tmp/cc5MQEmu.s:838    .text:00000000000003fc .LVL88
     /tmp/cc5MQEmu.s:842    .text:0000000000000404 .LVL89
     /tmp/cc5MQEmu.s:813    .text:00000000000003e0 .LVL86
     /tmp/cc5MQEmu.s:823    .text:00000000000003ec .LVL87
     /tmp/cc5MQEmu.s:717    .text:000000000000035c .LVL77
     /tmp/cc5MQEmu.s:765    .text:00000000000003a4 .LVL81
     /tmp/cc5MQEmu.s:769    .text:00000000000003ac .LVL82
     /tmp/cc5MQEmu.s:736    .text:0000000000000380 .LVL79
     /tmp/cc5MQEmu.s:750    .text:0000000000000394 .LVL80
     /tmp/cc5MQEmu.s:777    .text:00000000000003b4 .LVL83
     /tmp/cc5MQEmu.s:590    .text:00000000000002b4 .LVL62
     /tmp/cc5MQEmu.s:639    .text:0000000000000304 .LVL68
     /tmp/cc5MQEmu.s:688    .text:0000000000000344 .LVL74
     /tmp/cc5MQEmu.s:692    .text:000000000000034c .LVL75
     /tmp/cc5MQEmu.s:700    .text:0000000000000354 .LVL76
     /tmp/cc5MQEmu.s:613    .text:00000000000002e0 .LVL64
     /tmp/cc5MQEmu.s:670    .text:0000000000000330 .LVL73
     /tmp/cc5MQEmu.s:623    .text:00000000000002ec .LVL65
     /tmp/cc5MQEmu.s:631    .text:00000000000002f8 .LVL66
     /tmp/cc5MQEmu.s:637    .text:0000000000000300 .LVL67
     /tmp/cc5MQEmu.s:644    .text:0000000000000308 .LVL69
     /tmp/cc5MQEmu.s:654    .text:0000000000000318 .LVL70
     /tmp/cc5MQEmu.s:657    .text:000000000000031c .LVL71
     /tmp/cc5MQEmu.s:506    .text:0000000000000248 .LVL54
     /tmp/cc5MQEmu.s:524    .text:0000000000000264 .LVL56
     /tmp/cc5MQEmu.s:565    .text:00000000000002a4 .LVL60
     /tmp/cc5MQEmu.s:519    .text:0000000000000260 .LVL55
     /tmp/cc5MQEmu.s:527    .text:0000000000000268 .LVL57
     /tmp/cc5MQEmu.s:573    .text:00000000000002ac .LVL61
     /tmp/cc5MQEmu.s:541    .text:0000000000000284 .LVL58
     /tmp/cc5MQEmu.s:459    .text:000000000000021c .LVL48
     /tmp/cc5MQEmu.s:479    .text:0000000000000234 .LVL51
     /tmp/cc5MQEmu.s:489    .text:0000000000000240 .LVL52
     /tmp/cc5MQEmu.s:494    .text:0000000000000244 .LVL53
     /tmp/cc5MQEmu.s:467    .text:0000000000000228 .LVL49
     /tmp/cc5MQEmu.s:472    .text:000000000000022c .LVL50
     /tmp/cc5MQEmu.s:373    .text:00000000000001bc .LVL37
     /tmp/cc5MQEmu.s:417    .text:00000000000001f8 .LVL42
     /tmp/cc5MQEmu.s:419    .text:00000000000001fc .LVL43
     /tmp/cc5MQEmu.s:432    .text:0000000000000208 .LVL45
     /tmp/cc5MQEmu.s:442    .text:0000000000000214 .LVL46
     /tmp/cc5MQEmu.s:447    .text:0000000000000218 .LVL47
     /tmp/cc5MQEmu.s:395    .text:00000000000001dc .LVL39
     /tmp/cc5MQEmu.s:412    .text:00000000000001f0 .LVL41
     /tmp/cc5MQEmu.s:426    .text:0000000000000204 .LVL44
     /tmp/cc5MQEmu.s:381    .text:00000000000001c8 .LVL38
     /tmp/cc5MQEmu.s:403    .text:00000000000001e0 .LVL40
     /tmp/cc5MQEmu.s:41     .text:000000000000001c .LVL2
     /tmp/cc5MQEmu.s:72     .text:0000000000000054 .LVL4
     /tmp/cc5MQEmu.s:161    .text:00000000000000c0 .LVL15
     /tmp/cc5MQEmu.s:170    .text:00000000000000d0 .LVL17
     /tmp/cc5MQEmu.s:143    .text:00000000000000b0 .LVL14
GAS LISTING /tmp/cc5MQEmu.s 			page 38


     /tmp/cc5MQEmu.s:188    .text:00000000000000dc .LVL19
     /tmp/cc5MQEmu.s:225    .text:0000000000000108 .LVL23
     /tmp/cc5MQEmu.s:255    .text:000000000000012c .LVL27
     /tmp/cc5MQEmu.s:271    .text:0000000000000134 .LVL29
     /tmp/cc5MQEmu.s:304    .text:0000000000000170 .LVL32
     /tmp/cc5MQEmu.s:322    .text:0000000000000180 .LVL34
     /tmp/cc5MQEmu.s:64     .text:0000000000000050 .LVL3
     /tmp/cc5MQEmu.s:96     .text:000000000000006c .LVL8
     /tmp/cc5MQEmu.s:116    .text:0000000000000084 .LVL10
     /tmp/cc5MQEmu.s:181    .text:00000000000000d8 .LVL18
     /tmp/cc5MQEmu.s:87     .text:0000000000000068 .LVL7
     /tmp/cc5MQEmu.s:164    .text:00000000000000c4 .LVL16
     /tmp/cc5MQEmu.s:76     .text:0000000000000060 .LVL6
     /tmp/cc5MQEmu.s:245    .text:0000000000000128 .LVL26
     /tmp/cc5MQEmu.s:200    .text:00000000000000ec .LVL20
     /tmp/cc5MQEmu.s:205    .text:00000000000000f4 .LVL21
     /tmp/cc5MQEmu.s:109    .text:0000000000000080 .LVL9
     /tmp/cc5MQEmu.s:129    .text:0000000000000098 .LVL13
     /tmp/cc5MQEmu.s:123    .text:0000000000000090 .LVL12
     /tmp/cc5MQEmu.s:234    .text:0000000000000114 .LVL25
     /tmp/cc5MQEmu.s:219    .text:0000000000000104 .LVL22
     /tmp/cc5MQEmu.s:315    .text:000000000000017c .LVL33
     /tmp/cc5MQEmu.s:332    .text:0000000000000190 .LVL36
     /tmp/cc5MQEmu.s:264    .text:0000000000000130 .LVL28
     /tmp/cc5MQEmu.s:281    .text:0000000000000144 .LVL31
     /tmp/cc5MQEmu.s:14     .text:0000000000000000 .LVL0
     /tmp/cc5MQEmu.s:24     .text:0000000000000010 .LVL1
     /tmp/cc5MQEmu.s:1015   .debug_info:0000000000000000 .Ldebug_info0
     /tmp/cc5MQEmu.s:149    .text:00000000000000b0 .LBE91
     /tmp/cc5MQEmu.s:173    .text:00000000000000d0 .LBB130
     /tmp/cc5MQEmu.s:252    .text:0000000000000128 .LBE130
     /tmp/cc5MQEmu.s:257    .text:000000000000012c .LBB131
     /tmp/cc5MQEmu.s:362    .text:00000000000001bc .LBE131
     /tmp/cc5MQEmu.s:146    .text:00000000000000b0 .LBE94
     /tmp/cc5MQEmu.s:176    .text:00000000000000d0 .LBB101
     /tmp/cc5MQEmu.s:184    .text:00000000000000d8 .LBE101
     /tmp/cc5MQEmu.s:397    .text:00000000000001dc .LBE132
     /tmp/cc5MQEmu.s:421    .text:00000000000001fc .LBB137
     /tmp/cc5MQEmu.s:429    .text:0000000000000204 .LBE137
     /tmp/cc5MQEmu.s:551    .text:000000000000028c .LBE144
     /tmp/cc5MQEmu.s:568    .text:00000000000002a4 .LBB149
     /tmp/cc5MQEmu.s:579    .text:00000000000002b4 .LBE149
     /tmp/cc5MQEmu.s:673    .text:0000000000000330 .LBE155
     /tmp/cc5MQEmu.s:695    .text:000000000000034c .LBB161
     /tmp/cc5MQEmu.s:703    .text:0000000000000354 .LBE161
     /tmp/cc5MQEmu.s:752    .text:0000000000000394 .LBE162
     /tmp/cc5MQEmu.s:772    .text:00000000000003ac .LBB165
     /tmp/cc5MQEmu.s:780    .text:00000000000003b4 .LBE165
     /tmp/cc5MQEmu.s:903    .text:0000000000000468 .LBB179
     /tmp/cc5MQEmu.s:932    .text:0000000000000490 .LBE179
     /tmp/cc5MQEmu.s:952    .text:00000000000004ac .LBB188
     /tmp/cc5MQEmu.s:977    .text:00000000000004cc .LBE188
     /tmp/cc5MQEmu.s:925    .text:0000000000000484 .LBE180
     /tmp/cc5MQEmu.s:954    .text:00000000000004ac .LBB185
     /tmp/cc5MQEmu.s:976    .text:00000000000004cc .LBE185

UNDEFINED SYMBOLS
GAS LISTING /tmp/cc5MQEmu.s 			page 39


__mem_alloc
__mem_free
_ZN3TCB6wakeUpEv
