GAS LISTING /tmp/cclf04fV.s 			page 1


   1              		.file	"userMain.cpp"
   2              		.option pic
   3              		.option norelax
   4              		.text
   5              	.Ltext0:
   6              		.section	.rodata.str1.8,"aMS",@progbits,1
   7              		.align	3
   8              	.LC0:
   9 0000 413A2069 		.string	"A: i="
   9      3D00
  10 0006 0000     		.align	3
  11              	.LC1:
  12 0008 0A00     		.string	"\n"
  13 000a 00000000 		.align	3
  13      0000
  14              	.LC2:
  15 0010 41206669 		.string	"A finished!\n"
  15      6E697368 
  15      6564210A 
  15      00
  16              		.text
  17              		.align	2
  18              		.globl	_Z11workerBodyAPv
  20              	_Z11workerBodyAPv:
  21              	.LFB1:
  22              		.file 1 "test/../test/Threads_C_API_test.hpp"
   1:test/../test/Threads_C_API_test.hpp **** #ifndef XV6_THREADS_C_API_TEST_HPP
   2:test/../test/Threads_C_API_test.hpp **** #define XV6_THREADS_C_API_TEST_HPP
   3:test/../test/Threads_C_API_test.hpp **** 
   4:test/../test/Threads_C_API_test.hpp **** #include "../h/syscall_c.hpp"
   5:test/../test/Threads_C_API_test.hpp **** 
   6:test/../test/Threads_C_API_test.hpp **** #include "printing.hpp"
   7:test/../test/Threads_C_API_test.hpp **** 
   8:test/../test/Threads_C_API_test.hpp **** bool finishedA = false;
   9:test/../test/Threads_C_API_test.hpp **** bool finishedB = false;
  10:test/../test/Threads_C_API_test.hpp **** bool finishedC = false;
  11:test/../test/Threads_C_API_test.hpp **** bool finishedD = false;
  12:test/../test/Threads_C_API_test.hpp **** 
  13:test/../test/Threads_C_API_test.hpp **** uint64 fibonacci(uint64 n) {
  14:test/../test/Threads_C_API_test.hpp ****     if (n == 0 || n == 1) { return n; }
  15:test/../test/Threads_C_API_test.hpp ****     if (n % 10 == 0) { thread_dispatch(); }
  16:test/../test/Threads_C_API_test.hpp ****     return fibonacci(n - 1) + fibonacci(n - 2);
  17:test/../test/Threads_C_API_test.hpp **** }
  18:test/../test/Threads_C_API_test.hpp **** 
  19:test/../test/Threads_C_API_test.hpp **** void workerBodyA(void* arg) {
  23              		.loc 1 19 29
  24              		.cfi_startproc
  25              	.LVL0:
  26 0000 130101FE 		addi	sp,sp,-32
  27              		.cfi_def_cfa_offset 32
  28 0004 233C1100 		sd	ra,24(sp)
  29 0008 23388100 		sd	s0,16(sp)
  30 000c 23349100 		sd	s1,8(sp)
  31 0010 23302101 		sd	s2,0(sp)
  32              		.cfi_offset 1, -8
  33              		.cfi_offset 8, -16
  34              		.cfi_offset 9, -24
GAS LISTING /tmp/cclf04fV.s 			page 2


  35              		.cfi_offset 18, -32
  36 0014 13040102 		addi	s0,sp,32
  37              		.cfi_def_cfa 8, 0
  20:test/../test/Threads_C_API_test.hpp ****     for (uint64 i = 0; i < 10; i++) {
  38              		.loc 1 20 5
  39              	.LVL1:
  40              	.LBB23:
  41              		.loc 1 20 17 is_stmt 0
  42 0018 13090000 		li	s2,0
  43 001c 6F008003 		j	.L7
  44              	.LVL2:
  45              	.L4:
  46              	.LBB24:
  47              	.LBB25:
  48              	.LBB26:
  21:test/../test/Threads_C_API_test.hpp ****         printString("A: i="); printInt(i); printString("\n");
  22:test/../test/Threads_C_API_test.hpp ****         for (uint64 j = 0; j < 10000; j++) {
  23:test/../test/Threads_C_API_test.hpp ****             for (uint64 k = 0; k < 30000; k++) { /* busy wait */ }
  24:test/../test/Threads_C_API_test.hpp ****             thread_dispatch();
  49              		.loc 1 24 13 is_stmt 1 discriminator 2
  50              		.loc 1 24 28 is_stmt 0 discriminator 2
  51 0020 97000000 		call	_Z15thread_dispatchv@plt
  51      E7800000 
  52              	.LVL3:
  53              	.LBE26:
  22:test/../test/Threads_C_API_test.hpp ****             for (uint64 k = 0; k < 30000; k++) { /* busy wait */ }
  54              		.loc 1 22 9 is_stmt 1 discriminator 2
  55 0028 93841400 		addi	s1,s1,1
  56              	.LVL4:
  57              	.L6:
  22:test/../test/Threads_C_API_test.hpp ****             for (uint64 k = 0; k < 30000; k++) { /* busy wait */ }
  58              		.loc 1 22 30 discriminator 1
  59 002c B7270000 		li	a5,8192
  60 0030 9387F770 		addi	a5,a5,1807
  61 0034 63EE9700 		bgtu	s1,a5,.L3
  62              	.LBB28:
  63              	.LBB27:
  23:test/../test/Threads_C_API_test.hpp ****             thread_dispatch();
  64              		.loc 1 23 25 is_stmt 0
  65 0038 13070000 		li	a4,0
  66              	.L5:
  67              	.LVL5:
  23:test/../test/Threads_C_API_test.hpp ****             thread_dispatch();
  68              		.loc 1 23 34 is_stmt 1 discriminator 3
  69 003c B7770000 		li	a5,28672
  70 0040 9387F752 		addi	a5,a5,1327
  71 0044 E3EEE7FC 		bgtu	a4,a5,.L4
  23:test/../test/Threads_C_API_test.hpp ****             thread_dispatch();
  72              		.loc 1 23 13 discriminator 2
  73 0048 13071700 		addi	a4,a4,1
  74              	.LVL6:
  75 004c 6FF01FFF 		j	.L5
  76              	.LVL7:
  77              	.L3:
  78              	.LBE27:
  79              	.LBE28:
  80              	.LBE25:
GAS LISTING /tmp/cclf04fV.s 			page 3


  81              	.LBE24:
  20:test/../test/Threads_C_API_test.hpp ****         printString("A: i="); printInt(i); printString("\n");
  82              		.loc 1 20 5 discriminator 2
  83 0050 13091900 		addi	s2,s2,1
  84              	.LVL8:
  85              	.L7:
  20:test/../test/Threads_C_API_test.hpp ****         printString("A: i="); printInt(i); printString("\n");
  86              		.loc 1 20 26 discriminator 1
  87 0054 93079000 		li	a5,9
  88 0058 63E02705 		bgtu	s2,a5,.L2
  89              	.LBB30:
  21:test/../test/Threads_C_API_test.hpp ****         for (uint64 j = 0; j < 10000; j++) {
  90              		.loc 1 21 9
  21:test/../test/Threads_C_API_test.hpp ****         for (uint64 j = 0; j < 10000; j++) {
  91              		.loc 1 21 20 is_stmt 0
  92 005c 17050000 		lla	a0,.LC0
  92      13050500 
  93 0064 97000000 		call	_Z11printStringPKc@plt
  93      E7800000 
  94              	.LVL9:
  21:test/../test/Threads_C_API_test.hpp ****         for (uint64 j = 0; j < 10000; j++) {
  95              		.loc 1 21 31 is_stmt 1
  21:test/../test/Threads_C_API_test.hpp ****         for (uint64 j = 0; j < 10000; j++) {
  96              		.loc 1 21 39 is_stmt 0
  97 006c 13060000 		li	a2,0
  98 0070 9305A000 		li	a1,10
  99 0074 1B050900 		sext.w	a0,s2
 100 0078 97000000 		call	_Z8printIntiii@plt
 100      E7800000 
 101              	.LVL10:
  21:test/../test/Threads_C_API_test.hpp ****         for (uint64 j = 0; j < 10000; j++) {
 102              		.loc 1 21 44 is_stmt 1
  21:test/../test/Threads_C_API_test.hpp ****         for (uint64 j = 0; j < 10000; j++) {
 103              		.loc 1 21 55 is_stmt 0
 104 0080 17050000 		lla	a0,.LC1
 104      13050500 
 105 0088 97000000 		call	_Z11printStringPKc@plt
 105      E7800000 
 106              	.LVL11:
  22:test/../test/Threads_C_API_test.hpp ****             for (uint64 k = 0; k < 30000; k++) { /* busy wait */ }
 107              		.loc 1 22 9 is_stmt 1
 108              	.LBB29:
  22:test/../test/Threads_C_API_test.hpp ****             for (uint64 k = 0; k < 30000; k++) { /* busy wait */ }
 109              		.loc 1 22 21 is_stmt 0
 110 0090 93040000 		li	s1,0
 111 0094 6FF09FF9 		j	.L6
 112              	.LVL12:
 113              	.L2:
 114              	.LBE29:
 115              	.LBE30:
 116              	.LBE23:
  25:test/../test/Threads_C_API_test.hpp ****         }
  26:test/../test/Threads_C_API_test.hpp ****     }
  27:test/../test/Threads_C_API_test.hpp ****     printString("A finished!\n");
 117              		.loc 1 27 5 is_stmt 1
 118              		.loc 1 27 16 is_stmt 0
 119 0098 17050000 		lla	a0,.LC2
GAS LISTING /tmp/cclf04fV.s 			page 4


 119      13050500 
 120 00a0 97000000 		call	_Z11printStringPKc@plt
 120      E7800000 
 121              	.LVL13:
  28:test/../test/Threads_C_API_test.hpp ****     finishedA = true;
 122              		.loc 1 28 5 is_stmt 1
 123              		.loc 1 28 15 is_stmt 0
 124 00a8 93071000 		li	a5,1
 125 00ac 17070000 		sb	a5,.LANCHOR0,a4
 125      2300F700 
  29:test/../test/Threads_C_API_test.hpp **** }
 126              		.loc 1 29 1
 127 00b4 83308101 		ld	ra,24(sp)
 128              		.cfi_restore 1
 129 00b8 03340101 		ld	s0,16(sp)
 130              		.cfi_restore 8
 131              		.cfi_def_cfa 2, 32
 132 00bc 83348100 		ld	s1,8(sp)
 133              		.cfi_restore 9
 134 00c0 03390100 		ld	s2,0(sp)
 135              		.cfi_restore 18
 136              	.LVL14:
 137 00c4 13010102 		addi	sp,sp,32
 138              		.cfi_def_cfa_offset 0
 139 00c8 67800000 		jr	ra
 140              		.cfi_endproc
 141              	.LFE1:
 143              		.section	.rodata.str1.8
 144 001d 000000   		.align	3
 145              	.LC3:
 146 0020 423A2069 		.string	"B: i="
 146      3D00
 147 0026 0000     		.align	3
 148              	.LC4:
 149 0028 42206669 		.string	"B finished!\n"
 149      6E697368 
 149      6564210A 
 149      00
 150              		.text
 151              		.align	2
 152              		.globl	_Z11workerBodyBPv
 154              	_Z11workerBodyBPv:
 155              	.LFB2:
  30:test/../test/Threads_C_API_test.hpp **** 
  31:test/../test/Threads_C_API_test.hpp **** void workerBodyB(void* arg) {
 156              		.loc 1 31 29 is_stmt 1
 157              		.cfi_startproc
 158              	.LVL15:
 159 00cc 130101FE 		addi	sp,sp,-32
 160              		.cfi_def_cfa_offset 32
 161 00d0 233C1100 		sd	ra,24(sp)
 162 00d4 23388100 		sd	s0,16(sp)
 163 00d8 23349100 		sd	s1,8(sp)
 164 00dc 23302101 		sd	s2,0(sp)
 165              		.cfi_offset 1, -8
 166              		.cfi_offset 8, -16
 167              		.cfi_offset 9, -24
GAS LISTING /tmp/cclf04fV.s 			page 5


 168              		.cfi_offset 18, -32
 169 00e0 13040102 		addi	s0,sp,32
 170              		.cfi_def_cfa 8, 0
  32:test/../test/Threads_C_API_test.hpp ****     for (uint64 i = 0; i < 16; i++) {
 171              		.loc 1 32 5
 172              	.LVL16:
 173              	.LBB31:
 174              		.loc 1 32 17 is_stmt 0
 175 00e4 13090000 		li	s2,0
 176 00e8 6F008003 		j	.L15
 177              	.LVL17:
 178              	.L12:
 179              	.LBB32:
 180              	.LBB33:
 181              	.LBB34:
  33:test/../test/Threads_C_API_test.hpp ****         printString("B: i="); printInt(i); printString("\n");
  34:test/../test/Threads_C_API_test.hpp ****         for (uint64 j = 0; j < 10000; j++) {
  35:test/../test/Threads_C_API_test.hpp ****             for (uint64 k = 0; k < 30000; k++) { /* busy wait */ }
  36:test/../test/Threads_C_API_test.hpp ****             thread_dispatch();
 182              		.loc 1 36 13 is_stmt 1 discriminator 2
 183              		.loc 1 36 28 is_stmt 0 discriminator 2
 184 00ec 97000000 		call	_Z15thread_dispatchv@plt
 184      E7800000 
 185              	.LVL18:
 186              	.LBE34:
  34:test/../test/Threads_C_API_test.hpp ****             for (uint64 k = 0; k < 30000; k++) { /* busy wait */ }
 187              		.loc 1 34 9 is_stmt 1 discriminator 2
 188 00f4 93841400 		addi	s1,s1,1
 189              	.LVL19:
 190              	.L14:
  34:test/../test/Threads_C_API_test.hpp ****             for (uint64 k = 0; k < 30000; k++) { /* busy wait */ }
 191              		.loc 1 34 30 discriminator 1
 192 00f8 B7270000 		li	a5,8192
 193 00fc 9387F770 		addi	a5,a5,1807
 194 0100 63EE9700 		bgtu	s1,a5,.L11
 195              	.LBB36:
 196              	.LBB35:
  35:test/../test/Threads_C_API_test.hpp ****             thread_dispatch();
 197              		.loc 1 35 25 is_stmt 0
 198 0104 13070000 		li	a4,0
 199              	.L13:
 200              	.LVL20:
  35:test/../test/Threads_C_API_test.hpp ****             thread_dispatch();
 201              		.loc 1 35 34 is_stmt 1 discriminator 3
 202 0108 B7770000 		li	a5,28672
 203 010c 9387F752 		addi	a5,a5,1327
 204 0110 E3EEE7FC 		bgtu	a4,a5,.L12
  35:test/../test/Threads_C_API_test.hpp ****             thread_dispatch();
 205              		.loc 1 35 13 discriminator 2
 206 0114 13071700 		addi	a4,a4,1
 207              	.LVL21:
 208 0118 6FF01FFF 		j	.L13
 209              	.LVL22:
 210              	.L11:
 211              	.LBE35:
 212              	.LBE36:
 213              	.LBE33:
GAS LISTING /tmp/cclf04fV.s 			page 6


 214              	.LBE32:
  32:test/../test/Threads_C_API_test.hpp ****         printString("B: i="); printInt(i); printString("\n");
 215              		.loc 1 32 5 discriminator 2
 216 011c 13091900 		addi	s2,s2,1
 217              	.LVL23:
 218              	.L15:
  32:test/../test/Threads_C_API_test.hpp ****         printString("B: i="); printInt(i); printString("\n");
 219              		.loc 1 32 26 discriminator 1
 220 0120 9307F000 		li	a5,15
 221 0124 63E02705 		bgtu	s2,a5,.L10
 222              	.LBB38:
  33:test/../test/Threads_C_API_test.hpp ****         for (uint64 j = 0; j < 10000; j++) {
 223              		.loc 1 33 9
  33:test/../test/Threads_C_API_test.hpp ****         for (uint64 j = 0; j < 10000; j++) {
 224              		.loc 1 33 20 is_stmt 0
 225 0128 17050000 		lla	a0,.LC3
 225      13050500 
 226 0130 97000000 		call	_Z11printStringPKc@plt
 226      E7800000 
 227              	.LVL24:
  33:test/../test/Threads_C_API_test.hpp ****         for (uint64 j = 0; j < 10000; j++) {
 228              		.loc 1 33 31 is_stmt 1
  33:test/../test/Threads_C_API_test.hpp ****         for (uint64 j = 0; j < 10000; j++) {
 229              		.loc 1 33 39 is_stmt 0
 230 0138 13060000 		li	a2,0
 231 013c 9305A000 		li	a1,10
 232 0140 1B050900 		sext.w	a0,s2
 233 0144 97000000 		call	_Z8printIntiii@plt
 233      E7800000 
 234              	.LVL25:
  33:test/../test/Threads_C_API_test.hpp ****         for (uint64 j = 0; j < 10000; j++) {
 235              		.loc 1 33 44 is_stmt 1
  33:test/../test/Threads_C_API_test.hpp ****         for (uint64 j = 0; j < 10000; j++) {
 236              		.loc 1 33 55 is_stmt 0
 237 014c 17050000 		lla	a0,.LC1
 237      13050500 
 238 0154 97000000 		call	_Z11printStringPKc@plt
 238      E7800000 
 239              	.LVL26:
  34:test/../test/Threads_C_API_test.hpp ****             for (uint64 k = 0; k < 30000; k++) { /* busy wait */ }
 240              		.loc 1 34 9 is_stmt 1
 241              	.LBB37:
  34:test/../test/Threads_C_API_test.hpp ****             for (uint64 k = 0; k < 30000; k++) { /* busy wait */ }
 242              		.loc 1 34 21 is_stmt 0
 243 015c 93040000 		li	s1,0
 244 0160 6FF09FF9 		j	.L14
 245              	.LVL27:
 246              	.L10:
 247              	.LBE37:
 248              	.LBE38:
 249              	.LBE31:
  37:test/../test/Threads_C_API_test.hpp ****         }
  38:test/../test/Threads_C_API_test.hpp ****     }
  39:test/../test/Threads_C_API_test.hpp ****     printString("B finished!\n");
 250              		.loc 1 39 5 is_stmt 1
 251              		.loc 1 39 16 is_stmt 0
 252 0164 17050000 		lla	a0,.LC4
GAS LISTING /tmp/cclf04fV.s 			page 7


 252      13050500 
 253 016c 97000000 		call	_Z11printStringPKc@plt
 253      E7800000 
 254              	.LVL28:
  40:test/../test/Threads_C_API_test.hpp ****     finishedB = true;
 255              		.loc 1 40 5 is_stmt 1
 256              		.loc 1 40 15 is_stmt 0
 257 0174 93071000 		li	a5,1
 258 0178 17070000 		sb	a5,.LANCHOR0+1,a4
 258      2300F700 
  41:test/../test/Threads_C_API_test.hpp ****     thread_dispatch();
 259              		.loc 1 41 5 is_stmt 1
 260              		.loc 1 41 20 is_stmt 0
 261 0180 97000000 		call	_Z15thread_dispatchv@plt
 261      E7800000 
 262              	.LVL29:
  42:test/../test/Threads_C_API_test.hpp **** }
 263              		.loc 1 42 1
 264 0188 83308101 		ld	ra,24(sp)
 265              		.cfi_restore 1
 266 018c 03340101 		ld	s0,16(sp)
 267              		.cfi_restore 8
 268              		.cfi_def_cfa 2, 32
 269 0190 83348100 		ld	s1,8(sp)
 270              		.cfi_restore 9
 271 0194 03390100 		ld	s2,0(sp)
 272              		.cfi_restore 18
 273              	.LVL30:
 274 0198 13010102 		addi	sp,sp,32
 275              		.cfi_def_cfa_offset 0
 276 019c 67800000 		jr	ra
 277              		.cfi_endproc
 278              	.LFE2:
 280              		.section	.rodata.str1.8
 281 0035 000000   		.align	3
 282              	.LC5:
 283 0038 48656C6C 		.string	"Hello "
 283      6F2000
 284 003f 00       		.align	3
 285              	.LC6:
 286 0040 20210A00 		.string	" !\n"
 287              		.text
 288              		.align	2
 289              		.globl	_Z9sleepyRunPv
 291              	_Z9sleepyRunPv:
 292              	.LFB6:
 293              		.file 2 "test/../test/ThreadSleep_C_API_test.hpp"
   1:test/../test/ThreadSleep_C_API_test.hpp **** //
   2:test/../test/ThreadSleep_C_API_test.hpp **** // Created by os on 4/17/22.
   3:test/../test/ThreadSleep_C_API_test.hpp **** //
   4:test/../test/ThreadSleep_C_API_test.hpp **** 
   5:test/../test/ThreadSleep_C_API_test.hpp **** #ifndef XV6_THREADSLEEP_C_API_TEST_HPP
   6:test/../test/ThreadSleep_C_API_test.hpp **** #define XV6_THREADSLEEP_C_API_TEST_HPP
   7:test/../test/ThreadSleep_C_API_test.hpp **** 
   8:test/../test/ThreadSleep_C_API_test.hpp **** #include "../h/syscall_c.hpp"
   9:test/../test/ThreadSleep_C_API_test.hpp **** 
  10:test/../test/ThreadSleep_C_API_test.hpp **** #include "printing.hpp"
GAS LISTING /tmp/cclf04fV.s 			page 8


  11:test/../test/ThreadSleep_C_API_test.hpp **** 
  12:test/../test/ThreadSleep_C_API_test.hpp **** bool finished[2];
  13:test/../test/ThreadSleep_C_API_test.hpp **** 
  14:test/../test/ThreadSleep_C_API_test.hpp **** void sleepyRun(void *arg) {
 294              		.loc 2 14 27 is_stmt 1
 295              		.cfi_startproc
 296              	.LVL31:
 297 01a0 130101FE 		addi	sp,sp,-32
 298              		.cfi_def_cfa_offset 32
 299 01a4 233C1100 		sd	ra,24(sp)
 300 01a8 23388100 		sd	s0,16(sp)
 301 01ac 23349100 		sd	s1,8(sp)
 302 01b0 23302101 		sd	s2,0(sp)
 303              		.cfi_offset 1, -8
 304              		.cfi_offset 8, -16
 305              		.cfi_offset 9, -24
 306              		.cfi_offset 18, -32
 307 01b4 13040102 		addi	s0,sp,32
 308              		.cfi_def_cfa 8, 0
  15:test/../test/ThreadSleep_C_API_test.hpp ****     time_t sleep_time = *((time_t *) arg);
 309              		.loc 2 15 5
 310              		.loc 2 15 12 is_stmt 0
 311 01b8 03390500 		ld	s2,0(a0)
 312              	.LVL32:
  16:test/../test/ThreadSleep_C_API_test.hpp ****     int i = 6;
 313              		.loc 2 16 5 is_stmt 1
 314              		.loc 2 16 9 is_stmt 0
 315 01bc 93046000 		li	s1,6
 316              	.LVL33:
 317              	.L19:
  17:test/../test/ThreadSleep_C_API_test.hpp ****     while (--i > 0) {
 318              		.loc 2 17 5 is_stmt 1
 319              		.loc 2 17 16
 320 01c0 9B84F4FF 		addiw	s1,s1,-1
 321              	.LVL34:
 322 01c4 63549004 		blez	s1,.L18
  18:test/../test/ThreadSleep_C_API_test.hpp **** 
  19:test/../test/ThreadSleep_C_API_test.hpp ****         printString("Hello ");
 323              		.loc 2 19 9
 324              		.loc 2 19 20 is_stmt 0
 325 01c8 17050000 		lla	a0,.LC5
 325      13050500 
 326 01d0 97000000 		call	_Z11printStringPKc@plt
 326      E7800000 
 327              	.LVL35:
  20:test/../test/ThreadSleep_C_API_test.hpp ****         printInt(sleep_time);
 328              		.loc 2 20 9 is_stmt 1
 329              		.loc 2 20 17 is_stmt 0
 330 01d8 13060000 		li	a2,0
 331 01dc 9305A000 		li	a1,10
 332 01e0 1B050900 		sext.w	a0,s2
 333 01e4 97000000 		call	_Z8printIntiii@plt
 333      E7800000 
 334              	.LVL36:
  21:test/../test/ThreadSleep_C_API_test.hpp ****         printString(" !\n");
 335              		.loc 2 21 9 is_stmt 1
 336              		.loc 2 21 20 is_stmt 0
GAS LISTING /tmp/cclf04fV.s 			page 9


 337 01ec 17050000 		lla	a0,.LC6
 337      13050500 
 338 01f4 97000000 		call	_Z11printStringPKc@plt
 338      E7800000 
 339              	.LVL37:
  22:test/../test/ThreadSleep_C_API_test.hpp ****         time_sleep(sleep_time);
 340              		.loc 2 22 9 is_stmt 1
 341              		.loc 2 22 19 is_stmt 0
 342 01fc 13050900 		mv	a0,s2
 343 0200 97000000 		call	_Z10time_sleepm@plt
 343      E7800000 
 344              	.LVL38:
  17:test/../test/ThreadSleep_C_API_test.hpp **** 
 345              		.loc 2 17 5
 346 0208 6FF09FFB 		j	.L19
 347              	.L18:
  23:test/../test/ThreadSleep_C_API_test.hpp ****     }
  24:test/../test/ThreadSleep_C_API_test.hpp **** 
  25:test/../test/ThreadSleep_C_API_test.hpp ****     finished[sleep_time/10-1] = true;
 348              		.loc 2 25 5 is_stmt 1
 349              		.loc 2 25 24 is_stmt 0
 350 020c 9307A000 		li	a5,10
 351 0210 3359F902 		divu	s2,s2,a5
 352              	.LVL39:
 353              		.loc 2 25 27
 354 0214 1309F9FF 		addi	s2,s2,-1
 355              		.loc 2 25 31
 356 0218 97070000 		lla	a5,.LANCHOR0
 356      93870700 
 357 0220 33892701 		add	s2,a5,s2
 358 0224 93071000 		li	a5,1
 359 0228 2304F900 		sb	a5,8(s2)
  26:test/../test/ThreadSleep_C_API_test.hpp **** }
 360              		.loc 2 26 1
 361 022c 83308101 		ld	ra,24(sp)
 362              		.cfi_restore 1
 363 0230 03340101 		ld	s0,16(sp)
 364              		.cfi_restore 8
 365              		.cfi_def_cfa 2, 32
 366 0234 83348100 		ld	s1,8(sp)
 367              		.cfi_restore 9
 368 0238 03390100 		ld	s2,0(sp)
 369              		.cfi_restore 18
 370 023c 13010102 		addi	sp,sp,32
 371              		.cfi_def_cfa_offset 0
 372 0240 67800000 		jr	ra
 373              		.cfi_endproc
 374              	.LFE6:
 376              		.section	.text._ZN19ConsumerProducerCPP8Consumer3runEv,"axG",@progbits,_ZN19ConsumerProducerCPP8Co
 377              		.align	2
 378              		.weak	_ZN19ConsumerProducerCPP8Consumer3runEv
 380              	_ZN19ConsumerProducerCPP8Consumer3runEv:
 381              	.LFB21:
 382              		.file 3 "test/../test/ConsumerProducer_CPP_API_test.hpp"
   1:test/../test/ConsumerProducer_CPP_API_test.hpp **** //
   2:test/../test/ConsumerProducer_CPP_API_test.hpp **** // Created by os on 4/17/22.
   3:test/../test/ConsumerProducer_CPP_API_test.hpp **** //
GAS LISTING /tmp/cclf04fV.s 			page 10


   4:test/../test/ConsumerProducer_CPP_API_test.hpp **** 
   5:test/../test/ConsumerProducer_CPP_API_test.hpp **** #ifndef XV6_CONSUMERPRODUCER_CPP_API_TEST_HPP
   6:test/../test/ConsumerProducer_CPP_API_test.hpp **** #define XV6_CONSUMERPRODUCER_CPP_API_TEST_HPP
   7:test/../test/ConsumerProducer_CPP_API_test.hpp **** 
   8:test/../test/ConsumerProducer_CPP_API_test.hpp **** #include "../h/syscall_cpp.hpp"
   9:test/../test/ConsumerProducer_CPP_API_test.hpp **** 
  10:test/../test/ConsumerProducer_CPP_API_test.hpp **** #include "buffer_CPP_API.hpp"
  11:test/../test/ConsumerProducer_CPP_API_test.hpp **** #include "printing.hpp"
  12:test/../test/ConsumerProducer_CPP_API_test.hpp **** 
  13:test/../test/ConsumerProducer_CPP_API_test.hpp **** namespace ConsumerProducerCPP {
  14:test/../test/ConsumerProducer_CPP_API_test.hpp **** 
  15:test/../test/ConsumerProducer_CPP_API_test.hpp ****     Semaphore *waitForAll;
  16:test/../test/ConsumerProducer_CPP_API_test.hpp **** 
  17:test/../test/ConsumerProducer_CPP_API_test.hpp ****     struct thread_data {
  18:test/../test/ConsumerProducer_CPP_API_test.hpp ****         int id;
  19:test/../test/ConsumerProducer_CPP_API_test.hpp ****         BufferCPP *buffer;
  20:test/../test/ConsumerProducer_CPP_API_test.hpp ****         Semaphore *sem;
  21:test/../test/ConsumerProducer_CPP_API_test.hpp ****     };
  22:test/../test/ConsumerProducer_CPP_API_test.hpp **** 
  23:test/../test/ConsumerProducer_CPP_API_test.hpp ****     volatile int threadEnd = 0;
  24:test/../test/ConsumerProducer_CPP_API_test.hpp **** 
  25:test/../test/ConsumerProducer_CPP_API_test.hpp ****     class ProducerKeyborad : public Thread {
  26:test/../test/ConsumerProducer_CPP_API_test.hpp ****         thread_data *td;
  27:test/../test/ConsumerProducer_CPP_API_test.hpp ****     public:
  28:test/../test/ConsumerProducer_CPP_API_test.hpp ****         ProducerKeyborad(thread_data *_td) : Thread(), td(_td) {}
  29:test/../test/ConsumerProducer_CPP_API_test.hpp **** 
  30:test/../test/ConsumerProducer_CPP_API_test.hpp ****         void run() override {
  31:test/../test/ConsumerProducer_CPP_API_test.hpp ****             int key;
  32:test/../test/ConsumerProducer_CPP_API_test.hpp ****             int i = 0;
  33:test/../test/ConsumerProducer_CPP_API_test.hpp ****             while ((key = getc()) != 0x1b) {
  34:test/../test/ConsumerProducer_CPP_API_test.hpp ****                 td->buffer->put(key);
  35:test/../test/ConsumerProducer_CPP_API_test.hpp ****                 i++;
  36:test/../test/ConsumerProducer_CPP_API_test.hpp ****             }
  37:test/../test/ConsumerProducer_CPP_API_test.hpp **** 
  38:test/../test/ConsumerProducer_CPP_API_test.hpp ****             threadEnd = 1;
  39:test/../test/ConsumerProducer_CPP_API_test.hpp ****             td->buffer->put('!');
  40:test/../test/ConsumerProducer_CPP_API_test.hpp **** 
  41:test/../test/ConsumerProducer_CPP_API_test.hpp ****             td->sem->signal();
  42:test/../test/ConsumerProducer_CPP_API_test.hpp ****         }
  43:test/../test/ConsumerProducer_CPP_API_test.hpp ****     };
  44:test/../test/ConsumerProducer_CPP_API_test.hpp **** 
  45:test/../test/ConsumerProducer_CPP_API_test.hpp ****     class Producer : public Thread {
  46:test/../test/ConsumerProducer_CPP_API_test.hpp ****         thread_data *td;
  47:test/../test/ConsumerProducer_CPP_API_test.hpp ****     public:
  48:test/../test/ConsumerProducer_CPP_API_test.hpp ****         Producer(thread_data *_td) : Thread(), td(_td) {}
  49:test/../test/ConsumerProducer_CPP_API_test.hpp **** 
  50:test/../test/ConsumerProducer_CPP_API_test.hpp ****         void run() override {
  51:test/../test/ConsumerProducer_CPP_API_test.hpp ****             int i = 0;
  52:test/../test/ConsumerProducer_CPP_API_test.hpp ****             while (!threadEnd) {
  53:test/../test/ConsumerProducer_CPP_API_test.hpp ****                 td->buffer->put(td->id + '0');
  54:test/../test/ConsumerProducer_CPP_API_test.hpp ****                 i++;
  55:test/../test/ConsumerProducer_CPP_API_test.hpp ****                 Thread::sleep((i+td->id)%5);
  56:test/../test/ConsumerProducer_CPP_API_test.hpp ****             }
  57:test/../test/ConsumerProducer_CPP_API_test.hpp **** 
  58:test/../test/ConsumerProducer_CPP_API_test.hpp ****             td->sem->signal();
  59:test/../test/ConsumerProducer_CPP_API_test.hpp ****         }
  60:test/../test/ConsumerProducer_CPP_API_test.hpp ****     };
GAS LISTING /tmp/cclf04fV.s 			page 11


  61:test/../test/ConsumerProducer_CPP_API_test.hpp **** 
  62:test/../test/ConsumerProducer_CPP_API_test.hpp ****     class Consumer : public Thread {
  63:test/../test/ConsumerProducer_CPP_API_test.hpp ****         thread_data *td;
  64:test/../test/ConsumerProducer_CPP_API_test.hpp ****     public:
  65:test/../test/ConsumerProducer_CPP_API_test.hpp ****         Consumer(thread_data *_td) : Thread(), td(_td) {}
  66:test/../test/ConsumerProducer_CPP_API_test.hpp **** 
  67:test/../test/ConsumerProducer_CPP_API_test.hpp ****         void run() override {
 383              		.loc 3 67 14 is_stmt 1
 384              		.cfi_startproc
 385              	.LVL40:
 386 0000 130101FD 		addi	sp,sp,-48
 387              		.cfi_def_cfa_offset 48
 388 0004 23341102 		sd	ra,40(sp)
 389 0008 23308102 		sd	s0,32(sp)
 390 000c 233C9100 		sd	s1,24(sp)
 391 0010 23382101 		sd	s2,16(sp)
 392 0014 23343101 		sd	s3,8(sp)
 393              		.cfi_offset 1, -8
 394              		.cfi_offset 8, -16
 395              		.cfi_offset 9, -24
 396              		.cfi_offset 18, -32
 397              		.cfi_offset 19, -40
 398 0018 13040103 		addi	s0,sp,48
 399              		.cfi_def_cfa 8, 0
 400 001c 13090500 		mv	s2,a0
  68:test/../test/ConsumerProducer_CPP_API_test.hpp ****             int i = 0;
 401              		.loc 3 68 13
 402              	.LVL41:
 403              		.loc 3 68 17 is_stmt 0
 404 0020 93090000 		li	s3,0
 405 0024 6F000001 		j	.L22
 406              	.LVL42:
 407              	.L27:
 408              	.LBB39:
  69:test/../test/ConsumerProducer_CPP_API_test.hpp ****             while (!threadEnd) {
  70:test/../test/ConsumerProducer_CPP_API_test.hpp ****                 int key = td->buffer->get();
  71:test/../test/ConsumerProducer_CPP_API_test.hpp ****                 i++;
  72:test/../test/ConsumerProducer_CPP_API_test.hpp **** 
  73:test/../test/ConsumerProducer_CPP_API_test.hpp ****                 Console::putc(key);
  74:test/../test/ConsumerProducer_CPP_API_test.hpp **** 
  75:test/../test/ConsumerProducer_CPP_API_test.hpp ****                 if (i % 80 == 0) {
  76:test/../test/ConsumerProducer_CPP_API_test.hpp ****                     Console::putc('\n');
 409              		.loc 3 76 21 is_stmt 1
 410              		.loc 3 76 34 is_stmt 0
 411 0028 1305A000 		li	a0,10
 412 002c 97000000 		call	_ZN7Console4putcEc@plt
 412      E7800000 
 413              	.LVL43:
 414              	.L22:
 415              	.LBE39:
  69:test/../test/ConsumerProducer_CPP_API_test.hpp ****             while (!threadEnd) {
 416              		.loc 3 69 13 is_stmt 1
  69:test/../test/ConsumerProducer_CPP_API_test.hpp ****             while (!threadEnd) {
 417              		.loc 3 69 20
 418 0034 97070000 		lw	a5,.LANCHOR0+12
 418      83A70700 
 419 003c 639A0704 		bnez	a5,.L23
GAS LISTING /tmp/cclf04fV.s 			page 12


 420              	.LBB40:
  70:test/../test/ConsumerProducer_CPP_API_test.hpp ****                 i++;
 421              		.loc 3 70 17
  70:test/../test/ConsumerProducer_CPP_API_test.hpp ****                 i++;
 422              		.loc 3 70 27 is_stmt 0
 423 0040 83370901 		ld	a5,16(s2)
  70:test/../test/ConsumerProducer_CPP_API_test.hpp ****                 i++;
 424              		.loc 3 70 42
 425 0044 03B58700 		ld	a0,8(a5)
 426 0048 97000000 		call	_ZN9BufferCPP3getEv@plt
 426      E7800000 
 427              	.LVL44:
  71:test/../test/ConsumerProducer_CPP_API_test.hpp **** 
 428              		.loc 3 71 17 is_stmt 1
  71:test/../test/ConsumerProducer_CPP_API_test.hpp **** 
 429              		.loc 3 71 18 is_stmt 0
 430 0050 9B841900 		addiw	s1,s3,1
 431 0054 9B890400 		sext.w	s3,s1
 432              	.LVL45:
  73:test/../test/ConsumerProducer_CPP_API_test.hpp **** 
 433              		.loc 3 73 17 is_stmt 1
  73:test/../test/ConsumerProducer_CPP_API_test.hpp **** 
 434              		.loc 3 73 30 is_stmt 0
 435 0058 1375F50F 		andi	a0,a0,0xff
 436              	.LVL46:
 437 005c 97000000 		call	_ZN7Console4putcEc@plt
 437      E7800000 
 438              	.LVL47:
  75:test/../test/ConsumerProducer_CPP_API_test.hpp ****                     Console::putc('\n');
 439              		.loc 3 75 17 is_stmt 1
  75:test/../test/ConsumerProducer_CPP_API_test.hpp ****                     Console::putc('\n');
 440              		.loc 3 75 23 is_stmt 0
 441 0064 93070005 		li	a5,80
 442 0068 BBE4F402 		remw	s1,s1,a5
 443              	.LVL48:
  75:test/../test/ConsumerProducer_CPP_API_test.hpp ****                     Console::putc('\n');
 444              		.loc 3 75 17
 445 006c E39404FC 		bnez	s1,.L22
 446 0070 6FF09FFB 		j	.L27
 447              	.L28:
 448              	.LBE40:
 449              	.LBB41:
  77:test/../test/ConsumerProducer_CPP_API_test.hpp ****                 }
  78:test/../test/ConsumerProducer_CPP_API_test.hpp ****             }
  79:test/../test/ConsumerProducer_CPP_API_test.hpp **** 
  80:test/../test/ConsumerProducer_CPP_API_test.hpp ****             while (td->buffer->getCnt() > 0) {
  81:test/../test/ConsumerProducer_CPP_API_test.hpp ****                 int key = td->buffer->get();
 450              		.loc 3 81 17 is_stmt 1
 451              		.loc 3 81 27 is_stmt 0
 452 0074 83370901 		ld	a5,16(s2)
 453              		.loc 3 81 42
 454 0078 03B58700 		ld	a0,8(a5)
 455 007c 97000000 		call	_ZN9BufferCPP3getEv@plt
 455      E7800000 
 456              	.LVL49:
  82:test/../test/ConsumerProducer_CPP_API_test.hpp ****                 Console::putc(key);
 457              		.loc 3 82 17 is_stmt 1
GAS LISTING /tmp/cclf04fV.s 			page 13


 458              		.loc 3 82 30 is_stmt 0
 459 0084 1375F50F 		andi	a0,a0,0xff
 460              	.LVL50:
 461 0088 97000000 		call	_ZN7Console4putcEc@plt
 461      E7800000 
 462              	.LVL51:
 463              	.L23:
 464              	.LBE41:
  80:test/../test/ConsumerProducer_CPP_API_test.hpp ****                 int key = td->buffer->get();
 465              		.loc 3 80 13 is_stmt 1
  80:test/../test/ConsumerProducer_CPP_API_test.hpp ****                 int key = td->buffer->get();
 466              		.loc 3 80 41
  80:test/../test/ConsumerProducer_CPP_API_test.hpp ****                 int key = td->buffer->get();
 467              		.loc 3 80 20 is_stmt 0
 468 0090 83370901 		ld	a5,16(s2)
  80:test/../test/ConsumerProducer_CPP_API_test.hpp ****                 int key = td->buffer->get();
 469              		.loc 3 80 38
 470 0094 03B58700 		ld	a0,8(a5)
 471 0098 97000000 		call	_ZN9BufferCPP6getCntEv@plt
 471      E7800000 
 472              	.LVL52:
  80:test/../test/ConsumerProducer_CPP_API_test.hpp ****                 int key = td->buffer->get();
 473              		.loc 3 80 41
 474 00a0 E34AA0FC 		bgtz	a0,.L28
  83:test/../test/ConsumerProducer_CPP_API_test.hpp ****             }
  84:test/../test/ConsumerProducer_CPP_API_test.hpp **** 
  85:test/../test/ConsumerProducer_CPP_API_test.hpp ****             td->sem->signal();
 475              		.loc 3 85 13 is_stmt 1
 476 00a4 83370901 		ld	a5,16(s2)
 477              		.loc 3 85 28 is_stmt 0
 478 00a8 03B50701 		ld	a0,16(a5)
 479 00ac 97000000 		call	_ZN9Semaphore6signalEv@plt
 479      E7800000 
 480              	.LVL53:
  86:test/../test/ConsumerProducer_CPP_API_test.hpp ****         }
 481              		.loc 3 86 9
 482 00b4 83308102 		ld	ra,40(sp)
 483              		.cfi_restore 1
 484 00b8 03340102 		ld	s0,32(sp)
 485              		.cfi_restore 8
 486              		.cfi_def_cfa 2, 48
 487 00bc 83348101 		ld	s1,24(sp)
 488              		.cfi_restore 9
 489 00c0 03390101 		ld	s2,16(sp)
 490              		.cfi_restore 18
 491              	.LVL54:
 492 00c4 83398100 		ld	s3,8(sp)
 493              		.cfi_restore 19
 494              	.LVL55:
 495 00c8 13010103 		addi	sp,sp,48
 496              		.cfi_def_cfa_offset 0
 497 00cc 67800000 		jr	ra
 498              		.cfi_endproc
 499              	.LFE21:
 501              		.section	.text._ZN19ConsumerProducerCPP8ConsumerD2Ev,"axG",@progbits,_ZN19ConsumerProducerCPP8Cons
 502              		.align	2
 503              		.weak	_ZN19ConsumerProducerCPP8ConsumerD2Ev
GAS LISTING /tmp/cclf04fV.s 			page 14


 505              	_ZN19ConsumerProducerCPP8ConsumerD2Ev:
 506              	.LFB25:
  62:test/../test/ConsumerProducer_CPP_API_test.hpp ****         thread_data *td;
 507              		.loc 3 62 11 is_stmt 1
 508              		.cfi_startproc
 509              	.LVL56:
 510 0000 130101FF 		addi	sp,sp,-16
 511              		.cfi_def_cfa_offset 16
 512 0004 23341100 		sd	ra,8(sp)
 513 0008 23308100 		sd	s0,0(sp)
 514              		.cfi_offset 1, -8
 515              		.cfi_offset 8, -16
 516 000c 13040101 		addi	s0,sp,16
 517              		.cfi_def_cfa 8, 0
 518              	.LBB42:
  62:test/../test/ConsumerProducer_CPP_API_test.hpp ****         thread_data *td;
 519              		.loc 3 62 11 is_stmt 0
 520 0010 97070000 		lla	a5,_ZTVN19ConsumerProducerCPP8ConsumerE+16
 520      93870700 
 521 0018 2330F500 		sd	a5,0(a0)
 522 001c 97000000 		call	_ZN6ThreadD2Ev@plt
 522      E7800000 
 523              	.LVL57:
 524              	.LBE42:
 525 0024 83308100 		ld	ra,8(sp)
 526              		.cfi_restore 1
 527 0028 03340100 		ld	s0,0(sp)
 528              		.cfi_restore 8
 529              		.cfi_def_cfa 2, 16
 530 002c 13010101 		addi	sp,sp,16
 531              		.cfi_def_cfa_offset 0
 532 0030 67800000 		jr	ra
 533              		.cfi_endproc
 534              	.LFE25:
 536              		.weak	_ZN19ConsumerProducerCPP8ConsumerD1Ev
 537              		.set	_ZN19ConsumerProducerCPP8ConsumerD1Ev,_ZN19ConsumerProducerCPP8ConsumerD2Ev
 538              		.section	.text._ZN19ConsumerProducerCPP8ConsumerD0Ev,"axG",@progbits,_ZN19ConsumerProducerCPP8Cons
 539              		.align	2
 540              		.weak	_ZN19ConsumerProducerCPP8ConsumerD0Ev
 542              	_ZN19ConsumerProducerCPP8ConsumerD0Ev:
 543              	.LFB27:
  62:test/../test/ConsumerProducer_CPP_API_test.hpp ****         thread_data *td;
 544              		.loc 3 62 11 is_stmt 1
 545              		.cfi_startproc
 546              	.LVL58:
 547 0000 130101FE 		addi	sp,sp,-32
 548              		.cfi_def_cfa_offset 32
 549 0004 233C1100 		sd	ra,24(sp)
 550 0008 23388100 		sd	s0,16(sp)
 551 000c 23349100 		sd	s1,8(sp)
 552              		.cfi_offset 1, -8
 553              		.cfi_offset 8, -16
 554              		.cfi_offset 9, -24
 555 0010 13040102 		addi	s0,sp,32
 556              		.cfi_def_cfa 8, 0
 557 0014 93040500 		mv	s1,a0
 558              	.LVL59:
GAS LISTING /tmp/cclf04fV.s 			page 15


 559              	.LBB43:
 560              	.LBB44:
  62:test/../test/ConsumerProducer_CPP_API_test.hpp ****         thread_data *td;
 561              		.loc 3 62 11 is_stmt 0
 562 0018 97070000 		lla	a5,_ZTVN19ConsumerProducerCPP8ConsumerE+16
 562      93870700 
 563 0020 2330F500 		sd	a5,0(a0)
 564 0024 97000000 		call	_ZN6ThreadD2Ev@plt
 564      E7800000 
 565              	.LVL60:
 566              	.LBE44:
 567              	.LBE43:
 568 002c 13850400 		mv	a0,s1
 569 0030 97000000 		call	_ZdlPv@plt
 569      E7800000 
 570              	.LVL61:
 571 0038 83308101 		ld	ra,24(sp)
 572              		.cfi_restore 1
 573 003c 03340101 		ld	s0,16(sp)
 574              		.cfi_restore 8
 575              		.cfi_def_cfa 2, 32
 576 0040 83348100 		ld	s1,8(sp)
 577              		.cfi_restore 9
 578              	.LVL62:
 579 0044 13010102 		addi	sp,sp,32
 580              		.cfi_def_cfa_offset 0
 581 0048 67800000 		jr	ra
 582              		.cfi_endproc
 583              	.LFE27:
 585              		.section	.text._ZN19ConsumerProducerCPP16ProducerKeyboradD2Ev,"axG",@progbits,_ZN19ConsumerProduce
 586              		.align	2
 587              		.weak	_ZN19ConsumerProducerCPP16ProducerKeyboradD2Ev
 589              	_ZN19ConsumerProducerCPP16ProducerKeyboradD2Ev:
 590              	.LFB33:
  25:test/../test/ConsumerProducer_CPP_API_test.hpp ****         thread_data *td;
 591              		.loc 3 25 11 is_stmt 1
 592              		.cfi_startproc
 593              	.LVL63:
 594 0000 130101FF 		addi	sp,sp,-16
 595              		.cfi_def_cfa_offset 16
 596 0004 23341100 		sd	ra,8(sp)
 597 0008 23308100 		sd	s0,0(sp)
 598              		.cfi_offset 1, -8
 599              		.cfi_offset 8, -16
 600 000c 13040101 		addi	s0,sp,16
 601              		.cfi_def_cfa 8, 0
 602              	.LBB45:
  25:test/../test/ConsumerProducer_CPP_API_test.hpp ****         thread_data *td;
 603              		.loc 3 25 11 is_stmt 0
 604 0010 97070000 		lla	a5,_ZTVN19ConsumerProducerCPP16ProducerKeyboradE+16
 604      93870700 
 605 0018 2330F500 		sd	a5,0(a0)
 606 001c 97000000 		call	_ZN6ThreadD2Ev@plt
 606      E7800000 
 607              	.LVL64:
 608              	.LBE45:
 609 0024 83308100 		ld	ra,8(sp)
GAS LISTING /tmp/cclf04fV.s 			page 16


 610              		.cfi_restore 1
 611 0028 03340100 		ld	s0,0(sp)
 612              		.cfi_restore 8
 613              		.cfi_def_cfa 2, 16
 614 002c 13010101 		addi	sp,sp,16
 615              		.cfi_def_cfa_offset 0
 616 0030 67800000 		jr	ra
 617              		.cfi_endproc
 618              	.LFE33:
 620              		.weak	_ZN19ConsumerProducerCPP16ProducerKeyboradD1Ev
 621              		.set	_ZN19ConsumerProducerCPP16ProducerKeyboradD1Ev,_ZN19ConsumerProducerCPP16ProducerKeyboradD2Ev
 622              		.section	.text._ZN19ConsumerProducerCPP16ProducerKeyboradD0Ev,"axG",@progbits,_ZN19ConsumerProduce
 623              		.align	2
 624              		.weak	_ZN19ConsumerProducerCPP16ProducerKeyboradD0Ev
 626              	_ZN19ConsumerProducerCPP16ProducerKeyboradD0Ev:
 627              	.LFB35:
  25:test/../test/ConsumerProducer_CPP_API_test.hpp ****         thread_data *td;
 628              		.loc 3 25 11 is_stmt 1
 629              		.cfi_startproc
 630              	.LVL65:
 631 0000 130101FE 		addi	sp,sp,-32
 632              		.cfi_def_cfa_offset 32
 633 0004 233C1100 		sd	ra,24(sp)
 634 0008 23388100 		sd	s0,16(sp)
 635 000c 23349100 		sd	s1,8(sp)
 636              		.cfi_offset 1, -8
 637              		.cfi_offset 8, -16
 638              		.cfi_offset 9, -24
 639 0010 13040102 		addi	s0,sp,32
 640              		.cfi_def_cfa 8, 0
 641 0014 93040500 		mv	s1,a0
 642              	.LVL66:
 643              	.LBB46:
 644              	.LBB47:
  25:test/../test/ConsumerProducer_CPP_API_test.hpp ****         thread_data *td;
 645              		.loc 3 25 11 is_stmt 0
 646 0018 97070000 		lla	a5,_ZTVN19ConsumerProducerCPP16ProducerKeyboradE+16
 646      93870700 
 647 0020 2330F500 		sd	a5,0(a0)
 648 0024 97000000 		call	_ZN6ThreadD2Ev@plt
 648      E7800000 
 649              	.LVL67:
 650              	.LBE47:
 651              	.LBE46:
 652 002c 13850400 		mv	a0,s1
 653 0030 97000000 		call	_ZdlPv@plt
 653      E7800000 
 654              	.LVL68:
 655 0038 83308101 		ld	ra,24(sp)
 656              		.cfi_restore 1
 657 003c 03340101 		ld	s0,16(sp)
 658              		.cfi_restore 8
 659              		.cfi_def_cfa 2, 32
 660 0040 83348100 		ld	s1,8(sp)
 661              		.cfi_restore 9
 662              	.LVL69:
 663 0044 13010102 		addi	sp,sp,32
GAS LISTING /tmp/cclf04fV.s 			page 17


 664              		.cfi_def_cfa_offset 0
 665 0048 67800000 		jr	ra
 666              		.cfi_endproc
 667              	.LFE35:
 669              		.section	.text._ZN19ConsumerProducerCPP8ProducerD2Ev,"axG",@progbits,_ZN19ConsumerProducerCPP8Prod
 670              		.align	2
 671              		.weak	_ZN19ConsumerProducerCPP8ProducerD2Ev
 673              	_ZN19ConsumerProducerCPP8ProducerD2Ev:
 674              	.LFB29:
  45:test/../test/ConsumerProducer_CPP_API_test.hpp ****         thread_data *td;
 675              		.loc 3 45 11 is_stmt 1
 676              		.cfi_startproc
 677              	.LVL70:
 678 0000 130101FF 		addi	sp,sp,-16
 679              		.cfi_def_cfa_offset 16
 680 0004 23341100 		sd	ra,8(sp)
 681 0008 23308100 		sd	s0,0(sp)
 682              		.cfi_offset 1, -8
 683              		.cfi_offset 8, -16
 684 000c 13040101 		addi	s0,sp,16
 685              		.cfi_def_cfa 8, 0
 686              	.LBB48:
  45:test/../test/ConsumerProducer_CPP_API_test.hpp ****         thread_data *td;
 687              		.loc 3 45 11 is_stmt 0
 688 0010 97070000 		lla	a5,_ZTVN19ConsumerProducerCPP8ProducerE+16
 688      93870700 
 689 0018 2330F500 		sd	a5,0(a0)
 690 001c 97000000 		call	_ZN6ThreadD2Ev@plt
 690      E7800000 
 691              	.LVL71:
 692              	.LBE48:
 693 0024 83308100 		ld	ra,8(sp)
 694              		.cfi_restore 1
 695 0028 03340100 		ld	s0,0(sp)
 696              		.cfi_restore 8
 697              		.cfi_def_cfa 2, 16
 698 002c 13010101 		addi	sp,sp,16
 699              		.cfi_def_cfa_offset 0
 700 0030 67800000 		jr	ra
 701              		.cfi_endproc
 702              	.LFE29:
 704              		.weak	_ZN19ConsumerProducerCPP8ProducerD1Ev
 705              		.set	_ZN19ConsumerProducerCPP8ProducerD1Ev,_ZN19ConsumerProducerCPP8ProducerD2Ev
 706              		.section	.text._ZN19ConsumerProducerCPP8ProducerD0Ev,"axG",@progbits,_ZN19ConsumerProducerCPP8Prod
 707              		.align	2
 708              		.weak	_ZN19ConsumerProducerCPP8ProducerD0Ev
 710              	_ZN19ConsumerProducerCPP8ProducerD0Ev:
 711              	.LFB31:
  45:test/../test/ConsumerProducer_CPP_API_test.hpp ****         thread_data *td;
 712              		.loc 3 45 11 is_stmt 1
 713              		.cfi_startproc
 714              	.LVL72:
 715 0000 130101FE 		addi	sp,sp,-32
 716              		.cfi_def_cfa_offset 32
 717 0004 233C1100 		sd	ra,24(sp)
 718 0008 23388100 		sd	s0,16(sp)
 719 000c 23349100 		sd	s1,8(sp)
GAS LISTING /tmp/cclf04fV.s 			page 18


 720              		.cfi_offset 1, -8
 721              		.cfi_offset 8, -16
 722              		.cfi_offset 9, -24
 723 0010 13040102 		addi	s0,sp,32
 724              		.cfi_def_cfa 8, 0
 725 0014 93040500 		mv	s1,a0
 726              	.LVL73:
 727              	.LBB49:
 728              	.LBB50:
  45:test/../test/ConsumerProducer_CPP_API_test.hpp ****         thread_data *td;
 729              		.loc 3 45 11 is_stmt 0
 730 0018 97070000 		lla	a5,_ZTVN19ConsumerProducerCPP8ProducerE+16
 730      93870700 
 731 0020 2330F500 		sd	a5,0(a0)
 732 0024 97000000 		call	_ZN6ThreadD2Ev@plt
 732      E7800000 
 733              	.LVL74:
 734              	.LBE50:
 735              	.LBE49:
 736 002c 13850400 		mv	a0,s1
 737 0030 97000000 		call	_ZdlPv@plt
 737      E7800000 
 738              	.LVL75:
 739 0038 83308101 		ld	ra,24(sp)
 740              		.cfi_restore 1
 741 003c 03340101 		ld	s0,16(sp)
 742              		.cfi_restore 8
 743              		.cfi_def_cfa 2, 32
 744 0040 83348100 		ld	s1,8(sp)
 745              		.cfi_restore 9
 746              	.LVL76:
 747 0044 13010102 		addi	sp,sp,32
 748              		.cfi_def_cfa_offset 0
 749 0048 67800000 		jr	ra
 750              		.cfi_endproc
 751              	.LFE31:
 753              		.section	.text._ZN19ConsumerProducerCPP16ProducerKeyborad3runEv,"axG",@progbits,_ZN19ConsumerProdu
 754              		.align	2
 755              		.weak	_ZN19ConsumerProducerCPP16ProducerKeyborad3runEv
 757              	_ZN19ConsumerProducerCPP16ProducerKeyborad3runEv:
 758              	.LFB13:
  30:test/../test/ConsumerProducer_CPP_API_test.hpp ****             int key;
 759              		.loc 3 30 14 is_stmt 1
 760              		.cfi_startproc
 761              	.LVL77:
 762 0000 130101FE 		addi	sp,sp,-32
 763              		.cfi_def_cfa_offset 32
 764 0004 233C1100 		sd	ra,24(sp)
 765 0008 23388100 		sd	s0,16(sp)
 766 000c 23349100 		sd	s1,8(sp)
 767              		.cfi_offset 1, -8
 768              		.cfi_offset 8, -16
 769              		.cfi_offset 9, -24
 770 0010 13040102 		addi	s0,sp,32
 771              		.cfi_def_cfa 8, 0
 772 0014 93040500 		mv	s1,a0
  31:test/../test/ConsumerProducer_CPP_API_test.hpp ****             int i = 0;
GAS LISTING /tmp/cclf04fV.s 			page 19


 773              		.loc 3 31 13
  32:test/../test/ConsumerProducer_CPP_API_test.hpp ****             while ((key = getc()) != 0x1b) {
 774              		.loc 3 32 13
 775              	.LVL78:
 776              	.L43:
  33:test/../test/ConsumerProducer_CPP_API_test.hpp ****                 td->buffer->put(key);
 777              		.loc 3 33 13
  33:test/../test/ConsumerProducer_CPP_API_test.hpp ****                 td->buffer->put(key);
 778              		.loc 3 33 35
  33:test/../test/ConsumerProducer_CPP_API_test.hpp ****                 td->buffer->put(key);
 779              		.loc 3 33 31 is_stmt 0
 780 0018 97000000 		call	_Z4getcv@plt
 780      E7800000 
 781              	.LVL79:
  33:test/../test/ConsumerProducer_CPP_API_test.hpp ****                 td->buffer->put(key);
 782              		.loc 3 33 25
 783 0020 9B050500 		sext.w	a1,a0
 784              	.LVL80:
  33:test/../test/ConsumerProducer_CPP_API_test.hpp ****                 td->buffer->put(key);
 785              		.loc 3 33 35
 786 0024 9307B001 		li	a5,27
 787 0028 638CF500 		beq	a1,a5,.L42
  34:test/../test/ConsumerProducer_CPP_API_test.hpp ****                 i++;
 788              		.loc 3 34 17 is_stmt 1
 789 002c 83B70401 		ld	a5,16(s1)
  34:test/../test/ConsumerProducer_CPP_API_test.hpp ****                 i++;
 790              		.loc 3 34 32 is_stmt 0
 791 0030 03B58700 		ld	a0,8(a5)
 792 0034 97000000 		call	_ZN9BufferCPP3putEi@plt
 792      E7800000 
 793              	.LVL81:
  35:test/../test/ConsumerProducer_CPP_API_test.hpp ****             }
 794              		.loc 3 35 17 is_stmt 1
  33:test/../test/ConsumerProducer_CPP_API_test.hpp ****                 td->buffer->put(key);
 795              		.loc 3 33 13 is_stmt 0
 796 003c 6FF0DFFD 		j	.L43
 797              	.LVL82:
 798              	.L42:
  38:test/../test/ConsumerProducer_CPP_API_test.hpp ****             td->buffer->put('!');
 799              		.loc 3 38 13 is_stmt 1
  38:test/../test/ConsumerProducer_CPP_API_test.hpp ****             td->buffer->put('!');
 800              		.loc 3 38 23 is_stmt 0
 801 0040 93071000 		li	a5,1
 802 0044 17070000 		sw	a5,.LANCHOR0+12,a4
 802      2320F700 
  39:test/../test/ConsumerProducer_CPP_API_test.hpp **** 
 803              		.loc 3 39 13 is_stmt 1
 804 004c 83B70401 		ld	a5,16(s1)
  39:test/../test/ConsumerProducer_CPP_API_test.hpp **** 
 805              		.loc 3 39 28 is_stmt 0
 806 0050 93051002 		li	a1,33
 807              	.LVL83:
 808 0054 03B58700 		ld	a0,8(a5)
 809              	.LVL84:
 810 0058 97000000 		call	_ZN9BufferCPP3putEi@plt
 810      E7800000 
 811              	.LVL85:
GAS LISTING /tmp/cclf04fV.s 			page 20


  41:test/../test/ConsumerProducer_CPP_API_test.hpp ****         }
 812              		.loc 3 41 13 is_stmt 1
 813 0060 83B70401 		ld	a5,16(s1)
  41:test/../test/ConsumerProducer_CPP_API_test.hpp ****         }
 814              		.loc 3 41 28 is_stmt 0
 815 0064 03B50701 		ld	a0,16(a5)
 816 0068 97000000 		call	_ZN9Semaphore6signalEv@plt
 816      E7800000 
 817              	.LVL86:
  42:test/../test/ConsumerProducer_CPP_API_test.hpp ****     };
 818              		.loc 3 42 9
 819 0070 83308101 		ld	ra,24(sp)
 820              		.cfi_restore 1
 821 0074 03340101 		ld	s0,16(sp)
 822              		.cfi_restore 8
 823              		.cfi_def_cfa 2, 32
 824 0078 83348100 		ld	s1,8(sp)
 825              		.cfi_restore 9
 826              	.LVL87:
 827 007c 13010102 		addi	sp,sp,32
 828              		.cfi_def_cfa_offset 0
 829 0080 67800000 		jr	ra
 830              		.cfi_endproc
 831              	.LFE13:
 833              		.section	.text._ZN19ConsumerProducerCPP8Producer3runEv,"axG",@progbits,_ZN19ConsumerProducerCPP8Pr
 834              		.align	2
 835              		.weak	_ZN19ConsumerProducerCPP8Producer3runEv
 837              	_ZN19ConsumerProducerCPP8Producer3runEv:
 838              	.LFB17:
  50:test/../test/ConsumerProducer_CPP_API_test.hpp ****             int i = 0;
 839              		.loc 3 50 14 is_stmt 1
 840              		.cfi_startproc
 841              	.LVL88:
 842 0000 130101FE 		addi	sp,sp,-32
 843              		.cfi_def_cfa_offset 32
 844 0004 233C1100 		sd	ra,24(sp)
 845 0008 23388100 		sd	s0,16(sp)
 846 000c 23349100 		sd	s1,8(sp)
 847 0010 23302101 		sd	s2,0(sp)
 848              		.cfi_offset 1, -8
 849              		.cfi_offset 8, -16
 850              		.cfi_offset 9, -24
 851              		.cfi_offset 18, -32
 852 0014 13040102 		addi	s0,sp,32
 853              		.cfi_def_cfa 8, 0
 854 0018 93040500 		mv	s1,a0
  51:test/../test/ConsumerProducer_CPP_API_test.hpp ****             while (!threadEnd) {
 855              		.loc 3 51 13
 856              	.LVL89:
  51:test/../test/ConsumerProducer_CPP_API_test.hpp ****             while (!threadEnd) {
 857              		.loc 3 51 17 is_stmt 0
 858 001c 13090000 		li	s2,0
 859              	.LVL90:
 860              	.L47:
  52:test/../test/ConsumerProducer_CPP_API_test.hpp ****                 td->buffer->put(td->id + '0');
 861              		.loc 3 52 13 is_stmt 1
  52:test/../test/ConsumerProducer_CPP_API_test.hpp ****                 td->buffer->put(td->id + '0');
GAS LISTING /tmp/cclf04fV.s 			page 21


 862              		.loc 3 52 20
 863 0020 97070000 		lw	a5,.LANCHOR0+12
 863      83A70700 
 864 0028 63920704 		bnez	a5,.L46
  53:test/../test/ConsumerProducer_CPP_API_test.hpp ****                 i++;
 865              		.loc 3 53 17
 866 002c 83B70401 		ld	a5,16(s1)
  53:test/../test/ConsumerProducer_CPP_API_test.hpp ****                 i++;
 867              		.loc 3 53 37 is_stmt 0
 868 0030 83A50700 		lw	a1,0(a5)
  53:test/../test/ConsumerProducer_CPP_API_test.hpp ****                 i++;
 869              		.loc 3 53 32
 870 0034 9B850503 		addiw	a1,a1,48
 871 0038 03B58700 		ld	a0,8(a5)
 872 003c 97000000 		call	_ZN9BufferCPP3putEi@plt
 872      E7800000 
 873              	.LVL91:
  54:test/../test/ConsumerProducer_CPP_API_test.hpp ****                 Thread::sleep((i+td->id)%5);
 874              		.loc 3 54 17 is_stmt 1
  54:test/../test/ConsumerProducer_CPP_API_test.hpp ****                 Thread::sleep((i+td->id)%5);
 875              		.loc 3 54 18 is_stmt 0
 876 0044 1B071900 		addiw	a4,s2,1
 877 0048 1B090700 		sext.w	s2,a4
 878              	.LVL92:
  55:test/../test/ConsumerProducer_CPP_API_test.hpp ****             }
 879              		.loc 3 55 17 is_stmt 1
  55:test/../test/ConsumerProducer_CPP_API_test.hpp ****             }
 880              		.loc 3 55 34 is_stmt 0
 881 004c 83B70401 		ld	a5,16(s1)
  55:test/../test/ConsumerProducer_CPP_API_test.hpp ****             }
 882              		.loc 3 55 38
 883 0050 83A70700 		lw	a5,0(a5)
  55:test/../test/ConsumerProducer_CPP_API_test.hpp ****             }
 884              		.loc 3 55 33
 885 0054 BB87E700 		addw	a5,a5,a4
  55:test/../test/ConsumerProducer_CPP_API_test.hpp ****             }
 886              		.loc 3 55 30
 887 0058 13055000 		li	a0,5
 888 005c 3BE5A702 		remw	a0,a5,a0
 889 0060 97000000 		call	_ZN6Thread5sleepEm@plt
 889      E7800000 
 890              	.LVL93:
  52:test/../test/ConsumerProducer_CPP_API_test.hpp ****                 td->buffer->put(td->id + '0');
 891              		.loc 3 52 13
 892 0068 6FF09FFB 		j	.L47
 893              	.L46:
  58:test/../test/ConsumerProducer_CPP_API_test.hpp ****         }
 894              		.loc 3 58 13 is_stmt 1
 895 006c 83B70401 		ld	a5,16(s1)
  58:test/../test/ConsumerProducer_CPP_API_test.hpp ****         }
 896              		.loc 3 58 28 is_stmt 0
 897 0070 03B50701 		ld	a0,16(a5)
 898 0074 97000000 		call	_ZN9Semaphore6signalEv@plt
 898      E7800000 
 899              	.LVL94:
  59:test/../test/ConsumerProducer_CPP_API_test.hpp ****     };
 900              		.loc 3 59 9
GAS LISTING /tmp/cclf04fV.s 			page 22


 901 007c 83308101 		ld	ra,24(sp)
 902              		.cfi_restore 1
 903 0080 03340101 		ld	s0,16(sp)
 904              		.cfi_restore 8
 905              		.cfi_def_cfa 2, 32
 906 0084 83348100 		ld	s1,8(sp)
 907              		.cfi_restore 9
 908              	.LVL95:
 909 0088 03390100 		ld	s2,0(sp)
 910              		.cfi_restore 18
 911              	.LVL96:
 912 008c 13010102 		addi	sp,sp,32
 913              		.cfi_def_cfa_offset 0
 914 0090 67800000 		jr	ra
 915              		.cfi_endproc
 916              	.LFE17:
 918              		.text
 919              		.align	2
 920              		.globl	_Z9fibonaccim
 922              	_Z9fibonaccim:
 923              	.LFB0:
  13:test/../test/Threads_C_API_test.hpp ****     if (n == 0 || n == 1) { return n; }
 924              		.loc 1 13 28 is_stmt 1
 925              		.cfi_startproc
 926              	.LVL97:
 927 0244 130101FE 		addi	sp,sp,-32
 928              		.cfi_def_cfa_offset 32
 929 0248 233C1100 		sd	ra,24(sp)
 930 024c 23388100 		sd	s0,16(sp)
 931 0250 23349100 		sd	s1,8(sp)
 932 0254 23302101 		sd	s2,0(sp)
 933              		.cfi_offset 1, -8
 934              		.cfi_offset 8, -16
 935              		.cfi_offset 9, -24
 936              		.cfi_offset 18, -32
 937 0258 13040102 		addi	s0,sp,32
 938              		.cfi_def_cfa 8, 0
 939 025c 93040500 		mv	s1,a0
  14:test/../test/Threads_C_API_test.hpp ****     if (n % 10 == 0) { thread_dispatch(); }
 940              		.loc 1 14 5
 941 0260 93071000 		li	a5,1
 942 0264 63F8A702 		bleu	a0,a5,.L49
  15:test/../test/Threads_C_API_test.hpp ****     return fibonacci(n - 1) + fibonacci(n - 2);
 943              		.loc 1 15 5
  15:test/../test/Threads_C_API_test.hpp ****     return fibonacci(n - 1) + fibonacci(n - 2);
 944              		.loc 1 15 11 is_stmt 0
 945 0268 9307A000 		li	a5,10
 946 026c B377F502 		remu	a5,a0,a5
  15:test/../test/Threads_C_API_test.hpp ****     return fibonacci(n - 1) + fibonacci(n - 2);
 947              		.loc 1 15 5
 948 0270 638E0702 		beqz	a5,.L54
 949              	.LVL98:
 950              	.L51:
  16:test/../test/Threads_C_API_test.hpp **** }
 951              		.loc 1 16 5 is_stmt 1
  16:test/../test/Threads_C_API_test.hpp **** }
 952              		.loc 1 16 21 is_stmt 0
GAS LISTING /tmp/cclf04fV.s 			page 23


 953 0274 1385F4FF 		addi	a0,s1,-1
 954 0278 97000000 		call	_Z9fibonaccim
 954      E7800000 
 955              	.LVL99:
 956 0280 13090500 		mv	s2,a0
  16:test/../test/Threads_C_API_test.hpp **** }
 957              		.loc 1 16 40
 958 0284 1385E4FF 		addi	a0,s1,-2
 959 0288 97000000 		call	_Z9fibonaccim
 959      E7800000 
 960              	.LVL100:
  16:test/../test/Threads_C_API_test.hpp **** }
 961              		.loc 1 16 46
 962 0290 3305A900 		add	a0,s2,a0
 963              	.L49:
  17:test/../test/Threads_C_API_test.hpp **** 
 964              		.loc 1 17 1
 965 0294 83308101 		ld	ra,24(sp)
 966              		.cfi_remember_state
 967              		.cfi_restore 1
 968 0298 03340101 		ld	s0,16(sp)
 969              		.cfi_restore 8
 970              		.cfi_def_cfa 2, 32
 971 029c 83348100 		ld	s1,8(sp)
 972              		.cfi_restore 9
 973              	.LVL101:
 974 02a0 03390100 		ld	s2,0(sp)
 975              		.cfi_restore 18
 976 02a4 13010102 		addi	sp,sp,32
 977              		.cfi_def_cfa_offset 0
 978 02a8 67800000 		jr	ra
 979              	.LVL102:
 980              	.L54:
 981              		.cfi_restore_state
  15:test/../test/Threads_C_API_test.hpp ****     return fibonacci(n - 1) + fibonacci(n - 2);
 982              		.loc 1 15 24 is_stmt 1 discriminator 1
  15:test/../test/Threads_C_API_test.hpp ****     return fibonacci(n - 1) + fibonacci(n - 2);
 983              		.loc 1 15 39 is_stmt 0 discriminator 1
 984 02ac 97000000 		call	_Z15thread_dispatchv@plt
 984      E7800000 
 985              	.LVL103:
 986 02b4 6FF01FFC 		j	.L51
 987              		.cfi_endproc
 988              	.LFE0:
 990              		.section	.rodata.str1.8
 991 0044 00000000 		.align	3
 992              	.LC7:
 993 0048 433A2069 		.string	"C: i="
 993      3D00
 994 004e 0000     		.align	3
 995              	.LC8:
 996 0050 433A2064 		.string	"C: dispatch\n"
 996      69737061 
 996      7463680A 
 996      00
 997 005d 000000   		.align	3
 998              	.LC9:
GAS LISTING /tmp/cclf04fV.s 			page 24


 999 0060 433A2074 		.string	"C: t1="
 999      313D00
 1000 0067 00       		.align	3
 1001              	.LC10:
 1002 0068 433A2066 		.string	"C: fibonaci="
 1002      69626F6E 
 1002      6163693D 
 1002      00
 1003 0075 000000   		.align	3
 1004              	.LC11:
 1005 0078 43206669 		.string	"C finished!\n"
 1005      6E697368 
 1005      6564210A 
 1005      00
 1006              		.text
 1007              		.align	2
 1008              		.globl	_Z11workerBodyCPv
 1010              	_Z11workerBodyCPv:
 1011              	.LFB3:
  43:test/../test/Threads_C_API_test.hpp **** 
  44:test/../test/Threads_C_API_test.hpp **** void workerBodyC(void* arg) {
 1012              		.loc 1 44 29 is_stmt 1
 1013              		.cfi_startproc
 1014              	.LVL104:
 1015 02b8 130101FE 		addi	sp,sp,-32
 1016              		.cfi_def_cfa_offset 32
 1017 02bc 233C1100 		sd	ra,24(sp)
 1018 02c0 23388100 		sd	s0,16(sp)
 1019 02c4 23349100 		sd	s1,8(sp)
 1020 02c8 23302101 		sd	s2,0(sp)
 1021              		.cfi_offset 1, -8
 1022              		.cfi_offset 8, -16
 1023              		.cfi_offset 9, -24
 1024              		.cfi_offset 18, -32
 1025 02cc 13040102 		addi	s0,sp,32
 1026              		.cfi_def_cfa 8, 0
  45:test/../test/Threads_C_API_test.hpp ****     uint8 i = 0;
 1027              		.loc 1 45 5
 1028              	.LVL105:
 1029              		.loc 1 45 11 is_stmt 0
 1030 02d0 93040000 		li	s1,0
 1031 02d4 6F000004 		j	.L57
 1032              	.LVL106:
 1033              	.L61:
  46:test/../test/Threads_C_API_test.hpp ****     for (; i < 3; i++) {
  47:test/../test/Threads_C_API_test.hpp ****         printString("C: i="); printInt(i); printString("\n");
 1034              		.loc 1 47 9 is_stmt 1 discriminator 1
 1035              		.loc 1 47 20 is_stmt 0 discriminator 1
 1036 02d8 17050000 		lla	a0,.LC7
 1036      13050500 
 1037 02e0 97000000 		call	_Z11printStringPKc@plt
 1037      E7800000 
 1038              	.LVL107:
 1039              		.loc 1 47 31 is_stmt 1 discriminator 1
 1040              		.loc 1 47 39 is_stmt 0 discriminator 1
 1041 02e8 13060000 		li	a2,0
 1042 02ec 9305A000 		li	a1,10
GAS LISTING /tmp/cclf04fV.s 			page 25


 1043 02f0 13850400 		mv	a0,s1
 1044 02f4 97000000 		call	_Z8printIntiii@plt
 1044      E7800000 
 1045              	.LVL108:
 1046              		.loc 1 47 44 is_stmt 1 discriminator 1
 1047              		.loc 1 47 55 is_stmt 0 discriminator 1
 1048 02fc 17050000 		lla	a0,.LC1
 1048      13050500 
 1049 0304 97000000 		call	_Z11printStringPKc@plt
 1049      E7800000 
 1050              	.LVL109:
  46:test/../test/Threads_C_API_test.hpp ****     for (; i < 3; i++) {
 1051              		.loc 1 46 5 is_stmt 1 discriminator 1
 1052 030c 9B841400 		addiw	s1,s1,1
 1053              	.LVL110:
 1054 0310 93F4F40F 		andi	s1,s1,0xff
 1055              	.LVL111:
 1056              	.L57:
  46:test/../test/Threads_C_API_test.hpp ****     for (; i < 3; i++) {
 1057              		.loc 1 46 5 discriminator 2
  46:test/../test/Threads_C_API_test.hpp ****     for (; i < 3; i++) {
 1058              		.loc 1 46 14 discriminator 2
 1059 0314 93072000 		li	a5,2
 1060 0318 E3F097FC 		bleu	s1,a5,.L61
  48:test/../test/Threads_C_API_test.hpp ****     }
  49:test/../test/Threads_C_API_test.hpp **** 
  50:test/../test/Threads_C_API_test.hpp ****     printString("C: dispatch\n");
 1061              		.loc 1 50 5
 1062              		.loc 1 50 16 is_stmt 0
 1063 031c 17050000 		lla	a0,.LC8
 1063      13050500 
 1064 0324 97000000 		call	_Z11printStringPKc@plt
 1064      E7800000 
 1065              	.LVL112:
  51:test/../test/Threads_C_API_test.hpp ****     __asm__ ("li t1, 7");
 1066              		.loc 1 51 5 is_stmt 1
 1067              		.loc 1 51 25 is_stmt 0
 1068              	#APP
 1069              	# 51 "test/../test/Threads_C_API_test.hpp" 1
  52              	    thread_dispatch();
 1070              		li t1, 7
 1071              	# 0 "" 2
 1072              		.loc 1 52 5 is_stmt 1
 1073              		.loc 1 52 20 is_stmt 0
 1074              	#NO_APP
 1075 0330 97000000 		call	_Z15thread_dispatchv@plt
 1075      E7800000 
 1076              	.LVL113:
  53:test/../test/Threads_C_API_test.hpp **** 
  54:test/../test/Threads_C_API_test.hpp ****     uint64 t1 = 0;
 1077              		.loc 1 54 5 is_stmt 1
  55:test/../test/Threads_C_API_test.hpp ****     __asm__ ("mv %[t1], t1" : [t1] "=r"(t1));
 1078              		.loc 1 55 5
 1079              		.loc 1 55 45 is_stmt 0
 1080              	#APP
 1081              	# 55 "test/../test/Threads_C_API_test.hpp" 1
  56              	
GAS LISTING /tmp/cclf04fV.s 			page 26


 1082              		mv s2, t1
 1083              	# 0 "" 2
 1084              	.LVL114:
  57:test/../test/Threads_C_API_test.hpp ****     printString("C: t1="); printInt(t1); printString("\n");
 1085              		.loc 1 57 5 is_stmt 1
 1086              		.loc 1 57 16 is_stmt 0
 1087              	#NO_APP
 1088 033c 17050000 		lla	a0,.LC9
 1088      13050500 
 1089 0344 97000000 		call	_Z11printStringPKc@plt
 1089      E7800000 
 1090              	.LVL115:
 1091              		.loc 1 57 28 is_stmt 1
 1092              		.loc 1 57 36 is_stmt 0
 1093 034c 13060000 		li	a2,0
 1094 0350 9305A000 		li	a1,10
 1095 0354 1B050900 		sext.w	a0,s2
 1096 0358 97000000 		call	_Z8printIntiii@plt
 1096      E7800000 
 1097              	.LVL116:
 1098              		.loc 1 57 42 is_stmt 1
 1099              		.loc 1 57 53 is_stmt 0
 1100 0360 17050000 		lla	a0,.LC1
 1100      13050500 
 1101 0368 97000000 		call	_Z11printStringPKc@plt
 1101      E7800000 
 1102              	.LVL117:
  58:test/../test/Threads_C_API_test.hpp **** 
  59:test/../test/Threads_C_API_test.hpp ****     uint64 result = fibonacci(12);
 1103              		.loc 1 59 5 is_stmt 1
 1104              		.loc 1 59 30 is_stmt 0
 1105 0370 1305C000 		li	a0,12
 1106 0374 97000000 		call	_Z9fibonaccim
 1106      E7800000 
 1107              	.LVL118:
 1108 037c 13090500 		mv	s2,a0
 1109              	.LVL119:
  60:test/../test/Threads_C_API_test.hpp ****     printString("C: fibonaci="); printInt(result); printString("\n");
 1110              		.loc 1 60 5 is_stmt 1
 1111              		.loc 1 60 16 is_stmt 0
 1112 0380 17050000 		lla	a0,.LC10
 1112      13050500 
 1113              	.LVL120:
 1114 0388 97000000 		call	_Z11printStringPKc@plt
 1114      E7800000 
 1115              	.LVL121:
 1116              		.loc 1 60 34 is_stmt 1
 1117              		.loc 1 60 42 is_stmt 0
 1118 0390 13060000 		li	a2,0
 1119 0394 9305A000 		li	a1,10
 1120 0398 1B050900 		sext.w	a0,s2
 1121 039c 97000000 		call	_Z8printIntiii@plt
 1121      E7800000 
 1122              	.LVL122:
 1123              		.loc 1 60 52 is_stmt 1
 1124              		.loc 1 60 63 is_stmt 0
 1125 03a4 17050000 		lla	a0,.LC1
GAS LISTING /tmp/cclf04fV.s 			page 27


 1125      13050500 
 1126 03ac 97000000 		call	_Z11printStringPKc@plt
 1126      E7800000 
 1127              	.LVL123:
 1128 03b4 6F000004 		j	.L59
 1129              	.L62:
  61:test/../test/Threads_C_API_test.hpp **** 
  62:test/../test/Threads_C_API_test.hpp ****     for (; i < 6; i++) {
  63:test/../test/Threads_C_API_test.hpp ****         printString("C: i="); printInt(i); printString("\n");
 1130              		.loc 1 63 9 is_stmt 1 discriminator 1
 1131              		.loc 1 63 20 is_stmt 0 discriminator 1
 1132 03b8 17050000 		lla	a0,.LC7
 1132      13050500 
 1133 03c0 97000000 		call	_Z11printStringPKc@plt
 1133      E7800000 
 1134              	.LVL124:
 1135              		.loc 1 63 31 is_stmt 1 discriminator 1
 1136              		.loc 1 63 39 is_stmt 0 discriminator 1
 1137 03c8 13060000 		li	a2,0
 1138 03cc 9305A000 		li	a1,10
 1139 03d0 13850400 		mv	a0,s1
 1140 03d4 97000000 		call	_Z8printIntiii@plt
 1140      E7800000 
 1141              	.LVL125:
 1142              		.loc 1 63 44 is_stmt 1 discriminator 1
 1143              		.loc 1 63 55 is_stmt 0 discriminator 1
 1144 03dc 17050000 		lla	a0,.LC1
 1144      13050500 
 1145 03e4 97000000 		call	_Z11printStringPKc@plt
 1145      E7800000 
 1146              	.LVL126:
  62:test/../test/Threads_C_API_test.hpp ****         printString("C: i="); printInt(i); printString("\n");
 1147              		.loc 1 62 5 is_stmt 1 discriminator 1
 1148 03ec 9B841400 		addiw	s1,s1,1
 1149              	.LVL127:
 1150 03f0 93F4F40F 		andi	s1,s1,0xff
 1151              	.LVL128:
 1152              	.L59:
  62:test/../test/Threads_C_API_test.hpp ****         printString("C: i="); printInt(i); printString("\n");
 1153              		.loc 1 62 5 discriminator 2
  62:test/../test/Threads_C_API_test.hpp ****         printString("C: i="); printInt(i); printString("\n");
 1154              		.loc 1 62 14 discriminator 2
 1155 03f4 93075000 		li	a5,5
 1156 03f8 E3F097FC 		bleu	s1,a5,.L62
  64:test/../test/Threads_C_API_test.hpp ****     }
  65:test/../test/Threads_C_API_test.hpp **** 
  66:test/../test/Threads_C_API_test.hpp ****     printString("C finished!\n");
 1157              		.loc 1 66 5
 1158              		.loc 1 66 16 is_stmt 0
 1159 03fc 17050000 		lla	a0,.LC11
 1159      13050500 
 1160 0404 97000000 		call	_Z11printStringPKc@plt
 1160      E7800000 
 1161              	.LVL129:
  67:test/../test/Threads_C_API_test.hpp ****     finishedC = true;
 1162              		.loc 1 67 5 is_stmt 1
 1163              		.loc 1 67 15 is_stmt 0
GAS LISTING /tmp/cclf04fV.s 			page 28


 1164 040c 93071000 		li	a5,1
 1165 0410 17070000 		sb	a5,.LANCHOR0+16,a4
 1165      2300F700 
  68:test/../test/Threads_C_API_test.hpp ****     thread_dispatch();
 1166              		.loc 1 68 5 is_stmt 1
 1167              		.loc 1 68 20 is_stmt 0
 1168 0418 97000000 		call	_Z15thread_dispatchv@plt
 1168      E7800000 
 1169              	.LVL130:
  69:test/../test/Threads_C_API_test.hpp **** }
 1170              		.loc 1 69 1
 1171 0420 83308101 		ld	ra,24(sp)
 1172              		.cfi_restore 1
 1173 0424 03340101 		ld	s0,16(sp)
 1174              		.cfi_restore 8
 1175              		.cfi_def_cfa 2, 32
 1176 0428 83348100 		ld	s1,8(sp)
 1177              		.cfi_restore 9
 1178              	.LVL131:
 1179 042c 03390100 		ld	s2,0(sp)
 1180              		.cfi_restore 18
 1181              	.LVL132:
 1182 0430 13010102 		addi	sp,sp,32
 1183              		.cfi_def_cfa_offset 0
 1184 0434 67800000 		jr	ra
 1185              		.cfi_endproc
 1186              	.LFE3:
 1188              		.section	.rodata.str1.8
 1189 0085 000000   		.align	3
 1190              	.LC12:
 1191 0088 443A2069 		.string	"D: i="
 1191      3D00
 1192 008e 0000     		.align	3
 1193              	.LC13:
 1194 0090 443A2064 		.string	"D: dispatch\n"
 1194      69737061 
 1194      7463680A 
 1194      00
 1195 009d 000000   		.align	3
 1196              	.LC14:
 1197 00a0 443A2066 		.string	"D: fibonaci="
 1197      69626F6E 
 1197      6163693D 
 1197      00
 1198 00ad 000000   		.align	3
 1199              	.LC15:
 1200 00b0 44206669 		.string	"D finished!\n"
 1200      6E697368 
 1200      6564210A 
 1200      00
 1201              		.text
 1202              		.align	2
 1203              		.globl	_Z11workerBodyDPv
 1205              	_Z11workerBodyDPv:
 1206              	.LFB4:
  70:test/../test/Threads_C_API_test.hpp **** 
  71:test/../test/Threads_C_API_test.hpp **** void workerBodyD(void* arg) {
GAS LISTING /tmp/cclf04fV.s 			page 29


 1207              		.loc 1 71 29 is_stmt 1
 1208              		.cfi_startproc
 1209              	.LVL133:
 1210 0438 130101FE 		addi	sp,sp,-32
 1211              		.cfi_def_cfa_offset 32
 1212 043c 233C1100 		sd	ra,24(sp)
 1213 0440 23388100 		sd	s0,16(sp)
 1214 0444 23349100 		sd	s1,8(sp)
 1215 0448 23302101 		sd	s2,0(sp)
 1216              		.cfi_offset 1, -8
 1217              		.cfi_offset 8, -16
 1218              		.cfi_offset 9, -24
 1219              		.cfi_offset 18, -32
 1220 044c 13040102 		addi	s0,sp,32
 1221              		.cfi_def_cfa 8, 0
  72:test/../test/Threads_C_API_test.hpp ****     uint8 i = 10;
 1222              		.loc 1 72 5
 1223              	.LVL134:
 1224              		.loc 1 72 11 is_stmt 0
 1225 0450 9304A000 		li	s1,10
 1226 0454 6F000004 		j	.L65
 1227              	.LVL135:
 1228              	.L69:
  73:test/../test/Threads_C_API_test.hpp ****     for (; i < 13; i++) {
  74:test/../test/Threads_C_API_test.hpp ****         printString("D: i="); printInt(i); printString("\n");
 1229              		.loc 1 74 9 is_stmt 1 discriminator 1
 1230              		.loc 1 74 20 is_stmt 0 discriminator 1
 1231 0458 17050000 		lla	a0,.LC12
 1231      13050500 
 1232 0460 97000000 		call	_Z11printStringPKc@plt
 1232      E7800000 
 1233              	.LVL136:
 1234              		.loc 1 74 31 is_stmt 1 discriminator 1
 1235              		.loc 1 74 39 is_stmt 0 discriminator 1
 1236 0468 13060000 		li	a2,0
 1237 046c 9305A000 		li	a1,10
 1238 0470 13850400 		mv	a0,s1
 1239 0474 97000000 		call	_Z8printIntiii@plt
 1239      E7800000 
 1240              	.LVL137:
 1241              		.loc 1 74 44 is_stmt 1 discriminator 1
 1242              		.loc 1 74 55 is_stmt 0 discriminator 1
 1243 047c 17050000 		lla	a0,.LC1
 1243      13050500 
 1244 0484 97000000 		call	_Z11printStringPKc@plt
 1244      E7800000 
 1245              	.LVL138:
  73:test/../test/Threads_C_API_test.hpp ****     for (; i < 13; i++) {
 1246              		.loc 1 73 5 is_stmt 1 discriminator 1
 1247 048c 9B841400 		addiw	s1,s1,1
 1248              	.LVL139:
 1249 0490 93F4F40F 		andi	s1,s1,0xff
 1250              	.LVL140:
 1251              	.L65:
  73:test/../test/Threads_C_API_test.hpp ****     for (; i < 13; i++) {
 1252              		.loc 1 73 5 discriminator 2
  73:test/../test/Threads_C_API_test.hpp ****     for (; i < 13; i++) {
GAS LISTING /tmp/cclf04fV.s 			page 30


 1253              		.loc 1 73 14 discriminator 2
 1254 0494 9307C000 		li	a5,12
 1255 0498 E3F097FC 		bleu	s1,a5,.L69
  75:test/../test/Threads_C_API_test.hpp ****     }
  76:test/../test/Threads_C_API_test.hpp **** 
  77:test/../test/Threads_C_API_test.hpp ****     printString("D: dispatch\n");
 1256              		.loc 1 77 5
 1257              		.loc 1 77 16 is_stmt 0
 1258 049c 17050000 		lla	a0,.LC13
 1258      13050500 
 1259 04a4 97000000 		call	_Z11printStringPKc@plt
 1259      E7800000 
 1260              	.LVL141:
  78:test/../test/Threads_C_API_test.hpp ****     __asm__ ("li t1, 5");
 1261              		.loc 1 78 5 is_stmt 1
 1262              		.loc 1 78 25 is_stmt 0
 1263              	#APP
 1264              	# 78 "test/../test/Threads_C_API_test.hpp" 1
  79              	    thread_dispatch();
 1265              		li t1, 5
 1266              	# 0 "" 2
 1267              		.loc 1 79 5 is_stmt 1
 1268              		.loc 1 79 20 is_stmt 0
 1269              	#NO_APP
 1270 04b0 97000000 		call	_Z15thread_dispatchv@plt
 1270      E7800000 
 1271              	.LVL142:
  80:test/../test/Threads_C_API_test.hpp **** 
  81:test/../test/Threads_C_API_test.hpp ****     uint64 result = fibonacci(16);
 1272              		.loc 1 81 5 is_stmt 1
 1273              		.loc 1 81 30 is_stmt 0
 1274 04b8 13050001 		li	a0,16
 1275 04bc 97000000 		call	_Z9fibonaccim
 1275      E7800000 
 1276              	.LVL143:
 1277 04c4 13090500 		mv	s2,a0
 1278              	.LVL144:
  82:test/../test/Threads_C_API_test.hpp ****     printString("D: fibonaci="); printInt(result); printString("\n");
 1279              		.loc 1 82 5 is_stmt 1
 1280              		.loc 1 82 16 is_stmt 0
 1281 04c8 17050000 		lla	a0,.LC14
 1281      13050500 
 1282              	.LVL145:
 1283 04d0 97000000 		call	_Z11printStringPKc@plt
 1283      E7800000 
 1284              	.LVL146:
 1285              		.loc 1 82 34 is_stmt 1
 1286              		.loc 1 82 42 is_stmt 0
 1287 04d8 13060000 		li	a2,0
 1288 04dc 9305A000 		li	a1,10
 1289 04e0 1B050900 		sext.w	a0,s2
 1290 04e4 97000000 		call	_Z8printIntiii@plt
 1290      E7800000 
 1291              	.LVL147:
 1292              		.loc 1 82 52 is_stmt 1
 1293              		.loc 1 82 63 is_stmt 0
 1294 04ec 17050000 		lla	a0,.LC1
GAS LISTING /tmp/cclf04fV.s 			page 31


 1294      13050500 
 1295 04f4 97000000 		call	_Z11printStringPKc@plt
 1295      E7800000 
 1296              	.LVL148:
 1297 04fc 6F000004 		j	.L67
 1298              	.L70:
  83:test/../test/Threads_C_API_test.hpp **** 
  84:test/../test/Threads_C_API_test.hpp ****     for (; i < 16; i++) {
  85:test/../test/Threads_C_API_test.hpp ****         printString("D: i="); printInt(i); printString("\n");
 1299              		.loc 1 85 9 is_stmt 1 discriminator 1
 1300              		.loc 1 85 20 is_stmt 0 discriminator 1
 1301 0500 17050000 		lla	a0,.LC12
 1301      13050500 
 1302 0508 97000000 		call	_Z11printStringPKc@plt
 1302      E7800000 
 1303              	.LVL149:
 1304              		.loc 1 85 31 is_stmt 1 discriminator 1
 1305              		.loc 1 85 39 is_stmt 0 discriminator 1
 1306 0510 13060000 		li	a2,0
 1307 0514 9305A000 		li	a1,10
 1308 0518 13850400 		mv	a0,s1
 1309 051c 97000000 		call	_Z8printIntiii@plt
 1309      E7800000 
 1310              	.LVL150:
 1311              		.loc 1 85 44 is_stmt 1 discriminator 1
 1312              		.loc 1 85 55 is_stmt 0 discriminator 1
 1313 0524 17050000 		lla	a0,.LC1
 1313      13050500 
 1314 052c 97000000 		call	_Z11printStringPKc@plt
 1314      E7800000 
 1315              	.LVL151:
  84:test/../test/Threads_C_API_test.hpp ****         printString("D: i="); printInt(i); printString("\n");
 1316              		.loc 1 84 5 is_stmt 1 discriminator 1
 1317 0534 9B841400 		addiw	s1,s1,1
 1318              	.LVL152:
 1319 0538 93F4F40F 		andi	s1,s1,0xff
 1320              	.LVL153:
 1321              	.L67:
  84:test/../test/Threads_C_API_test.hpp ****         printString("D: i="); printInt(i); printString("\n");
 1322              		.loc 1 84 5 discriminator 2
  84:test/../test/Threads_C_API_test.hpp ****         printString("D: i="); printInt(i); printString("\n");
 1323              		.loc 1 84 14 discriminator 2
 1324 053c 9307F000 		li	a5,15
 1325 0540 E3F097FC 		bleu	s1,a5,.L70
  86:test/../test/Threads_C_API_test.hpp ****     }
  87:test/../test/Threads_C_API_test.hpp **** 
  88:test/../test/Threads_C_API_test.hpp ****     printString("D finished!\n");
 1326              		.loc 1 88 5
 1327              		.loc 1 88 16 is_stmt 0
 1328 0544 17050000 		lla	a0,.LC15
 1328      13050500 
 1329 054c 97000000 		call	_Z11printStringPKc@plt
 1329      E7800000 
 1330              	.LVL154:
  89:test/../test/Threads_C_API_test.hpp ****     finishedD = true;
 1331              		.loc 1 89 5 is_stmt 1
 1332              		.loc 1 89 15 is_stmt 0
GAS LISTING /tmp/cclf04fV.s 			page 32


 1333 0554 93071000 		li	a5,1
 1334 0558 17070000 		sb	a5,.LANCHOR0+17,a4
 1334      2300F700 
  90:test/../test/Threads_C_API_test.hpp ****     thread_dispatch();
 1335              		.loc 1 90 5 is_stmt 1
 1336              		.loc 1 90 20 is_stmt 0
 1337 0560 97000000 		call	_Z15thread_dispatchv@plt
 1337      E7800000 
 1338              	.LVL155:
  91:test/../test/Threads_C_API_test.hpp **** }
 1339              		.loc 1 91 1
 1340 0568 83308101 		ld	ra,24(sp)
 1341              		.cfi_restore 1
 1342 056c 03340101 		ld	s0,16(sp)
 1343              		.cfi_restore 8
 1344              		.cfi_def_cfa 2, 32
 1345 0570 83348100 		ld	s1,8(sp)
 1346              		.cfi_restore 9
 1347              	.LVL156:
 1348 0574 03390100 		ld	s2,0(sp)
 1349              		.cfi_restore 18
 1350              	.LVL157:
 1351 0578 13010102 		addi	sp,sp,32
 1352              		.cfi_def_cfa_offset 0
 1353 057c 67800000 		jr	ra
 1354              		.cfi_endproc
 1355              	.LFE4:
 1357              		.section	.rodata.str1.8
 1358 00bd 000000   		.align	3
 1359              	.LC16:
 1360 00c0 54687265 		.string	"ThreadA created\n"
 1360      61644120 
 1360      63726561 
 1360      7465640A 
 1360      00
 1361 00d1 00000000 		.align	3
 1361      000000
 1362              	.LC17:
 1363 00d8 54687265 		.string	"ThreadB created\n"
 1363      61644220 
 1363      63726561 
 1363      7465640A 
 1363      00
 1364 00e9 00000000 		.align	3
 1364      000000
 1365              	.LC18:
 1366 00f0 54687265 		.string	"ThreadC created\n"
 1366      61644320 
 1366      63726561 
 1366      7465640A 
 1366      00
 1367 0101 00000000 		.align	3
 1367      000000
 1368              	.LC19:
 1369 0108 54687265 		.string	"ThreadD created\n"
 1369      61644420 
 1369      63726561 
GAS LISTING /tmp/cclf04fV.s 			page 33


 1369      7465640A 
 1369      00
 1370              		.text
 1371              		.align	2
 1372              		.globl	_Z18Threads_C_API_testv
 1374              	_Z18Threads_C_API_testv:
 1375              	.LFB5:
  92:test/../test/Threads_C_API_test.hpp **** 
  93:test/../test/Threads_C_API_test.hpp **** 
  94:test/../test/Threads_C_API_test.hpp **** void Threads_C_API_test() {
 1376              		.loc 1 94 27 is_stmt 1
 1377              		.cfi_startproc
 1378 0580 130101FD 		addi	sp,sp,-48
 1379              		.cfi_def_cfa_offset 48
 1380 0584 23341102 		sd	ra,40(sp)
 1381 0588 23308102 		sd	s0,32(sp)
 1382              		.cfi_offset 1, -8
 1383              		.cfi_offset 8, -16
 1384 058c 13040103 		addi	s0,sp,48
 1385              		.cfi_def_cfa 8, 0
  95:test/../test/Threads_C_API_test.hpp ****     thread_t threads[4];
 1386              		.loc 1 95 5
  96:test/../test/Threads_C_API_test.hpp ****     thread_create(&threads[0], workerBodyA, nullptr);
 1387              		.loc 1 96 5
 1388              		.loc 1 96 18 is_stmt 0
 1389 0590 13060000 		li	a2,0
 1390 0594 97050000 		lla	a1,_Z11workerBodyAPv
 1390      93850500 
 1391 059c 130504FD 		addi	a0,s0,-48
 1392 05a0 97000000 		call	_Z13thread_createPP3TCBPFvPvES2_@plt
 1392      E7800000 
 1393              	.LVL158:
  97:test/../test/Threads_C_API_test.hpp ****     printString("ThreadA created\n");
 1394              		.loc 1 97 5 is_stmt 1
 1395              		.loc 1 97 16 is_stmt 0
 1396 05a8 17050000 		lla	a0,.LC16
 1396      13050500 
 1397 05b0 97000000 		call	_Z11printStringPKc@plt
 1397      E7800000 
 1398              	.LVL159:
  98:test/../test/Threads_C_API_test.hpp **** 
  99:test/../test/Threads_C_API_test.hpp ****     thread_create(&threads[1], workerBodyB, nullptr);
 1399              		.loc 1 99 5 is_stmt 1
 1400              		.loc 1 99 18 is_stmt 0
 1401 05b8 13060000 		li	a2,0
 1402 05bc 97050000 		lla	a1,_Z11workerBodyBPv
 1402      93850500 
 1403 05c4 130584FD 		addi	a0,s0,-40
 1404 05c8 97000000 		call	_Z13thread_createPP3TCBPFvPvES2_@plt
 1404      E7800000 
 1405              	.LVL160:
 100:test/../test/Threads_C_API_test.hpp ****     printString("ThreadB created\n");
 1406              		.loc 1 100 5 is_stmt 1
 1407              		.loc 1 100 16 is_stmt 0
 1408 05d0 17050000 		lla	a0,.LC17
 1408      13050500 
 1409 05d8 97000000 		call	_Z11printStringPKc@plt
GAS LISTING /tmp/cclf04fV.s 			page 34


 1409      E7800000 
 1410              	.LVL161:
 101:test/../test/Threads_C_API_test.hpp **** 
 102:test/../test/Threads_C_API_test.hpp ****     thread_create(&threads[2], workerBodyC, nullptr);
 1411              		.loc 1 102 5 is_stmt 1
 1412              		.loc 1 102 18 is_stmt 0
 1413 05e0 13060000 		li	a2,0
 1414 05e4 97050000 		lla	a1,_Z11workerBodyCPv
 1414      93850500 
 1415 05ec 130504FE 		addi	a0,s0,-32
 1416 05f0 97000000 		call	_Z13thread_createPP3TCBPFvPvES2_@plt
 1416      E7800000 
 1417              	.LVL162:
 103:test/../test/Threads_C_API_test.hpp ****     printString("ThreadC created\n");
 1418              		.loc 1 103 5 is_stmt 1
 1419              		.loc 1 103 16 is_stmt 0
 1420 05f8 17050000 		lla	a0,.LC18
 1420      13050500 
 1421 0600 97000000 		call	_Z11printStringPKc@plt
 1421      E7800000 
 1422              	.LVL163:
 104:test/../test/Threads_C_API_test.hpp **** 
 105:test/../test/Threads_C_API_test.hpp ****     thread_create(&threads[3], workerBodyD, nullptr);
 1423              		.loc 1 105 5 is_stmt 1
 1424              		.loc 1 105 18 is_stmt 0
 1425 0608 13060000 		li	a2,0
 1426 060c 97050000 		lla	a1,_Z11workerBodyDPv
 1426      93850500 
 1427 0614 130584FE 		addi	a0,s0,-24
 1428 0618 97000000 		call	_Z13thread_createPP3TCBPFvPvES2_@plt
 1428      E7800000 
 1429              	.LVL164:
 106:test/../test/Threads_C_API_test.hpp ****     printString("ThreadD created\n");
 1430              		.loc 1 106 5 is_stmt 1
 1431              		.loc 1 106 16 is_stmt 0
 1432 0620 17050000 		lla	a0,.LC19
 1432      13050500 
 1433 0628 97000000 		call	_Z11printStringPKc@plt
 1433      E7800000 
 1434              	.LVL165:
 1435 0630 6F00C000 		j	.L74
 1436              	.L72:
 107:test/../test/Threads_C_API_test.hpp **** 
 108:test/../test/Threads_C_API_test.hpp ****     while (!(finishedA && finishedB && finishedC && finishedD)) {
 109:test/../test/Threads_C_API_test.hpp ****         thread_dispatch();
 1437              		.loc 1 109 9 is_stmt 1
 1438              		.loc 1 109 24 is_stmt 0
 1439 0634 97000000 		call	_Z15thread_dispatchv@plt
 1439      E7800000 
 1440              	.LVL166:
 1441              	.L74:
 108:test/../test/Threads_C_API_test.hpp ****         thread_dispatch();
 1442              		.loc 1 108 5 is_stmt 1
 108:test/../test/Threads_C_API_test.hpp ****         thread_dispatch();
 1443              		.loc 1 108 12
 1444 063c 97070000 		lbu	a5,.LANCHOR0
 1444      83C70700 
GAS LISTING /tmp/cclf04fV.s 			page 35


 1445 0644 E38807FE 		beqz	a5,.L72
 108:test/../test/Threads_C_API_test.hpp ****         thread_dispatch();
 1446              		.loc 1 108 24 is_stmt 0 discriminator 1
 1447 0648 97070000 		lbu	a5,.LANCHOR0+1
 1447      83C70700 
 1448 0650 E38207FE 		beqz	a5,.L72
 108:test/../test/Threads_C_API_test.hpp ****         thread_dispatch();
 1449              		.loc 1 108 37 discriminator 2
 1450 0654 97070000 		lbu	a5,.LANCHOR0+16
 1450      83C70700 
 1451 065c E38C07FC 		beqz	a5,.L72
 108:test/../test/Threads_C_API_test.hpp ****         thread_dispatch();
 1452              		.loc 1 108 12 discriminator 3
 1453 0660 97070000 		lbu	a5,.LANCHOR0+17
 1453      83C70700 
 1454 0668 E38607FC 		beqz	a5,.L72
 110:test/../test/Threads_C_API_test.hpp ****     }
 111:test/../test/Threads_C_API_test.hpp **** 
 112:test/../test/Threads_C_API_test.hpp **** }
 1455              		.loc 1 112 1
 1456 066c 83308102 		ld	ra,40(sp)
 1457              		.cfi_restore 1
 1458 0670 03340102 		ld	s0,32(sp)
 1459              		.cfi_restore 8
 1460              		.cfi_def_cfa 2, 48
 1461 0674 13010103 		addi	sp,sp,48
 1462              		.cfi_def_cfa_offset 0
 1463 0678 67800000 		jr	ra
 1464              		.cfi_endproc
 1465              	.LFE5:
 1467              		.align	2
 1468              		.globl	_Z12testSleepingv
 1470              	_Z12testSleepingv:
 1471              	.LFB7:
  27:test/../test/ThreadSleep_C_API_test.hpp **** 
  28:test/../test/ThreadSleep_C_API_test.hpp **** void testSleeping() {
 1472              		.loc 2 28 21 is_stmt 1
 1473              		.cfi_startproc
 1474 067c 130101FC 		addi	sp,sp,-64
 1475              		.cfi_def_cfa_offset 64
 1476 0680 233C1102 		sd	ra,56(sp)
 1477 0684 23388102 		sd	s0,48(sp)
 1478 0688 23349102 		sd	s1,40(sp)
 1479              		.cfi_offset 1, -8
 1480              		.cfi_offset 8, -16
 1481              		.cfi_offset 9, -24
 1482 068c 13040104 		addi	s0,sp,64
 1483              		.cfi_def_cfa 8, 0
  29:test/../test/ThreadSleep_C_API_test.hpp ****     const int sleepy_thread_count = 2;
 1484              		.loc 2 29 5
 1485              	.LVL167:
  30:test/../test/ThreadSleep_C_API_test.hpp ****     time_t sleep_times[sleepy_thread_count] = {10, 20};
 1486              		.loc 2 30 5
 1487              		.loc 2 30 12 is_stmt 0
 1488 0690 9307A000 		li	a5,10
 1489 0694 2338F4FC 		sd	a5,-48(s0)
 1490 0698 93074001 		li	a5,20
GAS LISTING /tmp/cclf04fV.s 			page 36


 1491 069c 233CF4FC 		sd	a5,-40(s0)
  31:test/../test/ThreadSleep_C_API_test.hpp ****     thread_t sleepyThread[sleepy_thread_count];
 1492              		.loc 2 31 5 is_stmt 1
  32:test/../test/ThreadSleep_C_API_test.hpp **** 
  33:test/../test/ThreadSleep_C_API_test.hpp ****     for (int i = 0; i < sleepy_thread_count; i++) {
 1493              		.loc 2 33 5
 1494              	.LVL168:
 1495              	.LBB51:
 1496              		.loc 2 33 14 is_stmt 0
 1497 06a0 93040000 		li	s1,0
 1498 06a4 6F00C002 		j	.L78
 1499              	.LVL169:
 1500              	.L81:
  34:test/../test/ThreadSleep_C_API_test.hpp ****         thread_create(&sleepyThread[i], sleepyRun, sleep_times + i);
 1501              		.loc 2 34 9 is_stmt 1
 1502              		.loc 2 34 64 is_stmt 0
 1503 06a8 93973400 		slli	a5,s1,3
 1504              		.loc 2 34 22
 1505 06ac 130604FD 		addi	a2,s0,-48
 1506 06b0 3306F600 		add	a2,a2,a5
 1507 06b4 97050000 		lla	a1,_Z9sleepyRunPv
 1507      93850500 
 1508 06bc 130504FC 		addi	a0,s0,-64
 1509 06c0 3305F500 		add	a0,a0,a5
 1510 06c4 97000000 		call	_Z13thread_createPP3TCBPFvPvES2_@plt
 1510      E7800000 
 1511              	.LVL170:
  33:test/../test/ThreadSleep_C_API_test.hpp ****         thread_create(&sleepyThread[i], sleepyRun, sleep_times + i);
 1512              		.loc 2 33 5 is_stmt 1
 1513 06cc 9B841400 		addiw	s1,s1,1
 1514              	.LVL171:
 1515              	.L78:
  33:test/../test/ThreadSleep_C_API_test.hpp ****         thread_create(&sleepyThread[i], sleepyRun, sleep_times + i);
 1516              		.loc 2 33 23 discriminator 1
 1517 06d0 93071000 		li	a5,1
 1518 06d4 E3DA97FC 		ble	s1,a5,.L81
 1519              	.L79:
 1520              	.LBE51:
  35:test/../test/ThreadSleep_C_API_test.hpp ****     }
  36:test/../test/ThreadSleep_C_API_test.hpp **** 
  37:test/../test/ThreadSleep_C_API_test.hpp ****     while (!(finished[0] && finished[1])) {}
 1521              		.loc 2 37 5
 1522              		.loc 2 37 12
 1523              		.loc 2 37 24 is_stmt 0
 1524 06d8 97070000 		lbu	a5,.LANCHOR0+8
 1524      83C70700 
 1525              		.loc 2 37 12
 1526 06e0 E38C07FE 		beqz	a5,.L79
 1527              		.loc 2 37 39 discriminator 1
 1528 06e4 97070000 		lbu	a5,.LANCHOR0+9
 1528      83C70700 
 1529              		.loc 2 37 12 discriminator 1
 1530 06ec E38607FE 		beqz	a5,.L79
  38:test/../test/ThreadSleep_C_API_test.hpp **** }
 1531              		.loc 2 38 1
 1532 06f0 83308103 		ld	ra,56(sp)
 1533              		.cfi_restore 1
GAS LISTING /tmp/cclf04fV.s 			page 37


 1534 06f4 03340103 		ld	s0,48(sp)
 1535              		.cfi_restore 8
 1536              		.cfi_def_cfa 2, 64
 1537 06f8 83348102 		ld	s1,40(sp)
 1538              		.cfi_restore 9
 1539              	.LVL172:
 1540 06fc 13010104 		addi	sp,sp,64
 1541              		.cfi_def_cfa_offset 0
 1542 0700 67800000 		jr	ra
 1543              		.cfi_endproc
 1544              	.LFE7:
 1546              		.section	.rodata.str1.8
 1547 0119 00000000 		.align	3
 1547      000000
 1548              	.LC20:
 1549 0120 556E6573 		.string	"Unesite broj proizvodjaca?\n"
 1549      69746520 
 1549      62726F6A 
 1549      2070726F 
 1549      697A766F 
 1550 013c 00000000 		.align	3
 1551              	.LC21:
 1552 0140 556E6573 		.string	"Unesite velicinu bafera?\n"
 1552      69746520 
 1552      76656C69 
 1552      63696E75 
 1552      20626166 
 1553 015a 00000000 		.align	3
 1553      0000
 1554              	.LC22:
 1555 0160 42726F6A 		.string	"Broj proizvodjaca "
 1555      2070726F 
 1555      697A766F 
 1555      646A6163 
 1555      612000
 1556 0173 00000000 		.align	3
 1556      00
 1557              	.LC23:
 1558 0178 20692076 		.string	" i velicina bafera "
 1558      656C6963 
 1558      696E6120 
 1558      62616665 
 1558      72612000 
 1559 018c 00000000 		.align	3
 1560              	.LC24:
 1561 0190 2E0A00   		.string	".\n"
 1562 0193 00000000 		.align	3
 1562      00
 1563              	.LC25:
 1564 0198 42726F6A 		.string	"Broj proizvodjaca ne sme biti manji od velicine bafera!\n"
 1564      2070726F 
 1564      697A766F 
 1564      646A6163 
 1564      61206E65 
 1565 01d1 00000000 		.align	3
 1565      000000
 1566              	.LC26:
GAS LISTING /tmp/cclf04fV.s 			page 38


 1567 01d8 42726F6A 		.string	"Broj proizvodjaca mora biti veci od nula!\n"
 1567      2070726F 
 1567      697A766F 
 1567      646A6163 
 1567      61206D6F 
 1568              		.text
 1569              		.align	2
 1570              		.globl	_ZN19ConsumerProducerCPP20testConsumerProducerEv
 1572              	_ZN19ConsumerProducerCPP20testConsumerProducerEv:
 1573              	.LFB22:
  87:test/../test/ConsumerProducer_CPP_API_test.hpp ****     };
  88:test/../test/ConsumerProducer_CPP_API_test.hpp **** 
  89:test/../test/ConsumerProducer_CPP_API_test.hpp ****     void testConsumerProducer() {
 1574              		.loc 3 89 33 is_stmt 1
 1575              		.cfi_startproc
 1576              		.cfi_personality 0x9b,DW.ref.__gxx_personality_v0
 1577              		.cfi_lsda 0x1b,.LLSDA22
 1578 0704 130101F8 		addi	sp,sp,-128
 1579              		.cfi_def_cfa_offset 128
 1580 0708 233C1106 		sd	ra,120(sp)
 1581 070c 23388106 		sd	s0,112(sp)
 1582 0710 23349106 		sd	s1,104(sp)
 1583 0714 23302107 		sd	s2,96(sp)
 1584 0718 233C3105 		sd	s3,88(sp)
 1585 071c 23384105 		sd	s4,80(sp)
 1586 0720 23345105 		sd	s5,72(sp)
 1587 0724 23306105 		sd	s6,64(sp)
 1588 0728 233C7103 		sd	s7,56(sp)
 1589 072c 23388103 		sd	s8,48(sp)
 1590 0730 23349103 		sd	s9,40(sp)
 1591              		.cfi_offset 1, -8
 1592              		.cfi_offset 8, -16
 1593              		.cfi_offset 9, -24
 1594              		.cfi_offset 18, -32
 1595              		.cfi_offset 19, -40
 1596              		.cfi_offset 20, -48
 1597              		.cfi_offset 21, -56
 1598              		.cfi_offset 22, -64
 1599              		.cfi_offset 23, -72
 1600              		.cfi_offset 24, -80
 1601              		.cfi_offset 25, -88
 1602 0734 13040108 		addi	s0,sp,128
 1603              		.cfi_def_cfa 8, 0
  90:test/../test/ConsumerProducer_CPP_API_test.hpp ****         char input[30];
  91:test/../test/ConsumerProducer_CPP_API_test.hpp ****         int n, threadNum;
  92:test/../test/ConsumerProducer_CPP_API_test.hpp **** 
  93:test/../test/ConsumerProducer_CPP_API_test.hpp ****         printString("Unesite broj proizvodjaca?\n");
  94:test/../test/ConsumerProducer_CPP_API_test.hpp ****         getString(input, 30);
  95:test/../test/ConsumerProducer_CPP_API_test.hpp ****         threadNum = stringToInt(input);
  96:test/../test/ConsumerProducer_CPP_API_test.hpp **** 
  97:test/../test/ConsumerProducer_CPP_API_test.hpp ****         printString("Unesite velicinu bafera?\n");
  98:test/../test/ConsumerProducer_CPP_API_test.hpp ****         getString(input, 30);
  99:test/../test/ConsumerProducer_CPP_API_test.hpp ****         n = stringToInt(input);
 100:test/../test/ConsumerProducer_CPP_API_test.hpp **** 
 101:test/../test/ConsumerProducer_CPP_API_test.hpp ****         printString("Broj proizvodjaca "); printInt(threadNum);
 102:test/../test/ConsumerProducer_CPP_API_test.hpp ****         printString(" i velicina bafera "); printInt(n);
 103:test/../test/ConsumerProducer_CPP_API_test.hpp ****         printString(".\n");
GAS LISTING /tmp/cclf04fV.s 			page 39


 104:test/../test/ConsumerProducer_CPP_API_test.hpp **** 
 105:test/../test/ConsumerProducer_CPP_API_test.hpp ****         if(threadNum > n) {
 106:test/../test/ConsumerProducer_CPP_API_test.hpp ****             printString("Broj proizvodjaca ne sme biti manji od velicine bafera!\n");
 107:test/../test/ConsumerProducer_CPP_API_test.hpp ****             return;
 108:test/../test/ConsumerProducer_CPP_API_test.hpp ****         } else if (threadNum < 1) {
 109:test/../test/ConsumerProducer_CPP_API_test.hpp ****             printString("Broj proizvodjaca mora biti veci od nula!\n");
 110:test/../test/ConsumerProducer_CPP_API_test.hpp ****             return;
 111:test/../test/ConsumerProducer_CPP_API_test.hpp ****         }
 112:test/../test/ConsumerProducer_CPP_API_test.hpp **** 
 113:test/../test/ConsumerProducer_CPP_API_test.hpp ****         BufferCPP *buffer = new BufferCPP(n);
 114:test/../test/ConsumerProducer_CPP_API_test.hpp **** 
 115:test/../test/ConsumerProducer_CPP_API_test.hpp ****         waitForAll = new Semaphore(0);
 116:test/../test/ConsumerProducer_CPP_API_test.hpp ****         Thread *producers[threadNum];
 117:test/../test/ConsumerProducer_CPP_API_test.hpp ****         thread_data threadData[threadNum + 1];
 118:test/../test/ConsumerProducer_CPP_API_test.hpp **** 
 119:test/../test/ConsumerProducer_CPP_API_test.hpp ****         threadData[threadNum].id = threadNum;
 120:test/../test/ConsumerProducer_CPP_API_test.hpp ****         threadData[threadNum].buffer = buffer;
 121:test/../test/ConsumerProducer_CPP_API_test.hpp ****         threadData[threadNum].sem = waitForAll;
 122:test/../test/ConsumerProducer_CPP_API_test.hpp ****         Thread *consumer = new Consumer(&threadData[threadNum]);
 123:test/../test/ConsumerProducer_CPP_API_test.hpp ****         consumer->start();
 124:test/../test/ConsumerProducer_CPP_API_test.hpp **** 
 125:test/../test/ConsumerProducer_CPP_API_test.hpp ****         threadData[0].id = 0;
 126:test/../test/ConsumerProducer_CPP_API_test.hpp ****         threadData[0].buffer = buffer;
 127:test/../test/ConsumerProducer_CPP_API_test.hpp ****         threadData[0].sem = waitForAll;
 128:test/../test/ConsumerProducer_CPP_API_test.hpp ****         producers[0] = new ProducerKeyborad(&threadData[0]);
 129:test/../test/ConsumerProducer_CPP_API_test.hpp ****         producers[0]->start();
 130:test/../test/ConsumerProducer_CPP_API_test.hpp **** 
 131:test/../test/ConsumerProducer_CPP_API_test.hpp ****         for (int i = 1; i < threadNum; i++) {
 132:test/../test/ConsumerProducer_CPP_API_test.hpp ****             threadData[i].id = i;
 133:test/../test/ConsumerProducer_CPP_API_test.hpp ****             threadData[i].buffer = buffer;
 134:test/../test/ConsumerProducer_CPP_API_test.hpp ****             threadData[i].sem = waitForAll;
 135:test/../test/ConsumerProducer_CPP_API_test.hpp **** 
 136:test/../test/ConsumerProducer_CPP_API_test.hpp ****             producers[i] = new Producer(&threadData[i]);
 137:test/../test/ConsumerProducer_CPP_API_test.hpp ****             producers[i]->start();
 138:test/../test/ConsumerProducer_CPP_API_test.hpp **** 
 139:test/../test/ConsumerProducer_CPP_API_test.hpp ****         }
 140:test/../test/ConsumerProducer_CPP_API_test.hpp **** 
 141:test/../test/ConsumerProducer_CPP_API_test.hpp ****         Thread::dispatch();
 142:test/../test/ConsumerProducer_CPP_API_test.hpp **** 
 143:test/../test/ConsumerProducer_CPP_API_test.hpp ****         for (int i = 0; i <= threadNum; i++) {
 144:test/../test/ConsumerProducer_CPP_API_test.hpp ****             waitForAll->wait();
 145:test/../test/ConsumerProducer_CPP_API_test.hpp ****         }
 146:test/../test/ConsumerProducer_CPP_API_test.hpp **** 
 147:test/../test/ConsumerProducer_CPP_API_test.hpp ****         delete waitForAll;
 148:test/../test/ConsumerProducer_CPP_API_test.hpp ****         for (int i = 0; i < threadNum; i++) {
 149:test/../test/ConsumerProducer_CPP_API_test.hpp ****             delete producers[i];
 150:test/../test/ConsumerProducer_CPP_API_test.hpp ****         }
 151:test/../test/ConsumerProducer_CPP_API_test.hpp ****         delete consumer;
 152:test/../test/ConsumerProducer_CPP_API_test.hpp ****         delete buffer;
 1604              		.loc 3 152 22 is_stmt 0
 1605 0738 130C0100 		mv	s8,sp
  90:test/../test/ConsumerProducer_CPP_API_test.hpp ****         char input[30];
 1606              		.loc 3 90 9 is_stmt 1
  91:test/../test/ConsumerProducer_CPP_API_test.hpp **** 
 1607              		.loc 3 91 9
  93:test/../test/ConsumerProducer_CPP_API_test.hpp ****         getString(input, 30);
 1608              		.loc 3 93 9
GAS LISTING /tmp/cclf04fV.s 			page 40


  93:test/../test/ConsumerProducer_CPP_API_test.hpp ****         getString(input, 30);
 1609              		.loc 3 93 20 is_stmt 0
 1610 073c 17050000 		lla	a0,.LC20
 1610      13050500 
 1611              	.LEHB0:
 1612 0744 97000000 		call	_Z11printStringPKc@plt
 1612      E7800000 
 1613              	.LVL173:
  94:test/../test/ConsumerProducer_CPP_API_test.hpp ****         threadNum = stringToInt(input);
 1614              		.loc 3 94 9 is_stmt 1
  94:test/../test/ConsumerProducer_CPP_API_test.hpp ****         threadNum = stringToInt(input);
 1615              		.loc 3 94 18 is_stmt 0
 1616 074c 9305E001 		li	a1,30
 1617 0750 930404F8 		addi	s1,s0,-128
 1618 0754 13850400 		mv	a0,s1
 1619 0758 97000000 		call	_Z9getStringPci@plt
 1619      E7800000 
 1620              	.LVL174:
  95:test/../test/ConsumerProducer_CPP_API_test.hpp **** 
 1621              		.loc 3 95 9 is_stmt 1
  95:test/../test/ConsumerProducer_CPP_API_test.hpp **** 
 1622              		.loc 3 95 32 is_stmt 0
 1623 0760 13850400 		mv	a0,s1
 1624 0764 97000000 		call	_Z11stringToIntPKc@plt
 1624      E7800000 
 1625              	.LVL175:
 1626 076c 93090500 		mv	s3,a0
 1627              	.LVL176:
  97:test/../test/ConsumerProducer_CPP_API_test.hpp ****         getString(input, 30);
 1628              		.loc 3 97 9 is_stmt 1
  97:test/../test/ConsumerProducer_CPP_API_test.hpp ****         getString(input, 30);
 1629              		.loc 3 97 20 is_stmt 0
 1630 0770 17050000 		lla	a0,.LC21
 1630      13050500 
 1631 0778 97000000 		call	_Z11printStringPKc@plt
 1631      E7800000 
 1632              	.LVL177:
  98:test/../test/ConsumerProducer_CPP_API_test.hpp ****         n = stringToInt(input);
 1633              		.loc 3 98 9 is_stmt 1
  98:test/../test/ConsumerProducer_CPP_API_test.hpp ****         n = stringToInt(input);
 1634              		.loc 3 98 18 is_stmt 0
 1635 0780 9305E001 		li	a1,30
 1636 0784 13850400 		mv	a0,s1
 1637 0788 97000000 		call	_Z9getStringPci@plt
 1637      E7800000 
 1638              	.LVL178:
  99:test/../test/ConsumerProducer_CPP_API_test.hpp **** 
 1639              		.loc 3 99 9 is_stmt 1
  99:test/../test/ConsumerProducer_CPP_API_test.hpp **** 
 1640              		.loc 3 99 24 is_stmt 0
 1641 0790 13850400 		mv	a0,s1
 1642 0794 97000000 		call	_Z11stringToIntPKc@plt
 1642      E7800000 
 1643              	.LVL179:
 1644 079c 93040500 		mv	s1,a0
 1645              	.LVL180:
 101:test/../test/ConsumerProducer_CPP_API_test.hpp ****         printString(" i velicina bafera "); printInt(n);
GAS LISTING /tmp/cclf04fV.s 			page 41


 1646              		.loc 3 101 9 is_stmt 1
 101:test/../test/ConsumerProducer_CPP_API_test.hpp ****         printString(" i velicina bafera "); printInt(n);
 1647              		.loc 3 101 20 is_stmt 0
 1648 07a0 17050000 		lla	a0,.LC22
 1648      13050500 
 1649 07a8 97000000 		call	_Z11printStringPKc@plt
 1649      E7800000 
 1650              	.LVL181:
 101:test/../test/ConsumerProducer_CPP_API_test.hpp ****         printString(" i velicina bafera "); printInt(n);
 1651              		.loc 3 101 44 is_stmt 1
 101:test/../test/ConsumerProducer_CPP_API_test.hpp ****         printString(" i velicina bafera "); printInt(n);
 1652              		.loc 3 101 52 is_stmt 0
 1653 07b0 13060000 		li	a2,0
 1654 07b4 9305A000 		li	a1,10
 1655 07b8 13850900 		mv	a0,s3
 1656 07bc 97000000 		call	_Z8printIntiii@plt
 1656      E7800000 
 1657              	.LVL182:
 102:test/../test/ConsumerProducer_CPP_API_test.hpp ****         printString(".\n");
 1658              		.loc 3 102 9 is_stmt 1
 102:test/../test/ConsumerProducer_CPP_API_test.hpp ****         printString(".\n");
 1659              		.loc 3 102 20 is_stmt 0
 1660 07c4 17050000 		lla	a0,.LC23
 1660      13050500 
 1661 07cc 97000000 		call	_Z11printStringPKc@plt
 1661      E7800000 
 1662              	.LVL183:
 102:test/../test/ConsumerProducer_CPP_API_test.hpp ****         printString(".\n");
 1663              		.loc 3 102 45 is_stmt 1
 102:test/../test/ConsumerProducer_CPP_API_test.hpp ****         printString(".\n");
 1664              		.loc 3 102 53 is_stmt 0
 1665 07d4 13060000 		li	a2,0
 1666 07d8 9305A000 		li	a1,10
 1667 07dc 13850400 		mv	a0,s1
 1668 07e0 97000000 		call	_Z8printIntiii@plt
 1668      E7800000 
 1669              	.LVL184:
 103:test/../test/ConsumerProducer_CPP_API_test.hpp **** 
 1670              		.loc 3 103 9 is_stmt 1
 103:test/../test/ConsumerProducer_CPP_API_test.hpp **** 
 1671              		.loc 3 103 20 is_stmt 0
 1672 07e8 17050000 		lla	a0,.LC24
 1672      13050500 
 1673 07f0 97000000 		call	_Z11printStringPKc@plt
 1673      E7800000 
 1674              	.LVL185:
 105:test/../test/ConsumerProducer_CPP_API_test.hpp ****             printString("Broj proizvodjaca ne sme biti manji od velicine bafera!\n");
 1675              		.loc 3 105 9 is_stmt 1
 1676 07f8 63C43403 		bgt	s3,s1,.L108
 108:test/../test/ConsumerProducer_CPP_API_test.hpp ****             printString("Broj proizvodjaca mora biti veci od nula!\n");
 1677              		.loc 3 108 16
 1678 07fc 635C3003 		blez	s3,.L109
 113:test/../test/ConsumerProducer_CPP_API_test.hpp **** 
 1679              		.loc 3 113 9
 113:test/../test/ConsumerProducer_CPP_API_test.hpp **** 
 1680              		.loc 3 113 44 is_stmt 0
 1681 0800 13058003 		li	a0,56
GAS LISTING /tmp/cclf04fV.s 			page 42


 1682 0804 97000000 		call	_Znwm@plt
 1682      E7800000 
 1683              	.LVL186:
 1684              	.LEHE0:
 1685 080c 930A0500 		mv	s5,a0
 1686 0810 93850400 		mv	a1,s1
 1687              	.LEHB1:
 1688 0814 97000000 		call	_ZN9BufferCPPC1Ei@plt
 1688      E7800000 
 1689              	.LVL187:
 1690              	.LEHE1:
 1691 081c 6F000003 		j	.L110
 1692              	.L108:
 106:test/../test/ConsumerProducer_CPP_API_test.hpp ****             return;
 1693              		.loc 3 106 13 is_stmt 1
 106:test/../test/ConsumerProducer_CPP_API_test.hpp ****             return;
 1694              		.loc 3 106 24 is_stmt 0
 1695 0820 17050000 		lla	a0,.LC25
 1695      13050500 
 1696              	.LEHB2:
 1697 0828 97000000 		call	_Z11printStringPKc@plt
 1697      E7800000 
 1698              	.LVL188:
 107:test/../test/ConsumerProducer_CPP_API_test.hpp ****         } else if (threadNum < 1) {
 1699              		.loc 3 107 13 is_stmt 1
 1700 0830 6F004001 		j	.L84
 1701              	.L109:
 109:test/../test/ConsumerProducer_CPP_API_test.hpp ****             return;
 1702              		.loc 3 109 13
 109:test/../test/ConsumerProducer_CPP_API_test.hpp ****             return;
 1703              		.loc 3 109 24 is_stmt 0
 1704 0834 17050000 		lla	a0,.LC26
 1704      13050500 
 1705 083c 97000000 		call	_Z11printStringPKc@plt
 1705      E7800000 
 1706              	.LVL189:
 110:test/../test/ConsumerProducer_CPP_API_test.hpp ****         }
 1707              		.loc 3 110 13 is_stmt 1
 1708              	.L84:
 1709 0844 13010C00 		mv	sp,s8
 1710 0848 6F00C021 		j	.L82
 1711              	.L110:
 1712              	.LVL190:
 115:test/../test/ConsumerProducer_CPP_API_test.hpp ****         Thread *producers[threadNum];
 1713              		.loc 3 115 9 discriminator 3
 115:test/../test/ConsumerProducer_CPP_API_test.hpp ****         Thread *producers[threadNum];
 1714              		.loc 3 115 37 is_stmt 0 discriminator 3
 1715 084c 13050001 		li	a0,16
 1716 0850 97000000 		call	_Znwm@plt
 1716      E7800000 
 1717              	.LVL191:
 1718              	.LEHE2:
 1719 0858 93040500 		mv	s1,a0
 1720              	.LVL192:
 1721 085c 93050000 		li	a1,0
 1722              	.LEHB3:
 1723 0860 97000000 		call	_ZN9SemaphoreC1Ej@plt
GAS LISTING /tmp/cclf04fV.s 			page 43


 1723      E7800000 
 1724              	.LVL193:
 1725              	.LEHE3:
 115:test/../test/ConsumerProducer_CPP_API_test.hpp ****         Thread *producers[threadNum];
 1726              		.loc 3 115 20 discriminator 3
 1727 0868 17070000 		lla	a4,.LANCHOR0
 1727      13070700 
 1728 0870 233C9700 		sd	s1,24(a4)
 116:test/../test/ConsumerProducer_CPP_API_test.hpp ****         thread_data threadData[threadNum + 1];
 1729              		.loc 3 116 9 is_stmt 1 discriminator 3
 1730              	.LVL194:
 116:test/../test/ConsumerProducer_CPP_API_test.hpp ****         thread_data threadData[threadNum + 1];
 1731              		.loc 3 116 17 is_stmt 0 discriminator 3
 1732 0874 93973900 		slli	a5,s3,3
 1733 0878 9387F700 		addi	a5,a5,15
 1734 087c 93F707FF 		andi	a5,a5,-16
 1735 0880 3301F140 		sub	sp,sp,a5
 1736 0884 130A0100 		mv	s4,sp
 1737              	.LVL195:
 117:test/../test/ConsumerProducer_CPP_API_test.hpp **** 
 1738              		.loc 3 117 9 is_stmt 1 discriminator 3
 117:test/../test/ConsumerProducer_CPP_API_test.hpp **** 
 1739              		.loc 3 117 42 is_stmt 0 discriminator 3
 1740 0888 9B861900 		addiw	a3,s3,1
 1741              	.LVL196:
 117:test/../test/ConsumerProducer_CPP_API_test.hpp **** 
 1742              		.loc 3 117 21 discriminator 3
 1743 088c 93971600 		slli	a5,a3,1
 1744 0890 B387D700 		add	a5,a5,a3
 1745 0894 93973700 		slli	a5,a5,3
 1746 0898 9387F700 		addi	a5,a5,15
 1747 089c 93F707FF 		andi	a5,a5,-16
 1748 08a0 3301F140 		sub	sp,sp,a5
 1749              	.LVL197:
 1750 08a4 130B0100 		mv	s6,sp
 1751              	.LVL198:
 119:test/../test/ConsumerProducer_CPP_API_test.hpp ****         threadData[threadNum].buffer = buffer;
 1752              		.loc 3 119 9 is_stmt 1 discriminator 3
 119:test/../test/ConsumerProducer_CPP_API_test.hpp ****         threadData[threadNum].buffer = buffer;
 1753              		.loc 3 119 34 is_stmt 0 discriminator 3
 1754 08a8 93941900 		slli	s1,s3,1
 1755 08ac B3843401 		add	s1,s1,s3
 1756 08b0 93943400 		slli	s1,s1,3
 1757 08b4 B3049B00 		add	s1,s6,s1
 1758 08b8 23A03401 		sw	s3,0(s1)
 120:test/../test/ConsumerProducer_CPP_API_test.hpp ****         threadData[threadNum].sem = waitForAll;
 1759              		.loc 3 120 9 is_stmt 1 discriminator 3
 120:test/../test/ConsumerProducer_CPP_API_test.hpp ****         threadData[threadNum].sem = waitForAll;
 1760              		.loc 3 120 38 is_stmt 0 discriminator 3
 1761 08bc 23B45401 		sd	s5,8(s1)
 121:test/../test/ConsumerProducer_CPP_API_test.hpp ****         Thread *consumer = new Consumer(&threadData[threadNum]);
 1762              		.loc 3 121 9 is_stmt 1 discriminator 3
 121:test/../test/ConsumerProducer_CPP_API_test.hpp ****         Thread *consumer = new Consumer(&threadData[threadNum]);
 1763              		.loc 3 121 35 is_stmt 0 discriminator 3
 1764 08c0 83378701 		ld	a5,24(a4)
 1765 08c4 23B8F400 		sd	a5,16(s1)
 122:test/../test/ConsumerProducer_CPP_API_test.hpp ****         consumer->start();
GAS LISTING /tmp/cclf04fV.s 			page 44


 1766              		.loc 3 122 9 is_stmt 1 discriminator 3
 122:test/../test/ConsumerProducer_CPP_API_test.hpp ****         consumer->start();
 1767              		.loc 3 122 63 is_stmt 0 discriminator 3
 1768 08c8 13058001 		li	a0,24
 1769              	.LEHB4:
 1770 08cc 97000000 		call	_Znwm@plt
 1770      E7800000 
 1771              	.LVL199:
 1772              	.LEHE4:
 1773 08d4 930B0500 		mv	s7,a0
 1774              	.LVL200:
 1775              	.LEHB5:
 1776              	.LBB52:
 1777              	.LBB53:
  65:test/../test/ConsumerProducer_CPP_API_test.hpp **** 
 1778              		.loc 3 65 54 discriminator 3
 1779 08d8 97000000 		call	_ZN6ThreadC2Ev@plt
 1779      E7800000 
 1780              	.LVL201:
 1781              	.LEHE5:
  65:test/../test/ConsumerProducer_CPP_API_test.hpp **** 
 1782              		.loc 3 65 54
 1783 08e0 97070000 		lla	a5,_ZTVN19ConsumerProducerCPP8ConsumerE+16
 1783      93870700 
 1784 08e8 23B0FB00 		sd	a5,0(s7)
 1785 08ec 23B89B00 		sd	s1,16(s7)
 1786              	.LVL202:
 1787              	.LBE53:
 1788              	.LBE52:
 123:test/../test/ConsumerProducer_CPP_API_test.hpp **** 
 1789              		.loc 3 123 9 is_stmt 1
 123:test/../test/ConsumerProducer_CPP_API_test.hpp **** 
 1790              		.loc 3 123 24 is_stmt 0
 1791 08f0 13850B00 		mv	a0,s7
 1792              	.LEHB6:
 1793 08f4 97000000 		call	_ZN6Thread5startEv@plt
 1793      E7800000 
 1794              	.LVL203:
 125:test/../test/ConsumerProducer_CPP_API_test.hpp ****         threadData[0].buffer = buffer;
 1795              		.loc 3 125 9 is_stmt 1
 125:test/../test/ConsumerProducer_CPP_API_test.hpp ****         threadData[0].buffer = buffer;
 1796              		.loc 3 125 26 is_stmt 0
 1797 08fc 23200B00 		sw	zero,0(s6)
 126:test/../test/ConsumerProducer_CPP_API_test.hpp ****         threadData[0].sem = waitForAll;
 1798              		.loc 3 126 9 is_stmt 1
 126:test/../test/ConsumerProducer_CPP_API_test.hpp ****         threadData[0].sem = waitForAll;
 1799              		.loc 3 126 30 is_stmt 0
 1800 0900 23345B01 		sd	s5,8(s6)
 127:test/../test/ConsumerProducer_CPP_API_test.hpp ****         producers[0] = new ProducerKeyborad(&threadData[0]);
 1801              		.loc 3 127 9 is_stmt 1
 127:test/../test/ConsumerProducer_CPP_API_test.hpp ****         producers[0] = new ProducerKeyborad(&threadData[0]);
 1802              		.loc 3 127 27 is_stmt 0
 1803 0904 97070000 		ld	a5,.LANCHOR0+24
 1803      83B70700 
 1804 090c 2338FB00 		sd	a5,16(s6)
 128:test/../test/ConsumerProducer_CPP_API_test.hpp ****         producers[0]->start();
 1805              		.loc 3 128 9 is_stmt 1
GAS LISTING /tmp/cclf04fV.s 			page 45


 128:test/../test/ConsumerProducer_CPP_API_test.hpp ****         producers[0]->start();
 1806              		.loc 3 128 59 is_stmt 0
 1807 0910 13058001 		li	a0,24
 1808 0914 97000000 		call	_Znwm@plt
 1808      E7800000 
 1809              	.LVL204:
 1810              	.LEHE6:
 1811 091c 93040500 		mv	s1,a0
 1812              	.LVL205:
 1813              	.LEHB7:
 1814              	.LBB54:
 1815              	.LBB55:
  28:test/../test/ConsumerProducer_CPP_API_test.hpp **** 
 1816              		.loc 3 28 62
 1817 0920 97000000 		call	_ZN6ThreadC2Ev@plt
 1817      E7800000 
 1818              	.LVL206:
 1819              	.LEHE7:
 1820 0928 97070000 		lla	a5,_ZTVN19ConsumerProducerCPP16ProducerKeyboradE+16
 1820      93870700 
 1821 0930 23B0F400 		sd	a5,0(s1)
 1822 0934 23B86401 		sd	s6,16(s1)
 1823              	.LVL207:
 1824              	.LBE55:
 1825              	.LBE54:
 128:test/../test/ConsumerProducer_CPP_API_test.hpp ****         producers[0]->start();
 1826              		.loc 3 128 22
 1827 0938 23309A00 		sd	s1,0(s4)
 129:test/../test/ConsumerProducer_CPP_API_test.hpp **** 
 1828              		.loc 3 129 9 is_stmt 1
 129:test/../test/ConsumerProducer_CPP_API_test.hpp **** 
 1829              		.loc 3 129 28 is_stmt 0
 1830 093c 13850400 		mv	a0,s1
 1831              	.LEHB8:
 1832 0940 97000000 		call	_ZN6Thread5startEv@plt
 1832      E7800000 
 1833              	.LVL208:
 1834              	.LBB56:
 131:test/../test/ConsumerProducer_CPP_API_test.hpp ****             threadData[i].id = i;
 1835              		.loc 3 131 18
 1836 0948 13091000 		li	s2,1
 1837 094c 6F000003 		j	.L87
 1838              	.LVL209:
 1839              	.L111:
 1840              	.LBB57:
 1841              	.LBB58:
  48:test/../test/ConsumerProducer_CPP_API_test.hpp **** 
 1842              		.loc 3 48 54
 1843 0950 97070000 		lla	a5,_ZTVN19ConsumerProducerCPP8ProducerE+16
 1843      93870700 
 1844 0958 23B0FC00 		sd	a5,0(s9)
 1845 095c 23B89C00 		sd	s1,16(s9)
 1846              	.LVL210:
 1847              	.LBE58:
 1848              	.LBE57:
 136:test/../test/ConsumerProducer_CPP_API_test.hpp ****             producers[i]->start();
 1849              		.loc 3 136 26
GAS LISTING /tmp/cclf04fV.s 			page 46


 1850 0960 93173900 		slli	a5,s2,3
 1851 0964 B307FA00 		add	a5,s4,a5
 1852 0968 23B09701 		sd	s9,0(a5)
 137:test/../test/ConsumerProducer_CPP_API_test.hpp **** 
 1853              		.loc 3 137 13 is_stmt 1
 137:test/../test/ConsumerProducer_CPP_API_test.hpp **** 
 1854              		.loc 3 137 32 is_stmt 0
 1855 096c 13850C00 		mv	a0,s9
 1856 0970 97000000 		call	_ZN6Thread5startEv@plt
 1856      E7800000 
 1857              	.LVL211:
 131:test/../test/ConsumerProducer_CPP_API_test.hpp ****             threadData[i].id = i;
 1858              		.loc 3 131 9 is_stmt 1
 1859 0978 1B091900 		addiw	s2,s2,1
 1860              	.LVL212:
 1861              	.L87:
 131:test/../test/ConsumerProducer_CPP_API_test.hpp ****             threadData[i].id = i;
 1862              		.loc 3 131 27 discriminator 1
 1863 097c 63523905 		bge	s2,s3,.L86
 132:test/../test/ConsumerProducer_CPP_API_test.hpp ****             threadData[i].buffer = buffer;
 1864              		.loc 3 132 13
 132:test/../test/ConsumerProducer_CPP_API_test.hpp ****             threadData[i].buffer = buffer;
 1865              		.loc 3 132 30 is_stmt 0
 1866 0980 93141900 		slli	s1,s2,1
 1867 0984 B3842401 		add	s1,s1,s2
 1868 0988 93943400 		slli	s1,s1,3
 1869 098c B3049B00 		add	s1,s6,s1
 1870 0990 23A02401 		sw	s2,0(s1)
 133:test/../test/ConsumerProducer_CPP_API_test.hpp ****             threadData[i].sem = waitForAll;
 1871              		.loc 3 133 13 is_stmt 1
 133:test/../test/ConsumerProducer_CPP_API_test.hpp ****             threadData[i].sem = waitForAll;
 1872              		.loc 3 133 34 is_stmt 0
 1873 0994 23B45401 		sd	s5,8(s1)
 134:test/../test/ConsumerProducer_CPP_API_test.hpp **** 
 1874              		.loc 3 134 13 is_stmt 1
 134:test/../test/ConsumerProducer_CPP_API_test.hpp **** 
 1875              		.loc 3 134 31 is_stmt 0
 1876 0998 97070000 		ld	a5,.LANCHOR0+24
 1876      83B70700 
 1877 09a0 23B8F400 		sd	a5,16(s1)
 136:test/../test/ConsumerProducer_CPP_API_test.hpp ****             producers[i]->start();
 1878              		.loc 3 136 13 is_stmt 1
 136:test/../test/ConsumerProducer_CPP_API_test.hpp ****             producers[i]->start();
 1879              		.loc 3 136 55 is_stmt 0
 1880 09a4 13058001 		li	a0,24
 1881 09a8 97000000 		call	_Znwm@plt
 1881      E7800000 
 1882              	.LVL213:
 1883              	.LEHE8:
 1884 09b0 930C0500 		mv	s9,a0
 1885              	.LVL214:
 1886              	.LEHB9:
 1887              	.LBB60:
 1888              	.LBB59:
  48:test/../test/ConsumerProducer_CPP_API_test.hpp **** 
 1889              		.loc 3 48 54
 1890 09b4 97000000 		call	_ZN6ThreadC2Ev@plt
GAS LISTING /tmp/cclf04fV.s 			page 47


 1890      E7800000 
 1891              	.LVL215:
 1892              	.LEHE9:
 1893 09bc 6FF05FF9 		j	.L111
 1894              	.LVL216:
 1895              	.L86:
 1896              	.LBE59:
 1897              	.LBE60:
 1898              	.LBE56:
 141:test/../test/ConsumerProducer_CPP_API_test.hpp **** 
 1899              		.loc 3 141 9 is_stmt 1
 1900              	.LEHB10:
 141:test/../test/ConsumerProducer_CPP_API_test.hpp **** 
 1901              		.loc 3 141 25 is_stmt 0
 1902 09c0 97000000 		call	_ZN6Thread8dispatchEv@plt
 1902      E7800000 
 1903              	.LVL217:
 1904              	.LBB61:
 143:test/../test/ConsumerProducer_CPP_API_test.hpp ****             waitForAll->wait();
 1905              		.loc 3 143 18
 1906 09c8 93040000 		li	s1,0
 1907              	.L89:
 1908              	.LVL218:
 143:test/../test/ConsumerProducer_CPP_API_test.hpp ****             waitForAll->wait();
 1909              		.loc 3 143 27 is_stmt 1 discriminator 1
 1910 09cc 63CE9900 		bgt	s1,s3,.L88
 144:test/../test/ConsumerProducer_CPP_API_test.hpp ****         }
 1911              		.loc 3 144 13
 144:test/../test/ConsumerProducer_CPP_API_test.hpp ****         }
 1912              		.loc 3 144 29 is_stmt 0
 1913 09d0 17050000 		ld	a0,.LANCHOR0+24
 1913      03350500 
 1914 09d8 97000000 		call	_ZN9Semaphore4waitEv@plt
 1914      E7800000 
 1915              	.LVL219:
 143:test/../test/ConsumerProducer_CPP_API_test.hpp ****             waitForAll->wait();
 1916              		.loc 3 143 9 is_stmt 1
 1917 09e0 9B841400 		addiw	s1,s1,1
 1918              	.LVL220:
 1919 09e4 6FF09FFE 		j	.L89
 1920              	.LVL221:
 1921              	.L88:
 1922              	.LBE61:
 147:test/../test/ConsumerProducer_CPP_API_test.hpp ****         for (int i = 0; i < threadNum; i++) {
 1923              		.loc 3 147 9
 147:test/../test/ConsumerProducer_CPP_API_test.hpp ****         for (int i = 0; i < threadNum; i++) {
 1924              		.loc 3 147 16 is_stmt 0
 1925 09e8 17050000 		ld	a0,.LANCHOR0+24
 1925      03350500 
 147:test/../test/ConsumerProducer_CPP_API_test.hpp ****         for (int i = 0; i < threadNum; i++) {
 1926              		.loc 3 147 26
 1927 09f0 63080500 		beqz	a0,.L90
 147:test/../test/ConsumerProducer_CPP_API_test.hpp ****         for (int i = 0; i < threadNum; i++) {
 1928              		.loc 3 147 16 discriminator 1
 1929 09f4 83370500 		ld	a5,0(a0)
 1930 09f8 83B78700 		ld	a5,8(a5)
 1931 09fc E7800700 		jalr	a5
GAS LISTING /tmp/cclf04fV.s 			page 48


 1932              	.LVL222:
 1933              	.L90:
 1934              	.LBB62:
 143:test/../test/ConsumerProducer_CPP_API_test.hpp ****             waitForAll->wait();
 1935              		.loc 3 143 18 discriminator 1
 1936 0a00 93040000 		li	s1,0
 1937              	.LVL223:
 1938 0a04 6F008000 		j	.L93
 1939              	.LVL224:
 1940              	.L92:
 1941              	.LBE62:
 1942              	.LBB63:
 148:test/../test/ConsumerProducer_CPP_API_test.hpp ****             delete producers[i];
 1943              		.loc 3 148 9 is_stmt 1 discriminator 2
 1944 0a08 9B841400 		addiw	s1,s1,1
 1945              	.LVL225:
 1946              	.L93:
 148:test/../test/ConsumerProducer_CPP_API_test.hpp ****             delete producers[i];
 1947              		.loc 3 148 27 discriminator 1
 1948 0a0c 63D23403 		bge	s1,s3,.L91
 149:test/../test/ConsumerProducer_CPP_API_test.hpp ****         }
 1949              		.loc 3 149 13
 149:test/../test/ConsumerProducer_CPP_API_test.hpp ****         }
 1950              		.loc 3 149 31 is_stmt 0
 1951 0a10 93973400 		slli	a5,s1,3
 1952 0a14 B307FA00 		add	a5,s4,a5
 1953 0a18 03B50700 		ld	a0,0(a5)
 149:test/../test/ConsumerProducer_CPP_API_test.hpp ****         }
 1954              		.loc 3 149 32
 1955 0a1c E30605FE 		beqz	a0,.L92
 149:test/../test/ConsumerProducer_CPP_API_test.hpp ****         }
 1956              		.loc 3 149 31 discriminator 1
 1957 0a20 83370500 		ld	a5,0(a0)
 1958 0a24 83B78700 		ld	a5,8(a5)
 1959 0a28 E7800700 		jalr	a5
 1960              	.LVL226:
 1961 0a2c 6FF0DFFD 		j	.L92
 1962              	.L91:
 1963              	.LBE63:
 151:test/../test/ConsumerProducer_CPP_API_test.hpp ****         delete buffer;
 1964              		.loc 3 151 9 is_stmt 1
 151:test/../test/ConsumerProducer_CPP_API_test.hpp ****         delete buffer;
 1965              		.loc 3 151 24 is_stmt 0
 1966 0a30 638A0B00 		beqz	s7,.L94
 151:test/../test/ConsumerProducer_CPP_API_test.hpp ****         delete buffer;
 1967              		.loc 3 151 16 discriminator 1
 1968 0a34 83B70B00 		ld	a5,0(s7)
 1969 0a38 83B78700 		ld	a5,8(a5)
 1970 0a3c 13850B00 		mv	a0,s7
 1971 0a40 E7800700 		jalr	a5
 1972              	.LVL227:
 1973              	.L94:
 1974              		.loc 3 152 9 is_stmt 1
 1975              		.loc 3 152 22 is_stmt 0
 1976 0a44 638E0A00 		beqz	s5,.L95
 1977              		.loc 3 152 16 discriminator 1
 1978 0a48 13850A00 		mv	a0,s5
GAS LISTING /tmp/cclf04fV.s 			page 49


 1979 0a4c 97000000 		call	_ZN9BufferCPPD1Ev@plt
 1979      E7800000 
 1980              	.LVL228:
 1981 0a54 13850A00 		mv	a0,s5
 1982 0a58 97000000 		call	_ZdlPv@plt
 1982      E7800000 
 1983              	.LVL229:
 1984              	.LEHE10:
 1985              	.L95:
 1986 0a60 13010C00 		mv	sp,s8
 1987              	.LVL230:
 1988              	.L82:
 153:test/../test/ConsumerProducer_CPP_API_test.hpp ****     }
 1989              		.loc 3 153 5
 1990 0a64 130104F8 		addi	sp,s0,-128
 1991              		.cfi_remember_state
 1992              		.cfi_def_cfa 2, 128
 1993 0a68 83308107 		ld	ra,120(sp)
 1994              		.cfi_restore 1
 1995 0a6c 03340107 		ld	s0,112(sp)
 1996              		.cfi_restore 8
 1997 0a70 83348106 		ld	s1,104(sp)
 1998              		.cfi_restore 9
 1999 0a74 03390106 		ld	s2,96(sp)
 2000              		.cfi_restore 18
 2001 0a78 83398105 		ld	s3,88(sp)
 2002              		.cfi_restore 19
 2003              	.LVL231:
 2004 0a7c 033A0105 		ld	s4,80(sp)
 2005              		.cfi_restore 20
 2006 0a80 833A8104 		ld	s5,72(sp)
 2007              		.cfi_restore 21
 2008 0a84 033B0104 		ld	s6,64(sp)
 2009              		.cfi_restore 22
 2010 0a88 833B8103 		ld	s7,56(sp)
 2011              		.cfi_restore 23
 2012 0a8c 033C0103 		ld	s8,48(sp)
 2013              		.cfi_restore 24
 2014 0a90 833C8102 		ld	s9,40(sp)
 2015              		.cfi_restore 25
 2016 0a94 13010108 		addi	sp,sp,128
 2017              		.cfi_def_cfa_offset 0
 2018 0a98 67800000 		jr	ra
 2019              	.LVL232:
 2020              	.L102:
 2021              		.cfi_restore_state
 2022 0a9c 93040500 		mv	s1,a0
 2023              	.LVL233:
 113:test/../test/ConsumerProducer_CPP_API_test.hpp **** 
 2024              		.loc 3 113 44
 2025 0aa0 13850A00 		mv	a0,s5
 2026 0aa4 97000000 		call	_ZdlPv@plt
 2026      E7800000 
 2027              	.LVL234:
 2028 0aac 13850400 		mv	a0,s1
 2029              	.LEHB11:
 2030 0ab0 97000000 		call	_Unwind_Resume@plt
GAS LISTING /tmp/cclf04fV.s 			page 50


 2030      E7800000 
 2031              	.LVL235:
 2032              	.LEHE11:
 2033              	.L103:
 2034 0ab8 13090500 		mv	s2,a0
 115:test/../test/ConsumerProducer_CPP_API_test.hpp ****         Thread *producers[threadNum];
 2035              		.loc 3 115 37
 2036 0abc 13850400 		mv	a0,s1
 2037 0ac0 97000000 		call	_ZdlPv@plt
 2037      E7800000 
 2038              	.LVL236:
 2039 0ac8 13050900 		mv	a0,s2
 2040              	.LEHB12:
 2041 0acc 97000000 		call	_Unwind_Resume@plt
 2041      E7800000 
 2042              	.LVL237:
 2043              	.LEHE12:
 2044              	.L104:
 2045 0ad4 93040500 		mv	s1,a0
 2046              	.LVL238:
 122:test/../test/ConsumerProducer_CPP_API_test.hpp ****         consumer->start();
 2047              		.loc 3 122 63
 2048 0ad8 13850B00 		mv	a0,s7
 2049 0adc 97000000 		call	_ZdlPv@plt
 2049      E7800000 
 2050              	.LVL239:
 2051 0ae4 13850400 		mv	a0,s1
 2052              	.LEHB13:
 2053 0ae8 97000000 		call	_Unwind_Resume@plt
 2053      E7800000 
 2054              	.LVL240:
 2055              	.LEHE13:
 2056              	.L105:
 2057 0af0 13090500 		mv	s2,a0
 128:test/../test/ConsumerProducer_CPP_API_test.hpp ****         producers[0]->start();
 2058              		.loc 3 128 59
 2059 0af4 13850400 		mv	a0,s1
 2060 0af8 97000000 		call	_ZdlPv@plt
 2060      E7800000 
 2061              	.LVL241:
 2062 0b00 13050900 		mv	a0,s2
 2063              	.LEHB14:
 2064 0b04 97000000 		call	_Unwind_Resume@plt
 2064      E7800000 
 2065              	.LVL242:
 2066              	.LEHE14:
 2067              	.L106:
 2068 0b0c 93040500 		mv	s1,a0
 2069              	.LVL243:
 2070              	.LBB64:
 136:test/../test/ConsumerProducer_CPP_API_test.hpp ****             producers[i]->start();
 2071              		.loc 3 136 55
 2072 0b10 13850C00 		mv	a0,s9
 2073 0b14 97000000 		call	_ZdlPv@plt
 2073      E7800000 
 2074              	.LVL244:
 2075 0b1c 13850400 		mv	a0,s1
GAS LISTING /tmp/cclf04fV.s 			page 51


 2076              	.LEHB15:
 2077 0b20 97000000 		call	_Unwind_Resume@plt
 2077      E7800000 
 2078              	.LVL245:
 2079              	.LEHE15:
 2080              	.LBE64:
 2081              		.cfi_endproc
 2082              	.LFE22:
 2083              		.globl	__gxx_personality_v0
 2084              		.section	.gcc_except_table,"a",@progbits
 2085              	.LLSDA22:
 2086 0000 FF       		.byte	0xff
 2087 0001 FF       		.byte	0xff
 2088 0002 03       		.byte	0x3
 2089 0003 D001     		.byte	0xd0,0x1
 2090 0005 00000000 		.4byte	.LEHB0-.LFB22
 2091 0009 00000000 		.4byte	.LEHE0-.LEHB0
 2092 000d 00000000 		.4byte	0
 2093 0011 00       		.byte	0
 2094 0012 00000000 		.4byte	.LEHB1-.LFB22
 2095 0016 00000000 		.4byte	.LEHE1-.LEHB1
 2096 001a 00000000 		.4byte	.L102-.LFB22
 2097 001e 00       		.byte	0
 2098 001f 00000000 		.4byte	.LEHB2-.LFB22
 2099 0023 00000000 		.4byte	.LEHE2-.LEHB2
 2100 0027 00000000 		.4byte	0
 2101 002b 00       		.byte	0
 2102 002c 00000000 		.4byte	.LEHB3-.LFB22
 2103 0030 00000000 		.4byte	.LEHE3-.LEHB3
 2104 0034 00000000 		.4byte	.L103-.LFB22
 2105 0038 00       		.byte	0
 2106 0039 00000000 		.4byte	.LEHB4-.LFB22
 2107 003d 00000000 		.4byte	.LEHE4-.LEHB4
 2108 0041 00000000 		.4byte	0
 2109 0045 00       		.byte	0
 2110 0046 00000000 		.4byte	.LEHB5-.LFB22
 2111 004a 00000000 		.4byte	.LEHE5-.LEHB5
 2112 004e 00000000 		.4byte	.L104-.LFB22
 2113 0052 00       		.byte	0
 2114 0053 00000000 		.4byte	.LEHB6-.LFB22
 2115 0057 00000000 		.4byte	.LEHE6-.LEHB6
 2116 005b 00000000 		.4byte	0
 2117 005f 00       		.byte	0
 2118 0060 00000000 		.4byte	.LEHB7-.LFB22
 2119 0064 00000000 		.4byte	.LEHE7-.LEHB7
 2120 0068 00000000 		.4byte	.L105-.LFB22
 2121 006c 00       		.byte	0
 2122 006d 00000000 		.4byte	.LEHB8-.LFB22
 2123 0071 00000000 		.4byte	.LEHE8-.LEHB8
 2124 0075 00000000 		.4byte	0
 2125 0079 00       		.byte	0
 2126 007a 00000000 		.4byte	.LEHB9-.LFB22
 2127 007e 00000000 		.4byte	.LEHE9-.LEHB9
 2128 0082 00000000 		.4byte	.L106-.LFB22
 2129 0086 00       		.byte	0
 2130 0087 00000000 		.4byte	.LEHB10-.LFB22
 2131 008b 00000000 		.4byte	.LEHE10-.LEHB10
GAS LISTING /tmp/cclf04fV.s 			page 52


 2132 008f 00000000 		.4byte	0
 2133 0093 00       		.byte	0
 2134 0094 00000000 		.4byte	.LEHB11-.LFB22
 2135 0098 00000000 		.4byte	.LEHE11-.LEHB11
 2136 009c 00000000 		.4byte	0
 2137 00a0 00       		.byte	0
 2138 00a1 00000000 		.4byte	.LEHB12-.LFB22
 2139 00a5 00000000 		.4byte	.LEHE12-.LEHB12
 2140 00a9 00000000 		.4byte	0
 2141 00ad 00       		.byte	0
 2142 00ae 00000000 		.4byte	.LEHB13-.LFB22
 2143 00b2 00000000 		.4byte	.LEHE13-.LEHB13
 2144 00b6 00000000 		.4byte	0
 2145 00ba 00       		.byte	0
 2146 00bb 00000000 		.4byte	.LEHB14-.LFB22
 2147 00bf 00000000 		.4byte	.LEHE14-.LEHB14
 2148 00c3 00000000 		.4byte	0
 2149 00c7 00       		.byte	0
 2150 00c8 00000000 		.4byte	.LEHB15-.LFB22
 2151 00cc 00000000 		.4byte	.LEHE15-.LEHB15
 2152 00d0 00000000 		.4byte	0
 2153 00d4 00       		.byte	0
 2154              		.text
 2156              		.align	2
 2157              		.globl	_Z8userMainv
 2159              	_Z8userMainv:
 2160              	.LFB23:
 2161              		.file 4 "test/userMain.cpp"
   1:test/userMain.cpp **** #include "../test/Threads_C_API_test.hpp" // zadatak 2, niti C API i sinhrona promena konteksta
   2:test/userMain.cpp **** //#include "../test/Threads_CPP_API_test.hpp" // zadatak 2., niti CPP API i sinhrona promena kontek
   3:test/userMain.cpp **** 
   4:test/userMain.cpp **** //#include "../test/ConsumerProducer_C_API_test.h" // zadatak 3., kompletan C API sa semaforima, si
   5:test/userMain.cpp **** //#include "../test/ConsumerProducer_CPP_Sync_API_test.hpp" // zadatak 3., kompletan CPP API sa sem
   6:test/userMain.cpp **** 
   7:test/userMain.cpp **** #include "../test/ThreadSleep_C_API_test.hpp" // thread_sleep test C API
   8:test/userMain.cpp **** #include "../test/ConsumerProducer_CPP_API_test.hpp" // zadatak 4. CPP API i asinhrona promena kont
   9:test/userMain.cpp **** 
  10:test/userMain.cpp **** void userMain() {
 2162              		.loc 4 10 17 is_stmt 1
 2163              		.cfi_startproc
 2164 0b28 130101FF 		addi	sp,sp,-16
 2165              		.cfi_def_cfa_offset 16
 2166 0b2c 23341100 		sd	ra,8(sp)
 2167 0b30 23308100 		sd	s0,0(sp)
 2168              		.cfi_offset 1, -8
 2169              		.cfi_offset 8, -16
 2170 0b34 13040101 		addi	s0,sp,16
 2171              		.cfi_def_cfa 8, 0
  11:test/userMain.cpp ****     Threads_C_API_test(); // zadatak 2., niti C API i sinhrona promena konteksta
 2172              		.loc 4 11 5
 2173              		.loc 4 11 23 is_stmt 0
 2174 0b38 97000000 		call	_Z18Threads_C_API_testv
 2174      E7800000 
 2175              	.LVL246:
  12:test/userMain.cpp ****     //Threads_CPP_API_test(); // zadatak 2., niti CPP API i sinhrona promena konteksta
  13:test/userMain.cpp **** 
  14:test/userMain.cpp ****     //producerConsumer_C_API(); // zadatak 3., kompletan C API sa semaforima, sinhrona promena kont
GAS LISTING /tmp/cclf04fV.s 			page 53


  15:test/userMain.cpp ****    //producerConsumer_CPP_Sync_API(); // zadatak 3., kompletan CPP API sa semaforima, sinhrona prom
  16:test/userMain.cpp **** 
  17:test/userMain.cpp ****     //testSleeping(); // thread_sleep test C API
  18:test/userMain.cpp ****     //ConsumerProducerCPP::testConsumerProducer(); // zadatak 4. CPP API i asinhrona promena kontek
  19:test/userMain.cpp **** 
  20:test/userMain.cpp **** }...
 2176              		.loc 4 20 1
 2177 0b40 83308100 		ld	ra,8(sp)
 2178              		.cfi_restore 1
 2179 0b44 03340100 		ld	s0,0(sp)
 2180              		.cfi_restore 8
 2181              		.cfi_def_cfa 2, 16
 2182 0b48 13010101 		addi	sp,sp,16
 2183              		.cfi_def_cfa_offset 0
 2184 0b4c 67800000 		jr	ra
 2185              		.cfi_endproc
 2186              	.LFE23:
 2188              		.weak	_ZTVN19ConsumerProducerCPP16ProducerKeyboradE
 2189              		.section	.data.rel.ro.local._ZTVN19ConsumerProducerCPP16ProducerKeyboradE,"awG",@progbits,_ZTVN19C
 2190              		.align	3
 2193              	_ZTVN19ConsumerProducerCPP16ProducerKeyboradE:
 2194 0000 00000000 		.dword	0
 2194      00000000 
 2195 0008 00000000 		.dword	0
 2195      00000000 
 2196 0010 00000000 		.dword	_ZN19ConsumerProducerCPP16ProducerKeyboradD1Ev
 2196      00000000 
 2197 0018 00000000 		.dword	_ZN19ConsumerProducerCPP16ProducerKeyboradD0Ev
 2197      00000000 
 2198 0020 00000000 		.dword	_ZN19ConsumerProducerCPP16ProducerKeyborad3runEv
 2198      00000000 
 2199              		.weak	_ZTVN19ConsumerProducerCPP8ProducerE
 2200              		.section	.data.rel.ro.local._ZTVN19ConsumerProducerCPP8ProducerE,"awG",@progbits,_ZTVN19ConsumerPr
 2201              		.align	3
 2204              	_ZTVN19ConsumerProducerCPP8ProducerE:
 2205 0000 00000000 		.dword	0
 2205      00000000 
 2206 0008 00000000 		.dword	0
 2206      00000000 
 2207 0010 00000000 		.dword	_ZN19ConsumerProducerCPP8ProducerD1Ev
 2207      00000000 
 2208 0018 00000000 		.dword	_ZN19ConsumerProducerCPP8ProducerD0Ev
 2208      00000000 
 2209 0020 00000000 		.dword	_ZN19ConsumerProducerCPP8Producer3runEv
 2209      00000000 
 2210              		.weak	_ZTVN19ConsumerProducerCPP8ConsumerE
 2211              		.section	.data.rel.ro.local._ZTVN19ConsumerProducerCPP8ConsumerE,"awG",@progbits,_ZTVN19ConsumerPr
 2212              		.align	3
 2215              	_ZTVN19ConsumerProducerCPP8ConsumerE:
 2216 0000 00000000 		.dword	0
 2216      00000000 
 2217 0008 00000000 		.dword	0
 2217      00000000 
 2218 0010 00000000 		.dword	_ZN19ConsumerProducerCPP8ConsumerD1Ev
 2218      00000000 
 2219 0018 00000000 		.dword	_ZN19ConsumerProducerCPP8ConsumerD0Ev
 2219      00000000 
GAS LISTING /tmp/cclf04fV.s 			page 54


 2220 0020 00000000 		.dword	_ZN19ConsumerProducerCPP8Consumer3runEv
 2220      00000000 
 2221              		.globl	_ZN19ConsumerProducerCPP9threadEndE
 2222              		.globl	_ZN19ConsumerProducerCPP10waitForAllE
 2223              		.globl	finished
 2224              		.globl	finishedD
 2225              		.globl	finishedC
 2226              		.globl	finishedB
 2227              		.globl	finishedA
 2228              		.bss
 2229              		.align	3
 2230              		.set	.LANCHOR0,. + 0
 2233              	finishedA:
 2234 0000 00       		.zero	1
 2237              	finishedB:
 2238 0001 00       		.zero	1
 2239 0002 00000000 		.zero	6
 2239      0000
 2242              	finished:
 2243 0008 0000     		.zero	2
 2244 000a 0000     		.zero	2
 2247              	_ZN19ConsumerProducerCPP9threadEndE:
 2248 000c 00000000 		.zero	4
 2251              	finishedC:
 2252 0010 00       		.zero	1
 2255              	finishedD:
 2256 0011 00       		.zero	1
 2257 0012 00000000 		.zero	6
 2257      0000
 2260              	_ZN19ConsumerProducerCPP10waitForAllE:
 2261 0018 00000000 		.zero	8
 2261      00000000 
 2262              		.text
 2263              	.Letext0:
 2264              		.file 5 "test/../test/../h/../lib/hw.h"
 2265              		.file 6 "test/../test/../h/syscall_c.hpp"
 2266              		.file 7 "test/../test/../h/syscall_cpp.hpp"
 2267              		.file 8 "test/../test/buffer_CPP_API.hpp"
 2268              		.file 9 "test/../test/printing.hpp"
 7599              		.align	3
 7602              	DW.ref.__gxx_personality_v0:
 7603 0000 00000000 		.dword	__gxx_personality_v0
 7603      00000000 
 7604              		.ident	"GCC: (Ubuntu 9.4.0-1ubuntu1~20.04) 9.4.0"
 7605              		.section	.note.GNU-stack,"",@progbits
GAS LISTING /tmp/cclf04fV.s 			page 55


DEFINED SYMBOLS
                            *ABS*:0000000000000000 userMain.cpp
     /tmp/cclf04fV.s:20     .text:0000000000000000 _Z11workerBodyAPv
     /tmp/cclf04fV.s:24     .text:0000000000000000 .L0 
     /tmp/cclf04fV.s:26     .text:0000000000000000 .L0 
     /tmp/cclf04fV.s:27     .text:0000000000000004 .L0 
     /tmp/cclf04fV.s:32     .text:0000000000000014 .L0 
     /tmp/cclf04fV.s:33     .text:0000000000000014 .L0 
     /tmp/cclf04fV.s:34     .text:0000000000000014 .L0 
     /tmp/cclf04fV.s:35     .text:0000000000000014 .L0 
     /tmp/cclf04fV.s:37     .text:0000000000000018 .L0 
     /tmp/cclf04fV.s:41     .text:0000000000000018 .L0 
     /tmp/cclf04fV.s:42     .text:0000000000000018 .L0 
     /tmp/cclf04fV.s:50     .text:0000000000000020 .L0 
     /tmp/cclf04fV.s:51     .text:0000000000000020 .L0 
     /tmp/cclf04fV.s:55     .text:0000000000000028 .L0 
     /tmp/cclf04fV.s:59     .text:000000000000002c .L0 
     /tmp/cclf04fV.s:65     .text:0000000000000038 .L0 
     /tmp/cclf04fV.s:69     .text:000000000000003c .L0 
     /tmp/cclf04fV.s:73     .text:0000000000000048 .L0 
     /tmp/cclf04fV.s:83     .text:0000000000000050 .L0 
     /tmp/cclf04fV.s:87     .text:0000000000000054 .L0 
     /tmp/cclf04fV.s:91     .text:000000000000005c .L0 
     /tmp/cclf04fV.s:92     .text:000000000000005c .L0 
     /tmp/cclf04fV.s:96     .text:000000000000006c .L0 
     /tmp/cclf04fV.s:97     .text:000000000000006c .L0 
     /tmp/cclf04fV.s:103    .text:0000000000000080 .L0 
     /tmp/cclf04fV.s:104    .text:0000000000000080 .L0 
     /tmp/cclf04fV.s:109    .text:0000000000000090 .L0 
     /tmp/cclf04fV.s:110    .text:0000000000000090 .L0 
     /tmp/cclf04fV.s:118    .text:0000000000000098 .L0 
     /tmp/cclf04fV.s:119    .text:0000000000000098 .L0 
     /tmp/cclf04fV.s:123    .text:00000000000000a8 .L0 
     /tmp/cclf04fV.s:124    .text:00000000000000a8 .L0 
     /tmp/cclf04fV.s:127    .text:00000000000000b4 .L0 
     /tmp/cclf04fV.s:128    .text:00000000000000b8 .L0 
     /tmp/cclf04fV.s:130    .text:00000000000000bc .L0 
     /tmp/cclf04fV.s:131    .text:00000000000000bc .L0 
     /tmp/cclf04fV.s:133    .text:00000000000000c0 .L0 
     /tmp/cclf04fV.s:135    .text:00000000000000c4 .L0 
     /tmp/cclf04fV.s:138    .text:00000000000000c8 .L0 
     /tmp/cclf04fV.s:140    .text:00000000000000cc .L0 
     /tmp/cclf04fV.s:154    .text:00000000000000cc _Z11workerBodyBPv
     /tmp/cclf04fV.s:157    .text:00000000000000cc .L0 
     /tmp/cclf04fV.s:159    .text:00000000000000cc .L0 
     /tmp/cclf04fV.s:160    .text:00000000000000d0 .L0 
     /tmp/cclf04fV.s:165    .text:00000000000000e0 .L0 
     /tmp/cclf04fV.s:166    .text:00000000000000e0 .L0 
     /tmp/cclf04fV.s:167    .text:00000000000000e0 .L0 
     /tmp/cclf04fV.s:168    .text:00000000000000e0 .L0 
     /tmp/cclf04fV.s:170    .text:00000000000000e4 .L0 
     /tmp/cclf04fV.s:174    .text:00000000000000e4 .L0 
     /tmp/cclf04fV.s:175    .text:00000000000000e4 .L0 
     /tmp/cclf04fV.s:183    .text:00000000000000ec .L0 
     /tmp/cclf04fV.s:184    .text:00000000000000ec .L0 
     /tmp/cclf04fV.s:188    .text:00000000000000f4 .L0 
     /tmp/cclf04fV.s:192    .text:00000000000000f8 .L0 
GAS LISTING /tmp/cclf04fV.s 			page 56


     /tmp/cclf04fV.s:198    .text:0000000000000104 .L0 
     /tmp/cclf04fV.s:202    .text:0000000000000108 .L0 
     /tmp/cclf04fV.s:206    .text:0000000000000114 .L0 
     /tmp/cclf04fV.s:216    .text:000000000000011c .L0 
     /tmp/cclf04fV.s:220    .text:0000000000000120 .L0 
     /tmp/cclf04fV.s:224    .text:0000000000000128 .L0 
     /tmp/cclf04fV.s:225    .text:0000000000000128 .L0 
     /tmp/cclf04fV.s:229    .text:0000000000000138 .L0 
     /tmp/cclf04fV.s:230    .text:0000000000000138 .L0 
     /tmp/cclf04fV.s:236    .text:000000000000014c .L0 
     /tmp/cclf04fV.s:237    .text:000000000000014c .L0 
     /tmp/cclf04fV.s:242    .text:000000000000015c .L0 
     /tmp/cclf04fV.s:243    .text:000000000000015c .L0 
     /tmp/cclf04fV.s:251    .text:0000000000000164 .L0 
     /tmp/cclf04fV.s:252    .text:0000000000000164 .L0 
     /tmp/cclf04fV.s:256    .text:0000000000000174 .L0 
     /tmp/cclf04fV.s:257    .text:0000000000000174 .L0 
     /tmp/cclf04fV.s:260    .text:0000000000000180 .L0 
     /tmp/cclf04fV.s:261    .text:0000000000000180 .L0 
     /tmp/cclf04fV.s:264    .text:0000000000000188 .L0 
     /tmp/cclf04fV.s:265    .text:000000000000018c .L0 
     /tmp/cclf04fV.s:267    .text:0000000000000190 .L0 
     /tmp/cclf04fV.s:268    .text:0000000000000190 .L0 
     /tmp/cclf04fV.s:270    .text:0000000000000194 .L0 
     /tmp/cclf04fV.s:272    .text:0000000000000198 .L0 
     /tmp/cclf04fV.s:275    .text:000000000000019c .L0 
     /tmp/cclf04fV.s:277    .text:00000000000001a0 .L0 
     /tmp/cclf04fV.s:291    .text:00000000000001a0 _Z9sleepyRunPv
     /tmp/cclf04fV.s:295    .text:00000000000001a0 .L0 
     /tmp/cclf04fV.s:297    .text:00000000000001a0 .L0 
     /tmp/cclf04fV.s:298    .text:00000000000001a4 .L0 
     /tmp/cclf04fV.s:303    .text:00000000000001b4 .L0 
     /tmp/cclf04fV.s:304    .text:00000000000001b4 .L0 
     /tmp/cclf04fV.s:305    .text:00000000000001b4 .L0 
     /tmp/cclf04fV.s:306    .text:00000000000001b4 .L0 
     /tmp/cclf04fV.s:308    .text:00000000000001b8 .L0 
     /tmp/cclf04fV.s:310    .text:00000000000001b8 .L0 
     /tmp/cclf04fV.s:311    .text:00000000000001b8 .L0 
     /tmp/cclf04fV.s:314    .text:00000000000001bc .L0 
     /tmp/cclf04fV.s:315    .text:00000000000001bc .L0 
     /tmp/cclf04fV.s:319    .text:00000000000001c0 .L0 
     /tmp/cclf04fV.s:320    .text:00000000000001c0 .L0 
     /tmp/cclf04fV.s:324    .text:00000000000001c8 .L0 
     /tmp/cclf04fV.s:325    .text:00000000000001c8 .L0 
     /tmp/cclf04fV.s:329    .text:00000000000001d8 .L0 
     /tmp/cclf04fV.s:330    .text:00000000000001d8 .L0 
     /tmp/cclf04fV.s:336    .text:00000000000001ec .L0 
     /tmp/cclf04fV.s:337    .text:00000000000001ec .L0 
     /tmp/cclf04fV.s:341    .text:00000000000001fc .L0 
     /tmp/cclf04fV.s:342    .text:00000000000001fc .L0 
     /tmp/cclf04fV.s:346    .text:0000000000000208 .L0 
     /tmp/cclf04fV.s:349    .text:000000000000020c .L0 
     /tmp/cclf04fV.s:350    .text:000000000000020c .L0 
     /tmp/cclf04fV.s:354    .text:0000000000000214 .L0 
     /tmp/cclf04fV.s:356    .text:0000000000000218 .L0 
     /tmp/cclf04fV.s:361    .text:000000000000022c .L0 
     /tmp/cclf04fV.s:362    .text:0000000000000230 .L0 
GAS LISTING /tmp/cclf04fV.s 			page 57


     /tmp/cclf04fV.s:364    .text:0000000000000234 .L0 
     /tmp/cclf04fV.s:365    .text:0000000000000234 .L0 
     /tmp/cclf04fV.s:367    .text:0000000000000238 .L0 
     /tmp/cclf04fV.s:369    .text:000000000000023c .L0 
     /tmp/cclf04fV.s:371    .text:0000000000000240 .L0 
     /tmp/cclf04fV.s:373    .text:0000000000000244 .L0 
     /tmp/cclf04fV.s:380    .text._ZN19ConsumerProducerCPP8Consumer3runEv:0000000000000000 _ZN19ConsumerProducerCPP8Consumer3runEv
     /tmp/cclf04fV.s:384    .text._ZN19ConsumerProducerCPP8Consumer3runEv:0000000000000000 .L0 
     /tmp/cclf04fV.s:386    .text._ZN19ConsumerProducerCPP8Consumer3runEv:0000000000000000 .L0 
     /tmp/cclf04fV.s:387    .text._ZN19ConsumerProducerCPP8Consumer3runEv:0000000000000004 .L0 
     /tmp/cclf04fV.s:393    .text._ZN19ConsumerProducerCPP8Consumer3runEv:0000000000000018 .L0 
     /tmp/cclf04fV.s:394    .text._ZN19ConsumerProducerCPP8Consumer3runEv:0000000000000018 .L0 
     /tmp/cclf04fV.s:395    .text._ZN19ConsumerProducerCPP8Consumer3runEv:0000000000000018 .L0 
     /tmp/cclf04fV.s:396    .text._ZN19ConsumerProducerCPP8Consumer3runEv:0000000000000018 .L0 
     /tmp/cclf04fV.s:397    .text._ZN19ConsumerProducerCPP8Consumer3runEv:0000000000000018 .L0 
     /tmp/cclf04fV.s:399    .text._ZN19ConsumerProducerCPP8Consumer3runEv:000000000000001c .L0 
     /tmp/cclf04fV.s:403    .text._ZN19ConsumerProducerCPP8Consumer3runEv:0000000000000020 .L0 
     /tmp/cclf04fV.s:404    .text._ZN19ConsumerProducerCPP8Consumer3runEv:0000000000000020 .L0 
     /tmp/cclf04fV.s:410    .text._ZN19ConsumerProducerCPP8Consumer3runEv:0000000000000028 .L0 
     /tmp/cclf04fV.s:411    .text._ZN19ConsumerProducerCPP8Consumer3runEv:0000000000000028 .L0 
     /tmp/cclf04fV.s:417    .text._ZN19ConsumerProducerCPP8Consumer3runEv:0000000000000034 .L0 
     /tmp/cclf04fV.s:418    .text._ZN19ConsumerProducerCPP8Consumer3runEv:0000000000000034 .L0 
     /tmp/cclf04fV.s:422    .text._ZN19ConsumerProducerCPP8Consumer3runEv:0000000000000040 .L0 
     /tmp/cclf04fV.s:423    .text._ZN19ConsumerProducerCPP8Consumer3runEv:0000000000000040 .L0 
     /tmp/cclf04fV.s:425    .text._ZN19ConsumerProducerCPP8Consumer3runEv:0000000000000044 .L0 
     /tmp/cclf04fV.s:429    .text._ZN19ConsumerProducerCPP8Consumer3runEv:0000000000000050 .L0 
     /tmp/cclf04fV.s:430    .text._ZN19ConsumerProducerCPP8Consumer3runEv:0000000000000050 .L0 
     /tmp/cclf04fV.s:434    .text._ZN19ConsumerProducerCPP8Consumer3runEv:0000000000000058 .L0 
     /tmp/cclf04fV.s:435    .text._ZN19ConsumerProducerCPP8Consumer3runEv:0000000000000058 .L0 
     /tmp/cclf04fV.s:440    .text._ZN19ConsumerProducerCPP8Consumer3runEv:0000000000000064 .L0 
     /tmp/cclf04fV.s:441    .text._ZN19ConsumerProducerCPP8Consumer3runEv:0000000000000064 .L0 
     /tmp/cclf04fV.s:445    .text._ZN19ConsumerProducerCPP8Consumer3runEv:000000000000006c .L0 
     /tmp/cclf04fV.s:451    .text._ZN19ConsumerProducerCPP8Consumer3runEv:0000000000000074 .L0 
     /tmp/cclf04fV.s:452    .text._ZN19ConsumerProducerCPP8Consumer3runEv:0000000000000074 .L0 
     /tmp/cclf04fV.s:454    .text._ZN19ConsumerProducerCPP8Consumer3runEv:0000000000000078 .L0 
     /tmp/cclf04fV.s:458    .text._ZN19ConsumerProducerCPP8Consumer3runEv:0000000000000084 .L0 
     /tmp/cclf04fV.s:459    .text._ZN19ConsumerProducerCPP8Consumer3runEv:0000000000000084 .L0 
     /tmp/cclf04fV.s:466    .text._ZN19ConsumerProducerCPP8Consumer3runEv:0000000000000090 .L0 
     /tmp/cclf04fV.s:467    .text._ZN19ConsumerProducerCPP8Consumer3runEv:0000000000000090 .L0 
     /tmp/cclf04fV.s:468    .text._ZN19ConsumerProducerCPP8Consumer3runEv:0000000000000090 .L0 
     /tmp/cclf04fV.s:470    .text._ZN19ConsumerProducerCPP8Consumer3runEv:0000000000000094 .L0 
     /tmp/cclf04fV.s:474    .text._ZN19ConsumerProducerCPP8Consumer3runEv:00000000000000a0 .L0 
     /tmp/cclf04fV.s:476    .text._ZN19ConsumerProducerCPP8Consumer3runEv:00000000000000a4 .L0 
     /tmp/cclf04fV.s:478    .text._ZN19ConsumerProducerCPP8Consumer3runEv:00000000000000a8 .L0 
     /tmp/cclf04fV.s:482    .text._ZN19ConsumerProducerCPP8Consumer3runEv:00000000000000b4 .L0 
     /tmp/cclf04fV.s:483    .text._ZN19ConsumerProducerCPP8Consumer3runEv:00000000000000b8 .L0 
     /tmp/cclf04fV.s:485    .text._ZN19ConsumerProducerCPP8Consumer3runEv:00000000000000bc .L0 
     /tmp/cclf04fV.s:486    .text._ZN19ConsumerProducerCPP8Consumer3runEv:00000000000000bc .L0 
     /tmp/cclf04fV.s:488    .text._ZN19ConsumerProducerCPP8Consumer3runEv:00000000000000c0 .L0 
     /tmp/cclf04fV.s:490    .text._ZN19ConsumerProducerCPP8Consumer3runEv:00000000000000c4 .L0 
     /tmp/cclf04fV.s:493    .text._ZN19ConsumerProducerCPP8Consumer3runEv:00000000000000c8 .L0 
     /tmp/cclf04fV.s:496    .text._ZN19ConsumerProducerCPP8Consumer3runEv:00000000000000cc .L0 
     /tmp/cclf04fV.s:498    .text._ZN19ConsumerProducerCPP8Consumer3runEv:00000000000000d0 .L0 
     /tmp/cclf04fV.s:505    .text._ZN19ConsumerProducerCPP8ConsumerD2Ev:0000000000000000 _ZN19ConsumerProducerCPP8ConsumerD2Ev
     /tmp/cclf04fV.s:508    .text._ZN19ConsumerProducerCPP8ConsumerD2Ev:0000000000000000 .L0 
     /tmp/cclf04fV.s:510    .text._ZN19ConsumerProducerCPP8ConsumerD2Ev:0000000000000000 .L0 
     /tmp/cclf04fV.s:511    .text._ZN19ConsumerProducerCPP8ConsumerD2Ev:0000000000000004 .L0 
GAS LISTING /tmp/cclf04fV.s 			page 58


     /tmp/cclf04fV.s:514    .text._ZN19ConsumerProducerCPP8ConsumerD2Ev:000000000000000c .L0 
     /tmp/cclf04fV.s:515    .text._ZN19ConsumerProducerCPP8ConsumerD2Ev:000000000000000c .L0 
     /tmp/cclf04fV.s:517    .text._ZN19ConsumerProducerCPP8ConsumerD2Ev:0000000000000010 .L0 
     /tmp/cclf04fV.s:2215   .data.rel.ro.local._ZTVN19ConsumerProducerCPP8ConsumerE:0000000000000000 _ZTVN19ConsumerProducerCPP8ConsumerE
     /tmp/cclf04fV.s:520    .text._ZN19ConsumerProducerCPP8ConsumerD2Ev:0000000000000010 .L0 
     /tmp/cclf04fV.s:526    .text._ZN19ConsumerProducerCPP8ConsumerD2Ev:0000000000000028 .L0 
     /tmp/cclf04fV.s:528    .text._ZN19ConsumerProducerCPP8ConsumerD2Ev:000000000000002c .L0 
     /tmp/cclf04fV.s:529    .text._ZN19ConsumerProducerCPP8ConsumerD2Ev:000000000000002c .L0 
     /tmp/cclf04fV.s:531    .text._ZN19ConsumerProducerCPP8ConsumerD2Ev:0000000000000030 .L0 
     /tmp/cclf04fV.s:533    .text._ZN19ConsumerProducerCPP8ConsumerD2Ev:0000000000000034 .L0 
     /tmp/cclf04fV.s:505    .text._ZN19ConsumerProducerCPP8ConsumerD2Ev:0000000000000000 _ZN19ConsumerProducerCPP8ConsumerD1Ev
     /tmp/cclf04fV.s:542    .text._ZN19ConsumerProducerCPP8ConsumerD0Ev:0000000000000000 _ZN19ConsumerProducerCPP8ConsumerD0Ev
     /tmp/cclf04fV.s:545    .text._ZN19ConsumerProducerCPP8ConsumerD0Ev:0000000000000000 .L0 
     /tmp/cclf04fV.s:547    .text._ZN19ConsumerProducerCPP8ConsumerD0Ev:0000000000000000 .L0 
     /tmp/cclf04fV.s:548    .text._ZN19ConsumerProducerCPP8ConsumerD0Ev:0000000000000004 .L0 
     /tmp/cclf04fV.s:552    .text._ZN19ConsumerProducerCPP8ConsumerD0Ev:0000000000000010 .L0 
     /tmp/cclf04fV.s:553    .text._ZN19ConsumerProducerCPP8ConsumerD0Ev:0000000000000010 .L0 
     /tmp/cclf04fV.s:554    .text._ZN19ConsumerProducerCPP8ConsumerD0Ev:0000000000000010 .L0 
     /tmp/cclf04fV.s:556    .text._ZN19ConsumerProducerCPP8ConsumerD0Ev:0000000000000014 .L0 
     /tmp/cclf04fV.s:562    .text._ZN19ConsumerProducerCPP8ConsumerD0Ev:0000000000000018 .L0 
     /tmp/cclf04fV.s:572    .text._ZN19ConsumerProducerCPP8ConsumerD0Ev:000000000000003c .L0 
     /tmp/cclf04fV.s:574    .text._ZN19ConsumerProducerCPP8ConsumerD0Ev:0000000000000040 .L0 
     /tmp/cclf04fV.s:575    .text._ZN19ConsumerProducerCPP8ConsumerD0Ev:0000000000000040 .L0 
     /tmp/cclf04fV.s:577    .text._ZN19ConsumerProducerCPP8ConsumerD0Ev:0000000000000044 .L0 
     /tmp/cclf04fV.s:580    .text._ZN19ConsumerProducerCPP8ConsumerD0Ev:0000000000000048 .L0 
     /tmp/cclf04fV.s:582    .text._ZN19ConsumerProducerCPP8ConsumerD0Ev:000000000000004c .L0 
     /tmp/cclf04fV.s:589    .text._ZN19ConsumerProducerCPP16ProducerKeyboradD2Ev:0000000000000000 _ZN19ConsumerProducerCPP16ProducerKeyboradD2Ev
     /tmp/cclf04fV.s:592    .text._ZN19ConsumerProducerCPP16ProducerKeyboradD2Ev:0000000000000000 .L0 
     /tmp/cclf04fV.s:594    .text._ZN19ConsumerProducerCPP16ProducerKeyboradD2Ev:0000000000000000 .L0 
     /tmp/cclf04fV.s:595    .text._ZN19ConsumerProducerCPP16ProducerKeyboradD2Ev:0000000000000004 .L0 
     /tmp/cclf04fV.s:598    .text._ZN19ConsumerProducerCPP16ProducerKeyboradD2Ev:000000000000000c .L0 
     /tmp/cclf04fV.s:599    .text._ZN19ConsumerProducerCPP16ProducerKeyboradD2Ev:000000000000000c .L0 
     /tmp/cclf04fV.s:601    .text._ZN19ConsumerProducerCPP16ProducerKeyboradD2Ev:0000000000000010 .L0 
     /tmp/cclf04fV.s:2193   .data.rel.ro.local._ZTVN19ConsumerProducerCPP16ProducerKeyboradE:0000000000000000 _ZTVN19ConsumerProducerCPP16ProducerKeyboradE
     /tmp/cclf04fV.s:604    .text._ZN19ConsumerProducerCPP16ProducerKeyboradD2Ev:0000000000000010 .L0 
     /tmp/cclf04fV.s:610    .text._ZN19ConsumerProducerCPP16ProducerKeyboradD2Ev:0000000000000028 .L0 
     /tmp/cclf04fV.s:612    .text._ZN19ConsumerProducerCPP16ProducerKeyboradD2Ev:000000000000002c .L0 
     /tmp/cclf04fV.s:613    .text._ZN19ConsumerProducerCPP16ProducerKeyboradD2Ev:000000000000002c .L0 
     /tmp/cclf04fV.s:615    .text._ZN19ConsumerProducerCPP16ProducerKeyboradD2Ev:0000000000000030 .L0 
     /tmp/cclf04fV.s:617    .text._ZN19ConsumerProducerCPP16ProducerKeyboradD2Ev:0000000000000034 .L0 
     /tmp/cclf04fV.s:589    .text._ZN19ConsumerProducerCPP16ProducerKeyboradD2Ev:0000000000000000 _ZN19ConsumerProducerCPP16ProducerKeyboradD1Ev
     /tmp/cclf04fV.s:626    .text._ZN19ConsumerProducerCPP16ProducerKeyboradD0Ev:0000000000000000 _ZN19ConsumerProducerCPP16ProducerKeyboradD0Ev
     /tmp/cclf04fV.s:629    .text._ZN19ConsumerProducerCPP16ProducerKeyboradD0Ev:0000000000000000 .L0 
     /tmp/cclf04fV.s:631    .text._ZN19ConsumerProducerCPP16ProducerKeyboradD0Ev:0000000000000000 .L0 
     /tmp/cclf04fV.s:632    .text._ZN19ConsumerProducerCPP16ProducerKeyboradD0Ev:0000000000000004 .L0 
     /tmp/cclf04fV.s:636    .text._ZN19ConsumerProducerCPP16ProducerKeyboradD0Ev:0000000000000010 .L0 
     /tmp/cclf04fV.s:637    .text._ZN19ConsumerProducerCPP16ProducerKeyboradD0Ev:0000000000000010 .L0 
     /tmp/cclf04fV.s:638    .text._ZN19ConsumerProducerCPP16ProducerKeyboradD0Ev:0000000000000010 .L0 
     /tmp/cclf04fV.s:640    .text._ZN19ConsumerProducerCPP16ProducerKeyboradD0Ev:0000000000000014 .L0 
     /tmp/cclf04fV.s:646    .text._ZN19ConsumerProducerCPP16ProducerKeyboradD0Ev:0000000000000018 .L0 
     /tmp/cclf04fV.s:656    .text._ZN19ConsumerProducerCPP16ProducerKeyboradD0Ev:000000000000003c .L0 
     /tmp/cclf04fV.s:658    .text._ZN19ConsumerProducerCPP16ProducerKeyboradD0Ev:0000000000000040 .L0 
     /tmp/cclf04fV.s:659    .text._ZN19ConsumerProducerCPP16ProducerKeyboradD0Ev:0000000000000040 .L0 
     /tmp/cclf04fV.s:661    .text._ZN19ConsumerProducerCPP16ProducerKeyboradD0Ev:0000000000000044 .L0 
     /tmp/cclf04fV.s:664    .text._ZN19ConsumerProducerCPP16ProducerKeyboradD0Ev:0000000000000048 .L0 
     /tmp/cclf04fV.s:666    .text._ZN19ConsumerProducerCPP16ProducerKeyboradD0Ev:000000000000004c .L0 
     /tmp/cclf04fV.s:673    .text._ZN19ConsumerProducerCPP8ProducerD2Ev:0000000000000000 _ZN19ConsumerProducerCPP8ProducerD2Ev
GAS LISTING /tmp/cclf04fV.s 			page 59


     /tmp/cclf04fV.s:676    .text._ZN19ConsumerProducerCPP8ProducerD2Ev:0000000000000000 .L0 
     /tmp/cclf04fV.s:678    .text._ZN19ConsumerProducerCPP8ProducerD2Ev:0000000000000000 .L0 
     /tmp/cclf04fV.s:679    .text._ZN19ConsumerProducerCPP8ProducerD2Ev:0000000000000004 .L0 
     /tmp/cclf04fV.s:682    .text._ZN19ConsumerProducerCPP8ProducerD2Ev:000000000000000c .L0 
     /tmp/cclf04fV.s:683    .text._ZN19ConsumerProducerCPP8ProducerD2Ev:000000000000000c .L0 
     /tmp/cclf04fV.s:685    .text._ZN19ConsumerProducerCPP8ProducerD2Ev:0000000000000010 .L0 
     /tmp/cclf04fV.s:2204   .data.rel.ro.local._ZTVN19ConsumerProducerCPP8ProducerE:0000000000000000 _ZTVN19ConsumerProducerCPP8ProducerE
     /tmp/cclf04fV.s:688    .text._ZN19ConsumerProducerCPP8ProducerD2Ev:0000000000000010 .L0 
     /tmp/cclf04fV.s:694    .text._ZN19ConsumerProducerCPP8ProducerD2Ev:0000000000000028 .L0 
     /tmp/cclf04fV.s:696    .text._ZN19ConsumerProducerCPP8ProducerD2Ev:000000000000002c .L0 
     /tmp/cclf04fV.s:697    .text._ZN19ConsumerProducerCPP8ProducerD2Ev:000000000000002c .L0 
     /tmp/cclf04fV.s:699    .text._ZN19ConsumerProducerCPP8ProducerD2Ev:0000000000000030 .L0 
     /tmp/cclf04fV.s:701    .text._ZN19ConsumerProducerCPP8ProducerD2Ev:0000000000000034 .L0 
     /tmp/cclf04fV.s:673    .text._ZN19ConsumerProducerCPP8ProducerD2Ev:0000000000000000 _ZN19ConsumerProducerCPP8ProducerD1Ev
     /tmp/cclf04fV.s:710    .text._ZN19ConsumerProducerCPP8ProducerD0Ev:0000000000000000 _ZN19ConsumerProducerCPP8ProducerD0Ev
     /tmp/cclf04fV.s:713    .text._ZN19ConsumerProducerCPP8ProducerD0Ev:0000000000000000 .L0 
     /tmp/cclf04fV.s:715    .text._ZN19ConsumerProducerCPP8ProducerD0Ev:0000000000000000 .L0 
     /tmp/cclf04fV.s:716    .text._ZN19ConsumerProducerCPP8ProducerD0Ev:0000000000000004 .L0 
     /tmp/cclf04fV.s:720    .text._ZN19ConsumerProducerCPP8ProducerD0Ev:0000000000000010 .L0 
     /tmp/cclf04fV.s:721    .text._ZN19ConsumerProducerCPP8ProducerD0Ev:0000000000000010 .L0 
     /tmp/cclf04fV.s:722    .text._ZN19ConsumerProducerCPP8ProducerD0Ev:0000000000000010 .L0 
     /tmp/cclf04fV.s:724    .text._ZN19ConsumerProducerCPP8ProducerD0Ev:0000000000000014 .L0 
     /tmp/cclf04fV.s:730    .text._ZN19ConsumerProducerCPP8ProducerD0Ev:0000000000000018 .L0 
     /tmp/cclf04fV.s:740    .text._ZN19ConsumerProducerCPP8ProducerD0Ev:000000000000003c .L0 
     /tmp/cclf04fV.s:742    .text._ZN19ConsumerProducerCPP8ProducerD0Ev:0000000000000040 .L0 
     /tmp/cclf04fV.s:743    .text._ZN19ConsumerProducerCPP8ProducerD0Ev:0000000000000040 .L0 
     /tmp/cclf04fV.s:745    .text._ZN19ConsumerProducerCPP8ProducerD0Ev:0000000000000044 .L0 
     /tmp/cclf04fV.s:748    .text._ZN19ConsumerProducerCPP8ProducerD0Ev:0000000000000048 .L0 
     /tmp/cclf04fV.s:750    .text._ZN19ConsumerProducerCPP8ProducerD0Ev:000000000000004c .L0 
     /tmp/cclf04fV.s:757    .text._ZN19ConsumerProducerCPP16ProducerKeyborad3runEv:0000000000000000 _ZN19ConsumerProducerCPP16ProducerKeyborad3runEv
     /tmp/cclf04fV.s:760    .text._ZN19ConsumerProducerCPP16ProducerKeyborad3runEv:0000000000000000 .L0 
     /tmp/cclf04fV.s:762    .text._ZN19ConsumerProducerCPP16ProducerKeyborad3runEv:0000000000000000 .L0 
     /tmp/cclf04fV.s:763    .text._ZN19ConsumerProducerCPP16ProducerKeyborad3runEv:0000000000000004 .L0 
     /tmp/cclf04fV.s:767    .text._ZN19ConsumerProducerCPP16ProducerKeyborad3runEv:0000000000000010 .L0 
     /tmp/cclf04fV.s:768    .text._ZN19ConsumerProducerCPP16ProducerKeyborad3runEv:0000000000000010 .L0 
     /tmp/cclf04fV.s:769    .text._ZN19ConsumerProducerCPP16ProducerKeyborad3runEv:0000000000000010 .L0 
     /tmp/cclf04fV.s:771    .text._ZN19ConsumerProducerCPP16ProducerKeyborad3runEv:0000000000000014 .L0 
     /tmp/cclf04fV.s:774    .text._ZN19ConsumerProducerCPP16ProducerKeyborad3runEv:0000000000000018 .L0 
     /tmp/cclf04fV.s:777    .text._ZN19ConsumerProducerCPP16ProducerKeyborad3runEv:0000000000000018 .L0 
     /tmp/cclf04fV.s:778    .text._ZN19ConsumerProducerCPP16ProducerKeyborad3runEv:0000000000000018 .L0 
     /tmp/cclf04fV.s:779    .text._ZN19ConsumerProducerCPP16ProducerKeyborad3runEv:0000000000000018 .L0 
     /tmp/cclf04fV.s:780    .text._ZN19ConsumerProducerCPP16ProducerKeyborad3runEv:0000000000000018 .L0 
     /tmp/cclf04fV.s:783    .text._ZN19ConsumerProducerCPP16ProducerKeyborad3runEv:0000000000000020 .L0 
     /tmp/cclf04fV.s:786    .text._ZN19ConsumerProducerCPP16ProducerKeyborad3runEv:0000000000000024 .L0 
     /tmp/cclf04fV.s:789    .text._ZN19ConsumerProducerCPP16ProducerKeyborad3runEv:000000000000002c .L0 
     /tmp/cclf04fV.s:791    .text._ZN19ConsumerProducerCPP16ProducerKeyborad3runEv:0000000000000030 .L0 
     /tmp/cclf04fV.s:795    .text._ZN19ConsumerProducerCPP16ProducerKeyborad3runEv:000000000000003c .L0 
     /tmp/cclf04fV.s:796    .text._ZN19ConsumerProducerCPP16ProducerKeyborad3runEv:000000000000003c .L0 
     /tmp/cclf04fV.s:800    .text._ZN19ConsumerProducerCPP16ProducerKeyborad3runEv:0000000000000040 .L0 
     /tmp/cclf04fV.s:801    .text._ZN19ConsumerProducerCPP16ProducerKeyborad3runEv:0000000000000040 .L0 
     /tmp/cclf04fV.s:804    .text._ZN19ConsumerProducerCPP16ProducerKeyborad3runEv:000000000000004c .L0 
     /tmp/cclf04fV.s:806    .text._ZN19ConsumerProducerCPP16ProducerKeyborad3runEv:0000000000000050 .L0 
     /tmp/cclf04fV.s:813    .text._ZN19ConsumerProducerCPP16ProducerKeyborad3runEv:0000000000000060 .L0 
     /tmp/cclf04fV.s:815    .text._ZN19ConsumerProducerCPP16ProducerKeyborad3runEv:0000000000000064 .L0 
     /tmp/cclf04fV.s:819    .text._ZN19ConsumerProducerCPP16ProducerKeyborad3runEv:0000000000000070 .L0 
     /tmp/cclf04fV.s:820    .text._ZN19ConsumerProducerCPP16ProducerKeyborad3runEv:0000000000000074 .L0 
     /tmp/cclf04fV.s:822    .text._ZN19ConsumerProducerCPP16ProducerKeyborad3runEv:0000000000000078 .L0 
GAS LISTING /tmp/cclf04fV.s 			page 60


     /tmp/cclf04fV.s:823    .text._ZN19ConsumerProducerCPP16ProducerKeyborad3runEv:0000000000000078 .L0 
     /tmp/cclf04fV.s:825    .text._ZN19ConsumerProducerCPP16ProducerKeyborad3runEv:000000000000007c .L0 
     /tmp/cclf04fV.s:828    .text._ZN19ConsumerProducerCPP16ProducerKeyborad3runEv:0000000000000080 .L0 
     /tmp/cclf04fV.s:830    .text._ZN19ConsumerProducerCPP16ProducerKeyborad3runEv:0000000000000084 .L0 
     /tmp/cclf04fV.s:837    .text._ZN19ConsumerProducerCPP8Producer3runEv:0000000000000000 _ZN19ConsumerProducerCPP8Producer3runEv
     /tmp/cclf04fV.s:840    .text._ZN19ConsumerProducerCPP8Producer3runEv:0000000000000000 .L0 
     /tmp/cclf04fV.s:842    .text._ZN19ConsumerProducerCPP8Producer3runEv:0000000000000000 .L0 
     /tmp/cclf04fV.s:843    .text._ZN19ConsumerProducerCPP8Producer3runEv:0000000000000004 .L0 
     /tmp/cclf04fV.s:848    .text._ZN19ConsumerProducerCPP8Producer3runEv:0000000000000014 .L0 
     /tmp/cclf04fV.s:849    .text._ZN19ConsumerProducerCPP8Producer3runEv:0000000000000014 .L0 
     /tmp/cclf04fV.s:850    .text._ZN19ConsumerProducerCPP8Producer3runEv:0000000000000014 .L0 
     /tmp/cclf04fV.s:851    .text._ZN19ConsumerProducerCPP8Producer3runEv:0000000000000014 .L0 
     /tmp/cclf04fV.s:853    .text._ZN19ConsumerProducerCPP8Producer3runEv:0000000000000018 .L0 
     /tmp/cclf04fV.s:857    .text._ZN19ConsumerProducerCPP8Producer3runEv:000000000000001c .L0 
     /tmp/cclf04fV.s:858    .text._ZN19ConsumerProducerCPP8Producer3runEv:000000000000001c .L0 
     /tmp/cclf04fV.s:862    .text._ZN19ConsumerProducerCPP8Producer3runEv:0000000000000020 .L0 
     /tmp/cclf04fV.s:863    .text._ZN19ConsumerProducerCPP8Producer3runEv:0000000000000020 .L0 
     /tmp/cclf04fV.s:866    .text._ZN19ConsumerProducerCPP8Producer3runEv:000000000000002c .L0 
     /tmp/cclf04fV.s:868    .text._ZN19ConsumerProducerCPP8Producer3runEv:0000000000000030 .L0 
     /tmp/cclf04fV.s:870    .text._ZN19ConsumerProducerCPP8Producer3runEv:0000000000000034 .L0 
     /tmp/cclf04fV.s:875    .text._ZN19ConsumerProducerCPP8Producer3runEv:0000000000000044 .L0 
     /tmp/cclf04fV.s:876    .text._ZN19ConsumerProducerCPP8Producer3runEv:0000000000000044 .L0 
     /tmp/cclf04fV.s:880    .text._ZN19ConsumerProducerCPP8Producer3runEv:000000000000004c .L0 
     /tmp/cclf04fV.s:881    .text._ZN19ConsumerProducerCPP8Producer3runEv:000000000000004c .L0 
     /tmp/cclf04fV.s:883    .text._ZN19ConsumerProducerCPP8Producer3runEv:0000000000000050 .L0 
     /tmp/cclf04fV.s:885    .text._ZN19ConsumerProducerCPP8Producer3runEv:0000000000000054 .L0 
     /tmp/cclf04fV.s:887    .text._ZN19ConsumerProducerCPP8Producer3runEv:0000000000000058 .L0 
     /tmp/cclf04fV.s:892    .text._ZN19ConsumerProducerCPP8Producer3runEv:0000000000000068 .L0 
     /tmp/cclf04fV.s:895    .text._ZN19ConsumerProducerCPP8Producer3runEv:000000000000006c .L0 
     /tmp/cclf04fV.s:897    .text._ZN19ConsumerProducerCPP8Producer3runEv:0000000000000070 .L0 
     /tmp/cclf04fV.s:901    .text._ZN19ConsumerProducerCPP8Producer3runEv:000000000000007c .L0 
     /tmp/cclf04fV.s:902    .text._ZN19ConsumerProducerCPP8Producer3runEv:0000000000000080 .L0 
     /tmp/cclf04fV.s:904    .text._ZN19ConsumerProducerCPP8Producer3runEv:0000000000000084 .L0 
     /tmp/cclf04fV.s:905    .text._ZN19ConsumerProducerCPP8Producer3runEv:0000000000000084 .L0 
     /tmp/cclf04fV.s:907    .text._ZN19ConsumerProducerCPP8Producer3runEv:0000000000000088 .L0 
     /tmp/cclf04fV.s:910    .text._ZN19ConsumerProducerCPP8Producer3runEv:000000000000008c .L0 
     /tmp/cclf04fV.s:913    .text._ZN19ConsumerProducerCPP8Producer3runEv:0000000000000090 .L0 
     /tmp/cclf04fV.s:915    .text._ZN19ConsumerProducerCPP8Producer3runEv:0000000000000094 .L0 
     /tmp/cclf04fV.s:922    .text:0000000000000244 _Z9fibonaccim
     /tmp/cclf04fV.s:925    .text:0000000000000244 .L0 
     /tmp/cclf04fV.s:927    .text:0000000000000244 .L0 
     /tmp/cclf04fV.s:928    .text:0000000000000248 .L0 
     /tmp/cclf04fV.s:933    .text:0000000000000258 .L0 
     /tmp/cclf04fV.s:934    .text:0000000000000258 .L0 
     /tmp/cclf04fV.s:935    .text:0000000000000258 .L0 
     /tmp/cclf04fV.s:936    .text:0000000000000258 .L0 
     /tmp/cclf04fV.s:938    .text:000000000000025c .L0 
     /tmp/cclf04fV.s:941    .text:0000000000000260 .L0 
     /tmp/cclf04fV.s:944    .text:0000000000000268 .L0 
     /tmp/cclf04fV.s:945    .text:0000000000000268 .L0 
     /tmp/cclf04fV.s:948    .text:0000000000000270 .L0 
     /tmp/cclf04fV.s:952    .text:0000000000000274 .L0 
     /tmp/cclf04fV.s:953    .text:0000000000000274 .L0 
     /tmp/cclf04fV.s:958    .text:0000000000000284 .L0 
     /tmp/cclf04fV.s:962    .text:0000000000000290 .L0 
     /tmp/cclf04fV.s:965    .text:0000000000000294 .L0 
     /tmp/cclf04fV.s:966    .text:0000000000000298 .L0 
GAS LISTING /tmp/cclf04fV.s 			page 61


     /tmp/cclf04fV.s:967    .text:0000000000000298 .L0 
     /tmp/cclf04fV.s:969    .text:000000000000029c .L0 
     /tmp/cclf04fV.s:970    .text:000000000000029c .L0 
     /tmp/cclf04fV.s:972    .text:00000000000002a0 .L0 
     /tmp/cclf04fV.s:975    .text:00000000000002a4 .L0 
     /tmp/cclf04fV.s:977    .text:00000000000002a8 .L0 
     /tmp/cclf04fV.s:981    .text:00000000000002ac .L0 
     /tmp/cclf04fV.s:983    .text:00000000000002ac .L0 
     /tmp/cclf04fV.s:984    .text:00000000000002ac .L0 
     /tmp/cclf04fV.s:987    .text:00000000000002b8 .L0 
     /tmp/cclf04fV.s:1010   .text:00000000000002b8 _Z11workerBodyCPv
     /tmp/cclf04fV.s:1013   .text:00000000000002b8 .L0 
     /tmp/cclf04fV.s:1015   .text:00000000000002b8 .L0 
     /tmp/cclf04fV.s:1016   .text:00000000000002bc .L0 
     /tmp/cclf04fV.s:1021   .text:00000000000002cc .L0 
     /tmp/cclf04fV.s:1022   .text:00000000000002cc .L0 
     /tmp/cclf04fV.s:1023   .text:00000000000002cc .L0 
     /tmp/cclf04fV.s:1024   .text:00000000000002cc .L0 
     /tmp/cclf04fV.s:1026   .text:00000000000002d0 .L0 
     /tmp/cclf04fV.s:1029   .text:00000000000002d0 .L0 
     /tmp/cclf04fV.s:1030   .text:00000000000002d0 .L0 
     /tmp/cclf04fV.s:1035   .text:00000000000002d8 .L0 
     /tmp/cclf04fV.s:1036   .text:00000000000002d8 .L0 
     /tmp/cclf04fV.s:1040   .text:00000000000002e8 .L0 
     /tmp/cclf04fV.s:1041   .text:00000000000002e8 .L0 
     /tmp/cclf04fV.s:1047   .text:00000000000002fc .L0 
     /tmp/cclf04fV.s:1048   .text:00000000000002fc .L0 
     /tmp/cclf04fV.s:1052   .text:000000000000030c .L0 
     /tmp/cclf04fV.s:1058   .text:0000000000000314 .L0 
     /tmp/cclf04fV.s:1059   .text:0000000000000314 .L0 
     /tmp/cclf04fV.s:1062   .text:000000000000031c .L0 
     /tmp/cclf04fV.s:1063   .text:000000000000031c .L0 
     /tmp/cclf04fV.s:1067   .text:000000000000032c .L0 
test/../test/Threads_C_API_test.hpp:51     .text:000000000000032c .L0 
     /tmp/cclf04fV.s:1073   .text:0000000000000330 .L0 
     /tmp/cclf04fV.s:1075   .text:0000000000000330 .L0 
     /tmp/cclf04fV.s:1078   .text:0000000000000338 .L0 
     /tmp/cclf04fV.s:1079   .text:0000000000000338 .L0 
test/../test/Threads_C_API_test.hpp:55     .text:0000000000000338 .L0 
     /tmp/cclf04fV.s:1086   .text:000000000000033c .L0 
     /tmp/cclf04fV.s:1088   .text:000000000000033c .L0 
     /tmp/cclf04fV.s:1092   .text:000000000000034c .L0 
     /tmp/cclf04fV.s:1093   .text:000000000000034c .L0 
     /tmp/cclf04fV.s:1099   .text:0000000000000360 .L0 
     /tmp/cclf04fV.s:1100   .text:0000000000000360 .L0 
     /tmp/cclf04fV.s:1104   .text:0000000000000370 .L0 
     /tmp/cclf04fV.s:1105   .text:0000000000000370 .L0 
     /tmp/cclf04fV.s:1111   .text:0000000000000380 .L0 
     /tmp/cclf04fV.s:1112   .text:0000000000000380 .L0 
     /tmp/cclf04fV.s:1117   .text:0000000000000390 .L0 
     /tmp/cclf04fV.s:1118   .text:0000000000000390 .L0 
     /tmp/cclf04fV.s:1124   .text:00000000000003a4 .L0 
     /tmp/cclf04fV.s:1125   .text:00000000000003a4 .L0 
     /tmp/cclf04fV.s:1131   .text:00000000000003b8 .L0 
     /tmp/cclf04fV.s:1132   .text:00000000000003b8 .L0 
     /tmp/cclf04fV.s:1136   .text:00000000000003c8 .L0 
     /tmp/cclf04fV.s:1137   .text:00000000000003c8 .L0 
GAS LISTING /tmp/cclf04fV.s 			page 62


     /tmp/cclf04fV.s:1143   .text:00000000000003dc .L0 
     /tmp/cclf04fV.s:1144   .text:00000000000003dc .L0 
     /tmp/cclf04fV.s:1148   .text:00000000000003ec .L0 
     /tmp/cclf04fV.s:1154   .text:00000000000003f4 .L0 
     /tmp/cclf04fV.s:1155   .text:00000000000003f4 .L0 
     /tmp/cclf04fV.s:1158   .text:00000000000003fc .L0 
     /tmp/cclf04fV.s:1159   .text:00000000000003fc .L0 
     /tmp/cclf04fV.s:1163   .text:000000000000040c .L0 
     /tmp/cclf04fV.s:1164   .text:000000000000040c .L0 
     /tmp/cclf04fV.s:1167   .text:0000000000000418 .L0 
     /tmp/cclf04fV.s:1168   .text:0000000000000418 .L0 
     /tmp/cclf04fV.s:1171   .text:0000000000000420 .L0 
     /tmp/cclf04fV.s:1172   .text:0000000000000424 .L0 
     /tmp/cclf04fV.s:1174   .text:0000000000000428 .L0 
     /tmp/cclf04fV.s:1175   .text:0000000000000428 .L0 
     /tmp/cclf04fV.s:1177   .text:000000000000042c .L0 
     /tmp/cclf04fV.s:1180   .text:0000000000000430 .L0 
     /tmp/cclf04fV.s:1183   .text:0000000000000434 .L0 
     /tmp/cclf04fV.s:1185   .text:0000000000000438 .L0 
     /tmp/cclf04fV.s:1205   .text:0000000000000438 _Z11workerBodyDPv
     /tmp/cclf04fV.s:1208   .text:0000000000000438 .L0 
     /tmp/cclf04fV.s:1210   .text:0000000000000438 .L0 
     /tmp/cclf04fV.s:1211   .text:000000000000043c .L0 
     /tmp/cclf04fV.s:1216   .text:000000000000044c .L0 
     /tmp/cclf04fV.s:1217   .text:000000000000044c .L0 
     /tmp/cclf04fV.s:1218   .text:000000000000044c .L0 
     /tmp/cclf04fV.s:1219   .text:000000000000044c .L0 
     /tmp/cclf04fV.s:1221   .text:0000000000000450 .L0 
     /tmp/cclf04fV.s:1224   .text:0000000000000450 .L0 
     /tmp/cclf04fV.s:1225   .text:0000000000000450 .L0 
     /tmp/cclf04fV.s:1230   .text:0000000000000458 .L0 
     /tmp/cclf04fV.s:1231   .text:0000000000000458 .L0 
     /tmp/cclf04fV.s:1235   .text:0000000000000468 .L0 
     /tmp/cclf04fV.s:1236   .text:0000000000000468 .L0 
     /tmp/cclf04fV.s:1242   .text:000000000000047c .L0 
     /tmp/cclf04fV.s:1243   .text:000000000000047c .L0 
     /tmp/cclf04fV.s:1247   .text:000000000000048c .L0 
     /tmp/cclf04fV.s:1253   .text:0000000000000494 .L0 
     /tmp/cclf04fV.s:1254   .text:0000000000000494 .L0 
     /tmp/cclf04fV.s:1257   .text:000000000000049c .L0 
     /tmp/cclf04fV.s:1258   .text:000000000000049c .L0 
     /tmp/cclf04fV.s:1262   .text:00000000000004ac .L0 
test/../test/Threads_C_API_test.hpp:78     .text:00000000000004ac .L0 
     /tmp/cclf04fV.s:1268   .text:00000000000004b0 .L0 
     /tmp/cclf04fV.s:1270   .text:00000000000004b0 .L0 
     /tmp/cclf04fV.s:1273   .text:00000000000004b8 .L0 
     /tmp/cclf04fV.s:1274   .text:00000000000004b8 .L0 
     /tmp/cclf04fV.s:1280   .text:00000000000004c8 .L0 
     /tmp/cclf04fV.s:1281   .text:00000000000004c8 .L0 
     /tmp/cclf04fV.s:1286   .text:00000000000004d8 .L0 
     /tmp/cclf04fV.s:1287   .text:00000000000004d8 .L0 
     /tmp/cclf04fV.s:1293   .text:00000000000004ec .L0 
     /tmp/cclf04fV.s:1294   .text:00000000000004ec .L0 
     /tmp/cclf04fV.s:1300   .text:0000000000000500 .L0 
     /tmp/cclf04fV.s:1301   .text:0000000000000500 .L0 
     /tmp/cclf04fV.s:1305   .text:0000000000000510 .L0 
     /tmp/cclf04fV.s:1306   .text:0000000000000510 .L0 
GAS LISTING /tmp/cclf04fV.s 			page 63


     /tmp/cclf04fV.s:1312   .text:0000000000000524 .L0 
     /tmp/cclf04fV.s:1313   .text:0000000000000524 .L0 
     /tmp/cclf04fV.s:1317   .text:0000000000000534 .L0 
     /tmp/cclf04fV.s:1323   .text:000000000000053c .L0 
     /tmp/cclf04fV.s:1324   .text:000000000000053c .L0 
     /tmp/cclf04fV.s:1327   .text:0000000000000544 .L0 
     /tmp/cclf04fV.s:1328   .text:0000000000000544 .L0 
     /tmp/cclf04fV.s:1332   .text:0000000000000554 .L0 
     /tmp/cclf04fV.s:1333   .text:0000000000000554 .L0 
     /tmp/cclf04fV.s:1336   .text:0000000000000560 .L0 
     /tmp/cclf04fV.s:1337   .text:0000000000000560 .L0 
     /tmp/cclf04fV.s:1340   .text:0000000000000568 .L0 
     /tmp/cclf04fV.s:1341   .text:000000000000056c .L0 
     /tmp/cclf04fV.s:1343   .text:0000000000000570 .L0 
     /tmp/cclf04fV.s:1344   .text:0000000000000570 .L0 
     /tmp/cclf04fV.s:1346   .text:0000000000000574 .L0 
     /tmp/cclf04fV.s:1349   .text:0000000000000578 .L0 
     /tmp/cclf04fV.s:1352   .text:000000000000057c .L0 
     /tmp/cclf04fV.s:1354   .text:0000000000000580 .L0 
     /tmp/cclf04fV.s:1374   .text:0000000000000580 _Z18Threads_C_API_testv
     /tmp/cclf04fV.s:1377   .text:0000000000000580 .L0 
     /tmp/cclf04fV.s:1378   .text:0000000000000580 .L0 
     /tmp/cclf04fV.s:1379   .text:0000000000000584 .L0 
     /tmp/cclf04fV.s:1382   .text:000000000000058c .L0 
     /tmp/cclf04fV.s:1383   .text:000000000000058c .L0 
     /tmp/cclf04fV.s:1385   .text:0000000000000590 .L0 
     /tmp/cclf04fV.s:1387   .text:0000000000000590 .L0 
     /tmp/cclf04fV.s:1388   .text:0000000000000590 .L0 
     /tmp/cclf04fV.s:1389   .text:0000000000000590 .L0 
     /tmp/cclf04fV.s:1395   .text:00000000000005a8 .L0 
     /tmp/cclf04fV.s:1396   .text:00000000000005a8 .L0 
     /tmp/cclf04fV.s:1400   .text:00000000000005b8 .L0 
     /tmp/cclf04fV.s:1401   .text:00000000000005b8 .L0 
     /tmp/cclf04fV.s:1407   .text:00000000000005d0 .L0 
     /tmp/cclf04fV.s:1408   .text:00000000000005d0 .L0 
     /tmp/cclf04fV.s:1412   .text:00000000000005e0 .L0 
     /tmp/cclf04fV.s:1413   .text:00000000000005e0 .L0 
     /tmp/cclf04fV.s:1419   .text:00000000000005f8 .L0 
     /tmp/cclf04fV.s:1420   .text:00000000000005f8 .L0 
     /tmp/cclf04fV.s:1424   .text:0000000000000608 .L0 
     /tmp/cclf04fV.s:1425   .text:0000000000000608 .L0 
     /tmp/cclf04fV.s:1431   .text:0000000000000620 .L0 
     /tmp/cclf04fV.s:1432   .text:0000000000000620 .L0 
     /tmp/cclf04fV.s:1438   .text:0000000000000634 .L0 
     /tmp/cclf04fV.s:1439   .text:0000000000000634 .L0 
     /tmp/cclf04fV.s:1443   .text:000000000000063c .L0 
     /tmp/cclf04fV.s:1444   .text:000000000000063c .L0 
     /tmp/cclf04fV.s:1447   .text:0000000000000648 .L0 
     /tmp/cclf04fV.s:1450   .text:0000000000000654 .L0 
     /tmp/cclf04fV.s:1453   .text:0000000000000660 .L0 
     /tmp/cclf04fV.s:1456   .text:000000000000066c .L0 
     /tmp/cclf04fV.s:1457   .text:0000000000000670 .L0 
     /tmp/cclf04fV.s:1459   .text:0000000000000674 .L0 
     /tmp/cclf04fV.s:1460   .text:0000000000000674 .L0 
     /tmp/cclf04fV.s:1462   .text:0000000000000678 .L0 
     /tmp/cclf04fV.s:1464   .text:000000000000067c .L0 
     /tmp/cclf04fV.s:1470   .text:000000000000067c _Z12testSleepingv
GAS LISTING /tmp/cclf04fV.s 			page 64


     /tmp/cclf04fV.s:1473   .text:000000000000067c .L0 
     /tmp/cclf04fV.s:1474   .text:000000000000067c .L0 
     /tmp/cclf04fV.s:1475   .text:0000000000000680 .L0 
     /tmp/cclf04fV.s:1479   .text:000000000000068c .L0 
     /tmp/cclf04fV.s:1480   .text:000000000000068c .L0 
     /tmp/cclf04fV.s:1481   .text:000000000000068c .L0 
     /tmp/cclf04fV.s:1483   .text:0000000000000690 .L0 
     /tmp/cclf04fV.s:1486   .text:0000000000000690 .L0 
     /tmp/cclf04fV.s:1487   .text:0000000000000690 .L0 
     /tmp/cclf04fV.s:1488   .text:0000000000000690 .L0 
     /tmp/cclf04fV.s:1493   .text:00000000000006a0 .L0 
     /tmp/cclf04fV.s:1496   .text:00000000000006a0 .L0 
     /tmp/cclf04fV.s:1497   .text:00000000000006a0 .L0 
     /tmp/cclf04fV.s:1502   .text:00000000000006a8 .L0 
     /tmp/cclf04fV.s:1503   .text:00000000000006a8 .L0 
     /tmp/cclf04fV.s:1505   .text:00000000000006ac .L0 
     /tmp/cclf04fV.s:1513   .text:00000000000006cc .L0 
     /tmp/cclf04fV.s:1517   .text:00000000000006d0 .L0 
     /tmp/cclf04fV.s:1522   .text:00000000000006d8 .L0 
     /tmp/cclf04fV.s:1523   .text:00000000000006d8 .L0 
     /tmp/cclf04fV.s:1524   .text:00000000000006d8 .L0 
     /tmp/cclf04fV.s:1526   .text:00000000000006e0 .L0 
     /tmp/cclf04fV.s:1528   .text:00000000000006e4 .L0 
     /tmp/cclf04fV.s:1530   .text:00000000000006ec .L0 
     /tmp/cclf04fV.s:1532   .text:00000000000006f0 .L0 
     /tmp/cclf04fV.s:1533   .text:00000000000006f4 .L0 
     /tmp/cclf04fV.s:1535   .text:00000000000006f8 .L0 
     /tmp/cclf04fV.s:1536   .text:00000000000006f8 .L0 
     /tmp/cclf04fV.s:1538   .text:00000000000006fc .L0 
     /tmp/cclf04fV.s:1541   .text:0000000000000700 .L0 
     /tmp/cclf04fV.s:1543   .text:0000000000000704 .L0 
     /tmp/cclf04fV.s:1572   .text:0000000000000704 _ZN19ConsumerProducerCPP20testConsumerProducerEv
     /tmp/cclf04fV.s:1575   .text:0000000000000704 .L0 
     /tmp/cclf04fV.s:7602   .data.rel.local.DW.ref.__gxx_personality_v0:0000000000000000 DW.ref.__gxx_personality_v0
     /tmp/cclf04fV.s:1578   .text:0000000000000704 .L0 
     /tmp/cclf04fV.s:1579   .text:0000000000000708 .L0 
     /tmp/cclf04fV.s:1591   .text:0000000000000734 .L0 
     /tmp/cclf04fV.s:1592   .text:0000000000000734 .L0 
     /tmp/cclf04fV.s:1593   .text:0000000000000734 .L0 
     /tmp/cclf04fV.s:1594   .text:0000000000000734 .L0 
     /tmp/cclf04fV.s:1595   .text:0000000000000734 .L0 
     /tmp/cclf04fV.s:1596   .text:0000000000000734 .L0 
     /tmp/cclf04fV.s:1597   .text:0000000000000734 .L0 
     /tmp/cclf04fV.s:1598   .text:0000000000000734 .L0 
     /tmp/cclf04fV.s:1599   .text:0000000000000734 .L0 
     /tmp/cclf04fV.s:1600   .text:0000000000000734 .L0 
     /tmp/cclf04fV.s:1601   .text:0000000000000734 .L0 
     /tmp/cclf04fV.s:1603   .text:0000000000000738 .L0 
     /tmp/cclf04fV.s:1605   .text:0000000000000738 .L0 
     /tmp/cclf04fV.s:1607   .text:000000000000073c .L0 
     /tmp/cclf04fV.s:1608   .text:000000000000073c .L0 
     /tmp/cclf04fV.s:1609   .text:000000000000073c .L0 
     /tmp/cclf04fV.s:1610   .text:000000000000073c .L0 
     /tmp/cclf04fV.s:1615   .text:000000000000074c .L0 
     /tmp/cclf04fV.s:1616   .text:000000000000074c .L0 
     /tmp/cclf04fV.s:1622   .text:0000000000000760 .L0 
     /tmp/cclf04fV.s:1623   .text:0000000000000760 .L0 
GAS LISTING /tmp/cclf04fV.s 			page 65


     /tmp/cclf04fV.s:1629   .text:0000000000000770 .L0 
     /tmp/cclf04fV.s:1630   .text:0000000000000770 .L0 
     /tmp/cclf04fV.s:1634   .text:0000000000000780 .L0 
     /tmp/cclf04fV.s:1635   .text:0000000000000780 .L0 
     /tmp/cclf04fV.s:1640   .text:0000000000000790 .L0 
     /tmp/cclf04fV.s:1641   .text:0000000000000790 .L0 
     /tmp/cclf04fV.s:1647   .text:00000000000007a0 .L0 
     /tmp/cclf04fV.s:1648   .text:00000000000007a0 .L0 
     /tmp/cclf04fV.s:1652   .text:00000000000007b0 .L0 
     /tmp/cclf04fV.s:1653   .text:00000000000007b0 .L0 
     /tmp/cclf04fV.s:1659   .text:00000000000007c4 .L0 
     /tmp/cclf04fV.s:1660   .text:00000000000007c4 .L0 
     /tmp/cclf04fV.s:1664   .text:00000000000007d4 .L0 
     /tmp/cclf04fV.s:1665   .text:00000000000007d4 .L0 
     /tmp/cclf04fV.s:1671   .text:00000000000007e8 .L0 
     /tmp/cclf04fV.s:1672   .text:00000000000007e8 .L0 
     /tmp/cclf04fV.s:1676   .text:00000000000007f8 .L0 
     /tmp/cclf04fV.s:1678   .text:00000000000007fc .L0 
     /tmp/cclf04fV.s:1680   .text:0000000000000800 .L0 
     /tmp/cclf04fV.s:1681   .text:0000000000000800 .L0 
     /tmp/cclf04fV.s:1694   .text:0000000000000820 .L0 
     /tmp/cclf04fV.s:1695   .text:0000000000000820 .L0 
     /tmp/cclf04fV.s:1700   .text:0000000000000830 .L0 
     /tmp/cclf04fV.s:1703   .text:0000000000000834 .L0 
     /tmp/cclf04fV.s:1704   .text:0000000000000834 .L0 
     /tmp/cclf04fV.s:1709   .text:0000000000000844 .L0 
     /tmp/cclf04fV.s:1714   .text:000000000000084c .L0 
     /tmp/cclf04fV.s:1715   .text:000000000000084c .L0 
     /tmp/cclf04fV.s:1727   .text:0000000000000868 .L0 
     /tmp/cclf04fV.s:1731   .text:0000000000000874 .L0 
     /tmp/cclf04fV.s:1732   .text:0000000000000874 .L0 
     /tmp/cclf04fV.s:1739   .text:0000000000000888 .L0 
     /tmp/cclf04fV.s:1740   .text:0000000000000888 .L0 
     /tmp/cclf04fV.s:1743   .text:000000000000088c .L0 
     /tmp/cclf04fV.s:1753   .text:00000000000008a8 .L0 
     /tmp/cclf04fV.s:1754   .text:00000000000008a8 .L0 
     /tmp/cclf04fV.s:1760   .text:00000000000008bc .L0 
     /tmp/cclf04fV.s:1761   .text:00000000000008bc .L0 
     /tmp/cclf04fV.s:1763   .text:00000000000008c0 .L0 
     /tmp/cclf04fV.s:1764   .text:00000000000008c0 .L0 
     /tmp/cclf04fV.s:1767   .text:00000000000008c8 .L0 
     /tmp/cclf04fV.s:1768   .text:00000000000008c8 .L0 
     /tmp/cclf04fV.s:1779   .text:00000000000008d8 .L0 
     /tmp/cclf04fV.s:1783   .text:00000000000008e0 .L0 
     /tmp/cclf04fV.s:1790   .text:00000000000008f0 .L0 
     /tmp/cclf04fV.s:1791   .text:00000000000008f0 .L0 
     /tmp/cclf04fV.s:1796   .text:00000000000008fc .L0 
     /tmp/cclf04fV.s:1797   .text:00000000000008fc .L0 
     /tmp/cclf04fV.s:1799   .text:0000000000000900 .L0 
     /tmp/cclf04fV.s:1800   .text:0000000000000900 .L0 
     /tmp/cclf04fV.s:1802   .text:0000000000000904 .L0 
     /tmp/cclf04fV.s:1803   .text:0000000000000904 .L0 
     /tmp/cclf04fV.s:1806   .text:0000000000000910 .L0 
     /tmp/cclf04fV.s:1807   .text:0000000000000910 .L0 
     /tmp/cclf04fV.s:1817   .text:0000000000000920 .L0 
     /tmp/cclf04fV.s:1827   .text:0000000000000938 .L0 
     /tmp/cclf04fV.s:1829   .text:000000000000093c .L0 
GAS LISTING /tmp/cclf04fV.s 			page 66


     /tmp/cclf04fV.s:1830   .text:000000000000093c .L0 
     /tmp/cclf04fV.s:1836   .text:0000000000000948 .L0 
     /tmp/cclf04fV.s:1843   .text:0000000000000950 .L0 
     /tmp/cclf04fV.s:1850   .text:0000000000000960 .L0 
     /tmp/cclf04fV.s:1854   .text:000000000000096c .L0 
     /tmp/cclf04fV.s:1855   .text:000000000000096c .L0 
     /tmp/cclf04fV.s:1859   .text:0000000000000978 .L0 
     /tmp/cclf04fV.s:1863   .text:000000000000097c .L0 
     /tmp/cclf04fV.s:1865   .text:0000000000000980 .L0 
     /tmp/cclf04fV.s:1866   .text:0000000000000980 .L0 
     /tmp/cclf04fV.s:1872   .text:0000000000000994 .L0 
     /tmp/cclf04fV.s:1873   .text:0000000000000994 .L0 
     /tmp/cclf04fV.s:1875   .text:0000000000000998 .L0 
     /tmp/cclf04fV.s:1876   .text:0000000000000998 .L0 
     /tmp/cclf04fV.s:1879   .text:00000000000009a4 .L0 
     /tmp/cclf04fV.s:1880   .text:00000000000009a4 .L0 
     /tmp/cclf04fV.s:1890   .text:00000000000009b4 .L0 
     /tmp/cclf04fV.s:1901   .text:00000000000009c0 .L0 
     /tmp/cclf04fV.s:1902   .text:00000000000009c0 .L0 
     /tmp/cclf04fV.s:1906   .text:00000000000009c8 .L0 
     /tmp/cclf04fV.s:1910   .text:00000000000009cc .L0 
     /tmp/cclf04fV.s:1912   .text:00000000000009d0 .L0 
     /tmp/cclf04fV.s:1913   .text:00000000000009d0 .L0 
     /tmp/cclf04fV.s:1917   .text:00000000000009e0 .L0 
     /tmp/cclf04fV.s:1924   .text:00000000000009e8 .L0 
     /tmp/cclf04fV.s:1925   .text:00000000000009e8 .L0 
     /tmp/cclf04fV.s:1927   .text:00000000000009f0 .L0 
     /tmp/cclf04fV.s:1929   .text:00000000000009f4 .L0 
     /tmp/cclf04fV.s:1936   .text:0000000000000a00 .L0 
     /tmp/cclf04fV.s:1944   .text:0000000000000a08 .L0 
     /tmp/cclf04fV.s:1948   .text:0000000000000a0c .L0 
     /tmp/cclf04fV.s:1950   .text:0000000000000a10 .L0 
     /tmp/cclf04fV.s:1951   .text:0000000000000a10 .L0 
     /tmp/cclf04fV.s:1955   .text:0000000000000a1c .L0 
     /tmp/cclf04fV.s:1957   .text:0000000000000a20 .L0 
     /tmp/cclf04fV.s:1965   .text:0000000000000a30 .L0 
     /tmp/cclf04fV.s:1966   .text:0000000000000a30 .L0 
     /tmp/cclf04fV.s:1968   .text:0000000000000a34 .L0 
     /tmp/cclf04fV.s:1975   .text:0000000000000a44 .L0 
     /tmp/cclf04fV.s:1976   .text:0000000000000a44 .L0 
     /tmp/cclf04fV.s:1978   .text:0000000000000a48 .L0 
     /tmp/cclf04fV.s:1990   .text:0000000000000a64 .L0 
     /tmp/cclf04fV.s:1991   .text:0000000000000a68 .L0 
     /tmp/cclf04fV.s:1992   .text:0000000000000a68 .L0 
     /tmp/cclf04fV.s:1994   .text:0000000000000a6c .L0 
     /tmp/cclf04fV.s:1996   .text:0000000000000a70 .L0 
     /tmp/cclf04fV.s:1998   .text:0000000000000a74 .L0 
     /tmp/cclf04fV.s:2000   .text:0000000000000a78 .L0 
     /tmp/cclf04fV.s:2002   .text:0000000000000a7c .L0 
     /tmp/cclf04fV.s:2005   .text:0000000000000a80 .L0 
     /tmp/cclf04fV.s:2007   .text:0000000000000a84 .L0 
     /tmp/cclf04fV.s:2009   .text:0000000000000a88 .L0 
     /tmp/cclf04fV.s:2011   .text:0000000000000a8c .L0 
     /tmp/cclf04fV.s:2013   .text:0000000000000a90 .L0 
     /tmp/cclf04fV.s:2015   .text:0000000000000a94 .L0 
     /tmp/cclf04fV.s:2017   .text:0000000000000a98 .L0 
     /tmp/cclf04fV.s:2021   .text:0000000000000a9c .L0 
GAS LISTING /tmp/cclf04fV.s 			page 67


     /tmp/cclf04fV.s:2025   .text:0000000000000aa0 .L0 
     /tmp/cclf04fV.s:2036   .text:0000000000000abc .L0 
     /tmp/cclf04fV.s:2048   .text:0000000000000ad8 .L0 
     /tmp/cclf04fV.s:2059   .text:0000000000000af4 .L0 
     /tmp/cclf04fV.s:2072   .text:0000000000000b10 .L0 
     /tmp/cclf04fV.s:2081   .text:0000000000000b28 .L0 
     /tmp/cclf04fV.s:2159   .text:0000000000000b28 _Z8userMainv
     /tmp/cclf04fV.s:2163   .text:0000000000000b28 .L0 
     /tmp/cclf04fV.s:2164   .text:0000000000000b28 .L0 
     /tmp/cclf04fV.s:2165   .text:0000000000000b2c .L0 
     /tmp/cclf04fV.s:2168   .text:0000000000000b34 .L0 
     /tmp/cclf04fV.s:2169   .text:0000000000000b34 .L0 
     /tmp/cclf04fV.s:2171   .text:0000000000000b38 .L0 
     /tmp/cclf04fV.s:2173   .text:0000000000000b38 .L0 
     /tmp/cclf04fV.s:2174   .text:0000000000000b38 .L0 
     /tmp/cclf04fV.s:2177   .text:0000000000000b40 .L0 
     /tmp/cclf04fV.s:2178   .text:0000000000000b44 .L0 
     /tmp/cclf04fV.s:2180   .text:0000000000000b48 .L0 
     /tmp/cclf04fV.s:2181   .text:0000000000000b48 .L0 
     /tmp/cclf04fV.s:2183   .text:0000000000000b4c .L0 
     /tmp/cclf04fV.s:2185   .text:0000000000000b50 .L0 
     /tmp/cclf04fV.s:2247   .bss:000000000000000c _ZN19ConsumerProducerCPP9threadEndE
     /tmp/cclf04fV.s:2260   .bss:0000000000000018 _ZN19ConsumerProducerCPP10waitForAllE
     /tmp/cclf04fV.s:2242   .bss:0000000000000008 finished
     /tmp/cclf04fV.s:2255   .bss:0000000000000011 finishedD
     /tmp/cclf04fV.s:2251   .bss:0000000000000010 finishedC
     /tmp/cclf04fV.s:2237   .bss:0000000000000001 finishedB
     /tmp/cclf04fV.s:2233   .bss:0000000000000000 finishedA
     /tmp/cclf04fV.s:2230   .bss:0000000000000000 .LANCHOR0
     /tmp/cclf04fV.s:2269   .text:0000000000000b50 .L0 
     /tmp/cclf04fV.s:501    .text._ZN19ConsumerProducerCPP8Consumer3runEv:00000000000000d0 .L0 
     /tmp/cclf04fV.s:538    .text._ZN19ConsumerProducerCPP8ConsumerD2Ev:0000000000000034 .L0 
     /tmp/cclf04fV.s:585    .text._ZN19ConsumerProducerCPP8ConsumerD0Ev:000000000000004c .L0 
     /tmp/cclf04fV.s:622    .text._ZN19ConsumerProducerCPP16ProducerKeyboradD2Ev:0000000000000034 .L0 
     /tmp/cclf04fV.s:669    .text._ZN19ConsumerProducerCPP16ProducerKeyboradD0Ev:000000000000004c .L0 
     /tmp/cclf04fV.s:706    .text._ZN19ConsumerProducerCPP8ProducerD2Ev:0000000000000034 .L0 
     /tmp/cclf04fV.s:753    .text._ZN19ConsumerProducerCPP8ProducerD0Ev:000000000000004c .L0 
     /tmp/cclf04fV.s:833    .text._ZN19ConsumerProducerCPP16ProducerKeyborad3runEv:0000000000000084 .L0 
     /tmp/cclf04fV.s:918    .text._ZN19ConsumerProducerCPP8Producer3runEv:0000000000000094 .L0 
     /tmp/cclf04fV.s:8      .rodata.str1.8:0000000000000000 .LC0
     /tmp/cclf04fV.s:92     .text:000000000000005c .L0 
     /tmp/cclf04fV.s:11     .rodata.str1.8:0000000000000008 .LC1
     /tmp/cclf04fV.s:104    .text:0000000000000080 .L0 
     /tmp/cclf04fV.s:14     .rodata.str1.8:0000000000000010 .LC2
     /tmp/cclf04fV.s:119    .text:0000000000000098 .L0 
     /tmp/cclf04fV.s:125    .text:00000000000000ac .L0 
     /tmp/cclf04fV.s:145    .rodata.str1.8:0000000000000020 .LC3
     /tmp/cclf04fV.s:225    .text:0000000000000128 .L0 
     /tmp/cclf04fV.s:237    .text:000000000000014c .L0 
     /tmp/cclf04fV.s:148    .rodata.str1.8:0000000000000028 .LC4
     /tmp/cclf04fV.s:252    .text:0000000000000164 .L0 
     /tmp/cclf04fV.s:258    .text:0000000000000178 .L0 
     /tmp/cclf04fV.s:282    .rodata.str1.8:0000000000000038 .LC5
     /tmp/cclf04fV.s:325    .text:00000000000001c8 .L0 
     /tmp/cclf04fV.s:285    .rodata.str1.8:0000000000000040 .LC6
     /tmp/cclf04fV.s:337    .text:00000000000001ec .L0 
     /tmp/cclf04fV.s:356    .text:0000000000000218 .L0 
GAS LISTING /tmp/cclf04fV.s 			page 68


     /tmp/cclf04fV.s:992    .rodata.str1.8:0000000000000048 .LC7
     /tmp/cclf04fV.s:1036   .text:00000000000002d8 .L0 
     /tmp/cclf04fV.s:1048   .text:00000000000002fc .L0 
     /tmp/cclf04fV.s:995    .rodata.str1.8:0000000000000050 .LC8
     /tmp/cclf04fV.s:1063   .text:000000000000031c .L0 
     /tmp/cclf04fV.s:998    .rodata.str1.8:0000000000000060 .LC9
     /tmp/cclf04fV.s:1088   .text:000000000000033c .L0 
     /tmp/cclf04fV.s:1100   .text:0000000000000360 .L0 
     /tmp/cclf04fV.s:1001   .rodata.str1.8:0000000000000068 .LC10
     /tmp/cclf04fV.s:1112   .text:0000000000000380 .L0 
     /tmp/cclf04fV.s:1125   .text:00000000000003a4 .L0 
     /tmp/cclf04fV.s:1132   .text:00000000000003b8 .L0 
     /tmp/cclf04fV.s:1144   .text:00000000000003dc .L0 
     /tmp/cclf04fV.s:1004   .rodata.str1.8:0000000000000078 .LC11
     /tmp/cclf04fV.s:1159   .text:00000000000003fc .L0 
     /tmp/cclf04fV.s:1165   .text:0000000000000410 .L0 
     /tmp/cclf04fV.s:1190   .rodata.str1.8:0000000000000088 .LC12
     /tmp/cclf04fV.s:1231   .text:0000000000000458 .L0 
     /tmp/cclf04fV.s:1243   .text:000000000000047c .L0 
     /tmp/cclf04fV.s:1193   .rodata.str1.8:0000000000000090 .LC13
     /tmp/cclf04fV.s:1258   .text:000000000000049c .L0 
     /tmp/cclf04fV.s:1196   .rodata.str1.8:00000000000000a0 .LC14
     /tmp/cclf04fV.s:1281   .text:00000000000004c8 .L0 
     /tmp/cclf04fV.s:1294   .text:00000000000004ec .L0 
     /tmp/cclf04fV.s:1301   .text:0000000000000500 .L0 
     /tmp/cclf04fV.s:1313   .text:0000000000000524 .L0 
     /tmp/cclf04fV.s:1199   .rodata.str1.8:00000000000000b0 .LC15
     /tmp/cclf04fV.s:1328   .text:0000000000000544 .L0 
     /tmp/cclf04fV.s:1334   .text:0000000000000558 .L0 
     /tmp/cclf04fV.s:1390   .text:0000000000000594 .L0 
     /tmp/cclf04fV.s:1359   .rodata.str1.8:00000000000000c0 .LC16
     /tmp/cclf04fV.s:1396   .text:00000000000005a8 .L0 
     /tmp/cclf04fV.s:1402   .text:00000000000005bc .L0 
     /tmp/cclf04fV.s:1362   .rodata.str1.8:00000000000000d8 .LC17
     /tmp/cclf04fV.s:1408   .text:00000000000005d0 .L0 
     /tmp/cclf04fV.s:1414   .text:00000000000005e4 .L0 
     /tmp/cclf04fV.s:1365   .rodata.str1.8:00000000000000f0 .LC18
     /tmp/cclf04fV.s:1420   .text:00000000000005f8 .L0 
     /tmp/cclf04fV.s:1426   .text:000000000000060c .L0 
     /tmp/cclf04fV.s:1368   .rodata.str1.8:0000000000000108 .LC19
     /tmp/cclf04fV.s:1432   .text:0000000000000620 .L0 
     /tmp/cclf04fV.s:1444   .text:000000000000063c .L0 
     /tmp/cclf04fV.s:1447   .text:0000000000000648 .L0 
     /tmp/cclf04fV.s:1450   .text:0000000000000654 .L0 
     /tmp/cclf04fV.s:1453   .text:0000000000000660 .L0 
     /tmp/cclf04fV.s:1507   .text:00000000000006b4 .L0 
     /tmp/cclf04fV.s:1524   .text:00000000000006d8 .L0 
     /tmp/cclf04fV.s:1528   .text:00000000000006e4 .L0 
     /tmp/cclf04fV.s:1548   .rodata.str1.8:0000000000000120 .LC20
     /tmp/cclf04fV.s:1610   .text:000000000000073c .L0 
     /tmp/cclf04fV.s:1551   .rodata.str1.8:0000000000000140 .LC21
     /tmp/cclf04fV.s:1630   .text:0000000000000770 .L0 
     /tmp/cclf04fV.s:1554   .rodata.str1.8:0000000000000160 .LC22
     /tmp/cclf04fV.s:1648   .text:00000000000007a0 .L0 
     /tmp/cclf04fV.s:1557   .rodata.str1.8:0000000000000178 .LC23
     /tmp/cclf04fV.s:1660   .text:00000000000007c4 .L0 
     /tmp/cclf04fV.s:1560   .rodata.str1.8:0000000000000190 .LC24
GAS LISTING /tmp/cclf04fV.s 			page 69


     /tmp/cclf04fV.s:1672   .text:00000000000007e8 .L0 
     /tmp/cclf04fV.s:1563   .rodata.str1.8:0000000000000198 .LC25
     /tmp/cclf04fV.s:1695   .text:0000000000000820 .L0 
     /tmp/cclf04fV.s:1566   .rodata.str1.8:00000000000001d8 .LC26
     /tmp/cclf04fV.s:1704   .text:0000000000000834 .L0 
     /tmp/cclf04fV.s:1727   .text:0000000000000868 .L0 
     /tmp/cclf04fV.s:1783   .text:00000000000008e0 .L0 
     /tmp/cclf04fV.s:1803   .text:0000000000000904 .L0 
     /tmp/cclf04fV.s:1820   .text:0000000000000928 .L0 
     /tmp/cclf04fV.s:1843   .text:0000000000000950 .L0 
     /tmp/cclf04fV.s:1876   .text:0000000000000998 .L0 
     /tmp/cclf04fV.s:1913   .text:00000000000009d0 .L0 
     /tmp/cclf04fV.s:1925   .text:00000000000009e8 .L0 
     /tmp/cclf04fV.s:85     .text:0000000000000054 .L7
     /tmp/cclf04fV.s:77     .text:0000000000000050 .L3
     /tmp/cclf04fV.s:45     .text:0000000000000020 .L4
     /tmp/cclf04fV.s:66     .text:000000000000003c .L5
     /tmp/cclf04fV.s:113    .text:0000000000000098 .L2
     /tmp/cclf04fV.s:57     .text:000000000000002c .L6
     /tmp/cclf04fV.s:218    .text:0000000000000120 .L15
     /tmp/cclf04fV.s:210    .text:000000000000011c .L11
     /tmp/cclf04fV.s:178    .text:00000000000000ec .L12
     /tmp/cclf04fV.s:199    .text:0000000000000108 .L13
     /tmp/cclf04fV.s:246    .text:0000000000000164 .L10
     /tmp/cclf04fV.s:190    .text:00000000000000f8 .L14
     /tmp/cclf04fV.s:347    .text:000000000000020c .L18
     /tmp/cclf04fV.s:317    .text:00000000000001c0 .L19
     /tmp/cclf04fV.s:963    .text:0000000000000294 .L49
     /tmp/cclf04fV.s:980    .text:00000000000002ac .L54
     /tmp/cclf04fV.s:950    .text:0000000000000274 .L51
     /tmp/cclf04fV.s:1056   .text:0000000000000314 .L57
     /tmp/cclf04fV.s:1033   .text:00000000000002d8 .L61
     /tmp/cclf04fV.s:1152   .text:00000000000003f4 .L59
     /tmp/cclf04fV.s:1129   .text:00000000000003b8 .L62
     /tmp/cclf04fV.s:1251   .text:0000000000000494 .L65
     /tmp/cclf04fV.s:1228   .text:0000000000000458 .L69
     /tmp/cclf04fV.s:1321   .text:000000000000053c .L67
     /tmp/cclf04fV.s:1298   .text:0000000000000500 .L70
     /tmp/cclf04fV.s:1441   .text:000000000000063c .L74
     /tmp/cclf04fV.s:1436   .text:0000000000000634 .L72
     /tmp/cclf04fV.s:1515   .text:00000000000006d0 .L78
     /tmp/cclf04fV.s:1500   .text:00000000000006a8 .L81
     /tmp/cclf04fV.s:1519   .text:00000000000006d8 .L79
     /tmp/cclf04fV.s:1692   .text:0000000000000820 .L108
     /tmp/cclf04fV.s:1701   .text:0000000000000834 .L109
     /tmp/cclf04fV.s:1711   .text:000000000000084c .L110
     /tmp/cclf04fV.s:1708   .text:0000000000000844 .L84
     /tmp/cclf04fV.s:1988   .text:0000000000000a64 .L82
     /tmp/cclf04fV.s:1861   .text:000000000000097c .L87
     /tmp/cclf04fV.s:1895   .text:00000000000009c0 .L86
     /tmp/cclf04fV.s:1839   .text:0000000000000950 .L111
     /tmp/cclf04fV.s:1921   .text:00000000000009e8 .L88
     /tmp/cclf04fV.s:1907   .text:00000000000009cc .L89
     /tmp/cclf04fV.s:1933   .text:0000000000000a00 .L90
     /tmp/cclf04fV.s:1946   .text:0000000000000a0c .L93
     /tmp/cclf04fV.s:1962   .text:0000000000000a30 .L91
     /tmp/cclf04fV.s:1940   .text:0000000000000a08 .L92
GAS LISTING /tmp/cclf04fV.s 			page 70


     /tmp/cclf04fV.s:1973   .text:0000000000000a44 .L94
     /tmp/cclf04fV.s:1985   .text:0000000000000a60 .L95
     /tmp/cclf04fV.s:418    .text._ZN19ConsumerProducerCPP8Consumer3runEv:0000000000000034 .L0 
     /tmp/cclf04fV.s:414    .text._ZN19ConsumerProducerCPP8Consumer3runEv:0000000000000034 .L22
     /tmp/cclf04fV.s:463    .text._ZN19ConsumerProducerCPP8Consumer3runEv:0000000000000090 .L23
     /tmp/cclf04fV.s:407    .text._ZN19ConsumerProducerCPP8Consumer3runEv:0000000000000028 .L27
     /tmp/cclf04fV.s:447    .text._ZN19ConsumerProducerCPP8Consumer3runEv:0000000000000074 .L28
     /tmp/cclf04fV.s:520    .text._ZN19ConsumerProducerCPP8ConsumerD2Ev:0000000000000010 .L0 
     /tmp/cclf04fV.s:562    .text._ZN19ConsumerProducerCPP8ConsumerD0Ev:0000000000000018 .L0 
     /tmp/cclf04fV.s:604    .text._ZN19ConsumerProducerCPP16ProducerKeyboradD2Ev:0000000000000010 .L0 
     /tmp/cclf04fV.s:646    .text._ZN19ConsumerProducerCPP16ProducerKeyboradD0Ev:0000000000000018 .L0 
     /tmp/cclf04fV.s:688    .text._ZN19ConsumerProducerCPP8ProducerD2Ev:0000000000000010 .L0 
     /tmp/cclf04fV.s:730    .text._ZN19ConsumerProducerCPP8ProducerD0Ev:0000000000000018 .L0 
     /tmp/cclf04fV.s:802    .text._ZN19ConsumerProducerCPP16ProducerKeyborad3runEv:0000000000000044 .L0 
     /tmp/cclf04fV.s:798    .text._ZN19ConsumerProducerCPP16ProducerKeyborad3runEv:0000000000000040 .L42
     /tmp/cclf04fV.s:776    .text._ZN19ConsumerProducerCPP16ProducerKeyborad3runEv:0000000000000018 .L43
     /tmp/cclf04fV.s:863    .text._ZN19ConsumerProducerCPP8Producer3runEv:0000000000000020 .L0 
     /tmp/cclf04fV.s:893    .text._ZN19ConsumerProducerCPP8Producer3runEv:000000000000006c .L46
     /tmp/cclf04fV.s:860    .text._ZN19ConsumerProducerCPP8Producer3runEv:0000000000000020 .L47
     /tmp/cclf04fV.s:1611   .text:0000000000000744 .LEHB0
     /tmp/cclf04fV.s:1573   .text:0000000000000704 .LFB22
     /tmp/cclf04fV.s:1684   .text:000000000000080c .LEHE0
     /tmp/cclf04fV.s:1687   .text:0000000000000814 .LEHB1
     /tmp/cclf04fV.s:1690   .text:000000000000081c .LEHE1
     /tmp/cclf04fV.s:2020   .text:0000000000000a9c .L102
     /tmp/cclf04fV.s:1696   .text:0000000000000828 .LEHB2
     /tmp/cclf04fV.s:1718   .text:0000000000000858 .LEHE2
     /tmp/cclf04fV.s:1722   .text:0000000000000860 .LEHB3
     /tmp/cclf04fV.s:1725   .text:0000000000000868 .LEHE3
     /tmp/cclf04fV.s:2033   .text:0000000000000ab8 .L103
     /tmp/cclf04fV.s:1769   .text:00000000000008cc .LEHB4
     /tmp/cclf04fV.s:1772   .text:00000000000008d4 .LEHE4
     /tmp/cclf04fV.s:1775   .text:00000000000008d8 .LEHB5
     /tmp/cclf04fV.s:1781   .text:00000000000008e0 .LEHE5
     /tmp/cclf04fV.s:2044   .text:0000000000000ad4 .L104
     /tmp/cclf04fV.s:1792   .text:00000000000008f4 .LEHB6
     /tmp/cclf04fV.s:1810   .text:000000000000091c .LEHE6
     /tmp/cclf04fV.s:1813   .text:0000000000000920 .LEHB7
     /tmp/cclf04fV.s:1819   .text:0000000000000928 .LEHE7
     /tmp/cclf04fV.s:2056   .text:0000000000000af0 .L105
     /tmp/cclf04fV.s:1831   .text:0000000000000940 .LEHB8
     /tmp/cclf04fV.s:1883   .text:00000000000009b0 .LEHE8
     /tmp/cclf04fV.s:1886   .text:00000000000009b4 .LEHB9
     /tmp/cclf04fV.s:1892   .text:00000000000009bc .LEHE9
     /tmp/cclf04fV.s:2067   .text:0000000000000b0c .L106
     /tmp/cclf04fV.s:1900   .text:00000000000009c0 .LEHB10
     /tmp/cclf04fV.s:1984   .text:0000000000000a60 .LEHE10
     /tmp/cclf04fV.s:2029   .text:0000000000000ab0 .LEHB11
     /tmp/cclf04fV.s:2032   .text:0000000000000ab8 .LEHE11
     /tmp/cclf04fV.s:2040   .text:0000000000000acc .LEHB12
     /tmp/cclf04fV.s:2043   .text:0000000000000ad4 .LEHE12
     /tmp/cclf04fV.s:2052   .text:0000000000000ae8 .LEHB13
     /tmp/cclf04fV.s:2055   .text:0000000000000af0 .LEHE13
     /tmp/cclf04fV.s:2063   .text:0000000000000b04 .LEHB14
     /tmp/cclf04fV.s:2066   .text:0000000000000b0c .LEHE14
     /tmp/cclf04fV.s:2076   .text:0000000000000b20 .LEHB15
     /tmp/cclf04fV.s:2079   .text:0000000000000b28 .LEHE15
GAS LISTING /tmp/cclf04fV.s 			page 71


     /tmp/cclf04fV.s:5296   .debug_abbrev:0000000000000000 .Ldebug_abbrev0
     /tmp/cclf04fV.s:7548   .debug_str:0000000000000987 .LASF137
     /tmp/cclf04fV.s:7338   .debug_str:000000000000014f .LASF138
     /tmp/cclf04fV.s:7540   .debug_str:0000000000000911 .LASF139
     /tmp/cclf04fV.s:7230   .debug_ranges:0000000000000000 .Ldebug_ranges0
     /tmp/cclf04fV.s:7290   .debug_line:0000000000000000 .Ldebug_line0
     /tmp/cclf04fV.s:7464   .debug_str:00000000000005d6 .LASF0
     /tmp/cclf04fV.s:7486   .debug_str:00000000000006cd .LASF1
     /tmp/cclf04fV.s:7448   .debug_str:000000000000053d .LASF2
     /tmp/cclf04fV.s:7374   .debug_str:00000000000002f6 .LASF3
     /tmp/cclf04fV.s:7418   .debug_str:0000000000000478 .LASF4
     /tmp/cclf04fV.s:7528   .debug_str:0000000000000898 .LASF5
     /tmp/cclf04fV.s:7326   .debug_str:0000000000000106 .LASF6
     /tmp/cclf04fV.s:7368   .debug_str:00000000000002b4 .LASF7
     /tmp/cclf04fV.s:7492   .debug_str:0000000000000719 .LASF8
     /tmp/cclf04fV.s:7462   .debug_str:00000000000005c3 .LASF9
     /tmp/cclf04fV.s:7564   .debug_str:0000000000000ae7 .LASF10
     /tmp/cclf04fV.s:7404   .debug_str:000000000000041a .LASF11
     /tmp/cclf04fV.s:7502   .debug_str:0000000000000763 .LASF12
     /tmp/cclf04fV.s:7552   .debug_str:0000000000000a57 .LASF13
     /tmp/cclf04fV.s:7330   .debug_str:0000000000000121 .LASF14
     /tmp/cclf04fV.s:7304   .debug_str:000000000000008c .LASF15
     /tmp/cclf04fV.s:7344   .debug_str:0000000000000186 .LASF16
     /tmp/cclf04fV.s:7524   .debug_str:0000000000000858 .LASF17
     /tmp/cclf04fV.s:7358   .debug_str:0000000000000263 .LASF18
     /tmp/cclf04fV.s:7292   .debug_str:0000000000000000 .LASF19
     /tmp/cclf04fV.s:7506   .debug_str:00000000000007a5 .LASF20
     /tmp/cclf04fV.s:7388   .debug_str:0000000000000338 .LASF21
     /tmp/cclf04fV.s:7416   .debug_str:000000000000046e .LASF22
     /tmp/cclf04fV.s:7308   .debug_str:00000000000000a1 .LASF23
     /tmp/cclf04fV.s:7420   .debug_str:000000000000047f .LASF24
     /tmp/cclf04fV.s:7424   .debug_str:0000000000000493 .LASF25
     /tmp/cclf04fV.s:7414   .debug_str:0000000000000466 .LASF27
     /tmp/cclf04fV.s:7306   .debug_str:000000000000009c .LASF130
     /tmp/cclf04fV.s:7340   .debug_str:0000000000000161 .LASF140
     /tmp/cclf04fV.s:7454   .debug_str:0000000000000594 .LASF49
     /tmp/cclf04fV.s:7488   .debug_str:00000000000006e0 .LASF141
     /tmp/cclf04fV.s:7494   .debug_str:000000000000072c .LASF26
     /tmp/cclf04fV.s:7520   .debug_str:0000000000000847 .LASF28
     /tmp/cclf04fV.s:7522   .debug_str:0000000000000851 .LASF29
     /tmp/cclf04fV.s:7364   .debug_str:0000000000000297 .LASF30
     /tmp/cclf04fV.s:7444   .debug_str:000000000000050e .LASF31
     /tmp/cclf04fV.s:7378   .debug_str:0000000000000306 .LASF32
     /tmp/cclf04fV.s:7408   .debug_str:0000000000000435 .LASF33
     /tmp/cclf04fV.s:7440   .debug_str:00000000000004f3 .LASF34
     /tmp/cclf04fV.s:7472   .debug_str:000000000000065f .LASF35
     /tmp/cclf04fV.s:7474   .debug_str:0000000000000669 .LASF37
     /tmp/cclf04fV.s:7436   .debug_str:00000000000004e2 .LASF36
     /tmp/cclf04fV.s:7568   .debug_str:0000000000000b01 .LASF38
     /tmp/cclf04fV.s:7410   .debug_str:0000000000000443 .LASF142
     /tmp/cclf04fV.s:7328   .debug_str:000000000000010d .LASF143
     /tmp/cclf04fV.s:7320   .debug_str:00000000000000dc .LASF39
     /tmp/cclf04fV.s:7324   .debug_str:00000000000000ef .LASF40
     /tmp/cclf04fV.s:7294   .debug_str:0000000000000009 .LASF71
     /tmp/cclf04fV.s:7372   .debug_str:00000000000002e1 .LASF41
     /tmp/cclf04fV.s:7386   .debug_str:0000000000000333 .LASF43
     /tmp/cclf04fV.s:7518   .debug_str:0000000000000830 .LASF42
GAS LISTING /tmp/cclf04fV.s 			page 72


     /tmp/cclf04fV.s:7496   .debug_str:0000000000000731 .LASF44
     /tmp/cclf04fV.s:7538   .debug_str:00000000000008fd .LASF144
     /tmp/cclf04fV.s:7396   .debug_str:00000000000003c4 .LASF45
     /tmp/cclf04fV.s:7354   .debug_str:0000000000000206 .LASF47
     /tmp/cclf04fV.s:7402   .debug_str:000000000000040e .LASF145
     /tmp/cclf04fV.s:7422   .debug_str:0000000000000489 .LASF46
     /tmp/cclf04fV.s:7466   .debug_str:00000000000005e3 .LASF48
     /tmp/cclf04fV.s:7332   .debug_str:0000000000000131 .LASF50
     /tmp/cclf04fV.s:7536   .debug_str:00000000000008d4 .LASF51
     /tmp/cclf04fV.s:7446   .debug_str:0000000000000513 .LASF52
     /tmp/cclf04fV.s:7450   .debug_str:000000000000054b .LASF53
     /tmp/cclf04fV.s:7352   .debug_str:00000000000001de .LASF58
     /tmp/cclf04fV.s:7476   .debug_str:000000000000067b .LASF60
     /tmp/cclf04fV.s:7490   .debug_str:00000000000006f3 .LASF62
     /tmp/cclf04fV.s:7482   .debug_str:000000000000069e .LASF54
     /tmp/cclf04fV.s:7470   .debug_str:0000000000000636 .LASF55
     /tmp/cclf04fV.s:7526   .debug_str:000000000000086e .LASF56
     /tmp/cclf04fV.s:7356   .debug_str:000000000000022c .LASF57
     /tmp/cclf04fV.s:7516   .debug_str:0000000000000808 .LASF59
     /tmp/cclf04fV.s:7316   .debug_str:00000000000000c9 .LASF61
     /tmp/cclf04fV.s:7370   .debug_str:00000000000002bb .LASF63
     /tmp/cclf04fV.s:7442   .debug_str:00000000000004fd .LASF64
     /tmp/cclf04fV.s:7390   .debug_str:000000000000033d .LASF65
     /tmp/cclf04fV.s:7504   .debug_str:0000000000000772 .LASF66
     /tmp/cclf04fV.s:7302   .debug_str:000000000000004c .LASF67
     /tmp/cclf04fV.s:7562   .debug_str:0000000000000ab6 .LASF68
     /tmp/cclf04fV.s:7458   .debug_str:00000000000005a2 .LASF69
     /tmp/cclf04fV.s:7468   .debug_str:0000000000000607 .LASF70
     /tmp/cclf04fV.s:7530   .debug_str:00000000000008aa .LASF146
     /tmp/cclf04fV.s:7558   .debug_str:0000000000000a7e .LASF147
     /tmp/cclf04fV.s:7560   .debug_str:0000000000000aaf .LASF72
     /tmp/cclf04fV.s:7574   .debug_str:0000000000000b33 .LASF73
     /tmp/cclf04fV.s:7554   .debug_str:0000000000000a66 .LASF74
     /tmp/cclf04fV.s:7514   .debug_str:00000000000007f2 .LASF75
     /tmp/cclf04fV.s:7580   .debug_str:0000000000000b7f .LASF76
     /tmp/cclf04fV.s:7592   .debug_str:0000000000000bf4 .LASF77
     /tmp/cclf04fV.s:7478   .debug_str:0000000000000685 .LASF78
     /tmp/cclf04fV.s:7508   .debug_str:00000000000007af .LASF79
     /tmp/cclf04fV.s:7532   .debug_str:00000000000008bf .LASF80
     /tmp/cclf04fV.s:7350   .debug_str:00000000000001af .LASF81
     /tmp/cclf04fV.s:627    .text._ZN19ConsumerProducerCPP16ProducerKeyboradD0Ev:0000000000000000 .LFB35
     /tmp/cclf04fV.s:667    .text._ZN19ConsumerProducerCPP16ProducerKeyboradD0Ev:000000000000004c .LFE35
     /tmp/cclf04fV.s:6404   .debug_loc:0000000000000000 .LLST19
     /tmp/cclf04fV.s:643    .text._ZN19ConsumerProducerCPP16ProducerKeyboradD0Ev:0000000000000018 .LBB46
     /tmp/cclf04fV.s:651    .text._ZN19ConsumerProducerCPP16ProducerKeyboradD0Ev:000000000000002c .LBE46
     /tmp/cclf04fV.s:6422   .debug_loc:000000000000004c .LLST20
     /tmp/cclf04fV.s:649    .text._ZN19ConsumerProducerCPP16ProducerKeyboradD0Ev:000000000000002c .LVL67
     /tmp/cclf04fV.s:654    .text._ZN19ConsumerProducerCPP16ProducerKeyboradD0Ev:0000000000000038 .LVL68
     /tmp/cclf04fV.s:7578   .debug_str:0000000000000b50 .LASF82
     /tmp/cclf04fV.s:590    .text._ZN19ConsumerProducerCPP16ProducerKeyboradD2Ev:0000000000000000 .LFB33
     /tmp/cclf04fV.s:618    .text._ZN19ConsumerProducerCPP16ProducerKeyboradD2Ev:0000000000000034 .LFE33
     /tmp/cclf04fV.s:6433   .debug_loc:0000000000000082 .LLST18
     /tmp/cclf04fV.s:607    .text._ZN19ConsumerProducerCPP16ProducerKeyboradD2Ev:0000000000000024 .LVL64
     /tmp/cclf04fV.s:7510   .debug_str:00000000000007b4 .LASF83
     /tmp/cclf04fV.s:711    .text._ZN19ConsumerProducerCPP8ProducerD0Ev:0000000000000000 .LFB31
     /tmp/cclf04fV.s:751    .text._ZN19ConsumerProducerCPP8ProducerD0Ev:000000000000004c .LFE31
     /tmp/cclf04fV.s:6447   .debug_loc:00000000000000bb .LLST22
GAS LISTING /tmp/cclf04fV.s 			page 73


     /tmp/cclf04fV.s:727    .text._ZN19ConsumerProducerCPP8ProducerD0Ev:0000000000000018 .LBB49
     /tmp/cclf04fV.s:735    .text._ZN19ConsumerProducerCPP8ProducerD0Ev:000000000000002c .LBE49
     /tmp/cclf04fV.s:6465   .debug_loc:0000000000000107 .LLST23
     /tmp/cclf04fV.s:733    .text._ZN19ConsumerProducerCPP8ProducerD0Ev:000000000000002c .LVL74
     /tmp/cclf04fV.s:738    .text._ZN19ConsumerProducerCPP8ProducerD0Ev:0000000000000038 .LVL75
     /tmp/cclf04fV.s:7296   .debug_str:0000000000000013 .LASF84
     /tmp/cclf04fV.s:674    .text._ZN19ConsumerProducerCPP8ProducerD2Ev:0000000000000000 .LFB29
     /tmp/cclf04fV.s:702    .text._ZN19ConsumerProducerCPP8ProducerD2Ev:0000000000000034 .LFE29
     /tmp/cclf04fV.s:6476   .debug_loc:000000000000013d .LLST21
     /tmp/cclf04fV.s:691    .text._ZN19ConsumerProducerCPP8ProducerD2Ev:0000000000000024 .LVL71
     /tmp/cclf04fV.s:7588   .debug_str:0000000000000bba .LASF85
     /tmp/cclf04fV.s:543    .text._ZN19ConsumerProducerCPP8ConsumerD0Ev:0000000000000000 .LFB27
     /tmp/cclf04fV.s:583    .text._ZN19ConsumerProducerCPP8ConsumerD0Ev:000000000000004c .LFE27
     /tmp/cclf04fV.s:6490   .debug_loc:0000000000000176 .LLST16
     /tmp/cclf04fV.s:559    .text._ZN19ConsumerProducerCPP8ConsumerD0Ev:0000000000000018 .LBB43
     /tmp/cclf04fV.s:567    .text._ZN19ConsumerProducerCPP8ConsumerD0Ev:000000000000002c .LBE43
     /tmp/cclf04fV.s:6508   .debug_loc:00000000000001c2 .LLST17
     /tmp/cclf04fV.s:565    .text._ZN19ConsumerProducerCPP8ConsumerD0Ev:000000000000002c .LVL60
     /tmp/cclf04fV.s:570    .text._ZN19ConsumerProducerCPP8ConsumerD0Ev:0000000000000038 .LVL61
     /tmp/cclf04fV.s:7484   .debug_str:00000000000006a7 .LASF86
     /tmp/cclf04fV.s:506    .text._ZN19ConsumerProducerCPP8ConsumerD2Ev:0000000000000000 .LFB25
     /tmp/cclf04fV.s:534    .text._ZN19ConsumerProducerCPP8ConsumerD2Ev:0000000000000034 .LFE25
     /tmp/cclf04fV.s:6519   .debug_loc:00000000000001f8 .LLST15
     /tmp/cclf04fV.s:523    .text._ZN19ConsumerProducerCPP8ConsumerD2Ev:0000000000000024 .LVL57
     /tmp/cclf04fV.s:7380   .debug_str:0000000000000315 .LASF87
     /tmp/cclf04fV.s:7430   .debug_str:00000000000004b3 .LASF97
     /tmp/cclf04fV.s:2160   .text:0000000000000b28 .LFB23
     /tmp/cclf04fV.s:2186   .text:0000000000000b50 .LFE23
     /tmp/cclf04fV.s:2175   .text:0000000000000b40 .LVL246
     /tmp/cclf04fV.s:2082   .text:0000000000000b28 .LFE22
     /tmp/cclf04fV.s:7312   .debug_str:00000000000000b7 .LASF88
     /tmp/cclf04fV.s:6533   .debug_loc:0000000000000231 .LLST41
     /tmp/cclf04fV.s:7376   .debug_str:00000000000002fc .LASF89
     /tmp/cclf04fV.s:6544   .debug_loc:0000000000000267 .LLST42
     /tmp/cclf04fV.s:6555   .debug_loc:000000000000029d .LLST43
     /tmp/cclf04fV.s:7576   .debug_str:0000000000000b46 .LASF90
     /tmp/cclf04fV.s:6566   .debug_loc:00000000000002d3 .LLST44
     /tmp/cclf04fV.s:7534   .debug_str:00000000000008c9 .LASF91
     /tmp/cclf04fV.s:6584   .debug_loc:000000000000031f .LLST45
     /tmp/cclf04fV.s:7334   .debug_str:000000000000013a .LASF92
     /tmp/cclf04fV.s:6597   .debug_loc:0000000000000357 .LLST46
     /tmp/cclf04fV.s:6608   .debug_loc:000000000000038d .LLST51
     /tmp/cclf04fV.s:1840   .text:0000000000000950 .LBB57
     /tmp/cclf04fV.s:6619   .debug_loc:00000000000003c3 .LLST52
     /tmp/cclf04fV.s:6650   .debug_loc:000000000000042b .LLST53
     /tmp/cclf04fV.s:1891   .text:00000000000009bc .LVL215
     /tmp/cclf04fV.s:1857   .text:0000000000000978 .LVL211
     /tmp/cclf04fV.s:1882   .text:00000000000009b0 .LVL213
     /tmp/cclf04fV.s:2074   .text:0000000000000b1c .LVL244
     /tmp/cclf04fV.s:6669   .debug_loc:0000000000000487 .LLST54
     /tmp/cclf04fV.s:1915   .text:00000000000009e0 .LVL219
     /tmp/cclf04fV.s:1942   .text:0000000000000a08 .LBB63
     /tmp/cclf04fV.s:1963   .text:0000000000000a30 .LBE63
     /tmp/cclf04fV.s:6680   .debug_loc:00000000000004bd .LLST55
     /tmp/cclf04fV.s:6687   .debug_loc:00000000000004e0 .LLST38
     /tmp/cclf04fV.s:6718   .debug_loc:000000000000052a .LLST40
     /tmp/cclf04fV.s:1776   .text:00000000000008d8 .LBB52
GAS LISTING /tmp/cclf04fV.s 			page 74


     /tmp/cclf04fV.s:1788   .text:00000000000008f0 .LBE52
     /tmp/cclf04fV.s:6749   .debug_loc:0000000000000574 .LLST47
     /tmp/cclf04fV.s:6776   .debug_loc:00000000000005c9 .LLST48
     /tmp/cclf04fV.s:1780   .text:00000000000008e0 .LVL201
     /tmp/cclf04fV.s:1814   .text:0000000000000920 .LBB54
     /tmp/cclf04fV.s:1825   .text:0000000000000938 .LBE54
     /tmp/cclf04fV.s:6791   .debug_loc:0000000000000612 .LLST49
     /tmp/cclf04fV.s:6802   .debug_loc:0000000000000648 .LLST50
     /tmp/cclf04fV.s:1818   .text:0000000000000928 .LVL206
     /tmp/cclf04fV.s:1613   .text:000000000000074c .LVL173
     /tmp/cclf04fV.s:1620   .text:0000000000000760 .LVL174
     /tmp/cclf04fV.s:1625   .text:000000000000076c .LVL175
     /tmp/cclf04fV.s:1632   .text:0000000000000780 .LVL177
     /tmp/cclf04fV.s:1638   .text:0000000000000790 .LVL178
     /tmp/cclf04fV.s:1643   .text:000000000000079c .LVL179
     /tmp/cclf04fV.s:1650   .text:00000000000007b0 .LVL181
     /tmp/cclf04fV.s:1657   .text:00000000000007c4 .LVL182
     /tmp/cclf04fV.s:1662   .text:00000000000007d4 .LVL183
     /tmp/cclf04fV.s:1669   .text:00000000000007e8 .LVL184
     /tmp/cclf04fV.s:1674   .text:00000000000007f8 .LVL185
     /tmp/cclf04fV.s:1683   .text:000000000000080c .LVL186
     /tmp/cclf04fV.s:1689   .text:000000000000081c .LVL187
     /tmp/cclf04fV.s:1698   .text:0000000000000830 .LVL188
     /tmp/cclf04fV.s:1706   .text:0000000000000844 .LVL189
     /tmp/cclf04fV.s:1717   .text:0000000000000858 .LVL191
     /tmp/cclf04fV.s:1724   .text:0000000000000868 .LVL193
     /tmp/cclf04fV.s:1771   .text:00000000000008d4 .LVL199
     /tmp/cclf04fV.s:1794   .text:00000000000008fc .LVL203
     /tmp/cclf04fV.s:1809   .text:000000000000091c .LVL204
     /tmp/cclf04fV.s:1833   .text:0000000000000948 .LVL208
     /tmp/cclf04fV.s:1903   .text:00000000000009c8 .LVL217
     /tmp/cclf04fV.s:1972   .text:0000000000000a44 .LVL227
     /tmp/cclf04fV.s:1980   .text:0000000000000a54 .LVL228
     /tmp/cclf04fV.s:1983   .text:0000000000000a60 .LVL229
     /tmp/cclf04fV.s:2027   .text:0000000000000aac .LVL234
     /tmp/cclf04fV.s:2031   .text:0000000000000ab8 .LVL235
     /tmp/cclf04fV.s:2038   .text:0000000000000ac8 .LVL236
     /tmp/cclf04fV.s:2042   .text:0000000000000ad4 .LVL237
     /tmp/cclf04fV.s:2050   .text:0000000000000ae4 .LVL239
     /tmp/cclf04fV.s:2054   .text:0000000000000af0 .LVL240
     /tmp/cclf04fV.s:2061   .text:0000000000000b00 .LVL241
     /tmp/cclf04fV.s:2065   .text:0000000000000b0c .LVL242
     /tmp/cclf04fV.s:2078   .text:0000000000000b28 .LVL245
     /tmp/cclf04fV.s:381    .text._ZN19ConsumerProducerCPP8Consumer3runEv:0000000000000000 .LFB21
     /tmp/cclf04fV.s:499    .text._ZN19ConsumerProducerCPP8Consumer3runEv:00000000000000d0 .LFE21
     /tmp/cclf04fV.s:6813   .debug_loc:000000000000067e .LLST11
     /tmp/cclf04fV.s:6831   .debug_loc:00000000000006ca .LLST12
     /tmp/cclf04fV.s:6851   .debug_loc:0000000000000727 .LLST13
     /tmp/cclf04fV.s:413    .text._ZN19ConsumerProducerCPP8Consumer3runEv:0000000000000034 .LVL43
     /tmp/cclf04fV.s:427    .text._ZN19ConsumerProducerCPP8Consumer3runEv:0000000000000050 .LVL44
     /tmp/cclf04fV.s:438    .text._ZN19ConsumerProducerCPP8Consumer3runEv:0000000000000064 .LVL47
     /tmp/cclf04fV.s:449    .text._ZN19ConsumerProducerCPP8Consumer3runEv:0000000000000074 .LBB41
     /tmp/cclf04fV.s:464    .text._ZN19ConsumerProducerCPP8Consumer3runEv:0000000000000090 .LBE41
     /tmp/cclf04fV.s:6858   .debug_loc:000000000000074a .LLST14
     /tmp/cclf04fV.s:456    .text._ZN19ConsumerProducerCPP8Consumer3runEv:0000000000000084 .LVL49
     /tmp/cclf04fV.s:462    .text._ZN19ConsumerProducerCPP8Consumer3runEv:0000000000000090 .LVL51
     /tmp/cclf04fV.s:472    .text._ZN19ConsumerProducerCPP8Consumer3runEv:00000000000000a0 .LVL52
GAS LISTING /tmp/cclf04fV.s 			page 75


     /tmp/cclf04fV.s:480    .text._ZN19ConsumerProducerCPP8Consumer3runEv:00000000000000b4 .LVL53
     /tmp/cclf04fV.s:7398   .debug_str:00000000000003cf .LASF93
     /tmp/cclf04fV.s:838    .text._ZN19ConsumerProducerCPP8Producer3runEv:0000000000000000 .LFB17
     /tmp/cclf04fV.s:916    .text._ZN19ConsumerProducerCPP8Producer3runEv:0000000000000094 .LFE17
     /tmp/cclf04fV.s:6865   .debug_loc:000000000000076d .LLST26
     /tmp/cclf04fV.s:6883   .debug_loc:00000000000007b9 .LLST27
     /tmp/cclf04fV.s:873    .text._ZN19ConsumerProducerCPP8Producer3runEv:0000000000000044 .LVL91
     /tmp/cclf04fV.s:890    .text._ZN19ConsumerProducerCPP8Producer3runEv:0000000000000068 .LVL93
     /tmp/cclf04fV.s:899    .text._ZN19ConsumerProducerCPP8Producer3runEv:000000000000007c .LVL94
     /tmp/cclf04fV.s:7546   .debug_str:0000000000000950 .LASF94
     /tmp/cclf04fV.s:758    .text._ZN19ConsumerProducerCPP16ProducerKeyborad3runEv:0000000000000000 .LFB13
     /tmp/cclf04fV.s:831    .text._ZN19ConsumerProducerCPP16ProducerKeyborad3runEv:0000000000000084 .LFE13
     /tmp/cclf04fV.s:6903   .debug_loc:0000000000000816 .LLST24
     /tmp/cclf04fV.s:6921   .debug_loc:0000000000000862 .LLST25
     /tmp/cclf04fV.s:781    .text._ZN19ConsumerProducerCPP16ProducerKeyborad3runEv:0000000000000020 .LVL79
     /tmp/cclf04fV.s:793    .text._ZN19ConsumerProducerCPP16ProducerKeyborad3runEv:000000000000003c .LVL81
     /tmp/cclf04fV.s:811    .text._ZN19ConsumerProducerCPP16ProducerKeyborad3runEv:0000000000000060 .LVL85
     /tmp/cclf04fV.s:817    .text._ZN19ConsumerProducerCPP16ProducerKeyborad3runEv:0000000000000070 .LVL86
     /tmp/cclf04fV.s:7392   .debug_str:000000000000036f .LASF95
     /tmp/cclf04fV.s:7406   .debug_str:0000000000000428 .LASF96
     /tmp/cclf04fV.s:7432   .debug_str:00000000000004c0 .LASF98
     /tmp/cclf04fV.s:1471   .text:000000000000067c .LFB7
     /tmp/cclf04fV.s:1544   .text:0000000000000704 .LFE7
     /tmp/cclf04fV.s:7590   .debug_str:0000000000000be0 .LASF99
     /tmp/cclf04fV.s:7314   .debug_str:00000000000000bd .LASF100
     /tmp/cclf04fV.s:7346   .debug_str:0000000000000192 .LASF101
     /tmp/cclf04fV.s:1495   .text:00000000000006a0 .LBB51
     /tmp/cclf04fV.s:1520   .text:00000000000006d8 .LBE51
     /tmp/cclf04fV.s:6936   .debug_loc:00000000000008ab .LLST36
     /tmp/cclf04fV.s:1511   .text:00000000000006cc .LVL170
     /tmp/cclf04fV.s:7384   .debug_str:0000000000000329 .LASF102
     /tmp/cclf04fV.s:7584   .debug_str:0000000000000b9b .LASF103
     /tmp/cclf04fV.s:292    .text:00000000000001a0 .LFB6
     /tmp/cclf04fV.s:374    .text:0000000000000244 .LFE6
     /tmp/cclf04fV.s:6948   .debug_loc:00000000000008e2 .LLST8
     /tmp/cclf04fV.s:7382   .debug_str:000000000000031e .LASF104
     /tmp/cclf04fV.s:6962   .debug_loc:000000000000091b .LLST9
     /tmp/cclf04fV.s:6969   .debug_loc:000000000000093e .LLST10
     /tmp/cclf04fV.s:327    .text:00000000000001d8 .LVL35
     /tmp/cclf04fV.s:334    .text:00000000000001ec .LVL36
     /tmp/cclf04fV.s:339    .text:00000000000001fc .LVL37
     /tmp/cclf04fV.s:344    .text:0000000000000208 .LVL38
     /tmp/cclf04fV.s:7570   .debug_str:0000000000000b13 .LASF105
     /tmp/cclf04fV.s:7366   .debug_str:000000000000029c .LASF106
     /tmp/cclf04fV.s:1375   .text:0000000000000580 .LFB5
     /tmp/cclf04fV.s:1465   .text:000000000000067c .LFE5
     /tmp/cclf04fV.s:7400   .debug_str:0000000000000406 .LASF107
     /tmp/cclf04fV.s:1393   .text:00000000000005a8 .LVL158
     /tmp/cclf04fV.s:1398   .text:00000000000005b8 .LVL159
     /tmp/cclf04fV.s:1405   .text:00000000000005d0 .LVL160
     /tmp/cclf04fV.s:1410   .text:00000000000005e0 .LVL161
     /tmp/cclf04fV.s:1417   .text:00000000000005f8 .LVL162
     /tmp/cclf04fV.s:1422   .text:0000000000000608 .LVL163
     /tmp/cclf04fV.s:1429   .text:0000000000000620 .LVL164
     /tmp/cclf04fV.s:1434   .text:0000000000000630 .LVL165
     /tmp/cclf04fV.s:1440   .text:000000000000063c .LVL166
     /tmp/cclf04fV.s:7322   .debug_str:00000000000000e3 .LASF108
GAS LISTING /tmp/cclf04fV.s 			page 76


     /tmp/cclf04fV.s:7452   .debug_str:0000000000000582 .LASF109
     /tmp/cclf04fV.s:1206   .text:0000000000000438 .LFB4
     /tmp/cclf04fV.s:1355   .text:0000000000000580 .LFE4
     /tmp/cclf04fV.s:6981   .debug_loc:0000000000000975 .LLST33
     /tmp/cclf04fV.s:6995   .debug_loc:00000000000009ae .LLST34
     /tmp/cclf04fV.s:7298   .debug_str:0000000000000039 .LASF110
     /tmp/cclf04fV.s:7015   .debug_loc:0000000000000a0b .LLST35
     /tmp/cclf04fV.s:1233   .text:0000000000000468 .LVL136
     /tmp/cclf04fV.s:1240   .text:000000000000047c .LVL137
     /tmp/cclf04fV.s:1245   .text:000000000000048c .LVL138
     /tmp/cclf04fV.s:1260   .text:00000000000004ac .LVL141
     /tmp/cclf04fV.s:1271   .text:00000000000004b8 .LVL142
     /tmp/cclf04fV.s:1276   .text:00000000000004c4 .LVL143
     /tmp/cclf04fV.s:1284   .text:00000000000004d8 .LVL146
     /tmp/cclf04fV.s:1291   .text:00000000000004ec .LVL147
     /tmp/cclf04fV.s:1296   .text:00000000000004fc .LVL148
     /tmp/cclf04fV.s:1303   .text:0000000000000510 .LVL149
     /tmp/cclf04fV.s:1310   .text:0000000000000524 .LVL150
     /tmp/cclf04fV.s:1315   .text:0000000000000534 .LVL151
     /tmp/cclf04fV.s:1330   .text:0000000000000554 .LVL154
     /tmp/cclf04fV.s:1338   .text:0000000000000568 .LVL155
     /tmp/cclf04fV.s:7336   .debug_str:0000000000000143 .LASF111
     /tmp/cclf04fV.s:7544   .debug_str:000000000000093e .LASF112
     /tmp/cclf04fV.s:1011   .text:00000000000002b8 .LFB3
     /tmp/cclf04fV.s:1186   .text:0000000000000438 .LFE3
     /tmp/cclf04fV.s:7026   .debug_loc:0000000000000a41 .LLST29
     /tmp/cclf04fV.s:7040   .debug_loc:0000000000000a7a .LLST30
     /tmp/cclf04fV.s:7060   .debug_loc:0000000000000ad7 .LLST31
     /tmp/cclf04fV.s:7068   .debug_loc:0000000000000afb .LLST32
     /tmp/cclf04fV.s:1038   .text:00000000000002e8 .LVL107
     /tmp/cclf04fV.s:1045   .text:00000000000002fc .LVL108
     /tmp/cclf04fV.s:1050   .text:000000000000030c .LVL109
     /tmp/cclf04fV.s:1065   .text:000000000000032c .LVL112
     /tmp/cclf04fV.s:1076   .text:0000000000000338 .LVL113
     /tmp/cclf04fV.s:1090   .text:000000000000034c .LVL115
     /tmp/cclf04fV.s:1097   .text:0000000000000360 .LVL116
     /tmp/cclf04fV.s:1102   .text:0000000000000370 .LVL117
     /tmp/cclf04fV.s:1107   .text:000000000000037c .LVL118
     /tmp/cclf04fV.s:1115   .text:0000000000000390 .LVL121
     /tmp/cclf04fV.s:1122   .text:00000000000003a4 .LVL122
     /tmp/cclf04fV.s:1127   .text:00000000000003b4 .LVL123
     /tmp/cclf04fV.s:1134   .text:00000000000003c8 .LVL124
     /tmp/cclf04fV.s:1141   .text:00000000000003dc .LVL125
     /tmp/cclf04fV.s:1146   .text:00000000000003ec .LVL126
     /tmp/cclf04fV.s:1161   .text:000000000000040c .LVL129
     /tmp/cclf04fV.s:1169   .text:0000000000000420 .LVL130
     /tmp/cclf04fV.s:7300   .debug_str:0000000000000040 .LASF113
     /tmp/cclf04fV.s:7342   .debug_str:0000000000000174 .LASF114
     /tmp/cclf04fV.s:155    .text:00000000000000cc .LFB2
     /tmp/cclf04fV.s:278    .text:00000000000001a0 .LFE2
     /tmp/cclf04fV.s:7079   .debug_loc:0000000000000b31 .LLST4
     /tmp/cclf04fV.s:173    .text:00000000000000e4 .LBB31
     /tmp/cclf04fV.s:249    .text:0000000000000164 .LBE31
     /tmp/cclf04fV.s:7093   .debug_loc:0000000000000b6a .LLST5
     /tmp/cclf04fV.s:7105   .debug_loc:0000000000000ba1 .LLST6
     /tmp/cclf04fV.s:196    .text:0000000000000104 .LBB35
     /tmp/cclf04fV.s:211    .text:000000000000011c .LBE35
GAS LISTING /tmp/cclf04fV.s 			page 77


     /tmp/cclf04fV.s:7117   .debug_loc:0000000000000bd8 .LLST7
     /tmp/cclf04fV.s:185    .text:00000000000000f4 .LVL18
     /tmp/cclf04fV.s:227    .text:0000000000000138 .LVL24
     /tmp/cclf04fV.s:234    .text:000000000000014c .LVL25
     /tmp/cclf04fV.s:239    .text:000000000000015c .LVL26
     /tmp/cclf04fV.s:254    .text:0000000000000174 .LVL28
     /tmp/cclf04fV.s:262    .text:0000000000000188 .LVL29
     /tmp/cclf04fV.s:7310   .debug_str:00000000000000ab .LASF115
     /tmp/cclf04fV.s:7556   .debug_str:0000000000000a6c .LASF116
     /tmp/cclf04fV.s:21     .text:0000000000000000 .LFB1
     /tmp/cclf04fV.s:141    .text:00000000000000cc .LFE1
     /tmp/cclf04fV.s:7128   .debug_loc:0000000000000c0e .LLST0
     /tmp/cclf04fV.s:40     .text:0000000000000018 .LBB23
     /tmp/cclf04fV.s:116    .text:0000000000000098 .LBE23
     /tmp/cclf04fV.s:7142   .debug_loc:0000000000000c47 .LLST1
     /tmp/cclf04fV.s:7154   .debug_loc:0000000000000c7e .LLST2
     /tmp/cclf04fV.s:63     .text:0000000000000038 .LBB27
     /tmp/cclf04fV.s:78     .text:0000000000000050 .LBE27
     /tmp/cclf04fV.s:7166   .debug_loc:0000000000000cb5 .LLST3
     /tmp/cclf04fV.s:52     .text:0000000000000028 .LVL3
     /tmp/cclf04fV.s:94     .text:000000000000006c .LVL9
     /tmp/cclf04fV.s:101    .text:0000000000000080 .LVL10
     /tmp/cclf04fV.s:106    .text:0000000000000090 .LVL11
     /tmp/cclf04fV.s:121    .text:00000000000000a8 .LVL13
     /tmp/cclf04fV.s:7566   .debug_str:0000000000000af7 .LASF148
     /tmp/cclf04fV.s:7542   .debug_str:0000000000000930 .LASF149
     /tmp/cclf04fV.s:923    .text:0000000000000244 .LFB0
     /tmp/cclf04fV.s:988    .text:00000000000002b8 .LFE0
     /tmp/cclf04fV.s:7177   .debug_loc:0000000000000ceb .LLST28
     /tmp/cclf04fV.s:955    .text:0000000000000280 .LVL99
     /tmp/cclf04fV.s:960    .text:0000000000000290 .LVL100
     /tmp/cclf04fV.s:985    .text:00000000000002b4 .LVL103
     /tmp/cclf04fV.s:7594   .debug_str:0000000000000c07 .LASF117
     /tmp/cclf04fV.s:7360   .debug_str:0000000000000279 .LASF118
     /tmp/cclf04fV.s:7438   .debug_str:00000000000004ed .LASF119
     /tmp/cclf04fV.s:7572   .debug_str:0000000000000b26 .LASF120
     /tmp/cclf04fV.s:7582   .debug_str:0000000000000b88 .LASF121
     /tmp/cclf04fV.s:7428   .debug_str:00000000000004a7 .LASF122
     /tmp/cclf04fV.s:7586   .debug_str:0000000000000baa .LASF123
     /tmp/cclf04fV.s:7498   .debug_str:0000000000000738 .LASF124
     /tmp/cclf04fV.s:7480   .debug_str:000000000000068b .LASF125
     /tmp/cclf04fV.s:7550   .debug_str:0000000000000a4b .LASF126
     /tmp/cclf04fV.s:7460   .debug_str:00000000000005b4 .LASF127
     /tmp/cclf04fV.s:7456   .debug_str:0000000000000599 .LASF128
     /tmp/cclf04fV.s:7412   .debug_str:0000000000000457 .LASF150
     /tmp/cclf04fV.s:7512   .debug_str:00000000000007da .LASF151
     /tmp/cclf04fV.s:7318   .debug_str:00000000000000d3 .LASF129
     /tmp/cclf04fV.s:7500   .debug_str:0000000000000742 .LASF131
     /tmp/cclf04fV.s:7362   .debug_str:0000000000000289 .LASF132
     /tmp/cclf04fV.s:7434   .debug_str:00000000000004d2 .LASF133
     /tmp/cclf04fV.s:7426   .debug_str:000000000000049c .LASF134
     /tmp/cclf04fV.s:7394   .debug_str:00000000000003af .LASF135
     /tmp/cclf04fV.s:7348   .debug_str:000000000000019f .LASF136
     /tmp/cclf04fV.s:630    .text._ZN19ConsumerProducerCPP16ProducerKeyboradD0Ev:0000000000000000 .LVL65
     /tmp/cclf04fV.s:662    .text._ZN19ConsumerProducerCPP16ProducerKeyboradD0Ev:0000000000000044 .LVL69
     /tmp/cclf04fV.s:642    .text._ZN19ConsumerProducerCPP16ProducerKeyboradD0Ev:0000000000000018 .LVL66
     /tmp/cclf04fV.s:593    .text._ZN19ConsumerProducerCPP16ProducerKeyboradD2Ev:0000000000000000 .LVL63
GAS LISTING /tmp/cclf04fV.s 			page 78


     /tmp/cclf04fV.s:714    .text._ZN19ConsumerProducerCPP8ProducerD0Ev:0000000000000000 .LVL72
     /tmp/cclf04fV.s:746    .text._ZN19ConsumerProducerCPP8ProducerD0Ev:0000000000000044 .LVL76
     /tmp/cclf04fV.s:726    .text._ZN19ConsumerProducerCPP8ProducerD0Ev:0000000000000018 .LVL73
     /tmp/cclf04fV.s:677    .text._ZN19ConsumerProducerCPP8ProducerD2Ev:0000000000000000 .LVL70
     /tmp/cclf04fV.s:546    .text._ZN19ConsumerProducerCPP8ConsumerD0Ev:0000000000000000 .LVL58
     /tmp/cclf04fV.s:578    .text._ZN19ConsumerProducerCPP8ConsumerD0Ev:0000000000000044 .LVL62
     /tmp/cclf04fV.s:558    .text._ZN19ConsumerProducerCPP8ConsumerD0Ev:0000000000000018 .LVL59
     /tmp/cclf04fV.s:509    .text._ZN19ConsumerProducerCPP8ConsumerD2Ev:0000000000000000 .LVL56
     /tmp/cclf04fV.s:1645   .text:00000000000007a0 .LVL180
     /tmp/cclf04fV.s:1720   .text:000000000000085c .LVL192
     /tmp/cclf04fV.s:2019   .text:0000000000000a9c .LVL232
     /tmp/cclf04fV.s:2023   .text:0000000000000aa0 .LVL233
     /tmp/cclf04fV.s:1627   .text:0000000000000770 .LVL176
     /tmp/cclf04fV.s:2003   .text:0000000000000a7c .LVL231
     /tmp/cclf04fV.s:1712   .text:000000000000084c .LVL190
     /tmp/cclf04fV.s:1987   .text:0000000000000a64 .LVL230
     /tmp/cclf04fV.s:1737   .text:0000000000000888 .LVL195
     /tmp/cclf04fV.s:1749   .text:00000000000008a4 .LVL197
     /tmp/cclf04fV.s:1751   .text:00000000000008a8 .LVL198
     /tmp/cclf04fV.s:1786   .text:00000000000008f0 .LVL202
     /tmp/cclf04fV.s:1838   .text:0000000000000950 .LVL209
     /tmp/cclf04fV.s:1846   .text:0000000000000960 .LVL210
     /tmp/cclf04fV.s:1885   .text:00000000000009b4 .LVL214
     /tmp/cclf04fV.s:1894   .text:00000000000009c0 .LVL216
     /tmp/cclf04fV.s:2069   .text:0000000000000b10 .LVL243
     /tmp/cclf04fV.s:1908   .text:00000000000009cc .LVL218
     /tmp/cclf04fV.s:1918   .text:00000000000009e4 .LVL220
     /tmp/cclf04fV.s:1920   .text:00000000000009e8 .LVL221
     /tmp/cclf04fV.s:1937   .text:0000000000000a04 .LVL223
     /tmp/cclf04fV.s:1939   .text:0000000000000a08 .LVL224
     /tmp/cclf04fV.s:1730   .text:0000000000000874 .LVL194
     /tmp/cclf04fV.s:1741   .text:000000000000088c .LVL196
     /tmp/cclf04fV.s:1774   .text:00000000000008d8 .LVL200
     /tmp/cclf04fV.s:2046   .text:0000000000000ad8 .LVL238
     /tmp/cclf04fV.s:1812   .text:0000000000000920 .LVL205
     /tmp/cclf04fV.s:1823   .text:0000000000000938 .LVL207
     /tmp/cclf04fV.s:385    .text._ZN19ConsumerProducerCPP8Consumer3runEv:0000000000000000 .LVL40
     /tmp/cclf04fV.s:406    .text._ZN19ConsumerProducerCPP8Consumer3runEv:0000000000000028 .LVL42
     /tmp/cclf04fV.s:491    .text._ZN19ConsumerProducerCPP8Consumer3runEv:00000000000000c4 .LVL54
     /tmp/cclf04fV.s:402    .text._ZN19ConsumerProducerCPP8Consumer3runEv:0000000000000020 .LVL41
     /tmp/cclf04fV.s:432    .text._ZN19ConsumerProducerCPP8Consumer3runEv:0000000000000058 .LVL45
     /tmp/cclf04fV.s:443    .text._ZN19ConsumerProducerCPP8Consumer3runEv:000000000000006c .LVL48
     /tmp/cclf04fV.s:494    .text._ZN19ConsumerProducerCPP8Consumer3runEv:00000000000000c8 .LVL55
     /tmp/cclf04fV.s:436    .text._ZN19ConsumerProducerCPP8Consumer3runEv:000000000000005c .LVL46
     /tmp/cclf04fV.s:460    .text._ZN19ConsumerProducerCPP8Consumer3runEv:0000000000000088 .LVL50
     /tmp/cclf04fV.s:841    .text._ZN19ConsumerProducerCPP8Producer3runEv:0000000000000000 .LVL88
     /tmp/cclf04fV.s:859    .text._ZN19ConsumerProducerCPP8Producer3runEv:0000000000000020 .LVL90
     /tmp/cclf04fV.s:908    .text._ZN19ConsumerProducerCPP8Producer3runEv:0000000000000088 .LVL95
     /tmp/cclf04fV.s:856    .text._ZN19ConsumerProducerCPP8Producer3runEv:000000000000001c .LVL89
     /tmp/cclf04fV.s:878    .text._ZN19ConsumerProducerCPP8Producer3runEv:000000000000004c .LVL92
     /tmp/cclf04fV.s:911    .text._ZN19ConsumerProducerCPP8Producer3runEv:000000000000008c .LVL96
     /tmp/cclf04fV.s:761    .text._ZN19ConsumerProducerCPP16ProducerKeyborad3runEv:0000000000000000 .LVL77
     /tmp/cclf04fV.s:775    .text._ZN19ConsumerProducerCPP16ProducerKeyborad3runEv:0000000000000018 .LVL78
     /tmp/cclf04fV.s:826    .text._ZN19ConsumerProducerCPP16ProducerKeyborad3runEv:000000000000007c .LVL87
     /tmp/cclf04fV.s:784    .text._ZN19ConsumerProducerCPP16ProducerKeyborad3runEv:0000000000000024 .LVL80
     /tmp/cclf04fV.s:797    .text._ZN19ConsumerProducerCPP16ProducerKeyborad3runEv:0000000000000040 .LVL82
     /tmp/cclf04fV.s:807    .text._ZN19ConsumerProducerCPP16ProducerKeyborad3runEv:0000000000000054 .LVL83
GAS LISTING /tmp/cclf04fV.s 			page 79


     /tmp/cclf04fV.s:809    .text._ZN19ConsumerProducerCPP16ProducerKeyborad3runEv:0000000000000058 .LVL84
     /tmp/cclf04fV.s:1494   .text:00000000000006a0 .LVL168
     /tmp/cclf04fV.s:1499   .text:00000000000006a8 .LVL169
     /tmp/cclf04fV.s:1539   .text:00000000000006fc .LVL172
     /tmp/cclf04fV.s:296    .text:00000000000001a0 .LVL31
     /tmp/cclf04fV.s:316    .text:00000000000001c0 .LVL33
     /tmp/cclf04fV.s:312    .text:00000000000001bc .LVL32
     /tmp/cclf04fV.s:352    .text:0000000000000214 .LVL39
     /tmp/cclf04fV.s:321    .text:00000000000001c4 .LVL34
     /tmp/cclf04fV.s:1209   .text:0000000000000438 .LVL133
     /tmp/cclf04fV.s:1227   .text:0000000000000458 .LVL135
     /tmp/cclf04fV.s:1223   .text:0000000000000450 .LVL134
     /tmp/cclf04fV.s:1248   .text:0000000000000490 .LVL139
     /tmp/cclf04fV.s:1250   .text:0000000000000494 .LVL140
     /tmp/cclf04fV.s:1318   .text:0000000000000538 .LVL152
     /tmp/cclf04fV.s:1320   .text:000000000000053c .LVL153
     /tmp/cclf04fV.s:1347   .text:0000000000000574 .LVL156
     /tmp/cclf04fV.s:1278   .text:00000000000004c8 .LVL144
     /tmp/cclf04fV.s:1282   .text:00000000000004d0 .LVL145
     /tmp/cclf04fV.s:1350   .text:0000000000000578 .LVL157
     /tmp/cclf04fV.s:1014   .text:00000000000002b8 .LVL104
     /tmp/cclf04fV.s:1032   .text:00000000000002d8 .LVL106
     /tmp/cclf04fV.s:1028   .text:00000000000002d0 .LVL105
     /tmp/cclf04fV.s:1053   .text:0000000000000310 .LVL110
     /tmp/cclf04fV.s:1055   .text:0000000000000314 .LVL111
     /tmp/cclf04fV.s:1149   .text:00000000000003f0 .LVL127
     /tmp/cclf04fV.s:1151   .text:00000000000003f4 .LVL128
     /tmp/cclf04fV.s:1178   .text:000000000000042c .LVL131
     /tmp/cclf04fV.s:1084   .text:000000000000033c .LVL114
     /tmp/cclf04fV.s:1109   .text:0000000000000380 .LVL119
     /tmp/cclf04fV.s:1113   .text:0000000000000388 .LVL120
     /tmp/cclf04fV.s:1181   .text:0000000000000430 .LVL132
     /tmp/cclf04fV.s:158    .text:00000000000000cc .LVL15
     /tmp/cclf04fV.s:177    .text:00000000000000ec .LVL17
     /tmp/cclf04fV.s:172    .text:00000000000000e4 .LVL16
     /tmp/cclf04fV.s:273    .text:0000000000000198 .LVL30
     /tmp/cclf04fV.s:217    .text:0000000000000120 .LVL23
     /tmp/cclf04fV.s:245    .text:0000000000000164 .LVL27
     /tmp/cclf04fV.s:200    .text:0000000000000108 .LVL20
     /tmp/cclf04fV.s:209    .text:000000000000011c .LVL22
     /tmp/cclf04fV.s:25     .text:0000000000000000 .LVL0
     /tmp/cclf04fV.s:44     .text:0000000000000020 .LVL2
     /tmp/cclf04fV.s:39     .text:0000000000000018 .LVL1
     /tmp/cclf04fV.s:136    .text:00000000000000c4 .LVL14
     /tmp/cclf04fV.s:84     .text:0000000000000054 .LVL8
     /tmp/cclf04fV.s:112    .text:0000000000000098 .LVL12
     /tmp/cclf04fV.s:67     .text:000000000000003c .LVL5
     /tmp/cclf04fV.s:76     .text:0000000000000050 .LVL7
     /tmp/cclf04fV.s:926    .text:0000000000000244 .LVL97
     /tmp/cclf04fV.s:949    .text:0000000000000274 .LVL98
     /tmp/cclf04fV.s:973    .text:00000000000002a0 .LVL101
     /tmp/cclf04fV.s:979    .text:00000000000002ac .LVL102
     /tmp/cclf04fV.s:2270   .debug_info:0000000000000000 .Ldebug_info0
     /tmp/cclf04fV.s:5      .text:0000000000000000 .Ltext0
     /tmp/cclf04fV.s:2263   .text:0000000000000b50 .Letext0
     /tmp/cclf04fV.s:47     .text:0000000000000020 .LBB25
     /tmp/cclf04fV.s:80     .text:0000000000000050 .LBE25
GAS LISTING /tmp/cclf04fV.s 			page 80


     /tmp/cclf04fV.s:108    .text:0000000000000090 .LBB29
     /tmp/cclf04fV.s:114    .text:0000000000000098 .LBE29
     /tmp/cclf04fV.s:180    .text:00000000000000ec .LBB33
     /tmp/cclf04fV.s:213    .text:000000000000011c .LBE33
     /tmp/cclf04fV.s:241    .text:000000000000015c .LBB37
     /tmp/cclf04fV.s:247    .text:0000000000000164 .LBE37
     /tmp/cclf04fV.s:408    .text._ZN19ConsumerProducerCPP8Consumer3runEv:0000000000000028 .LBB39
     /tmp/cclf04fV.s:415    .text._ZN19ConsumerProducerCPP8Consumer3runEv:0000000000000034 .LBE39
     /tmp/cclf04fV.s:420    .text._ZN19ConsumerProducerCPP8Consumer3runEv:0000000000000040 .LBB40
     /tmp/cclf04fV.s:448    .text._ZN19ConsumerProducerCPP8Consumer3runEv:0000000000000074 .LBE40
     /tmp/cclf04fV.s:1834   .text:0000000000000948 .LBB56
     /tmp/cclf04fV.s:1898   .text:00000000000009c0 .LBE56
     /tmp/cclf04fV.s:2070   .text:0000000000000b10 .LBB64
     /tmp/cclf04fV.s:2080   .text:0000000000000b28 .LBE64
     /tmp/cclf04fV.s:1848   .text:0000000000000960 .LBE57
     /tmp/cclf04fV.s:1887   .text:00000000000009b4 .LBB60
     /tmp/cclf04fV.s:1897   .text:00000000000009c0 .LBE60
     /tmp/cclf04fV.s:1904   .text:00000000000009c8 .LBB61
     /tmp/cclf04fV.s:1922   .text:00000000000009e8 .LBE61
     /tmp/cclf04fV.s:1934   .text:0000000000000a00 .LBB62
     /tmp/cclf04fV.s:1941   .text:0000000000000a08 .LBE62
     /tmp/cclf04fV.s:2085   .gcc_except_table:0000000000000000 .LLSDA22
                           .group:0000000000000000 _ZN19ConsumerProducerCPP8ConsumerD5Ev
                           .group:0000000000000000 _ZN19ConsumerProducerCPP16ProducerKeyboradD5Ev
                           .group:0000000000000000 _ZN19ConsumerProducerCPP8ProducerD5Ev

UNDEFINED SYMBOLS
_Z15thread_dispatchv
_Z11printStringPKc
_Z8printIntiii
_Z10time_sleepm
_ZN7Console4putcEc
_ZN9BufferCPP3getEv
_ZN9BufferCPP6getCntEv
_ZN9Semaphore6signalEv
_ZN6ThreadD2Ev
_ZdlPv
_Z4getcv
_ZN9BufferCPP3putEi
_ZN6Thread5sleepEm
_Z13thread_createPP3TCBPFvPvES2_
_Z9getStringPci
_Z11stringToIntPKc
_Znwm
_ZN9BufferCPPC1Ei
_ZN9SemaphoreC1Ej
_ZN6ThreadC2Ev
_ZN6Thread5startEv
_ZN6Thread8dispatchEv
_ZN9Semaphore4waitEv
_ZN9BufferCPPD1Ev
_Unwind_Resume
__gxx_personality_v0
